
========================================================================

** ELF Header Information

    File Name: bin\coremark.axf

    Machine class: ELFCLASS32 (32-bit)
    Data encoding: ELFDATA2LSB (Little endian)
    Header version: EV_CURRENT (Current version)
    Operating System ABI: none
    ABI Version: 0
    File Type: ET_EXEC (Executable) (2)
    Machine: EM_ARM (ARM)

    Image Entry point: 0x00018239
    Flags: EF_ARM_HASENTRY + EF_ARM_ABI_FLOAT_HARD (0x05000402)

    ARM ELF revision: 5 (ABI version 2)

    Conforms to Hard float procedure-call standard

    Built with
    Component: ARM Compiler 5.06 update 6 (build 750) Tool: armasm [4d35ec]
    Component: ARM Compiler 5.06 update 6 (build 750) Tool: armlink [4d35ed]

    Header size: 52 bytes (0x34)
    Program header entry size: 32 bytes (0x20)
    Section header entry size: 40 bytes (0x28)

    Program header entries: 1
    Section header entries: 17

    Program header offset: 173580 (0x0002a60c)
    Section header offset: 173612 (0x0002a62c)

    Section header string table index: 16

========================================================================

** Program header #0 (PT_LOAD) [PF_X + PF_W + PF_R + PF_ARM_ENTRY]
    Size : 27760 bytes (22388 bytes in file)
    Virtual address: 0x00018000 (Alignment 16)


========================================================================

** Section #1 'MCU_MRAM' (SHT_PROGBITS) [SHF_ALLOC + SHF_EXECINSTR]
    Size   : 21904 bytes (alignment 8)
    Address: 0x00018000

    $d
    RESET
    __Vectors
        0x00018000:    100016a0    ....    DCD    268441248
        0x00018004:    00018201    ....    DCD    98817
        0x00018008:    0001821f    ....    DCD    98847
        0x0001800c:    00018335    5...    DCD    99125
        0x00018010:    00018221    !...    DCD    98849
        0x00018014:    00018223    #...    DCD    98851
        0x00018018:    00018225    %...    DCD    98853
        0x0001801c:    00018227    '...    DCD    98855
        0x00018020:    00000000    ....    DCD    0
        0x00018024:    00000000    ....    DCD    0
        0x00018028:    00000000    ....    DCD    0
        0x0001802c:    00018229    )...    DCD    98857
        0x00018030:    0001822b    +...    DCD    98859
        0x00018034:    00000000    ....    DCD    0
        0x00018038:    0001822d    -...    DCD    98861
        0x0001803c:    000184b1    ....    DCD    99505
        0x00018040:    00018231    1...    DCD    98865
        0x00018044:    00018231    1...    DCD    98865
        0x00018048:    00018231    1...    DCD    98865
        0x0001804c:    00018231    1...    DCD    98865
        0x00018050:    00018231    1...    DCD    98865
        0x00018054:    00018231    1...    DCD    98865
        0x00018058:    00018231    1...    DCD    98865
        0x0001805c:    00018231    1...    DCD    98865
        0x00018060:    00018231    1...    DCD    98865
        0x00018064:    00018231    1...    DCD    98865
        0x00018068:    00018231    1...    DCD    98865
        0x0001806c:    00018231    1...    DCD    98865
        0x00018070:    00018231    1...    DCD    98865
        0x00018074:    00018231    1...    DCD    98865
        0x00018078:    00018231    1...    DCD    98865
        0x0001807c:    00018231    1...    DCD    98865
        0x00018080:    00018231    1...    DCD    98865
        0x00018084:    00018231    1...    DCD    98865
        0x00018088:    00018231    1...    DCD    98865
        0x0001808c:    00018231    1...    DCD    98865
        0x00018090:    00018231    1...    DCD    98865
        0x00018094:    00018231    1...    DCD    98865
        0x00018098:    00018231    1...    DCD    98865
        0x0001809c:    00018231    1...    DCD    98865
        0x000180a0:    00018231    1...    DCD    98865
        0x000180a4:    00018231    1...    DCD    98865
        0x000180a8:    00018231    1...    DCD    98865
        0x000180ac:    00018231    1...    DCD    98865
        0x000180b0:    00018231    1...    DCD    98865
        0x000180b4:    00018231    1...    DCD    98865
        0x000180b8:    00018231    1...    DCD    98865
        0x000180bc:    00018231    1...    DCD    98865
        0x000180c0:    00018231    1...    DCD    98865
        0x000180c4:    00018231    1...    DCD    98865
        0x000180c8:    00018231    1...    DCD    98865
        0x000180cc:    00018231    1...    DCD    98865
        0x000180d0:    00018231    1...    DCD    98865
        0x000180d4:    00018231    1...    DCD    98865
        0x000180d8:    00018231    1...    DCD    98865
        0x000180dc:    00018231    1...    DCD    98865
        0x000180e0:    00018231    1...    DCD    98865
        0x000180e4:    00018231    1...    DCD    98865
        0x000180e8:    00018231    1...    DCD    98865
        0x000180ec:    00018231    1...    DCD    98865
        0x000180f0:    00018231    1...    DCD    98865
        0x000180f4:    00018231    1...    DCD    98865
        0x000180f8:    00018231    1...    DCD    98865
        0x000180fc:    00018231    1...    DCD    98865
        0x00018100:    00018231    1...    DCD    98865
        0x00018104:    00018231    1...    DCD    98865
        0x00018108:    00018231    1...    DCD    98865
        0x0001810c:    00018231    1...    DCD    98865
        0x00018110:    00018231    1...    DCD    98865
        0x00018114:    00018231    1...    DCD    98865
        0x00018118:    00018231    1...    DCD    98865
        0x0001811c:    00018231    1...    DCD    98865
        0x00018120:    00018231    1...    DCD    98865
        0x00018124:    00018231    1...    DCD    98865
        0x00018128:    00018231    1...    DCD    98865
        0x0001812c:    00018231    1...    DCD    98865
        0x00018130:    00018231    1...    DCD    98865
        0x00018134:    00018231    1...    DCD    98865
        0x00018138:    00018231    1...    DCD    98865
        0x0001813c:    00018231    1...    DCD    98865
        0x00018140:    00018231    1...    DCD    98865
        0x00018144:    00018231    1...    DCD    98865
        0x00018148:    00018231    1...    DCD    98865
        0x0001814c:    00018231    1...    DCD    98865
        0x00018150:    00018231    1...    DCD    98865
        0x00018154:    00018231    1...    DCD    98865
        0x00018158:    00018231    1...    DCD    98865
        0x0001815c:    00018231    1...    DCD    98865
        0x00018160:    00018231    1...    DCD    98865
        0x00018164:    00018231    1...    DCD    98865
        0x00018168:    00018231    1...    DCD    98865
        0x0001816c:    00018231    1...    DCD    98865
        0x00018170:    00018231    1...    DCD    98865
        0x00018174:    00018231    1...    DCD    98865
        0x00018178:    00018231    1...    DCD    98865
        0x0001817c:    00018231    1...    DCD    98865
        0x00018180:    00018231    1...    DCD    98865
        0x00018184:    00018231    1...    DCD    98865
        0x00018188:    00018231    1...    DCD    98865
        0x0001818c:    00018231    1...    DCD    98865
    __Patchable
        0x00018190:    00000000    ....    DCD    0
        0x00018194:    00000000    ....    DCD    0
        0x00018198:    00000000    ....    DCD    0
        0x0001819c:    00000000    ....    DCD    0
        0x000181a0:    00000000    ....    DCD    0
        0x000181a4:    00000000    ....    DCD    0
        0x000181a8:    00000000    ....    DCD    0
        0x000181ac:    00000000    ....    DCD    0
        0x000181b0:    00000000    ....    DCD    0
        0x000181b4:    00000000    ....    DCD    0
        0x000181b8:    00000000    ....    DCD    0
        0x000181bc:    00000000    ....    DCD    0
        0x000181c0:    00000000    ....    DCD    0
        0x000181c4:    00000000    ....    DCD    0
        0x000181c8:    00000000    ....    DCD    0
        0x000181cc:    00000000    ....    DCD    0
        0x000181d0:    00000000    ....    DCD    0
        0x000181d4:    00000000    ....    DCD    0
        0x000181d8:    00000000    ....    DCD    0
        0x000181dc:    00000000    ....    DCD    0
        0x000181e0:    00000000    ....    DCD    0
        0x000181e4:    00000000    ....    DCD    0
        0x000181e8:    00000000    ....    DCD    0
        0x000181ec:    00000000    ....    DCD    0
        0x000181f0:    00000000    ....    DCD    0
        0x000181f4:    00000000    ....    DCD    0
        0x000181f8:    00000000    ....    DCD    0
        0x000181fc:    00000000    ....    DCD    0
    $t
    $v0
    Reset_Handler
        0x00018200:    f64e5088    N..P    MOV      r0,#0xed88
        0x00018204:    f2ce0000    ....    MOVT     r0,#0xe000
        0x00018208:    6801        .h      LDR      r1,[r0,#0]
        0x0001820a:    f4410170    A.p.    ORR      r1,r1,#0xf00000
        0x0001820e:    6001        .`      STR      r1,[r0,#0]
        0x00018210:    f3bf8f4f    ..O.    DSB      
        0x00018214:    f3bf8f6f    ..o.    ISB      
        0x00018218:    4806        .H      LDR      r0,[pc,#24] ; [0x18234] = 0x18239
        0x0001821a:    4700        .G      BX       r0
        0x0001821c:    e7fe        ..      B        0x1821c ; Reset_Handler + 28
    NMI_Handler
        0x0001821e:    e7fe        ..      B        NMI_Handler ; 0x1821e
    MemManage_Handler
        0x00018220:    e7fe        ..      B        MemManage_Handler ; 0x18220
    BusFault_Handler
        0x00018222:    e7fe        ..      B        BusFault_Handler ; 0x18222
    UsageFault_Handler
        0x00018224:    e7fe        ..      B        UsageFault_Handler ; 0x18224
    SecureFault_Handler
        0x00018226:    e7fe        ..      B        SecureFault_Handler ; 0x18226
    SVC_Handler
        0x00018228:    e7fe        ..      B        SVC_Handler ; 0x18228
    DebugMon_Handler
        0x0001822a:    e7fe        ..      B        DebugMon_Handler ; 0x1822a
    PendSV_Handler
        0x0001822c:    e7fe        ..      B        PendSV_Handler ; 0x1822c
        0x0001822e:    e7fe        ..      B        0x1822e ; PendSV_Handler + 2
    am_cryptosec_isr
    am_default_isr
    am_adc_isr
    am_audadc0_isr
    am_brownout_isr
    am_cachecpu_isr
    am_clkgen_isr
    am_ctimer_isr
    am_disp_isr
    am_dsi_isr
    am_dspi2s0_isr
    am_dspi2s1_isr
    am_dspi2s2_isr
    am_dspi2s3_isr
    am_gpio0_001f_isr
    am_gpio0_203f_isr
    am_gpio0_405f_isr
    am_gpio0_607f_isr
    am_gpio1_001f_isr
    am_gpio1_203f_isr
    am_gpio1_405f_isr
    am_gpio1_607f_isr
    am_gpu_isr
    am_iomaster0_isr
    am_iomaster1_isr
    am_iomaster2_isr
    am_iomaster3_isr
    am_iomaster4_isr
    am_iomaster5_isr
    am_iomaster6_isr
    am_iomaster7_isr
    am_ioslave_acc_isr
    am_ioslave_ios_isr
    am_mspi0_isr
    am_mspi1_isr
    am_mspi2_isr
    am_pdm0_isr
    am_pdm1_isr
    am_pdm2_isr
    am_pdm3_isr
    am_rtc_isr
    am_sdio_isr
    am_stimer_cmpr0_isr
    am_stimer_cmpr1_isr
    am_stimer_cmpr2_isr
    am_stimer_cmpr3_isr
    am_stimer_cmpr4_isr
    am_stimer_cmpr5_isr
    am_stimer_cmpr6_isr
    am_stimer_cmpr7_isr
    am_stimerof_isr
    am_timer00_isr
    am_timer01_isr
    am_timer02_isr
    am_timer03_isr
    am_timer04_isr
    am_timer05_isr
    am_timer06_isr
    am_timer07_isr
    am_timer08_isr
    am_timer09_isr
    am_timer10_isr
    am_timer11_isr
    am_timer12_isr
    am_timer13_isr
    am_timer14_isr
    am_timer15_isr
    am_uart1_isr
    am_uart2_isr
    am_uart3_isr
    am_uart_isr
    am_usb_isr
    am_vcomp_isr
    am_watchdog_isr
        0x00018230:    e7fe        ..      B        am_cryptosec_isr ; 0x18230
    $d
        0x00018232:    0000        ..      DCW    0
        0x00018234:    00018239    9...    DCD    98873
    $t
    !!!main
    __main
        0x00018238:    f000f802    ....    BL       __scatterload ; 0x18240
        0x0001823c:    f000f86a    ..j.    BL       __rt_entry ; 0x18314
    !!!scatter
    __scatterload
    __scatterload_rt2
    __scatterload_rt2_thumb_only
        0x00018240:    a00a        ..      ADR      r0,{pc}+0x2c ; 0x1826c
        0x00018242:    e8900c00    ....    LDM      r0,{r10,r11}
        0x00018246:    4482        .D      ADD      r10,r10,r0
        0x00018248:    4483        .D      ADD      r11,r11,r0
        0x0001824a:    f1aa0701    ....    SUB      r7,r10,#1
    __scatterload_null
        0x0001824e:    45da        .E      CMP      r10,r11
        0x00018250:    d101        ..      BNE      0x18256 ; __scatterload_null + 8
        0x00018252:    f000f85f    .._.    BL       __rt_entry ; 0x18314
        0x00018256:    f2af0e09    ....    ADR      lr,{pc}-7 ; 0x1824f
        0x0001825a:    e8ba000f    ....    LDM      r10!,{r0-r3}
        0x0001825e:    f0130f01    ....    TST      r3,#1
        0x00018262:    bf18        ..      IT       NE
        0x00018264:    1afb        ..      SUBNE    r3,r7,r3
        0x00018266:    f0430301    C...    ORR      r3,r3,#1
        0x0001826a:    4718        .G      BX       r3
    $d
        0x0001826c:    000052f4    .R..    DCD    21236
        0x00018270:    00005324    $S..    DCD    21284
    $t
    !!dczerorl2
    __decompress
    __decompress1
        0x00018274:    440a        .D      ADD      r2,r2,r1
        0x00018276:    f04f0c00    O...    MOV      r12,#0
        0x0001827a:    f8103b01    ...;    LDRB     r3,[r0],#1
        0x0001827e:    f0130407    ....    ANDS     r4,r3,#7
        0x00018282:    bf08        ..      IT       EQ
        0x00018284:    f8104b01    ...K    LDRBEQ   r4,[r0],#1
        0x00018288:    111d        ..      ASRS     r5,r3,#4
        0x0001828a:    bf08        ..      IT       EQ
        0x0001828c:    f8105b01    ...[    LDRBEQ   r5,[r0],#1
        0x00018290:    1e64        d.      SUBS     r4,r4,#1
        0x00018292:    d005        ..      BEQ      0x182a0 ; __decompress + 44
        0x00018294:    f8106b01    ...k    LDRB     r6,[r0],#1
        0x00018298:    1e64        d.      SUBS     r4,r4,#1
        0x0001829a:    f8016b01    ...k    STRB     r6,[r1],#1
        0x0001829e:    d1f9        ..      BNE      0x18294 ; __decompress + 32
        0x000182a0:    f0130f08    ....    TST      r3,#8
        0x000182a4:    bf1e        ..      ITTT     NE
        0x000182a6:    f8104b01    ...K    LDRBNE   r4,[r0],#1
        0x000182aa:    1cad        ..      ADDNE    r5,r5,#2
        0x000182ac:    1b0c        ..      SUBNE    r4,r1,r4
        0x000182ae:    d109        ..      BNE      0x182c4 ; __decompress + 80
        0x000182b0:    1e6d        m.      SUBS     r5,r5,#1
        0x000182b2:    bf58        X.      IT       PL
        0x000182b4:    f801cb01    ....    STRBPL   r12,[r1],#1
        0x000182b8:    d5fa        ..      BPL      0x182b0 ; __decompress + 60
        0x000182ba:    e005        ..      B        0x182c8 ; __decompress + 84
        0x000182bc:    f8146b01    ...k    LDRB     r6,[r4],#1
        0x000182c0:    f8016b01    ...k    STRB     r6,[r1],#1
        0x000182c4:    1e6d        m.      SUBS     r5,r5,#1
        0x000182c6:    d5f9        ..      BPL      0x182bc ; __decompress + 72
        0x000182c8:    4291        .B      CMP      r1,r2
        0x000182ca:    d3d6        ..      BCC      0x1827a ; __decompress + 6
        0x000182cc:    4770        pG      BX       lr
        0x000182ce:    0000        ..      MOVS     r0,r0
    !!handler_copy
    __scatterload_copy
        0x000182d0:    3a10        .:      SUBS     r2,r2,#0x10
        0x000182d2:    bf24        $.      ITT      CS
        0x000182d4:    c878        x.      LDMCS    r0!,{r3-r6}
        0x000182d6:    c178        x.      STMCS    r1!,{r3-r6}
        0x000182d8:    d8fa        ..      BHI      __scatterload_copy ; 0x182d0
        0x000182da:    0752        R.      LSLS     r2,r2,#29
        0x000182dc:    bf24        $.      ITT      CS
        0x000182de:    c830        0.      LDMCS    r0!,{r4,r5}
        0x000182e0:    c130        0.      STMCS    r1!,{r4,r5}
        0x000182e2:    bf44        D.      ITT      MI
        0x000182e4:    6804        .h      LDRMI    r4,[r0,#0]
        0x000182e6:    600c        .`      STRMI    r4,[r1,#0]
        0x000182e8:    4770        pG      BX       lr
        0x000182ea:    0000        ..      MOVS     r0,r0
    !!handler_zi
    __scatterload_zeroinit
        0x000182ec:    2300        .#      MOVS     r3,#0
        0x000182ee:    2400        .$      MOVS     r4,#0
        0x000182f0:    2500        .%      MOVS     r5,#0
        0x000182f2:    2600        .&      MOVS     r6,#0
        0x000182f4:    3a10        .:      SUBS     r2,r2,#0x10
        0x000182f6:    bf28        (.      IT       CS
        0x000182f8:    c178        x.      STMCS    r1!,{r3-r6}
        0x000182fa:    d8fb        ..      BHI      0x182f4 ; __scatterload_zeroinit + 8
        0x000182fc:    0752        R.      LSLS     r2,r2,#29
        0x000182fe:    bf28        (.      IT       CS
        0x00018300:    c130        0.      STMCS    r1!,{r4,r5}
        0x00018302:    bf48        H.      IT       MI
        0x00018304:    600b        .`      STRMI    r3,[r1,#0]
        0x00018306:    4770        pG      BX       lr
    .ARM.Collect$$libinit$$00000000
    __rt_lib_init
        0x00018308:    b51f        ..      PUSH     {r0-r4,lr}
    .ARM.Collect$$libinit$$00000001
    __rt_lib_init_fp_1
        0x0001830a:    f004fee4    ....    BL       _fp_init ; 0x1d0d6
    .ARM.Collect$$libinit$$00000004
    .ARM.Collect$$libinit$$0000000A
    .ARM.Collect$$libinit$$0000000C
    .ARM.Collect$$libinit$$0000000E
    .ARM.Collect$$libinit$$00000011
    .ARM.Collect$$libinit$$00000013
    .ARM.Collect$$libinit$$00000015
    .ARM.Collect$$libinit$$00000017
    .ARM.Collect$$libinit$$00000019
    .ARM.Collect$$libinit$$0000001B
    .ARM.Collect$$libinit$$0000001D
    .ARM.Collect$$libinit$$0000001F
    .ARM.Collect$$libinit$$00000021
    .ARM.Collect$$libinit$$00000023
    .ARM.Collect$$libinit$$00000025
    .ARM.Collect$$libinit$$0000002C
    .ARM.Collect$$libinit$$0000002E
    .ARM.Collect$$libinit$$00000030
    .ARM.Collect$$libinit$$00000032
    .ARM.Collect$$libinit$$00000033
    __rt_lib_init_alloca_1
    __rt_lib_init_argv_1
    __rt_lib_init_atexit_1
    __rt_lib_init_clock_1
    __rt_lib_init_cpp_1
    __rt_lib_init_exceptions_1
    __rt_lib_init_fp_trap_1
    __rt_lib_init_getenv_1
    __rt_lib_init_heap_1
    __rt_lib_init_lc_collate_1
    __rt_lib_init_lc_ctype_1
    __rt_lib_init_lc_monetary_1
    __rt_lib_init_lc_numeric_1
    __rt_lib_init_lc_time_1
    __rt_lib_init_preinit_1
    __rt_lib_init_rand_1
    __rt_lib_init_return
    __rt_lib_init_signal_1
    __rt_lib_init_stdio_1
    __rt_lib_init_user_alloc_1
        0x0001830e:    bd1f        ..      POP      {r0-r4,pc}
    .ARM.Collect$$libshutdown$$00000000
    __rt_lib_shutdown
        0x00018310:    b510        ..      PUSH     {r4,lr}
    .ARM.Collect$$libshutdown$$00000002
    .ARM.Collect$$libshutdown$$00000004
    .ARM.Collect$$libshutdown$$00000007
    .ARM.Collect$$libshutdown$$0000000A
    .ARM.Collect$$libshutdown$$0000000C
    .ARM.Collect$$libshutdown$$0000000F
    .ARM.Collect$$libshutdown$$00000010
    __rt_lib_shutdown_cpp_1
    __rt_lib_shutdown_fp_trap_1
    __rt_lib_shutdown_heap_1
    __rt_lib_shutdown_return
    __rt_lib_shutdown_signal_1
    __rt_lib_shutdown_stdio_1
    __rt_lib_shutdown_user_alloc_1
        0x00018312:    bd10        ..      POP      {r4,pc}
    .ARM.Collect$$rtentry$$00000000
    .ARM.Collect$$rtentry$$00000002
    .ARM.Collect$$rtentry$$00000004
    __rt_entry
    __rt_entry_presh_1
    __rt_entry_sh
        0x00018314:    f000f892    ....    BL       __user_setup_stackheap ; 0x1843c
        0x00018318:    4611        .F      MOV      r1,r2
    .ARM.Collect$$rtentry$$00000009
    .ARM.Collect$$rtentry$$0000000A
    __rt_entry_li
    __rt_entry_postsh_1
        0x0001831a:    f7fffff5    ....    BL       __rt_lib_init ; 0x18308
    .ARM.Collect$$rtentry$$0000000C
    .ARM.Collect$$rtentry$$0000000D
    __rt_entry_main
    __rt_entry_postli_1
        0x0001831e:    f003f9a3    ....    BL       main ; 0x1b668
        0x00018322:    f000f8b0    ....    BL       exit ; 0x18486
    .ARM.Collect$$rtexit$$00000000
    __rt_exit
        0x00018326:    b403        ..      PUSH     {r0,r1}
    .ARM.Collect$$rtexit$$00000002
    .ARM.Collect$$rtexit$$00000003
    __rt_exit_ls
    __rt_exit_prels_1
        0x00018328:    f7fffff2    ....    BL       __rt_lib_shutdown ; 0x18310
    .ARM.Collect$$rtexit$$00000004
    __rt_exit_exit
        0x0001832c:    bc03        ..      POP      {r0,r1}
        0x0001832e:    f000f8b7    ....    BL       _sys_exit ; 0x184a0
        0x00018332:    0000        ..      MOVS     r0,r0
    .emb_text
    $v0
    HardFault_Handler
        0x00018334:    b501        ..      PUSH     {r0,lr}
        0x00018336:    f01e0f04    ....    TST      lr,#4
        0x0001833a:    bf0a        ..      ITET     EQ
        0x0001833c:    f3ef8008    ....    MRSEQ    r0,MSP
        0x00018340:    f3ef8009    ....    MRSNE    r0,PSP
        0x00018344:    f1100008    ....    ADDSEQ   r0,r0,#8
        0x00018348:    f001ff68    ..h.    BL       am_util_faultisr_collect_data ; 0x1a21c
        0x0001834c:    bd01        ..      POP      {r0,pc}
    getStackedReg
        0x0001834e:    0080        ..      LSLS     r0,r0,#2
        0x00018350:    1840        @.      ADDS     r0,r0,r1
        0x00018352:    6800        .h      LDR      r0,[r0,#0]
        0x00018354:    4770        pG      BX       lr
        0x00018356:    0000        ..      MOVS     r0,r0
    .emb_text
    $v0
    am_hal_triple_read
        0x00018358:    b412        ..      PUSH     {r1,r4}
        0x0001835a:    f3ef8410    ....    MRS      r4,PRIMASK
        0x0001835e:    b672        r.      CPSID    i
        0x00018360:    6801        .h      LDR      r1,[r0,#0]
        0x00018362:    6802        .h      LDR      r2,[r0,#0]
        0x00018364:    6803        .h      LDR      r3,[r0,#0]
        0x00018366:    f3848810    ....    MSR      PRIMASK,r4
        0x0001836a:    bc11        ..      POP      {r0,r4}
        0x0001836c:    6001        .`      STR      r1,[r0,#0]
        0x0001836e:    6042        B`      STR      r2,[r0,#4]
        0x00018370:    6083        .`      STR      r3,[r0,#8]
        0x00018372:    4770        pG      BX       lr
    .emb_text
    $v0
    am_hal_interrupt_master_enable
        0x00018374:    f3ef8010    ....    MRS      r0,PRIMASK
        0x00018378:    b662        b.      CPSIE    i
        0x0001837a:    4770        pG      BX       lr
    am_hal_interrupt_master_disable
        0x0001837c:    f3ef8010    ....    MRS      r0,PRIMASK
        0x00018380:    b672        r.      CPSID    i
        0x00018382:    4770        pG      BX       lr
    am_hal_interrupt_master_set
        0x00018384:    f3808810    ....    MSR      PRIMASK,r0
        0x00018388:    4770        pG      BX       lr
        0x0001838a:    0000        ..      MOVS     r0,r0
    .text
    $v0
    __user_initial_stackheap
        0x0001838c:    4802        .H      LDR      r0,[pc,#8] ; [0x18398] = 0x10000aa0
        0x0001838e:    4903        .I      LDR      r1,[pc,#12] ; [0x1839c] = 0x100016a0
        0x00018390:    4a01        .J      LDR      r2,[pc,#4] ; [0x18398] = 0x10000aa0
        0x00018392:    4b03        .K      LDR      r3,[pc,#12] ; [0x183a0] = 0x10000aa0
        0x00018394:    4770        pG      BX       lr
    $d
        0x00018396:    0000        ..      DCW    0
        0x00018398:    10000aa0    ....    DCD    268438176
        0x0001839c:    100016a0    ....    DCD    268441248
        0x000183a0:    10000aa0    ....    DCD    268438176
    $t
    .text
    __aeabi_memclr
    __rt_memclr
        0x000183a4:    f04f0200    O...    MOV      r2,#0
    _memset
        0x000183a8:    2904        .)      CMP      r1,#4
        0x000183aa:    f0c08012    ....    BCC.W    0x183d2 ; _memset + 42
        0x000183ae:    f0100c03    ....    ANDS     r12,r0,#3
        0x000183b2:    f000801e    ....    BEQ.W    _memset_w ; 0x183f2
        0x000183b6:    f1cc0c04    ....    RSB      r12,r12,#4
        0x000183ba:    f1bc0f02    ....    CMP      r12,#2
        0x000183be:    bf18        ..      IT       NE
        0x000183c0:    f8002b01    ...+    STRBNE   r2,[r0],#1
        0x000183c4:    bfa8        ..      IT       GE
        0x000183c6:    f8202b02     ..+    STRHGE   r2,[r0],#2
        0x000183ca:    eba1010c    ....    SUB      r1,r1,r12
        0x000183ce:    f000b810    ....    B.W      _memset_w ; 0x183f2
        0x000183d2:    ea5f7cc1    _..|    LSLS     r12,r1,#31
        0x000183d6:    bf24        $.      ITT      CS
        0x000183d8:    f8002b01    ...+    STRBCS   r2,[r0],#1
        0x000183dc:    f8002b01    ...+    STRBCS   r2,[r0],#1
        0x000183e0:    bf48        H.      IT       MI
        0x000183e2:    f8002b01    ...+    STRBMI   r2,[r0],#1
        0x000183e6:    4770        pG      BX       lr
    .text
    __use_two_region_memory
        0x000183e8:    4770        pG      BX       lr
    __rt_heap_escrow$2region
        0x000183ea:    4770        pG      BX       lr
    __rt_heap_expand$2region
        0x000183ec:    4770        pG      BX       lr
    .text
    __aeabi_memclr4
    __aeabi_memclr8
    __rt_memclr_w
        0x000183ee:    f04f0200    O...    MOV      r2,#0
    _memset_w
        0x000183f2:    b500        ..      PUSH     {lr}
        0x000183f4:    4613        .F      MOV      r3,r2
        0x000183f6:    4694        .F      MOV      r12,r2
        0x000183f8:    4696        .F      MOV      lr,r2
        0x000183fa:    3920         9      SUBS     r1,r1,#0x20
        0x000183fc:    bf22        ".      ITTT     CS
        0x000183fe:    e8a0500c    ...P    STMCS    r0!,{r2,r3,r12,lr}
        0x00018402:    e8a0500c    ...P    STMCS    r0!,{r2,r3,r12,lr}
        0x00018406:    f1b10120    .. .    SUBSCS   r1,r1,#0x20
        0x0001840a:    f4bfaff7    ....    BCS.W    0x183fc ; _memset_w + 10
        0x0001840e:    0709        ..      LSLS     r1,r1,#28
        0x00018410:    bf28        (.      IT       CS
        0x00018412:    e8a0500c    ...P    STMCS    r0!,{r2,r3,r12,lr}
        0x00018416:    bf48        H.      IT       MI
        0x00018418:    c00c        ..      STMMI    r0!,{r2,r3}
        0x0001841a:    f85deb04    ]...    POP      {lr}
        0x0001841e:    0089        ..      LSLS     r1,r1,#2
        0x00018420:    bf28        (.      IT       CS
        0x00018422:    f8402b04    @..+    STRCS    r2,[r0],#4
        0x00018426:    bf08        ..      IT       EQ
        0x00018428:    4770        pG      BXEQ     lr
        0x0001842a:    bf48        H.      IT       MI
        0x0001842c:    f8202b02     ..+    STRHMI   r2,[r0],#2
        0x00018430:    f0114f80    ...O    TST      r1,#0x40000000
        0x00018434:    bf18        ..      IT       NE
        0x00018436:    f8002b01    ...+    STRBNE   r2,[r0],#1
        0x0001843a:    4770        pG      BX       lr
    .text
    __user_setup_stackheap
        0x0001843c:    4675        uF      MOV      r5,lr
        0x0001843e:    f000f82b    ..+.    BL       __user_libspace ; 0x18498
        0x00018442:    46ae        .F      MOV      lr,r5
        0x00018444:    0005        ..      MOVS     r5,r0
        0x00018446:    4669        iF      MOV      r1,sp
        0x00018448:    4653        SF      MOV      r3,r10
        0x0001844a:    f0200007     ...    BIC      r0,r0,#7
        0x0001844e:    4685        .F      MOV      sp,r0
        0x00018450:    b018        ..      ADD      sp,sp,#0x60
        0x00018452:    b520         .      PUSH     {r5,lr}
        0x00018454:    f7ffff9a    ....    BL       __user_initial_stackheap ; 0x1838c
        0x00018458:    e8bd4020    .. @    POP      {r5,lr}
        0x0001845c:    f04f0600    O...    MOV      r6,#0
        0x00018460:    f04f0700    O...    MOV      r7,#0
        0x00018464:    f04f0800    O...    MOV      r8,#0
        0x00018468:    f04f0b00    O...    MOV      r11,#0
        0x0001846c:    f0210107    !...    BIC      r1,r1,#7
        0x00018470:    46ac        .F      MOV      r12,r5
        0x00018472:    e8ac09c0    ....    STM      r12!,{r6-r8,r11}
        0x00018476:    e8ac09c0    ....    STM      r12!,{r6-r8,r11}
        0x0001847a:    e8ac09c0    ....    STM      r12!,{r6-r8,r11}
        0x0001847e:    e8ac09c0    ....    STM      r12!,{r6-r8,r11}
        0x00018482:    468d        .F      MOV      sp,r1
        0x00018484:    4770        pG      BX       lr
    .text
    exit
        0x00018486:    b510        ..      PUSH     {r4,lr}
        0x00018488:    4604        .F      MOV      r4,r0
        0x0001848a:    f3af8000    ....    NOP.W    
        0x0001848e:    4620         F      MOV      r0,r4
        0x00018490:    e8bd4010    ...@    POP      {r4,lr}
        0x00018494:    f7ffbf47    ..G.    B.W      __rt_exit ; 0x18326
    .text
    __user_libspace
    __user_perproc_libspace
    __user_perthread_libspace
        0x00018498:    4800        .H      LDR      r0,[pc,#0] ; [0x1849c] = 0x10000a3c
        0x0001849a:    4770        pG      BX       lr
    $d
        0x0001849c:    10000a3c    <...    DCD    268438076
    $t
    .text
    _sys_exit
        0x000184a0:    4901        .I      LDR      r1,[pc,#4] ; [0x184a8] = 0x20026
        0x000184a2:    2018        .       MOVS     r0,#0x18
        0x000184a4:    beab        ..      BKPT     #0xab
        0x000184a6:    e7fe        ..      B        0x184a6 ; _sys_exit + 6
    $d
        0x000184a8:    00020026    &...    DCD    131110
    $t
    .text
    __I$use$semihosting
    __use_no_semihosting_swi
        0x000184ac:    4770        pG      BX       lr
    .text
    __semihosting_library_function
        0x000184ae:    0000        ..      MOVS     r0,r0
    i.SysTick_Handler
    SysTick_Handler
        0x000184b0:    4802        .H      LDR      r0,[pc,#8] ; [0x184bc] = 0x10000000
        0x000184b2:    6801        .h      LDR      r1,[r0,#0]
        0x000184b4:    1c49        I.      ADDS     r1,r1,#1
        0x000184b6:    6001        .`      STR      r1,[r0,#0]
        0x000184b8:    4770        pG      BX       lr
    $d
        0x000184ba:    0000        ..      DCW    0
        0x000184bc:    10000000    ....    DCD    268435456
    $t
    i.VDDF_simobuck_boost
    VDDF_simobuck_boost
        0x000184c0:    e92d43f8    -..C    PUSH     {r3-r9,lr}
        0x000184c4:    4d31        1M      LDR      r5,[pc,#196] ; [0x1858c] = 0x100000a4
        0x000184c6:    4681        .F      MOV      r9,r0
        0x000184c8:    4c31        1L      LDR      r4,[pc,#196] ; [0x18590] = 0x40020000
        0x000184ca:    68a8        .h      LDR      r0,[r5,#8]
        0x000184cc:    4616        .F      MOV      r6,r2
        0x000184ce:    4688        .F      MOV      r8,r1
        0x000184d0:    f1b03fff    ...?    CMP      r0,#0xffffffff
        0x000184d4:    d104        ..      BNE      0x184e0 ; VDDF_simobuck_boost + 32
        0x000184d6:    f8d4036c    ..l.    LDR      r0,[r4,#0x36c]
        0x000184da:    f3c05005    ...P    UBFX     r0,r0,#20,#6
        0x000184de:    60a8        .`      STR      r0,[r5,#8]
        0x000184e0:    e9d50701    ....    LDRD     r0,r7,[r5,#4]
        0x000184e4:    f1b03fff    ...?    CMP      r0,#0xffffffff
        0x000184e8:    d10d        ..      BNE      0x18506 ; VDDF_simobuck_boost + 70
        0x000184ea:    2201        ."      MOVS     r2,#1
        0x000184ec:    4b29        )K      LDR      r3,[pc,#164] ; [0x18594] = 0x100000a8
        0x000184ee:    f24041c4    @..A    MOV      r1,#0x4c4
        0x000184f2:    4610        .F      MOV      r0,r2
        0x000184f4:    f000fb38    ..8.    BL       am_hal_mram_info_read ; 0x18b68
        0x000184f8:    b918        ..      CBNZ     r0,0x18502 ; VDDF_simobuck_boost + 66
        0x000184fa:    6868        hh      LDR      r0,[r5,#4]
        0x000184fc:    f1b03fff    ...?    CMP      r0,#0xffffffff
        0x00018500:    d101        ..      BNE      0x18506 ; VDDF_simobuck_boost + 70
        0x00018502:    2000        .       MOVS     r0,#0
        0x00018504:    6068        h`      STR      r0,[r5,#4]
        0x00018506:    6868        hh      LDR      r0,[r5,#4]
        0x00018508:    f1b90f00    ....    CMP      r9,#0
        0x0001850c:    d02c        ,.      BEQ      0x18568 ; VDDF_simobuck_boost + 168
        0x0001850e:    68e1        .h      LDR      r1,[r4,#0xc]
        0x00018510:    b2c9        ..      UXTB     r1,r1
        0x00018512:    2922        ")      CMP      r1,#0x22
        0x00018514:    d325        %.      BCC      0x18562 ; VDDF_simobuck_boost + 162
        0x00018516:    f1080103    ....    ADD      r1,r8,#3
        0x0001851a:    2806        .(      CMP      r0,#6
        0x0001851c:    bf28        (.      IT       CS
        0x0001851e:    460e        .F      MOVCS    r6,r1
        0x00018520:    f8d40378    ..x.    LDR      r0,[r4,#0x378]
        0x00018524:    f0404000    @..@    ORR      r0,r0,#0x80000000
        0x00018528:    f8c40378    ..x.    STR      r0,[r4,#0x378]
        0x0001852c:    f1c6003f    ..?.    RSB      r0,r6,#0x3f
        0x00018530:    42b8        .B      CMP      r0,r7
        0x00018532:    bf2c        ,.      ITE      CS
        0x00018534:    19bd        ..      ADDCS    r5,r7,r6
        0x00018536:    253f        ?%      MOVCC    r5,#0x3f
        0x00018538:    f8d4036c    ..l.    LDR      r0,[r4,#0x36c]
        0x0001853c:    f3c05005    ...P    UBFX     r0,r0,#20,#6
        0x00018540:    42a8        .B      CMP      r0,r5
        0x00018542:    d00e        ..      BEQ      0x18562 ; VDDF_simobuck_boost + 162
        0x00018544:    f7ffff1a    ....    BL       am_hal_interrupt_master_disable ; 0x1837c
        0x00018548:    9000        ..      STR      r0,[sp,#0]
        0x0001854a:    f8d4036c    ..l.    LDR      r0,[r4,#0x36c]
        0x0001854e:    f3655019    e..P    BFI      r0,r5,#20,#6
        0x00018552:    f8c4036c    ..l.    STR      r0,[r4,#0x36c]
        0x00018556:    2014        .       MOVS     r0,#0x14
        0x00018558:    f000fa00    ....    BL       am_hal_delay_us ; 0x1895c
        0x0001855c:    9800        ..      LDR      r0,[sp,#0]
        0x0001855e:    f7ffff11    ....    BL       am_hal_interrupt_master_set ; 0x18384
        0x00018562:    2000        .       MOVS     r0,#0
        0x00018564:    e8bd83f8    ....    POP      {r3-r9,pc}
        0x00018568:    2806        .(      CMP      r0,#6
        0x0001856a:    bf2c        ,.      ITE      CS
        0x0001856c:    2003        .       MOVCS    r0,#3
        0x0001856e:    2000        .       MOVCC    r0,#0
        0x00018570:    19c5        ..      ADDS     r5,r0,r7
        0x00018572:    f8d40378    ..x.    LDR      r0,[r4,#0x378]
        0x00018576:    f0404000    @..@    ORR      r0,r0,#0x80000000
        0x0001857a:    f8c40378    ..x.    STR      r0,[r4,#0x378]
        0x0001857e:    f8d4036c    ..l.    LDR      r0,[r4,#0x36c]
        0x00018582:    f3c05005    ...P    UBFX     r0,r0,#20,#6
        0x00018586:    42a8        .B      CMP      r0,r5
        0x00018588:    d0eb        ..      BEQ      0x18562 ; VDDF_simobuck_boost + 162
        0x0001858a:    e7db        ..      B        0x18544 ; VDDF_simobuck_boost + 132
    $d
        0x0001858c:    100000a4    ....    DCD    268435620
        0x00018590:    40020000    ...@    DCD    1073872896
        0x00018594:    100000a8    ....    DCD    268435624
    $t
    i.am_bsp_low_power_init
    am_bsp_low_power_init
        0x00018598:    b510        ..      PUSH     {r4,lr}
        0x0001859a:    f000fd5d    ..].    BL       am_hal_pwrctrl_low_power_init ; 0x19058
        0x0001859e:    2100        .!      MOVS     r1,#0
        0x000185a0:    4608        .F      MOV      r0,r1
        0x000185a2:    f000fb2b    ..+.    BL       am_hal_pwrctrl_control ; 0x18bfc
        0x000185a6:    e8bd4010    ...@    POP      {r4,lr}
        0x000185aa:    f001b813    ....    B.W      am_hal_rtc_osc_disable ; 0x195d4
        0x000185ae:    0000        ..      MOVS     r0,r0
    i.am_bsp_uart_printf_disable
    am_bsp_uart_printf_disable
        0x000185b0:    b538        8.      PUSH     {r3-r5,lr}
        0x000185b2:    4c10        .L      LDR      r4,[pc,#64] ; [0x185f4] = 0x100000f8
        0x000185b4:    7820         x      LDRB     r0,[r4,#0]
        0x000185b6:    2802        .(      CMP      r0,#2
        0x000185b8:    bf18        ..      IT       NE
        0x000185ba:    bd38        8.      POPNE    {r3-r5,pc}
        0x000185bc:    6860        `h      LDR      r0,[r4,#4]
        0x000185be:    f001fd13    ....    BL       am_hal_uart_tx_flush ; 0x19fe8
        0x000185c2:    2000        .       MOVS     r0,#0
        0x000185c4:    f001fe9c    ....    BL       am_util_stdio_printf_init ; 0x1a300
        0x000185c8:    2200        ."      MOVS     r2,#0
        0x000185ca:    2102        .!      MOVS     r1,#2
        0x000185cc:    6860        `h      LDR      r0,[r4,#4]
        0x000185ce:    f001fad3    ....    BL       am_hal_uart_power_control ; 0x19b78
        0x000185d2:    6860        `h      LDR      r0,[r4,#4]
        0x000185d4:    f001fa80    ....    BL       am_hal_uart_deinitialize ; 0x19ad8
        0x000185d8:    4d07        .M      LDR      r5,[pc,#28] ; [0x185f8] = 0x1d168
        0x000185da:    6829        )h      LDR      r1,[r5,#0]
        0x000185dc:    9100        ..      STR      r1,[sp,#0]
        0x000185de:    203c        <       MOVS     r0,#0x3c
        0x000185e0:    f000fa50    ..P.    BL       am_hal_gpio_pinconfig ; 0x18a84
        0x000185e4:    6829        )h      LDR      r1,[r5,#0]
        0x000185e6:    9100        ..      STR      r1,[sp,#0]
        0x000185e8:    202f        /       MOVS     r0,#0x2f
        0x000185ea:    f000fa4b    ..K.    BL       am_hal_gpio_pinconfig ; 0x18a84
        0x000185ee:    2000        .       MOVS     r0,#0
        0x000185f0:    7020         p      STRB     r0,[r4,#0]
        0x000185f2:    bd38        8.      POP      {r3-r5,pc}
    $d
        0x000185f4:    100000f8    ....    DCD    268435704
        0x000185f8:    0001d168    h...    DCD    119144
    $t
    i.am_bsp_uart_printf_enable
    am_bsp_uart_printf_enable
        0x000185fc:    b538        8.      PUSH     {r3-r5,lr}
        0x000185fe:    4914        .I      LDR      r1,[pc,#80] ; [0x18650] = 0x100000fc
        0x00018600:    2000        .       MOVS     r0,#0
        0x00018602:    f001fa81    ....    BL       am_hal_uart_initialize ; 0x19b08
        0x00018606:    b9c8        ..      CBNZ     r0,0x1863c ; am_bsp_uart_printf_enable + 64
        0x00018608:    4c12        .L      LDR      r4,[pc,#72] ; [0x18654] = 0x100000f8
        0x0001860a:    2200        ."      MOVS     r2,#0
        0x0001860c:    4611        .F      MOV      r1,r2
        0x0001860e:    6860        `h      LDR      r0,[r4,#4]
        0x00018610:    f001fab2    ....    BL       am_hal_uart_power_control ; 0x19b78
        0x00018614:    b990        ..      CBNZ     r0,0x1863c ; am_bsp_uart_printf_enable + 64
        0x00018616:    4910        .I      LDR      r1,[pc,#64] ; [0x18658] = 0x1d3a8
        0x00018618:    6860        `h      LDR      r0,[r4,#4]
        0x0001861a:    f001f99b    ....    BL       am_hal_uart_configure ; 0x19954
        0x0001861e:    b968        h.      CBNZ     r0,0x1863c ; am_bsp_uart_printf_enable + 64
        0x00018620:    480e        .H      LDR      r0,[pc,#56] ; [0x1865c] = 0x100002ec
        0x00018622:    6801        .h      LDR      r1,[r0,#0]
        0x00018624:    9100        ..      STR      r1,[sp,#0]
        0x00018626:    203c        <       MOVS     r0,#0x3c
        0x00018628:    f000fa2c    ..,.    BL       am_hal_gpio_pinconfig ; 0x18a84
        0x0001862c:    b930        0.      CBNZ     r0,0x1863c ; am_bsp_uart_printf_enable + 64
        0x0001862e:    480c        .H      LDR      r0,[pc,#48] ; [0x18660] = 0x100002f0
        0x00018630:    6801        .h      LDR      r1,[r0,#0]
        0x00018632:    9100        ..      STR      r1,[sp,#0]
        0x00018634:    202f        /       MOVS     r0,#0x2f
        0x00018636:    f000fa25    ..%.    BL       am_hal_gpio_pinconfig ; 0x18a84
        0x0001863a:    b110        ..      CBZ      r0,0x18642 ; am_bsp_uart_printf_enable + 70
        0x0001863c:    f04f30ff    O..0    MOV      r0,#0xffffffff
        0x00018640:    bd38        8.      POP      {r3-r5,pc}
        0x00018642:    2002        .       MOVS     r0,#2
        0x00018644:    7020         p      STRB     r0,[r4,#0]
        0x00018646:    4807        .H      LDR      r0,[pc,#28] ; [0x18664] = 0x18669
        0x00018648:    f001fe5a    ..Z.    BL       am_util_stdio_printf_init ; 0x1a300
        0x0001864c:    2000        .       MOVS     r0,#0
        0x0001864e:    bd38        8.      POP      {r3-r5,pc}
    $d
        0x00018650:    100000fc    ....    DCD    268435708
        0x00018654:    100000f8    ....    DCD    268435704
        0x00018658:    0001d3a8    ....    DCD    119720
        0x0001865c:    100002ec    ....    DCD    268436204
        0x00018660:    100002f0    ....    DCD    268436208
        0x00018664:    00018669    i...    DCD    99945
    $t
    i.am_bsp_uart_string_print
    am_bsp_uart_string_print
        0x00018668:    b530        0.      PUSH     {r4,r5,lr}
        0x0001866a:    b08b        ..      SUB      sp,sp,#0x2c
        0x0001866c:    2400        .$      MOVS     r4,#0
        0x0001866e:    9401        ..      STR      r4,[sp,#4]
        0x00018670:    7801        .x      LDRB     r1,[r0,#0]
        0x00018672:    b119        ..      CBZ      r1,0x1867c ; am_bsp_uart_string_print + 20
        0x00018674:    1c64        d.      ADDS     r4,r4,#1
        0x00018676:    5d01        .]      LDRB     r1,[r0,r4]
        0x00018678:    2900        .)      CMP      r1,#0
        0x0001867a:    d1fb        ..      BNE      0x18674 ; am_bsp_uart_string_print + 12
        0x0001867c:    490b        .I      LDR      r1,[pc,#44] ; [0x186ac] = 0x1d3a8
        0x0001867e:    68ca        .h      LDR      r2,[r1,#0xc]
        0x00018680:    311c        .1      ADDS     r1,r1,#0x1c
        0x00018682:    e891102a    ..*.    LDM      r1,{r1,r3,r5,r12}
        0x00018686:    e9cd2002    ...     STRD     r2,r0,[sp,#8]
        0x0001868a:    aa05        ..      ADD      r2,sp,#0x14
        0x0001868c:    9404        ..      STR      r4,[sp,#0x10]
        0x0001868e:    a801        ..      ADD      r0,sp,#4
        0x00018690:    e882102b    ..+.    STM      r2,{r0,r1,r3,r5,r12}
        0x00018694:    4806        .H      LDR      r0,[pc,#24] ; [0x186b0] = 0x100000f8
        0x00018696:    a902        ..      ADD      r1,sp,#8
        0x00018698:    6840        @h      LDR      r0,[r0,#4]
        0x0001869a:    f001fadb    ....    BL       am_hal_uart_transfer ; 0x19c54
        0x0001869e:    9801        ..      LDR      r0,[sp,#4]
        0x000186a0:    42a0        .B      CMP      r0,r4
        0x000186a2:    bf04        ..      ITT      EQ
        0x000186a4:    b00b        ..      ADDEQ    sp,sp,#0x2c
        0x000186a6:    bd30        0.      POPEQ    {r4,r5,pc}
        0x000186a8:    e7fe        ..      B        0x186a8 ; am_bsp_uart_string_print + 64
    $d
        0x000186aa:    0000        ..      DCW    0
        0x000186ac:    0001d3a8    ....    DCD    119720
        0x000186b0:    100000f8    ....    DCD    268435704
    $t
    i.am_devices_led_array_init
    am_devices_led_array_init
        0x000186b4:    2800        .(      CMP      r0,#0
        0x000186b6:    bf08        ..      IT       EQ
        0x000186b8:    4770        pG      BXEQ     lr
        0x000186ba:    291f        .)      CMP      r1,#0x1f
        0x000186bc:    bf88        ..      IT       HI
        0x000186be:    4770        pG      BXHI     lr
        0x000186c0:    e92d43f8    -..C    PUSH     {r3-r9,lr}
        0x000186c4:    000e        ..      MOVS     r6,r1
        0x000186c6:    4607        .F      MOV      r7,r0
        0x000186c8:    f04f0500    O...    MOV      r5,#0
        0x000186cc:    bf1a        ..      ITTE     NE
        0x000186ce:    f8df8068    ..h.    LDRNE    r8,[pc,#104] ; [0x18738] = 0x1d160
        0x000186d2:    f8df9068    ..h.    LDRNE    r9,[pc,#104] ; [0x1873c] = 0x1d164
        0x000186d6:    e8bd83f8    ....    POPEQ    {r3-r9,pc}
        0x000186da:    bf00        ..      NOP      
        0x000186dc:    eb1704c5    ....    ADDS     r4,r7,r5,LSL #3
        0x000186e0:    d025        %.      BEQ      0x1872e ; am_devices_led_array_init + 122
        0x000186e2:    6820         h      LDR      r0,[r4,#0]
        0x000186e4:    2880        .(      CMP      r0,#0x80
        0x000186e6:    d222        ".      BCS      0x1872e ; am_devices_led_array_init + 122
        0x000186e8:    7921        !y      LDRB     r1,[r4,#4]
        0x000186ea:    f0110f02    ....    TST      r1,#2
        0x000186ee:    d00f        ..      BEQ      0x18710 ; am_devices_led_array_init + 92
        0x000186f0:    f8d81000    ....    LDR      r1,[r8,#0]
        0x000186f4:    9100        ..      STR      r1,[sp,#0]
        0x000186f6:    f000f9c5    ....    BL       am_hal_gpio_pinconfig ; 0x18a84
        0x000186fa:    2103        .!      MOVS     r1,#3
        0x000186fc:    6820         h      LDR      r0,[r4,#0]
        0x000186fe:    f000f9eb    ....    BL       am_hal_gpio_state_write ; 0x18ad8
        0x00018702:    7920         y      LDRB     r0,[r4,#4]
        0x00018704:    f0000101    ....    AND      r1,r0,#1
        0x00018708:    6820         h      LDR      r0,[r4,#0]
        0x0001870a:    f000f9e5    ....    BL       am_hal_gpio_state_write ; 0x18ad8
        0x0001870e:    e00e        ..      B        0x1872e ; am_devices_led_array_init + 122
        0x00018710:    f8d91000    ....    LDR      r1,[r9,#0]
        0x00018714:    9100        ..      STR      r1,[sp,#0]
        0x00018716:    f000f9b5    ....    BL       am_hal_gpio_pinconfig ; 0x18a84
        0x0001871a:    2103        .!      MOVS     r1,#3
        0x0001871c:    6820         h      LDR      r0,[r4,#0]
        0x0001871e:    f000f9db    ....    BL       am_hal_gpio_state_write ; 0x18ad8
        0x00018722:    7920         y      LDRB     r0,[r4,#4]
        0x00018724:    f0000101    ....    AND      r1,r0,#1
        0x00018728:    6820         h      LDR      r0,[r4,#0]
        0x0001872a:    f000f9d5    ....    BL       am_hal_gpio_state_write ; 0x18ad8
        0x0001872e:    1c6d        m.      ADDS     r5,r5,#1
        0x00018730:    42b5        .B      CMP      r5,r6
        0x00018732:    d3d3        ..      BCC      0x186dc ; am_devices_led_array_init + 40
        0x00018734:    e8bd83f8    ....    POP      {r3-r9,pc}
    $d
        0x00018738:    0001d160    `...    DCD    119136
        0x0001873c:    0001d164    d...    DCD    119140
    $t
    i.am_devices_led_array_out
    am_devices_led_array_out
        0x00018740:    e92d41f0    -..A    PUSH     {r4-r8,lr}
        0x00018744:    4690        .F      MOV      r8,r2
        0x00018746:    000e        ..      MOVS     r6,r1
        0x00018748:    4605        .F      MOV      r5,r0
        0x0001874a:    f04f0400    O...    MOV      r4,#0
        0x0001874e:    bf14        ..      ITE      NE
        0x00018750:    2701        .'      MOVNE    r7,#1
        0x00018752:    e8bd81f0    ....    POPEQ    {r4-r8,pc}
        0x00018756:    bf00        ..      NOP      
        0x00018758:    fa07f004    ....    LSL      r0,r7,r4
        0x0001875c:    ea100f08    ....    TST      r0,r8
        0x00018760:    d013        ..      BEQ      0x1878a ; am_devices_led_array_out + 74
        0x00018762:    2d00        .-      CMP      r5,#0
        0x00018764:    bf18        ..      IT       NE
        0x00018766:    2c1f        .,      CMPNE    r4,#0x1f
        0x00018768:    bf3c        <.      ITT      CC
        0x0001876a:    f8550034    U.4.    LDRCC    r0,[r5,r4,LSL #3]
        0x0001876e:    2880        .(      CMPCC    r0,#0x80
        0x00018770:    d21d        ..      BCS      0x187ae ; am_devices_led_array_out + 110
        0x00018772:    eb0501c4    ....    ADD      r1,r5,r4,LSL #3
        0x00018776:    6849        Ih      LDR      r1,[r1,#4]
        0x00018778:    f0110f02    ....    TST      r1,#2
        0x0001877c:    bf14        ..      ITE      NE
        0x0001877e:    f0010101    ....    ANDNE    r1,r1,#1
        0x00018782:    2104        .!      MOVEQ    r1,#4
        0x00018784:    f000f9a8    ....    BL       am_hal_gpio_state_write ; 0x18ad8
        0x00018788:    e011        ..      B        0x187ae ; am_devices_led_array_out + 110
        0x0001878a:    2d00        .-      CMP      r5,#0
        0x0001878c:    bf18        ..      IT       NE
        0x0001878e:    2c1f        .,      CMPNE    r4,#0x1f
        0x00018790:    bf3c        <.      ITT      CC
        0x00018792:    f8550034    U.4.    LDRCC    r0,[r5,r4,LSL #3]
        0x00018796:    2880        .(      CMPCC    r0,#0x80
        0x00018798:    d209        ..      BCS      0x187ae ; am_devices_led_array_out + 110
        0x0001879a:    eb0501c4    ....    ADD      r1,r5,r4,LSL #3
        0x0001879e:    6849        Ih      LDR      r1,[r1,#4]
        0x000187a0:    f0110f02    ....    TST      r1,#2
        0x000187a4:    bf14        ..      ITE      NE
        0x000187a6:    ea270101    '...    BICNE    r1,r7,r1
        0x000187aa:    2103        .!      MOVEQ    r1,#3
        0x000187ac:    e7ea        ..      B        0x18784 ; am_devices_led_array_out + 68
        0x000187ae:    1c64        d.      ADDS     r4,r4,#1
        0x000187b0:    42b4        .B      CMP      r4,r6
        0x000187b2:    d3d1        ..      BCC      0x18758 ; am_devices_led_array_out + 24
        0x000187b4:    e8bd81f0    ....    POP      {r4-r8,pc}
    i.am_hal_daxi_config
    am_hal_daxi_config
        0x000187b8:    2800        .(      CMP      r0,#0
        0x000187ba:    bf04        ..      ITT      EQ
        0x000187bc:    2006        .       MOVEQ    r0,#6
        0x000187be:    4770        pG      BXEQ     lr
        0x000187c0:    b538        8.      PUSH     {r3-r5,lr}
        0x000187c2:    4604        .F      MOV      r4,r0
        0x000187c4:    f7fffdda    ....    BL       am_hal_interrupt_master_disable ; 0x1837c
        0x000187c8:    9000        ..      STR      r0,[sp,#0]
        0x000187ca:    2100        .!      MOVS     r1,#0
        0x000187cc:    2002        .       MOVS     r0,#2
        0x000187ce:    f000f81d    ....    BL       am_hal_daxi_control ; 0x1880c
        0x000187d2:    78a0        .x      LDRB     r0,[r4,#2]
        0x000187d4:    7861        ax      LDRB     r1,[r4,#1]
        0x000187d6:    f44f7240    O.@r    MOV      r2,#0x300
        0x000187da:    f0000001    ....    AND      r0,r0,#1
        0x000187de:    ea022101    ...!    AND      r1,r2,r1,LSL #8
        0x000187e2:    4308        .C      ORRS     r0,r0,r1
        0x000187e4:    7821        !x      LDRB     r1,[r4,#0]
        0x000187e6:    ea404001    @..@    ORR      r0,r0,r1,LSL #16
        0x000187ea:    f04f4190    O..A    MOV      r1,#0x48000000
        0x000187ee:    6508        .e      STR      r0,[r1,#0x50]
        0x000187f0:    4804        .H      LDR      r0,[pc,#16] ; [0x18804] = 0x47ff0000
        0x000187f2:    4905        .I      LDR      r1,[pc,#20] ; [0x18808] = 0x100000a0
        0x000187f4:    6800        .h      LDR      r0,[r0,#0]
        0x000187f6:    6008        .`      STR      r0,[r1,#0]
        0x000187f8:    9800        ..      LDR      r0,[sp,#0]
        0x000187fa:    f7fffdc3    ....    BL       am_hal_interrupt_master_set ; 0x18384
        0x000187fe:    2000        .       MOVS     r0,#0
        0x00018800:    bd38        8.      POP      {r3-r5,pc}
    $d
        0x00018802:    0000        ..      DCW    0
        0x00018804:    47ff0000    ...G    DCD    1207894016
        0x00018808:    100000a0    ....    DCD    268435616
    $t
    i.am_hal_daxi_control
    am_hal_daxi_control
        0x0001880c:    e92d43f0    -..C    PUSH     {r4-r9,lr}
        0x00018810:    4e4c        LN      LDR      r6,[pc,#304] ; [0x18944] = 0x47ff0000
        0x00018812:    4f4d        MO      LDR      r7,[pc,#308] ; [0x18948] = 0x100000a0
        0x00018814:    b083        ..      SUB      sp,sp,#0xc
        0x00018816:    f04f4590    O..E    MOV      r5,#0x48000000
        0x0001881a:    2801        .(      CMP      r0,#1
        0x0001881c:    d059        Y.      BEQ      0x188d2 ; am_hal_daxi_control + 198
        0x0001881e:    4c4b        KL      LDR      r4,[pc,#300] ; [0x1894c] = 0x10000100
        0x00018820:    2802        .(      CMP      r0,#2
        0x00018822:    d002        ..      BEQ      0x1882a ; am_hal_daxi_control + 30
        0x00018824:    2803        .(      CMP      r0,#3
        0x00018826:    d05d        ].      BEQ      0x188e4 ; am_hal_daxi_control + 216
        0x00018828:    e060        `.      B        0x188ec ; am_hal_daxi_control + 224
        0x0001882a:    4849        IH      LDR      r0,[pc,#292] ; [0x18950] = 0xf0000004
        0x0001882c:    4468        hD      ADD      r0,sp,r0
        0x0001882e:    f5b02fc0    .../    CMP      r0,#0x60000
        0x00018832:    d300        ..      BCC      0x18836 ; am_hal_daxi_control + 42
        0x00018834:    e7fe        ..      B        0x18834 ; am_hal_daxi_control + 40
        0x00018836:    f7fffda1    ....    BL       am_hal_interrupt_master_disable ; 0x1837c
        0x0001883a:    9000        ..      STR      r0,[sp,#0]
        0x0001883c:    f3bf8f4f    ..O.    DSB      
        0x00018840:    6d68        hm      LDR      r0,[r5,#0x54]
        0x00018842:    f0400001    @...    ORR      r0,r0,#1
        0x00018846:    6568        he      STR      r0,[r5,#0x54]
        0x00018848:    6831        1h      LDR      r1,[r6,#0]
        0x0001884a:    6039        9`      STR      r1,[r7,#0]
        0x0001884c:    6d68        hm      LDR      r0,[r5,#0x54]
        0x0001884e:    f0400002    @...    ORR      r0,r0,#2
        0x00018852:    6568        he      STR      r0,[r5,#0x54]
        0x00018854:    6039        9`      STR      r1,[r7,#0]
        0x00018856:    6821        !h      LDR      r1,[r4,#0]
        0x00018858:    2900        .)      CMP      r1,#0
        0x0001885a:    d036        6.      BEQ      0x188ca ; am_hal_daxi_control + 190
        0x0001885c:    68a0        .h      LDR      r0,[r4,#8]
        0x0001885e:    6800        .h      LDR      r0,[r0,#0]
        0x00018860:    6862        bh      LDR      r2,[r4,#4]
        0x00018862:    ea320000    2...    BICS     r0,r2,r0
        0x00018866:    d130        0.      BNE      0x188ca ; am_hal_daxi_control + 190
        0x00018868:    483a        :H      LDR      r0,[pc,#232] ; [0x18954] = 0x100002f4
        0x0001886a:    6800        .h      LDR      r0,[r0,#0]
        0x0001886c:    b1d0        ..      CBZ      r0,0x188a4 ; am_hal_daxi_control + 152
        0x0001886e:    2000        .       MOVS     r0,#0
        0x00018870:    6008        .`      STR      r0,[r1,#0]
        0x00018872:    6108        .a      STR      r0,[r1,#0x10]
        0x00018874:    6208        .b      STR      r0,[r1,#0x20]
        0x00018876:    6308        .c      STR      r0,[r1,#0x30]
        0x00018878:    f3bf8f4f    ..O.    DSB      
        0x0001887c:    6d68        hm      LDR      r0,[r5,#0x54]
        0x0001887e:    f0400001    @...    ORR      r0,r0,#1
        0x00018882:    6568        he      STR      r0,[r5,#0x54]
        0x00018884:    6830        0h      LDR      r0,[r6,#0]
        0x00018886:    6038        8`      STR      r0,[r7,#0]
        0x00018888:    6d69        im      LDR      r1,[r5,#0x54]
        0x0001888a:    f0410102    A...    ORR      r1,r1,#2
        0x0001888e:    6569        ie      STR      r1,[r5,#0x54]
        0x00018890:    6038        8`      STR      r0,[r7,#0]
        0x00018892:    f8d41000    ....    LDR.W    r1,[r4,#0]
        0x00018896:    2000        .       MOVS     r0,#0
        0x00018898:    eb011200    ....    ADD      r2,r1,r0,LSL #4
        0x0001889c:    6812        .h      LDR      r2,[r2,#0]
        0x0001889e:    1c40        @.      ADDS     r0,r0,#1
        0x000188a0:    2804        .(      CMP      r0,#4
        0x000188a2:    d3f9        ..      BCC      0x18898 ; am_hal_daxi_control + 140
        0x000188a4:    6820         h      LDR      r0,[r4,#0]
        0x000188a6:    2100        .!      MOVS     r1,#0
        0x000188a8:    6802        .h      LDR      r2,[r0,#0]
        0x000188aa:    6802        .h      LDR      r2,[r0,#0]
        0x000188ac:    6802        .h      LDR      r2,[r0,#0]
        0x000188ae:    6802        .h      LDR      r2,[r0,#0]
        0x000188b0:    6802        .h      LDR      r2,[r0,#0]
        0x000188b2:    6802        .h      LDR      r2,[r0,#0]
        0x000188b4:    1c49        I.      ADDS     r1,r1,#1
        0x000188b6:    291e        .)      CMP      r1,#0x1e
        0x000188b8:    d3f6        ..      BCC      0x188a8 ; am_hal_daxi_control + 156
        0x000188ba:    f3bf8f4f    ..O.    DSB      
        0x000188be:    6d68        hm      LDR      r0,[r5,#0x54]
        0x000188c0:    f0400002    @...    ORR      r0,r0,#2
        0x000188c4:    6568        he      STR      r0,[r5,#0x54]
        0x000188c6:    6830        0h      LDR      r0,[r6,#0]
        0x000188c8:    6038        8`      STR      r0,[r7,#0]
        0x000188ca:    9800        ..      LDR      r0,[sp,#0]
        0x000188cc:    f7fffd5a    ..Z.    BL       am_hal_interrupt_master_set ; 0x18384
        0x000188d0:    e034        4.      B        0x1893c ; am_hal_daxi_control + 304
        0x000188d2:    f3bf8f4f    ..O.    DSB      
        0x000188d6:    6d68        hm      LDR      r0,[r5,#0x54]
        0x000188d8:    f0400002    @...    ORR      r0,r0,#2
        0x000188dc:    6568        he      STR      r0,[r5,#0x54]
        0x000188de:    6830        0h      LDR      r0,[r6,#0]
        0x000188e0:    6038        8`      STR      r0,[r7,#0]
        0x000188e2:    e02b        +.      B        0x1893c ; am_hal_daxi_control + 304
        0x000188e4:    b111        ..      CBZ      r1,0x188ec ; am_hal_daxi_control + 224
        0x000188e6:    f0110f0f    ....    TST      r1,#0xf
        0x000188ea:    d003        ..      BEQ      0x188f4 ; am_hal_daxi_control + 232
        0x000188ec:    b003        ..      ADD      sp,sp,#0xc
        0x000188ee:    2006        .       MOVS     r0,#6
        0x000188f0:    e8bd83f0    ....    POP      {r4-r9,pc}
        0x000188f4:    e9d45701    ...W    LDRD     r5,r7,[r4,#4]
        0x000188f8:    4a17        .J      LDR      r2,[pc,#92] ; [0x18958] = 0x1000010c
        0x000188fa:    f8d4c000    ....    LDR      r12,[r4,#0]
        0x000188fe:    2000        .       MOVS     r0,#0
        0x00018900:    f1010840    ..@.    ADD      r8,r1,#0x40
        0x00018904:    eb021300    ....    ADD      r3,r2,r0,LSL #4
        0x00018908:    681e        .h      LDR      r6,[r3,#0]
        0x0001890a:    428e        .B      CMP      r6,r1
        0x0001890c:    d80a        ..      BHI      0x18924 ; am_hal_daxi_control + 280
        0x0001890e:    f8d39004    ....    LDR      r9,[r3,#4]
        0x00018912:    444e        ND      ADD      r6,r6,r9
        0x00018914:    45b0        .E      CMP      r8,r6
        0x00018916:    d205        ..      BCS      0x18924 ; am_hal_daxi_control + 280
        0x00018918:    eb021200    ....    ADD      r2,r2,r0,LSL #4
        0x0001891c:    468c        .F      MOV      r12,r1
        0x0001891e:    6897        .h      LDR      r7,[r2,#8]
        0x00018920:    68dd        .h      LDR      r5,[r3,#0xc]
        0x00018922:    e002        ..      B        0x1892a ; am_hal_daxi_control + 286
        0x00018924:    1c40        @.      ADDS     r0,r0,#1
        0x00018926:    2806        .(      CMP      r0,#6
        0x00018928:    d3ec        ..      BCC      0x18904 ; am_hal_daxi_control + 248
        0x0001892a:    f8c4c000    ....    STR      r12,[r4,#0]
        0x0001892e:    e9c45701    ...W    STRD     r5,r7,[r4,#4]
        0x00018932:    2806        .(      CMP      r0,#6
        0x00018934:    bf04        ..      ITT      EQ
        0x00018936:    b003        ..      ADDEQ    sp,sp,#0xc
        0x00018938:    e8bd83f0    ....    POPEQ    {r4-r9,pc}
        0x0001893c:    2000        .       MOVS     r0,#0
        0x0001893e:    b003        ..      ADD      sp,sp,#0xc
        0x00018940:    e8bd83f0    ....    POP      {r4-r9,pc}
    $d
        0x00018944:    47ff0000    ...G    DCD    1207894016
        0x00018948:    100000a0    ....    DCD    268435616
        0x0001894c:    10000100    ....    DCD    268435712
        0x00018950:    f0000004    ....    DCD    4026531844
        0x00018954:    100002f4    ....    DCD    268436212
        0x00018958:    1000010c    ....    DCD    268435724
    $t
    i.am_hal_delay_us
    am_hal_delay_us
        0x0001895c:    4908        .I      LDR      r1,[pc,#32] ; [0x18980] = 0x40021000
        0x0001895e:    0140        @.      LSLS     r0,r0,#5
        0x00018960:    6809        .h      LDR      r1,[r1,#0]
        0x00018962:    f3c101c1    ....    UBFX     r1,r1,#3,#2
        0x00018966:    2902        .)      CMP      r1,#2
        0x00018968:    bf06        ..      ITTE     EQ
        0x0001896a:    0040        @.      LSLEQ    r0,r0,#1
        0x0001896c:    2115        .!      MOVEQ    r1,#0x15
        0x0001896e:    210f        .!      MOVNE    r1,#0xf
        0x00018970:    4288        .B      CMP      r0,r1
        0x00018972:    bf98        ..      IT       LS
        0x00018974:    4770        pG      BXLS     lr
        0x00018976:    1a40        @.      SUBS     r0,r0,r1
        0x00018978:    4902        .I      LDR      r1,[pc,#8] ; [0x18984] = 0x1d3d4
        0x0001897a:    6a49        Ij      LDR      r1,[r1,#0x24]
        0x0001897c:    4708        .G      BX       r1
    $d
        0x0001897e:    0000        ..      DCW    0
        0x00018980:    40021000    ...@    DCD    1073876992
        0x00018984:    0001d3d4    ....    DCD    119764
    $t
    i.am_hal_delay_us_status_change
    am_hal_delay_us_status_change
        0x00018988:    e92d47f0    -..G    PUSH     {r4-r10,lr}
        0x0001898c:    f8df8048    ..H.    LDR      r8,[pc,#72] ; [0x189d8] = 0x40021000
        0x00018990:    f8df9048    ..H.    LDR      r9,[pc,#72] ; [0x189dc] = 0x1d3d4
        0x00018994:    461d        .F      MOV      r5,r3
        0x00018996:    4616        .F      MOV      r6,r2
        0x00018998:    460f        .F      MOV      r7,r1
        0x0001899a:    4604        .F      MOV      r4,r0
        0x0001899c:    6838        8h      LDR      r0,[r7,#0]
        0x0001899e:    4030        0@      ANDS     r0,r0,r6
        0x000189a0:    42a8        .B      CMP      r0,r5
        0x000189a2:    d102        ..      BNE      0x189aa ; am_hal_delay_us_status_change + 34
        0x000189a4:    2000        .       MOVS     r0,#0
        0x000189a6:    e8bd87f0    ....    POP      {r4-r10,pc}
        0x000189aa:    1e64        d.      SUBS     r4,r4,#1
        0x000189ac:    d311        ..      BCC      0x189d2 ; am_hal_delay_us_status_change + 74
        0x000189ae:    f8d81000    ....    LDR      r1,[r8,#0]
        0x000189b2:    2020                MOVS     r0,#0x20
        0x000189b4:    f3c101c1    ....    UBFX     r1,r1,#3,#2
        0x000189b8:    2902        .)      CMP      r1,#2
        0x000189ba:    bf06        ..      ITTE     EQ
        0x000189bc:    2040        @       MOVEQ    r0,#0x40
        0x000189be:    f04f0c15    O...    MOVEQ    r12,#0x15
        0x000189c2:    f04f0c0f    O...    MOVNE    r12,#0xf
        0x000189c6:    eba0000c    ....    SUB      r0,r0,r12
        0x000189ca:    f8d91024    ..$.    LDR      r1,[r9,#0x24]
        0x000189ce:    4788        .G      BLX      r1
        0x000189d0:    e7e4        ..      B        0x1899c ; am_hal_delay_us_status_change + 20
        0x000189d2:    2004        .       MOVS     r0,#4
        0x000189d4:    e8bd87f0    ....    POP      {r4-r10,pc}
    $d
        0x000189d8:    40021000    ...@    DCD    1073876992
        0x000189dc:    0001d3d4    ....    DCD    119764
    $t
    i.am_hal_delay_us_status_check
    am_hal_delay_us_status_check
        0x000189e0:    e92d47f0    -..G    PUSH     {r4-r10,lr}
        0x000189e4:    f8df9054    ..T.    LDR      r9,[pc,#84] ; [0x18a3c] = 0x40021000
        0x000189e8:    f8dfa054    ..T.    LDR      r10,[pc,#84] ; [0x18a40] = 0x1d3d4
        0x000189ec:    f8dd8020    .. .    LDR      r8,[sp,#0x20]
        0x000189f0:    461c        .F      MOV      r4,r3
        0x000189f2:    4615        .F      MOV      r5,r2
        0x000189f4:    460e        .F      MOV      r6,r1
        0x000189f6:    4607        .F      MOV      r7,r0
        0x000189f8:    6830        0h      LDR      r0,[r6,#0]
        0x000189fa:    f1b80f00    ....    CMP      r8,#0
        0x000189fe:    ea000005    ....    AND      r0,r0,r5
        0x00018a02:    d002        ..      BEQ      0x18a0a ; am_hal_delay_us_status_check + 42
        0x00018a04:    42a0        .B      CMP      r0,r4
        0x00018a06:    d002        ..      BEQ      0x18a0e ; am_hal_delay_us_status_check + 46
        0x00018a08:    e004        ..      B        0x18a14 ; am_hal_delay_us_status_check + 52
        0x00018a0a:    42a0        .B      CMP      r0,r4
        0x00018a0c:    d002        ..      BEQ      0x18a14 ; am_hal_delay_us_status_check + 52
        0x00018a0e:    2000        .       MOVS     r0,#0
        0x00018a10:    e8bd87f0    ....    POP      {r4-r10,pc}
        0x00018a14:    1e7f        ..      SUBS     r7,r7,#1
        0x00018a16:    d30e        ..      BCC      0x18a36 ; am_hal_delay_us_status_check + 86
        0x00018a18:    f8d91000    ....    LDR      r1,[r9,#0]
        0x00018a1c:    2020                MOVS     r0,#0x20
        0x00018a1e:    f3c101c1    ....    UBFX     r1,r1,#3,#2
        0x00018a22:    2902        .)      CMP      r1,#2
        0x00018a24:    bf06        ..      ITTE     EQ
        0x00018a26:    2040        @       MOVEQ    r0,#0x40
        0x00018a28:    2115        .!      MOVEQ    r1,#0x15
        0x00018a2a:    210f        .!      MOVNE    r1,#0xf
        0x00018a2c:    1a40        @.      SUBS     r0,r0,r1
        0x00018a2e:    f8da1024    ..$.    LDR      r1,[r10,#0x24]
        0x00018a32:    4788        .G      BLX      r1
        0x00018a34:    e7e0        ..      B        0x189f8 ; am_hal_delay_us_status_check + 24
        0x00018a36:    2004        .       MOVS     r0,#4
        0x00018a38:    e8bd87f0    ....    POP      {r4-r10,pc}
    $d
        0x00018a3c:    40021000    ...@    DCD    1073876992
        0x00018a40:    0001d3d4    ....    DCD    119764
    $t
    i.am_hal_fault_status_get
    am_hal_fault_status_get
        0x00018a44:    2800        .(      CMP      r0,#0
        0x00018a46:    bf04        ..      ITT      EQ
        0x00018a48:    2006        .       MOVEQ    r0,#6
        0x00018a4a:    4770        pG      BXEQ     lr
        0x00018a4c:    f04f4190    O..A    MOV      r1,#0x48000000
        0x00018a50:    f8d1208c    ...     LDR      r2,[r1,#0x8c]
        0x00018a54:    f0020301    ....    AND      r3,r2,#1
        0x00018a58:    7003        .p      STRB     r3,[r0,#0]
        0x00018a5a:    f3c20340    ..@.    UBFX     r3,r2,#1,#1
        0x00018a5e:    7203        .r      STRB     r3,[r0,#8]
        0x00018a60:    f3c20280    ....    UBFX     r2,r2,#2,#1
        0x00018a64:    7402        .t      STRB     r2,[r0,#0x10]
        0x00018a66:    f8d12084    ...     LDR      r2,[r1,#0x84]
        0x00018a6a:    60c2        .`      STR      r2,[r0,#0xc]
        0x00018a6c:    6842        Bh      LDR      r2,[r0,#4]
        0x00018a6e:    f8513f80    Q..?    LDR      r3,[r1,#0x80]!
        0x00018a72:    431a        .C      ORRS     r2,r2,r3
        0x00018a74:    6042        B`      STR      r2,[r0,#4]
        0x00018a76:    6942        Bi      LDR      r2,[r0,#0x14]
        0x00018a78:    6889        .h      LDR      r1,[r1,#8]
        0x00018a7a:    4311        .C      ORRS     r1,r1,r2
        0x00018a7c:    6141        Aa      STR      r1,[r0,#0x14]
        0x00018a7e:    2000        .       MOVS     r0,#0
        0x00018a80:    4770        pG      BX       lr
        0x00018a82:    0000        ..      MOVS     r0,r0
    i.am_hal_gpio_pinconfig
    am_hal_gpio_pinconfig
        0x00018a84:    b403        ..      PUSH     {r0,r1}
        0x00018a86:    4912        .I      LDR      r1,[pc,#72] ; [0x18ad0] = 0x40010000
        0x00018a88:    2880        .(      CMP      r0,#0x80
        0x00018a8a:    bf82        ..      ITTT     HI
        0x00018a8c:    2005        .       MOVHI    r0,#5
        0x00018a8e:    b002        ..      ADDHI    sp,sp,#8
        0x00018a90:    4770        pG      BXHI     lr
        0x00018a92:    9a01        ..      LDR      r2,[sp,#4]
        0x00018a94:    f3c22281    ..."    UBFX     r2,r2,#10,#2
        0x00018a98:    2a01        .*      CMP      r2,#1
        0x00018a9a:    d90e        ..      BLS      0x18aba ; am_hal_gpio_pinconfig + 54
        0x00018a9c:    4b0d        .K      LDR      r3,[pc,#52] ; [0x18ad4] = 0x1d16c
        0x00018a9e:    0942        B.      LSRS     r2,r0,#5
        0x00018aa0:    f04f0c01    O...    MOV      r12,#1
        0x00018aa4:    f8532022    S."     LDR      r2,[r3,r2,LSL #2]
        0x00018aa8:    f000031f    ....    AND      r3,r0,#0x1f
        0x00018aac:    fa0cf303    ....    LSL      r3,r12,r3
        0x00018ab0:    421a        .B      TST      r2,r3
        0x00018ab2:    bf02        ..      ITTT     EQ
        0x00018ab4:    2007        .       MOVEQ    r0,#7
        0x00018ab6:    b002        ..      ADDEQ    sp,sp,#8
        0x00018ab8:    4770        pG      BXEQ     lr
        0x00018aba:    2273        s"      MOVS     r2,#0x73
        0x00018abc:    f8c12200    ..."    STR      r2,[r1,#0x200]
        0x00018ac0:    9a01        ..      LDR      r2,[sp,#4]
        0x00018ac2:    f8412020    A.      STR      r2,[r1,r0,LSL #2]
        0x00018ac6:    2000        .       MOVS     r0,#0
        0x00018ac8:    f8c10200    ....    STR      r0,[r1,#0x200]
        0x00018acc:    b002        ..      ADD      sp,sp,#8
        0x00018ace:    4770        pG      BX       lr
    $d
        0x00018ad0:    40010000    ...@    DCD    1073807360
        0x00018ad4:    0001d16c    l...    DCD    119148
    $t
    i.am_hal_gpio_state_write
    am_hal_gpio_state_write
        0x00018ad8:    b538        8.      PUSH     {r3-r5,lr}
        0x00018ada:    f000021f    ....    AND      r2,r0,#0x1f
        0x00018ade:    2301        .#      MOVS     r3,#1
        0x00018ae0:    fa03f502    ....    LSL      r5,r3,r2
        0x00018ae4:    f3c01041    ..A.    UBFX     r0,r0,#5,#2
        0x00018ae8:    0080        ..      LSLS     r0,r0,#2
        0x00018aea:    f1004480    ...D    ADD      r4,r0,#0x40000000
        0x00018aee:    f5043480    ...4    ADD      r4,r4,#0x10000
        0x00018af2:    2906        .)      CMP      r1,#6
        0x00018af4:    d227        '.      BCS      0x18b46 ; am_hal_gpio_state_write + 110
        0x00018af6:    e8dff001    ....    TBB      [pc,r1]
    $d
        0x00018afa:    0603        ..      DCW    1539
        0x00018afc:    1b181509    ....    DCD    454563081
    $t
        0x00018b00:    f8c45234    ..4R    STR      r5,[r4,#0x234]
        0x00018b04:    e01f        ..      B        0x18b46 ; am_hal_gpio_state_write + 110
        0x00018b06:    f8c45224    ..$R    STR      r5,[r4,#0x224]
        0x00018b0a:    e01c        ..      B        0x18b46 ; am_hal_gpio_state_write + 110
        0x00018b0c:    f7fffc36    ..6.    BL       am_hal_interrupt_master_disable ; 0x1837c
        0x00018b10:    9000        ..      STR      r0,[sp,#0]
        0x00018b12:    f8d40214    ....    LDR      r0,[r4,#0x214]
        0x00018b16:    4068        h@      EORS     r0,r0,r5
        0x00018b18:    f8c40214    ....    STR      r0,[r4,#0x214]
        0x00018b1c:    9800        ..      LDR      r0,[sp,#0]
        0x00018b1e:    f7fffc31    ..1.    BL       am_hal_interrupt_master_set ; 0x18384
        0x00018b22:    e010        ..      B        0x18b46 ; am_hal_gpio_state_write + 110
        0x00018b24:    f8c45264    ..dR    STR      r5,[r4,#0x264]
        0x00018b28:    e00d        ..      B        0x18b46 ; am_hal_gpio_state_write + 110
        0x00018b2a:    f8c45254    ..TR    STR      r5,[r4,#0x254]
        0x00018b2e:    e00a        ..      B        0x18b46 ; am_hal_gpio_state_write + 110
        0x00018b30:    f7fffc24    ..$.    BL       am_hal_interrupt_master_disable ; 0x1837c
        0x00018b34:    9000        ..      STR      r0,[sp,#0]
        0x00018b36:    f8d40244    ..D.    LDR      r0,[r4,#0x244]
        0x00018b3a:    4068        h@      EORS     r0,r0,r5
        0x00018b3c:    f8c40244    ..D.    STR      r0,[r4,#0x244]
        0x00018b40:    9800        ..      LDR      r0,[sp,#0]
        0x00018b42:    f7fffc1f    ....    BL       am_hal_interrupt_master_set ; 0x18384
        0x00018b46:    2000        .       MOVS     r0,#0
        0x00018b48:    bd38        8.      POP      {r3-r5,pc}
        0x00018b4a:    0000        ..      MOVS     r0,r0
    i.am_hal_load_ui32
    am_hal_load_ui32
        0x00018b4c:    4901        .I      LDR      r1,[pc,#4] ; [0x18b54] = 0x1d3d4
        0x00018b4e:    6949        Ii      LDR      r1,[r1,#0x14]
        0x00018b50:    4708        .G      BX       r1
    $d
        0x00018b52:    0000        ..      DCW    0
        0x00018b54:    0001d3d4    ....    DCD    119764
    $t
    i.am_hal_mram_ds_init
    am_hal_mram_ds_init
        0x00018b58:    4802        .H      LDR      r0,[pc,#8] ; [0x18b64] = 0x100002e4
        0x00018b5a:    b510        ..      PUSH     {r4,lr}
        0x00018b5c:    6840        @h      LDR      r0,[r0,#4]
        0x00018b5e:    4780        .G      BLX      r0
        0x00018b60:    2000        .       MOVS     r0,#0
        0x00018b62:    bd10        ..      POP      {r4,pc}
    $d
        0x00018b64:    100002e4    ....    DCD    268436196
    $t
    i.am_hal_mram_info_read
    am_hal_mram_info_read
        0x00018b68:    e92d43f8    -..C    PUSH     {r3-r9,lr}
        0x00018b6c:    4617        .F      MOV      r7,r2
        0x00018b6e:    0002        ..      MOVS     r2,r0
        0x00018b70:    461d        .F      MOV      r5,r3
        0x00018b72:    f04f0800    O...    MOV      r8,#0
        0x00018b76:    eb010007    ....    ADD      r0,r1,r7
        0x00018b7a:    d011        ..      BEQ      0x18ba0 ; am_hal_mram_info_read + 56
        0x00018b7c:    2a01        .*      CMP      r2,#1
        0x00018b7e:    bf1c        ..      ITT      NE
        0x00018b80:    2001        .       MOVNE    r0,#1
        0x00018b82:    e8bd83f8    ....    POPNE    {r3-r9,pc}
        0x00018b86:    f5a16290    ...b    SUB      r2,r1,#0x480
        0x00018b8a:    f5b27fc0    ....    CMP      r2,#0x180
        0x00018b8e:    d204        ..      BCS      0x18b9a ; am_hal_mram_info_read + 50
        0x00018b90:    f5b06fc0    ...o    CMP      r0,#0x600
        0x00018b94:    bf98        ..      IT       LS
        0x00018b96:    4817        .H      LDRLS    r0,[pc,#92] ; [0x18bf4] = 0x42002000
        0x00018b98:    d90b        ..      BLS      0x18bb2 ; am_hal_mram_info_read + 74
        0x00018b9a:    2002        .       MOVS     r0,#2
        0x00018b9c:    e8bd83f8    ....    POP      {r3-r9,pc}
        0x00018ba0:    f5b17f00    ....    CMP      r1,#0x200
        0x00018ba4:    d2f9        ..      BCS      0x18b9a ; am_hal_mram_info_read + 50
        0x00018ba6:    f5b07f00    ....    CMP      r0,#0x200
        0x00018baa:    bf98        ..      IT       LS
        0x00018bac:    f04f4084    O..@    MOVLS    r0,#0x42000000
        0x00018bb0:    d8f3        ..      BHI      0x18b9a ; am_hal_mram_info_read + 50
        0x00018bb2:    f8df9044    ..D.    LDR      r9,[pc,#68] ; [0x18bf8] = 0x100002e4
        0x00018bb6:    eb000481    ....    ADD      r4,r0,r1,LSL #2
        0x00018bba:    2001        .       MOVS     r0,#1
        0x00018bbc:    f8d91000    ....    LDR      r1,[r9,#0]
        0x00018bc0:    4788        .G      BLX      r1
        0x00018bc2:    f7fffbdb    ....    BL       am_hal_interrupt_master_disable ; 0x1837c
        0x00018bc6:    2600        .&      MOVS     r6,#0
        0x00018bc8:    9000        ..      STR      r0,[sp,#0]
        0x00018bca:    2f00        ./      CMP      r7,#0
        0x00018bcc:    d908        ..      BLS      0x18be0 ; am_hal_mram_info_read + 120
        0x00018bce:    4620         F      MOV      r0,r4
        0x00018bd0:    1d24        $.      ADDS     r4,r4,#4
        0x00018bd2:    f7ffffbb    ....    BL       am_hal_load_ui32 ; 0x18b4c
        0x00018bd6:    1c76        v.      ADDS     r6,r6,#1
        0x00018bd8:    f8450b04    E...    STR      r0,[r5],#4
        0x00018bdc:    42b7        .B      CMP      r7,r6
        0x00018bde:    d8f6        ..      BHI      0x18bce ; am_hal_mram_info_read + 102
        0x00018be0:    9800        ..      LDR      r0,[sp,#0]
        0x00018be2:    f7fffbcf    ....    BL       am_hal_interrupt_master_set ; 0x18384
        0x00018be6:    f8d91000    ....    LDR      r1,[r9,#0]
        0x00018bea:    2000        .       MOVS     r0,#0
        0x00018bec:    4788        .G      BLX      r1
        0x00018bee:    4640        @F      MOV      r0,r8
        0x00018bf0:    e8bd83f8    ....    POP      {r3-r9,pc}
    $d
        0x00018bf4:    42002000    . .B    DCD    1107304448
        0x00018bf8:    100002e4    ....    DCD    268436196
    $t
    i.am_hal_pwrctrl_control
    am_hal_pwrctrl_control
        0x00018bfc:    e92d4ff0    -..O    PUSH     {r4-r11,lr}
        0x00018c00:    b08f        ..      SUB      sp,sp,#0x3c
        0x00018c02:    f04f0800    O...    MOV      r8,#0
        0x00018c06:    46c1        .F      MOV      r9,r8
        0x00018c08:    f8cd8018    ....    STR      r8,[sp,#0x18]
        0x00018c0c:    2601        .&      MOVS     r6,#1
        0x00018c0e:    4ffe        .O      LDR      r7,[pc,#1016] ; [0x19008] = 0x40021000
        0x00018c10:    4cfe        .L      LDR      r4,[pc,#1016] ; [0x1900c] = 0x40020000
        0x00018c12:    f8cd8020    .. .    STR      r8,[sp,#0x20]
        0x00018c16:    b178        x.      CBZ      r0,0x18c38 ; am_hal_pwrctrl_control + 60
        0x00018c18:    2801        .(      CMP      r0,#1
        0x00018c1a:    f00081c8    ....    BEQ.W    0x18fae ; am_hal_pwrctrl_control + 946
        0x00018c1e:    2802        .(      CMP      r0,#2
        0x00018c20:    f000820e    ....    BEQ.W    0x19040 ; am_hal_pwrctrl_control + 1092
        0x00018c24:    2803        .(      CMP      r0,#3
        0x00018c26:    bf0c        ..      ITE      EQ
        0x00018c28:    f8c79004    ....    STREQ    r9,[r7,#4]
        0x00018c2c:    f04f0806    O...    MOVNE    r8,#6
        0x00018c30:    4640        @F      MOV      r0,r8
        0x00018c32:    b00f        ..      ADD      sp,sp,#0x3c
        0x00018c34:    e8bd8ff0    ....    POP      {r4-r11,pc}
        0x00018c38:    f8d40378    ..x.    LDR      r0,[r4,#0x378]
        0x00018c3c:    f02050f8     ..P    BIC      r0,r0,#0x1f000000
        0x00018c40:    f8c40378    ..x.    STR      r0,[r4,#0x378]
        0x00018c44:    f8d40358    ..X.    LDR      r0,[r4,#0x358]
        0x00018c48:    f42000f8     ...    BIC      r0,r0,#0x7c0000
        0x00018c4c:    f8c40358    ..X.    STR      r0,[r4,#0x358]
        0x00018c50:    f8d40344    ..D.    LDR      r0,[r4,#0x344]
        0x00018c54:    f0206070     .p`    BIC      r0,r0,#0xf000000
        0x00018c58:    f1006020    .. `    ADD      r0,r0,#0xa000000
        0x00018c5c:    f8c40344    ..D.    STR      r0,[r4,#0x344]
        0x00018c60:    f8d40344    ..D.    LDR      r0,[r4,#0x344]
        0x00018c64:    f42040f0     ..@    BIC      r0,r0,#0x7800
        0x00018c68:    f50040a0    ...@    ADD      r0,r0,#0x5000
        0x00018c6c:    f8c40344    ..D.    STR      r0,[r4,#0x344]
        0x00018c70:    f8d40358    ..X.    LDR      r0,[r4,#0x358]
        0x00018c74:    f44050f0    @..P    ORR      r0,r0,#0x1e00
        0x00018c78:    f8c40358    ..X.    STR      r0,[r4,#0x358]
        0x00018c7c:    f8d40354    ..T.    LDR      r0,[r4,#0x354]
        0x00018c80:    f44010f0    @...    ORR      r0,r0,#0x1e0000
        0x00018c84:    f8c40354    ..T.    STR      r0,[r4,#0x354]
        0x00018c88:    f8d40360    ..`.    LDR      r0,[r4,#0x360]
        0x00018c8c:    f0407070    @.pp    ORR      r0,r0,#0x3c00000
        0x00018c90:    f8c40360    ..`.    STR      r0,[r4,#0x360]
        0x00018c94:    f8d40360    ..`.    LDR      r0,[r4,#0x360]
        0x00018c98:    f44010f0    @...    ORR      r0,r0,#0x1e0000
        0x00018c9c:    f8c40360    ..`.    STR      r0,[r4,#0x360]
        0x00018ca0:    f8d4036c    ..l.    LDR      r0,[r4,#0x36c]
        0x00018ca4:    0e81        ..      LSRS     r1,r0,#26
        0x00018ca6:    f8d40370    ..p.    LDR      r0,[r4,#0x370]
        0x00018caa:    f361609f    a..`    BFI      r0,r1,#26,#6
        0x00018cae:    f8c40370    ..p.    STR      r0,[r4,#0x370]
        0x00018cb2:    f8d40380    ....    LDR      r0,[r4,#0x380]
        0x00018cb6:    f0404000    @..@    ORR      r0,r0,#0x80000000
        0x00018cba:    f8c40380    ....    STR      r0,[r4,#0x380]
        0x00018cbe:    f8d40380    ....    LDR      r0,[r4,#0x380]
        0x00018cc2:    f0404080    @..@    ORR      r0,r0,#0x40000000
        0x00018cc6:    f8c40380    ....    STR      r0,[r4,#0x380]
        0x00018cca:    f8d40370    ..p.    LDR      r0,[r4,#0x370]
        0x00018cce:    4dd0        .M      LDR      r5,[pc,#832] ; [0x19010] = 0x100000a4
        0x00018cd0:    f3c05005    ...P    UBFX     r0,r0,#20,#6
        0x00018cd4:    6168        ha      STR      r0,[r5,#0x14]
        0x00018cd6:    f8d40370    ..p.    LDR      r0,[r4,#0x370]
        0x00018cda:    f020707c     .|p    BIC      r0,r0,#0x3f00000
        0x00018cde:    f8c40370    ..p.    STR      r0,[r4,#0x370]
        0x00018ce2:    2007        .       MOVS     r0,#7
        0x00018ce4:    f8c4033c    ..<.    STR      r0,[r4,#0x33c]
        0x00018ce8:    f8d40340    ..@.    LDR      r0,[r4,#0x340]
        0x00018cec:    f0207070     .pp    BIC      r0,r0,#0x3c00000
        0x00018cf0:    f8c40340    ..@.    STR      r0,[r4,#0x340]
        0x00018cf4:    f8d40340    ..@.    LDR      r0,[r4,#0x340]
        0x00018cf8:    f42060f8     ..`    BIC      r0,r0,#0x7c0
        0x00018cfc:    3040        @0      ADDS     r0,r0,#0x40
        0x00018cfe:    f8c40340    ..@.    STR      r0,[r4,#0x340]
        0x00018d02:    6868        hh      LDR      r0,[r5,#4]
        0x00018d04:    f1b03fff    ...?    CMP      r0,#0xffffffff
        0x00018d08:    d10d        ..      BNE      0x18d26 ; am_hal_pwrctrl_control + 298
        0x00018d0a:    2201        ."      MOVS     r2,#1
        0x00018d0c:    1d2b        +.      ADDS     r3,r5,#4
        0x00018d0e:    f24041c4    @..A    MOV      r1,#0x4c4
        0x00018d12:    4610        .F      MOV      r0,r2
        0x00018d14:    f7ffff28    ..(.    BL       am_hal_mram_info_read ; 0x18b68
        0x00018d18:    b918        ..      CBNZ     r0,0x18d22 ; am_hal_pwrctrl_control + 294
        0x00018d1a:    6868        hh      LDR      r0,[r5,#4]
        0x00018d1c:    f1b03fff    ...?    CMP      r0,#0xffffffff
        0x00018d20:    d101        ..      BNE      0x18d26 ; am_hal_pwrctrl_control + 298
        0x00018d22:    f8c59004    ....    STR      r9,[r5,#4]
        0x00018d26:    6868        hh      LDR      r0,[r5,#4]
        0x00018d28:    2806        .(      CMP      r0,#6
        0x00018d2a:    bf24        $.      ITT      CS
        0x00018d2c:    68e8        .h      LDRCS    r0,[r5,#0xc]
        0x00018d2e:    f1b03fff    ...?    CMPCS    r0,#0xffffffff
        0x00018d32:    d124        $.      BNE      0x18d7e ; am_hal_pwrctrl_control + 386
        0x00018d34:    7868        hx      LDRB     r0,[r5,#1]
        0x00018d36:    2800        .(      CMP      r0,#0
        0x00018d38:    bf08        ..      IT       EQ
        0x00018d3a:    706e        np      STRBEQ   r6,[r5,#1]
        0x00018d3c:    6c60        `l      LDR      r0,[r4,#0x44]
        0x00018d3e:    f3c010c6    ....    UBFX     r0,r0,#7,#7
        0x00018d42:    60e8        .`      STR      r0,[r5,#0xc]
        0x00018d44:    f8d41378    ..x.    LDR      r1,[r4,#0x378]
        0x00018d48:    f0414100    A..A    ORR      r1,r1,#0x80000000
        0x00018d4c:    f8c41378    ..x.    STR      r1,[r4,#0x378]
        0x00018d50:    2869        i(      CMP      r0,#0x69
        0x00018d52:    bf94        ..      ITE      LS
        0x00018d54:    f1000616    ....    ADDLS    r6,r0,#0x16
        0x00018d58:    267f        .&      MOVHI    r6,#0x7f
        0x00018d5a:    6c60        `l      LDR      r0,[r4,#0x44]
        0x00018d5c:    f3c010c6    ....    UBFX     r0,r0,#7,#7
        0x00018d60:    42b0        .B      CMP      r0,r6
        0x00018d62:    d00c        ..      BEQ      0x18d7e ; am_hal_pwrctrl_control + 386
        0x00018d64:    f7fffb0a    ....    BL       am_hal_interrupt_master_disable ; 0x1837c
        0x00018d68:    9001        ..      STR      r0,[sp,#4]
        0x00018d6a:    6c60        `l      LDR      r0,[r4,#0x44]
        0x00018d6c:    f36610cd    f...    BFI      r0,r6,#7,#7
        0x00018d70:    6460        `d      STR      r0,[r4,#0x44]
        0x00018d72:    2014        .       MOVS     r0,#0x14
        0x00018d74:    f7fffdf2    ....    BL       am_hal_delay_us ; 0x1895c
        0x00018d78:    9801        ..      LDR      r0,[sp,#4]
        0x00018d7a:    f7fffb03    ....    BL       am_hal_interrupt_master_set ; 0x18384
        0x00018d7e:    2100        .!      MOVS     r1,#0
        0x00018d80:    460a        .F      MOV      r2,r1
        0x00018d82:    2001        .       MOVS     r0,#1
        0x00018d84:    f7fffb9c    ....    BL       VDDF_simobuck_boost ; 0x184c0
        0x00018d88:    f8d70100    ....    LDR      r0,[r7,#0x100]
        0x00018d8c:    f0400001    @...    ORR      r0,r0,#1
        0x00018d90:    f8c70100    ....    STR      r0,[r7,#0x100]
        0x00018d94:    f2413088    A..0    MOV      r0,#0x1388
        0x00018d98:    f7fffde0    ....    BL       am_hal_delay_us ; 0x1895c
        0x00018d9c:    2100        .!      MOVS     r1,#0
        0x00018d9e:    a806        ..      ADD      r0,sp,#0x18
        0x00018da0:    f001fe7c    ..|.    BL       buck_interval_check ; 0x1aa9c
        0x00018da4:    2800        .(      CMP      r0,#0
        0x00018da6:    f47faf43    ..C.    BNE      0x18c30 ; am_hal_pwrctrl_control + 52
        0x00018daa:    2101        .!      MOVS     r1,#1
        0x00018dac:    a808        ..      ADD      r0,sp,#0x20
        0x00018dae:    f001fe75    ..u.    BL       buck_interval_check ; 0x1aa9c
        0x00018db2:    2800        .(      CMP      r0,#0
        0x00018db4:    f47faf3c    ..<.    BNE      0x18c30 ; am_hal_pwrctrl_control + 52
        0x00018db8:    f8d40080    ....    LDR      r0,[r4,#0x80]
        0x00018dbc:    f4205070     .pP    BIC      r0,r0,#0x3c00
        0x00018dc0:    f5005080    ...P    ADD      r0,r0,#0x1000
        0x00018dc4:    f8c40080    ....    STR      r0,[r4,#0x80]
        0x00018dc8:    6e20         n      LDR      r0,[r4,#0x60]
        0x00018dca:    f0200010     ...    BIC      r0,r0,#0x10
        0x00018dce:    6620         f      STR      r0,[r4,#0x60]
        0x00018dd0:    6e20         n      LDR      r0,[r4,#0x60]
        0x00018dd2:    f040000e    @...    ORR      r0,r0,#0xe
        0x00018dd6:    6620         f      STR      r0,[r4,#0x60]
        0x00018dd8:    6e20         n      LDR      r0,[r4,#0x60]
        0x00018dda:    f0400001    @...    ORR      r0,r0,#1
        0x00018dde:    6620         f      STR      r0,[r4,#0x60]
        0x00018de0:    6e20         n      LDR      r0,[r4,#0x60]
        0x00018de2:    f4207000     ..p    BIC      r0,r0,#0x200
        0x00018de6:    6620         f      STR      r0,[r4,#0x60]
        0x00018de8:    6e20         n      LDR      r0,[r4,#0x60]
        0x00018dea:    f44070e0    @..p    ORR      r0,r0,#0x1c0
        0x00018dee:    6620         f      STR      r0,[r4,#0x60]
        0x00018df0:    6e20         n      LDR      r0,[r4,#0x60]
        0x00018df2:    f0400020    @. .    ORR      r0,r0,#0x20
        0x00018df6:    6620         f      STR      r0,[r4,#0x60]
        0x00018df8:    f64010c4    @...    MOV      r0,#0x9c4
        0x00018dfc:    f7fffdae    ....    BL       am_hal_delay_us ; 0x1895c
        0x00018e00:    a809        ..      ADD      r0,sp,#0x24
        0x00018e02:    f8dda018    ....    LDR      r10,[sp,#0x18]
        0x00018e06:    f000fc8b    ....    BL       am_hal_timer_default_config_set ; 0x19720
        0x00018e0a:    201c        .       MOVS     r0,#0x1c
        0x00018e0c:    f88d0024    ..$.    STRB     r0,[sp,#0x24]
        0x00018e10:    2702        .'      MOVS     r7,#2
        0x00018e12:    f88d7025    ..%p    STRB     r7,[sp,#0x25]
        0x00018e16:    a909        ..      ADD      r1,sp,#0x24
        0x00018e18:    200d        .       MOVS     r0,#0xd
        0x00018e1a:    f003fce5    ....    BL       timer_config_b1 ; 0x1c7e8
        0x00018e1e:    200d        .       MOVS     r0,#0xd
        0x00018e20:    f000fd56    ..V.    BL       am_hal_timer_start ; 0x198d0
        0x00018e24:    200d        .       MOVS     r0,#0xd
        0x00018e26:    f000fccb    ....    BL       am_hal_timer_read ; 0x197c0
        0x00018e2a:    4681        .F      MOV      r9,r0
        0x00018e2c:    4650        PF      MOV      r0,r10
        0x00018e2e:    f7fffd95    ....    BL       am_hal_delay_us ; 0x1895c
        0x00018e32:    200d        .       MOVS     r0,#0xd
        0x00018e34:    f000fcc4    ....    BL       am_hal_timer_read ; 0x197c0
        0x00018e38:    4601        .F      MOV      r1,r0
        0x00018e3a:    4589        .E      CMP      r9,r1
        0x00018e3c:    bf14        ..      ITE      NE
        0x00018e3e:    2601        .&      MOVNE    r6,#1
        0x00018e40:    f04f36ff    O..6    MOVEQ    r6,#0xffffffff
        0x00018e44:    f8d40080    ....    LDR      r0,[r4,#0x80]
        0x00018e48:    f3c00009    ....    UBFX     r0,r0,#0,#10
        0x00018e4c:    d00e        ..      BEQ      0x18e6c ; am_hal_pwrctrl_control + 624
        0x00018e4e:    bf00        ..      NOP      
        0x00018e50:    f24032ff    @..2    MOV      r2,#0x3ff
        0x00018e54:    4290        .B      CMP      r0,r2
        0x00018e56:    d030        0.      BEQ      0x18eba ; am_hal_pwrctrl_control + 702
        0x00018e58:    4589        .E      CMP      r9,r1
        0x00018e5a:    d02a        *.      BEQ      0x18eb2 ; am_hal_pwrctrl_control + 694
        0x00018e5c:    1b92        ..      SUBS     r2,r2,r6
        0x00018e5e:    4282        .B      CMP      r2,r0
        0x00018e60:    bf2c        ,.      ITE      CS
        0x00018e62:    4430        0D      ADDCS    r0,r6
        0x00018e64:    f24030ff    @..0    MOVCC    r0,#0x3ff
        0x00018e68:    2e00        ..      CMP      r6,#0
        0x00018e6a:    da09        ..      BGE      0x18e80 ; am_hal_pwrctrl_control + 644
        0x00018e6c:    2801        .(      CMP      r0,#1
        0x00018e6e:    d920         .      BLS      0x18eb2 ; am_hal_pwrctrl_control + 694
        0x00018e70:    4589        .E      CMP      r9,r1
        0x00018e72:    d11e        ..      BNE      0x18eb2 ; am_hal_pwrctrl_control + 694
        0x00018e74:    f1c60101    ....    RSB      r1,r6,#1
        0x00018e78:    4281        .B      CMP      r1,r0
        0x00018e7a:    bf94        ..      ITE      LS
        0x00018e7c:    4430        0D      ADDLS    r0,r6
        0x00018e7e:    2001        .       MOVHI    r0,#1
        0x00018e80:    b1be        ..      CBZ      r6,0x18eb2 ; am_hal_pwrctrl_control + 694
        0x00018e82:    f8d41080    ....    LDR      r1,[r4,#0x80]
        0x00018e86:    f3600109    `...    BFI      r1,r0,#0,#10
        0x00018e8a:    f8c41080    ....    STR      r1,[r4,#0x80]
        0x00018e8e:    200d        .       MOVS     r0,#0xd
        0x00018e90:    f000fc96    ....    BL       am_hal_timer_read ; 0x197c0
        0x00018e94:    4681        .F      MOV      r9,r0
        0x00018e96:    4650        PF      MOV      r0,r10
        0x00018e98:    f7fffd60    ..`.    BL       am_hal_delay_us ; 0x1895c
        0x00018e9c:    200d        .       MOVS     r0,#0xd
        0x00018e9e:    f000fc8f    ....    BL       am_hal_timer_read ; 0x197c0
        0x00018ea2:    4601        .F      MOV      r1,r0
        0x00018ea4:    f8d40080    ....    LDR      r0,[r4,#0x80]
        0x00018ea8:    2e00        ..      CMP      r6,#0
        0x00018eaa:    f3c00009    ....    UBFX     r0,r0,#0,#10
        0x00018eae:    dddb        ..      BLE      0x18e68 ; am_hal_pwrctrl_control + 620
        0x00018eb0:    e7ce        ..      B        0x18e50 ; am_hal_pwrctrl_control + 596
        0x00018eb2:    280d        .(      CMP      r0,#0xd
        0x00018eb4:    bf98        ..      IT       LS
        0x00018eb6:    2001        .       MOVLS    r0,#1
        0x00018eb8:    d900        ..      BLS      0x18ebc ; am_hal_pwrctrl_control + 704
        0x00018eba:    380c        .8      SUBS     r0,r0,#0xc
        0x00018ebc:    f8d41080    ....    LDR      r1,[r4,#0x80]
        0x00018ec0:    f3600109    `...    BFI      r1,r0,#0,#10
        0x00018ec4:    f8c41080    ....    STR      r1,[r4,#0x80]
        0x00018ec8:    200d        .       MOVS     r0,#0xd
        0x00018eca:    f000fbfd    ....    BL       am_hal_timer_clear_stop ; 0x196c8
        0x00018ece:    200d        .       MOVS     r0,#0xd
        0x00018ed0:    f000fd20    .. .    BL       am_hal_timer_stop ; 0x19914
        0x00018ed4:    200d        .       MOVS     r0,#0xd
        0x00018ed6:    f000fc85    ....    BL       am_hal_timer_reset_config ; 0x197e4
        0x00018eda:    a809        ..      ADD      r0,sp,#0x24
        0x00018edc:    f8ddb020    .. .    LDR      r11,[sp,#0x20]
        0x00018ee0:    f000fc1e    ....    BL       am_hal_timer_default_config_set ; 0x19720
        0x00018ee4:    201d        .       MOVS     r0,#0x1d
        0x00018ee6:    f88d0024    ..$.    STRB     r0,[sp,#0x24]
        0x00018eea:    f88d7025    ..%p    STRB     r7,[sp,#0x25]
        0x00018eee:    a909        ..      ADD      r1,sp,#0x24
        0x00018ef0:    200d        .       MOVS     r0,#0xd
        0x00018ef2:    f003fc79    ..y.    BL       timer_config_b1 ; 0x1c7e8
        0x00018ef6:    200d        .       MOVS     r0,#0xd
        0x00018ef8:    f000fcea    ....    BL       am_hal_timer_start ; 0x198d0
        0x00018efc:    200d        .       MOVS     r0,#0xd
        0x00018efe:    f000fc5f    .._.    BL       am_hal_timer_read ; 0x197c0
        0x00018f02:    4607        .F      MOV      r7,r0
        0x00018f04:    4658        XF      MOV      r0,r11
        0x00018f06:    f7fffd29    ..).    BL       am_hal_delay_us ; 0x1895c
        0x00018f0a:    200d        .       MOVS     r0,#0xd
        0x00018f0c:    f000fc58    ..X.    BL       am_hal_timer_read ; 0x197c0
        0x00018f10:    4601        .F      MOV      r1,r0
        0x00018f12:    428f        .B      CMP      r7,r1
        0x00018f14:    bf0c        ..      ITE      EQ
        0x00018f16:    f04f36ff    O..6    MOVEQ    r6,#0xffffffff
        0x00018f1a:    2601        .&      MOVNE    r6,#1
        0x00018f1c:    f1c6093f    ..?.    RSB      r9,r6,#0x3f
        0x00018f20:    f1c60a01    ....    RSB      r10,r6,#1
        0x00018f24:    f8d40088    ....    LDR      r0,[r4,#0x88]
        0x00018f28:    692a        *i      LDR      r2,[r5,#0x10]
        0x00018f2a:    f000003f    ..?.    AND      r0,r0,#0x3f
        0x00018f2e:    f1b23fff    ...?    CMP      r2,#0xffffffff
        0x00018f32:    bf08        ..      IT       EQ
        0x00018f34:    6128        (a      STREQ    r0,[r5,#0x10]
        0x00018f36:    2e00        ..      CMP      r6,#0
        0x00018f38:    dd08        ..      BLE      0x18f4c ; am_hal_pwrctrl_control + 848
        0x00018f3a:    283f        ?(      CMP      r0,#0x3f
        0x00018f3c:    d026        &.      BEQ      0x18f8c ; am_hal_pwrctrl_control + 912
        0x00018f3e:    428f        .B      CMP      r7,r1
        0x00018f40:    d020         .      BEQ      0x18f84 ; am_hal_pwrctrl_control + 904
        0x00018f42:    4581        .E      CMP      r9,r0
        0x00018f44:    bf38        8.      IT       CC
        0x00018f46:    203f        ?       MOVCC    r0,#0x3f
        0x00018f48:    d209        ..      BCS      0x18f5e ; am_hal_pwrctrl_control + 866
        0x00018f4a:    e009        ..      B        0x18f60 ; am_hal_pwrctrl_control + 868
        0x00018f4c:    da08        ..      BGE      0x18f60 ; am_hal_pwrctrl_control + 868
        0x00018f4e:    2801        .(      CMP      r0,#1
        0x00018f50:    d918        ..      BLS      0x18f84 ; am_hal_pwrctrl_control + 904
        0x00018f52:    428f        .B      CMP      r7,r1
        0x00018f54:    d116        ..      BNE      0x18f84 ; am_hal_pwrctrl_control + 904
        0x00018f56:    4582        .E      CMP      r10,r0
        0x00018f58:    bf88        ..      IT       HI
        0x00018f5a:    2001        .       MOVHI    r0,#1
        0x00018f5c:    d800        ..      BHI      0x18f60 ; am_hal_pwrctrl_control + 868
        0x00018f5e:    4430        0D      ADD      r0,r0,r6
        0x00018f60:    f8d41088    ....    LDR      r1,[r4,#0x88]
        0x00018f64:    f3600105    `...    BFI      r1,r0,#0,#6
        0x00018f68:    f8c41088    ....    STR      r1,[r4,#0x88]
        0x00018f6c:    200d        .       MOVS     r0,#0xd
        0x00018f6e:    f000fc27    ..'.    BL       am_hal_timer_read ; 0x197c0
        0x00018f72:    4607        .F      MOV      r7,r0
        0x00018f74:    4658        XF      MOV      r0,r11
        0x00018f76:    f7fffcf1    ....    BL       am_hal_delay_us ; 0x1895c
        0x00018f7a:    200d        .       MOVS     r0,#0xd
        0x00018f7c:    f000fc20    .. .    BL       am_hal_timer_read ; 0x197c0
        0x00018f80:    4601        .F      MOV      r1,r0
        0x00018f82:    e7cf        ..      B        0x18f24 ; am_hal_pwrctrl_control + 808
        0x00018f84:    2804        .(      CMP      r0,#4
        0x00018f86:    bf98        ..      IT       LS
        0x00018f88:    2001        .       MOVLS    r0,#1
        0x00018f8a:    d900        ..      BLS      0x18f8e ; am_hal_pwrctrl_control + 914
        0x00018f8c:    1ec0        ..      SUBS     r0,r0,#3
        0x00018f8e:    f8d41088    ....    LDR      r1,[r4,#0x88]
        0x00018f92:    f3600105    `...    BFI      r1,r0,#0,#6
        0x00018f96:    f8c41088    ....    STR      r1,[r4,#0x88]
        0x00018f9a:    200d        .       MOVS     r0,#0xd
        0x00018f9c:    f000fb94    ....    BL       am_hal_timer_clear_stop ; 0x196c8
        0x00018fa0:    200d        .       MOVS     r0,#0xd
        0x00018fa2:    f000fcb7    ....    BL       am_hal_timer_stop ; 0x19914
        0x00018fa6:    200d        .       MOVS     r0,#0xd
        0x00018fa8:    f000fc1c    ....    BL       am_hal_timer_reset_config ; 0x197e4
        0x00018fac:    e640        @.      B        0x18c30 ; am_hal_pwrctrl_control + 52
        0x00018fae:    4819        .H      LDR      r0,[pc,#100] ; [0x19014] = 0x1d188
        0x00018fb0:    e9d01052    ..R.    LDRD     r1,r0,[r0,#0x148]
        0x00018fb4:    6809        .h      LDR      r1,[r1,#0]
        0x00018fb6:    4008        .@      ANDS     r0,r0,r1
        0x00018fb8:    bf18        ..      IT       NE
        0x00018fba:    2001        .       MOVNE    r0,#1
        0x00018fbc:    2800        .(      CMP      r0,#0
        0x00018fbe:    f43fae37    ?.7.    BEQ      0x18c30 ; am_hal_pwrctrl_control + 52
        0x00018fc2:    2301        .#      MOVS     r3,#1
        0x00018fc4:    461a        .F      MOV      r2,r3
        0x00018fc6:    4914        .I      LDR      r1,[pc,#80] ; [0x19018] = 0x400c0a7c
        0x00018fc8:    2064        d       MOVS     r0,#0x64
        0x00018fca:    f7fffcdd    ....    BL       am_hal_delay_us_status_change ; 0x18988
        0x00018fce:    2800        .(      CMP      r0,#0
        0x00018fd0:    bf1c        ..      ITT      NE
        0x00018fd2:    b00f        ..      ADDNE    sp,sp,#0x3c
        0x00018fd4:    e8bd8ff0    ....    POPNE    {r4-r11,pc}
        0x00018fd8:    2301        .#      MOVS     r3,#1
        0x00018fda:    461a        .F      MOV      r2,r3
        0x00018fdc:    490f        .I      LDR      r1,[pc,#60] ; [0x1901c] = 0x400c1f10
        0x00018fde:    2064        d       MOVS     r0,#0x64
        0x00018fe0:    f7fffcd2    ....    BL       am_hal_delay_us_status_change ; 0x18988
        0x00018fe4:    2800        .(      CMP      r0,#0
        0x00018fe6:    bf1c        ..      ITT      NE
        0x00018fe8:    b00f        ..      ADDNE    sp,sp,#0x3c
        0x00018fea:    e8bd8ff0    ....    POPNE    {r4-r11,pc}
        0x00018fee:    480c        .H      LDR      r0,[pc,#48] ; [0x19020] = 0x400c0a80
        0x00018ff0:    6801        .h      LDR      r1,[r0,#0]
        0x00018ff2:    f0410101    A...    ORR      r1,r1,#1
        0x00018ff6:    6001        .`      STR      r1,[r0,#0]
        0x00018ff8:    200f        .       MOVS     r0,#0xf
        0x00018ffa:    f7fffcaf    ....    BL       am_hal_delay_us ; 0x1895c
        0x00018ffe:    2310        .#      MOVS     r3,#0x10
        0x00019000:    2200        ."      MOVS     r2,#0
        0x00019002:    4804        .H      LDR      r0,[pc,#16] ; [0x19014] = 0x1d188
        0x00019004:    0419        ..      LSLS     r1,r3,#16
        0x00019006:    e00d        ..      B        0x19024 ; am_hal_pwrctrl_control + 1064
    $d
        0x00019008:    40021000    ...@    DCD    1073876992
        0x0001900c:    40020000    ...@    DCD    1073872896
        0x00019010:    100000a4    ....    DCD    268435620
        0x00019014:    0001d188    ....    DCD    119176
        0x00019018:    400c0a7c    |..@    DCD    1074530940
        0x0001901c:    400c1f10    ...@    DCD    1074536208
        0x00019020:    400c0a80    ...@    DCD    1074530944
    $t
        0x00019024:    e9d04552    ..RE    LDRD     r4,r5,[r0,#0x148]
        0x00019028:    480a        .H      LDR      r0,[pc,#40] ; [0x19054] = 0x40021004
        0x0001902a:    f001f815    ....    BL       am_hal_util_write_and_wait ; 0x1a058
        0x0001902e:    6820         h      LDR      r0,[r4,#0]
        0x00019030:    4228        (B      TST      r0,r5
        0x00019032:    bf1e        ..      ITTT     NE
        0x00019034:    4630        0F      MOVNE    r0,r6
        0x00019036:    b00f        ..      ADDNE    sp,sp,#0x3c
        0x00019038:    e8bd8ff0    ....    POPNE    {r4-r11,pc}
        0x0001903c:    e5f8        ..      B        0x18c30 ; am_hal_pwrctrl_control + 52
        0x0001903e:    bf00        ..      NOP      
        0x00019040:    f8d40124    ..$.    LDR      r0,[r4,#0x124]
        0x00019044:    f02000fc     ...    BIC      r0,r0,#0xfc
        0x00019048:    3080        .0      ADDS     r0,r0,#0x80
        0x0001904a:    f8c40124    ..$.    STR      r0,[r4,#0x124]
        0x0001904e:    f8c46120    .. a    STR      r6,[r4,#0x120]
        0x00019052:    e5ed        ..      B        0x18c30 ; am_hal_pwrctrl_control + 52
    $d
        0x00019054:    40021004    ...@    DCD    1073876996
    $t
    i.am_hal_pwrctrl_low_power_init
    am_hal_pwrctrl_low_power_init
        0x00019058:    b5f8        ..      PUSH     {r3-r7,lr}
        0x0001905a:    f7fffd7d    ..}.    BL       am_hal_mram_ds_init ; 0x18b58
        0x0001905e:    4863        cH      LDR      r0,[pc,#396] ; [0x191ec] = 0x1d180
        0x00019060:    f000f8d6    ....    BL       am_hal_pwrctrl_mcu_memory_config ; 0x19210
        0x00019064:    4d62        bM      LDR      r5,[pc,#392] ; [0x191f0] = 0x1d17c
        0x00019066:    4c63        cL      LDR      r4,[pc,#396] ; [0x191f4] = 0x40021000
        0x00019068:    7829        )x      LDRB     r1,[r5,#0]
        0x0001906a:    6a60        `j      LDR      r0,[r4,#0x24]
        0x0001906c:    f3610001    a...    BFI      r0,r1,#0,#2
        0x00019070:    6260        `b      STR      r0,[r4,#0x24]
        0x00019072:    2001        .       MOVS     r0,#1
        0x00019074:    9000        ..      STR      r0,[sp,#0]
        0x00019076:    6a63        cj      LDR      r3,[r4,#0x24]
        0x00019078:    2203        ."      MOVS     r2,#3
        0x0001907a:    495f        _I      LDR      r1,[pc,#380] ; [0x191f8] = 0x40021028
        0x0001907c:    2005        .       MOVS     r0,#5
        0x0001907e:    f7fffcaf    ....    BL       am_hal_delay_us_status_check ; 0x189e0
        0x00019082:    2800        .(      CMP      r0,#0
        0x00019084:    d12f        /.      BNE      0x190e6 ; am_hal_pwrctrl_low_power_init + 142
        0x00019086:    6aa0        .j      LDR      r0,[r4,#0x28]
        0x00019088:    6a61        aj      LDR      r1,[r4,#0x24]
        0x0001908a:    f0000003    ....    AND      r0,r0,#3
        0x0001908e:    f0010103    ....    AND      r1,r1,#3
        0x00019092:    4288        .B      CMP      r0,r1
        0x00019094:    d127        '.      BNE      0x190e6 ; am_hal_pwrctrl_low_power_init + 142
        0x00019096:    7869        ix      LDRB     r1,[r5,#1]
        0x00019098:    6ae0        .j      LDR      r0,[r4,#0x2c]
        0x0001909a:    f3610083    a...    BFI      r0,r1,#2,#2
        0x0001909e:    62e0        .b      STR      r0,[r4,#0x2c]
        0x000190a0:    78a9        .x      LDRB     r1,[r5,#2]
        0x000190a2:    6ae0        .j      LDR      r0,[r4,#0x2c]
        0x000190a4:    f3611005    a...    BFI      r0,r1,#4,#2
        0x000190a8:    62e0        .b      STR      r0,[r4,#0x2c]
        0x000190aa:    6ae0        .j      LDR      r0,[r4,#0x2c]
        0x000190ac:    f02000c0     ...    BIC      r0,r0,#0xc0
        0x000190b0:    62e0        .b      STR      r0,[r4,#0x2c]
        0x000190b2:    6ae0        .j      LDR      r0,[r4,#0x2c]
        0x000190b4:    f4207040     .@p    BIC      r0,r0,#0x300
        0x000190b8:    62e0        .b      STR      r0,[r4,#0x2c]
        0x000190ba:    78e8        .x      LDRB     r0,[r5,#3]
        0x000190bc:    2800        .(      CMP      r0,#0
        0x000190be:    bf04        ..      ITT      EQ
        0x000190c0:    6ae0        .j      LDREQ    r0,[r4,#0x2c]
        0x000190c2:    f0400003    @...    ORREQ    r0,r0,#3
        0x000190c6:    d008        ..      BEQ      0x190da ; am_hal_pwrctrl_low_power_init + 130
        0x000190c8:    2801        .(      CMP      r0,#1
        0x000190ca:    d002        ..      BEQ      0x190d2 ; am_hal_pwrctrl_low_power_init + 122
        0x000190cc:    2803        .(      CMP      r0,#3
        0x000190ce:    d006        ..      BEQ      0x190de ; am_hal_pwrctrl_low_power_init + 134
        0x000190d0:    e009        ..      B        0x190e6 ; am_hal_pwrctrl_low_power_init + 142
        0x000190d2:    6ae0        .j      LDR      r0,[r4,#0x2c]
        0x000190d4:    f0200003     ...    BIC      r0,r0,#3
        0x000190d8:    1c80        ..      ADDS     r0,r0,#2
        0x000190da:    62e0        .b      STR      r0,[r4,#0x2c]
        0x000190dc:    e003        ..      B        0x190e6 ; am_hal_pwrctrl_low_power_init + 142
        0x000190de:    6ae0        .j      LDR      r0,[r4,#0x2c]
        0x000190e0:    f0200003     ...    BIC      r0,r0,#3
        0x000190e4:    62e0        .b      STR      r0,[r4,#0x2c]
        0x000190e6:    4845        EH      LDR      r0,[pc,#276] ; [0x191fc] = 0x100006f8
        0x000190e8:    4945        EI      LDR      r1,[pc,#276] ; [0x19200] = 0xcd735a03
        0x000190ea:    4d46        FM      LDR      r5,[pc,#280] ; [0x19204] = 0x40020000
        0x000190ec:    6802        .h      LDR      r2,[r0,#0]
        0x000190ee:    428a        .B      CMP      r2,r1
        0x000190f0:    d039        9.      BEQ      0x19166 ; am_hal_pwrctrl_low_power_init + 270
        0x000190f2:    f8d5233c    ..<#    LDR      r2,[r5,#0x33c]
        0x000190f6:    6042        B`      STR      r2,[r0,#4]
        0x000190f8:    f8d52340    ..@#    LDR      r2,[r5,#0x340]
        0x000190fc:    6082        .`      STR      r2,[r0,#8]
        0x000190fe:    f8d52344    ..D#    LDR      r2,[r5,#0x344]
        0x00019102:    60c2        .`      STR      r2,[r0,#0xc]
        0x00019104:    f8d5234c    ..L#    LDR      r2,[r5,#0x34c]
        0x00019108:    6102        .a      STR      r2,[r0,#0x10]
        0x0001910a:    f8d52354    ..T#    LDR      r2,[r5,#0x354]
        0x0001910e:    6142        Ba      STR      r2,[r0,#0x14]
        0x00019110:    f8d52358    ..X#    LDR      r2,[r5,#0x358]
        0x00019114:    6182        .a      STR      r2,[r0,#0x18]
        0x00019116:    f8d52360    ..`#    LDR      r2,[r5,#0x360]
        0x0001911a:    61c2        .a      STR      r2,[r0,#0x1c]
        0x0001911c:    f8d5236c    ..l#    LDR      r2,[r5,#0x36c]
        0x00019120:    6202        .b      STR      r2,[r0,#0x20]
        0x00019122:    f8d52370    ..p#    LDR      r2,[r5,#0x370]
        0x00019126:    6242        Bb      STR      r2,[r0,#0x24]
        0x00019128:    f8d52378    ..x#    LDR      r2,[r5,#0x378]
        0x0001912c:    6282        .b      STR      r2,[r0,#0x28]
        0x0001912e:    f8d52080    ...     LDR      r2,[r5,#0x80]
        0x00019132:    62c2        .b      STR      r2,[r0,#0x2c]
        0x00019134:    f8d52088    ...     LDR      r2,[r5,#0x88]
        0x00019138:    6302        .c      STR      r2,[r0,#0x30]
        0x0001913a:    6c6a        jl      LDR      r2,[r5,#0x44]
        0x0001913c:    6342        Bc      STR      r2,[r0,#0x34]
        0x0001913e:    f8d5237c    ..|#    LDR      r2,[r5,#0x37c]
        0x00019142:    6382        .c      STR      r2,[r0,#0x38]
        0x00019144:    f8d52380    ...#    LDR      r2,[r5,#0x380]
        0x00019148:    63c2        .c      STR      r2,[r0,#0x3c]
        0x0001914a:    6e2a        *n      LDR      r2,[r5,#0x60]
        0x0001914c:    6402        .d      STR      r2,[r0,#0x40]
        0x0001914e:    6aaa        .j      LDR      r2,[r5,#0x28]
        0x00019150:    6442        Bd      STR      r2,[r0,#0x44]
        0x00019152:    f8d52124    ..$!    LDR      r2,[r5,#0x124]
        0x00019156:    6482        .d      STR      r2,[r0,#0x48]
        0x00019158:    f8d52108    ...!    LDR      r2,[r5,#0x108]
        0x0001915c:    64c2        .d      STR      r2,[r0,#0x4c]
        0x0001915e:    4a2a        *J      LDR      r2,[pc,#168] ; [0x19208] = 0x4002042c
        0x00019160:    6812        .h      LDR      r2,[r2,#0]
        0x00019162:    6502        .e      STR      r2,[r0,#0x50]
        0x00019164:    6001        .`      STR      r1,[r0,#0]
        0x00019166:    f04f2640    O.@&    MOV      r6,#0x40004000
        0x0001916a:    6c70        pl      LDR      r0,[r6,#0x44]
        0x0001916c:    f020707f     ..p    BIC      r0,r0,#0x3fc0000
        0x00019170:    f5000078    ..x.    ADD      r0,r0,#0xf80000
        0x00019174:    6470        pd      STR      r0,[r6,#0x44]
        0x00019176:    2000        .       MOVS     r0,#0
        0x00019178:    f8c40140    ..@.    STR      r0,[r4,#0x140]
        0x0001917c:    f8c40144    ..D.    STR      r0,[r4,#0x144]
        0x00019180:    f8c40148    ..H.    STR      r0,[r4,#0x148]
        0x00019184:    f8c4014c    ..L.    STR      r0,[r4,#0x14c]
        0x00019188:    f8c40150    ..P.    STR      r0,[r4,#0x150]
        0x0001918c:    f8c40154    ..T.    STR      r0,[r4,#0x154]
        0x00019190:    f8c40158    ..X.    STR      r0,[r4,#0x158]
        0x00019194:    f8c4015c    ..\.    STR      r0,[r4,#0x15c]
        0x00019198:    f8c40160    ..`.    STR      r0,[r4,#0x160]
        0x0001919c:    f8c40164    ..d.    STR      r0,[r4,#0x164]
        0x000191a0:    f8c40168    ..h.    STR      r0,[r4,#0x168]
        0x000191a4:    f8c4016c    ..l.    STR      r0,[r4,#0x16c]
        0x000191a8:    f8c40170    ..p.    STR      r0,[r4,#0x170]
        0x000191ac:    f8c40174    ..t.    STR      r0,[r4,#0x174]
        0x000191b0:    f8c40178    ..x.    STR      r0,[r4,#0x178]
        0x000191b4:    f8c4017c    ..|.    STR      r0,[r4,#0x17c]
        0x000191b8:    f8c40180    ....    STR      r0,[r4,#0x180]
        0x000191bc:    f8c40184    ....    STR      r0,[r4,#0x184]
        0x000191c0:    f8c40188    ....    STR      r0,[r4,#0x188]
        0x000191c4:    4811        .H      LDR      r0,[pc,#68] ; [0x1920c] = 0x1d3fc
        0x000191c6:    f7fffaf7    ....    BL       am_hal_daxi_config ; 0x187b8
        0x000191ca:    2064        d       MOVS     r0,#0x64
        0x000191cc:    f7fffbc6    ....    BL       am_hal_delay_us ; 0x1895c
        0x000191d0:    6c70        pl      LDR      r0,[r6,#0x44]
        0x000191d2:    f0400040    @.@.    ORR      r0,r0,#0x40
        0x000191d6:    6470        pd      STR      r0,[r6,#0x44]
        0x000191d8:    f8d5037c    ..|.    LDR      r0,[r5,#0x37c]
        0x000191dc:    f44000fd    @...    ORR      r0,r0,#0x7e8000
        0x000191e0:    f04060b0    @..`    ORR      r0,r0,#0x5800000
        0x000191e4:    f8c5037c    ..|.    STR      r0,[r5,#0x37c]
        0x000191e8:    2000        .       MOVS     r0,#0
        0x000191ea:    bdf8        ..      POP      {r3-r7,pc}
    $d
        0x000191ec:    0001d180    ....    DCD    119168
        0x000191f0:    0001d17c    |...    DCD    119164
        0x000191f4:    40021000    ...@    DCD    1073876992
        0x000191f8:    40021028    (..@    DCD    1073877032
        0x000191fc:    100006f8    ....    DCD    268437240
        0x00019200:    cd735a03    .Zs.    DCD    3446888963
        0x00019204:    40020000    ...@    DCD    1073872896
        0x00019208:    4002042c    ,..@    DCD    1073873964
        0x0001920c:    0001d3fc    ....    DCD    119804
    $t
    i.am_hal_pwrctrl_mcu_memory_config
    am_hal_pwrctrl_mcu_memory_config
        0x00019210:    b538        8.      PUSH     {r3-r5,lr}
        0x00019212:    4605        .F      MOV      r5,r0
        0x00019214:    7800        .x      LDRB     r0,[r0,#0]
        0x00019216:    4c43        CL      LDR      r4,[pc,#268] ; [0x19324] = 0x40021000
        0x00019218:    b120         .      CBZ      r0,0x19224 ; am_hal_pwrctrl_mcu_memory_config + 20
        0x0001921a:    2801        .(      CMP      r0,#1
        0x0001921c:    d00a        ..      BEQ      0x19234 ; am_hal_pwrctrl_mcu_memory_config + 36
        0x0001921e:    2802        .(      CMP      r0,#2
        0x00019220:    d011        ..      BEQ      0x19246 ; am_hal_pwrctrl_mcu_memory_config + 54
        0x00019222:    e018        ..      B        0x19256 ; am_hal_pwrctrl_mcu_memory_config + 70
        0x00019224:    6960        `i      LDR      r0,[r4,#0x14]
        0x00019226:    f0200010     ...    BIC      r0,r0,#0x10
        0x0001922a:    6160        `a      STR      r0,[r4,#0x14]
        0x0001922c:    6960        `i      LDR      r0,[r4,#0x14]
        0x0001922e:    f0200020     . .    BIC      r0,r0,#0x20
        0x00019232:    e00f        ..      B        0x19254 ; am_hal_pwrctrl_mcu_memory_config + 68
        0x00019234:    6960        `i      LDR      r0,[r4,#0x14]
        0x00019236:    f0400010    @...    ORR      r0,r0,#0x10
        0x0001923a:    6160        `a      STR      r0,[r4,#0x14]
        0x0001923c:    6960        `i      LDR      r0,[r4,#0x14]
        0x0001923e:    f0200020     . .    BIC      r0,r0,#0x20
        0x00019242:    6160        `a      STR      r0,[r4,#0x14]
        0x00019244:    e007        ..      B        0x19256 ; am_hal_pwrctrl_mcu_memory_config + 70
        0x00019246:    6960        `i      LDR      r0,[r4,#0x14]
        0x00019248:    f0400010    @...    ORR      r0,r0,#0x10
        0x0001924c:    6160        `a      STR      r0,[r4,#0x14]
        0x0001924e:    6960        `i      LDR      r0,[r4,#0x14]
        0x00019250:    f0400020    @. .    ORR      r0,r0,#0x20
        0x00019254:    6160        `a      STR      r0,[r4,#0x14]
        0x00019256:    78a9        .x      LDRB     r1,[r5,#2]
        0x00019258:    6960        `i      LDR      r0,[r4,#0x14]
        0x0001925a:    f3610002    a...    BFI      r0,r1,#0,#3
        0x0001925e:    6160        `a      STR      r0,[r4,#0x14]
        0x00019260:    7929        )y      LDRB     r1,[r5,#4]
        0x00019262:    6960        `i      LDR      r0,[r4,#0x14]
        0x00019264:    f36100c3    a...    BFI      r0,r1,#3,#1
        0x00019268:    6160        `a      STR      r0,[r4,#0x14]
        0x0001926a:    2001        .       MOVS     r0,#1
        0x0001926c:    9000        ..      STR      r0,[sp,#0]
        0x0001926e:    6963        ci      LDR      r3,[r4,#0x14]
        0x00019270:    223f        ?"      MOVS     r2,#0x3f
        0x00019272:    492d        -I      LDR      r1,[pc,#180] ; [0x19328] = 0x40021018
        0x00019274:    2005        .       MOVS     r0,#5
        0x00019276:    f7fffbb3    ....    BL       am_hal_delay_us_status_check ; 0x189e0
        0x0001927a:    2800        .(      CMP      r0,#0
        0x0001927c:    bf18        ..      IT       NE
        0x0001927e:    bd38        8.      POPNE    {r3-r5,pc}
        0x00019280:    69a0        .i      LDR      r0,[r4,#0x18]
        0x00019282:    6961        ai      LDR      r1,[r4,#0x14]
        0x00019284:    f3c01000    ....    UBFX     r0,r0,#4,#1
        0x00019288:    f3c11100    ....    UBFX     r1,r1,#4,#1
        0x0001928c:    4288        .B      CMP      r0,r1
        0x0001928e:    d117        ..      BNE      0x192c0 ; am_hal_pwrctrl_mcu_memory_config + 176
        0x00019290:    69a0        .i      LDR      r0,[r4,#0x18]
        0x00019292:    6961        ai      LDR      r1,[r4,#0x14]
        0x00019294:    f3c01040    ..@.    UBFX     r0,r0,#5,#1
        0x00019298:    f3c11140    ..@.    UBFX     r1,r1,#5,#1
        0x0001929c:    4288        .B      CMP      r0,r1
        0x0001929e:    d10f        ..      BNE      0x192c0 ; am_hal_pwrctrl_mcu_memory_config + 176
        0x000192a0:    69a0        .i      LDR      r0,[r4,#0x18]
        0x000192a2:    6961        ai      LDR      r1,[r4,#0x14]
        0x000192a4:    f0000007    ....    AND      r0,r0,#7
        0x000192a8:    f0010107    ....    AND      r1,r1,#7
        0x000192ac:    4288        .B      CMP      r0,r1
        0x000192ae:    d107        ..      BNE      0x192c0 ; am_hal_pwrctrl_mcu_memory_config + 176
        0x000192b0:    69a0        .i      LDR      r0,[r4,#0x18]
        0x000192b2:    6961        ai      LDR      r1,[r4,#0x14]
        0x000192b4:    f3c000c0    ....    UBFX     r0,r0,#3,#1
        0x000192b8:    f3c101c0    ....    UBFX     r1,r1,#3,#1
        0x000192bc:    4288        .B      CMP      r0,r1
        0x000192be:    d001        ..      BEQ      0x192c4 ; am_hal_pwrctrl_mcu_memory_config + 180
        0x000192c0:    2001        .       MOVS     r0,#1
        0x000192c2:    bd38        8.      POP      {r3-r5,pc}
        0x000192c4:    7868        hx      LDRB     r0,[r5,#1]
        0x000192c6:    2800        .(      CMP      r0,#0
        0x000192c8:    69e0        .i      LDR      r0,[r4,#0x1c]
        0x000192ca:    bf14        ..      ITE      NE
        0x000192cc:    f0200010     ...    BICNE    r0,r0,#0x10
        0x000192d0:    f0400010    @...    ORREQ    r0,r0,#0x10
        0x000192d4:    61e0        .a      STR      r0,[r4,#0x1c]
        0x000192d6:    7968        hy      LDRB     r0,[r5,#5]
        0x000192d8:    2800        .(      CMP      r0,#0
        0x000192da:    69e0        .i      LDR      r0,[r4,#0x1c]
        0x000192dc:    bf14        ..      ITE      NE
        0x000192de:    f0200008     ...    BICNE    r0,r0,#8
        0x000192e2:    f0400008    @...    ORREQ    r0,r0,#8
        0x000192e6:    61e0        .a      STR      r0,[r4,#0x1c]
        0x000192e8:    78e8        .x      LDRB     r0,[r5,#3]
        0x000192ea:    2800        .(      CMP      r0,#0
        0x000192ec:    bf04        ..      ITT      EQ
        0x000192ee:    69e0        .i      LDREQ    r0,[r4,#0x1c]
        0x000192f0:    f0400007    @...    ORREQ    r0,r0,#7
        0x000192f4:    d013        ..      BEQ      0x1931e ; am_hal_pwrctrl_mcu_memory_config + 270
        0x000192f6:    2801        .(      CMP      r0,#1
        0x000192f8:    d008        ..      BEQ      0x1930c ; am_hal_pwrctrl_mcu_memory_config + 252
        0x000192fa:    2803        .(      CMP      r0,#3
        0x000192fc:    d00b        ..      BEQ      0x19316 ; am_hal_pwrctrl_mcu_memory_config + 262
        0x000192fe:    2807        .(      CMP      r0,#7
        0x00019300:    bf04        ..      ITT      EQ
        0x00019302:    69e0        .i      LDREQ    r0,[r4,#0x1c]
        0x00019304:    f0200007     ...    BICEQ    r0,r0,#7
        0x00019308:    d009        ..      BEQ      0x1931e ; am_hal_pwrctrl_mcu_memory_config + 270
        0x0001930a:    e009        ..      B        0x19320 ; am_hal_pwrctrl_mcu_memory_config + 272
        0x0001930c:    69e0        .i      LDR      r0,[r4,#0x1c]
        0x0001930e:    f0200007     ...    BIC      r0,r0,#7
        0x00019312:    1d80        ..      ADDS     r0,r0,#6
        0x00019314:    e003        ..      B        0x1931e ; am_hal_pwrctrl_mcu_memory_config + 270
        0x00019316:    69e0        .i      LDR      r0,[r4,#0x1c]
        0x00019318:    f0200007     ...    BIC      r0,r0,#7
        0x0001931c:    1d00        ..      ADDS     r0,r0,#4
        0x0001931e:    61e0        .a      STR      r0,[r4,#0x1c]
        0x00019320:    2000        .       MOVS     r0,#0
        0x00019322:    bd38        8.      POP      {r3-r5,pc}
    $d
        0x00019324:    40021000    ...@    DCD    1073876992
        0x00019328:    40021018    ...@    DCD    1073877016
    $t
    i.am_hal_pwrctrl_periph_disable
    am_hal_pwrctrl_periph_disable
        0x0001932c:    2822        "(      CMP      r0,#0x22
        0x0001932e:    bf24        $.      ITT      CS
        0x00019330:    2006        .       MOVCS    r0,#6
        0x00019332:    4770        pG      BXCS     lr
        0x00019334:    e92d43f8    -..C    PUSH     {r3-r9,lr}
        0x00019338:    4a16        .J      LDR      r2,[pc,#88] ; [0x19394] = 0x1d188
        0x0001933a:    f04f0800    O...    MOV      r8,#0
        0x0001933e:    eb021100    ....    ADD      r1,r2,r0,LSL #4
        0x00019342:    2814        .(      CMP      r0,#0x14
        0x00019344:    e9d15402    ...T    LDRD     r5,r4,[r1,#8]
        0x00019348:    e9d16700    ...g    LDRD     r6,r7,[r1,#0]
        0x0001934c:    d01a        ..      BEQ      0x19384 ; am_hal_pwrctrl_periph_disable + 88
        0x0001934e:    f7fff815    ....    BL       am_hal_interrupt_master_disable ; 0x1837c
        0x00019352:    9000        ..      STR      r0,[sp,#0]
        0x00019354:    6830        0h      LDR      r0,[r6,#0]
        0x00019356:    43b8        .C      BICS     r0,r0,r7
        0x00019358:    6030        0`      STR      r0,[r6,#0]
        0x0001935a:    9800        ..      LDR      r0,[sp,#0]
        0x0001935c:    f7fff812    ....    BL       am_hal_interrupt_master_set ; 0x18384
        0x00019360:    4623        #F      MOV      r3,r4
        0x00019362:    461a        .F      MOV      r2,r3
        0x00019364:    4629        )F      MOV      r1,r5
        0x00019366:    2005        .       MOVS     r0,#5
        0x00019368:    f8cd8000    ....    STR      r8,[sp,#0]
        0x0001936c:    f7fffb38    ..8.    BL       am_hal_delay_us_status_check ; 0x189e0
        0x00019370:    2800        .(      CMP      r0,#0
        0x00019372:    bf18        ..      IT       NE
        0x00019374:    e8bd83f8    ....    POPNE    {r3-r9,pc}
        0x00019378:    6828        (h      LDR      r0,[r5,#0]
        0x0001937a:    4020         @      ANDS     r0,r0,r4
        0x0001937c:    bf18        ..      IT       NE
        0x0001937e:    2001        .       MOVNE    r0,#1
        0x00019380:    e8bd83f8    ....    POP      {r3-r9,pc}
        0x00019384:    2310        .#      MOVS     r3,#0x10
        0x00019386:    2200        ."      MOVS     r2,#0
        0x00019388:    0419        ..      LSLS     r1,r3,#16
        0x0001938a:    4803        .H      LDR      r0,[pc,#12] ; [0x19398] = 0x40021004
        0x0001938c:    f000fe64    ..d.    BL       am_hal_util_write_and_wait ; 0x1a058
        0x00019390:    e7f2        ..      B        0x19378 ; am_hal_pwrctrl_periph_disable + 76
    $d
        0x00019392:    0000        ..      DCW    0
        0x00019394:    0001d188    ....    DCD    119176
        0x00019398:    40021004    ...@    DCD    1073876996
    $t
    i.am_hal_pwrctrl_periph_enable
    am_hal_pwrctrl_periph_enable
        0x0001939c:    2822        "(      CMP      r0,#0x22
        0x0001939e:    bf24        $.      ITT      CS
        0x000193a0:    2006        .       MOVCS    r0,#6
        0x000193a2:    4770        pG      BXCS     lr
        0x000193a4:    b5f8        ..      PUSH     {r3-r7,lr}
        0x000193a6:    4a15        .J      LDR      r2,[pc,#84] ; [0x193fc] = 0x1d188
        0x000193a8:    2814        .(      CMP      r0,#0x14
        0x000193aa:    eb021100    ....    ADD      r1,r2,r0,LSL #4
        0x000193ae:    e9d15402    ...T    LDRD     r5,r4,[r1,#8]
        0x000193b2:    e9d16700    ...g    LDRD     r6,r7,[r1,#0]
        0x000193b6:    d019        ..      BEQ      0x193ec ; am_hal_pwrctrl_periph_enable + 80
        0x000193b8:    f7feffe0    ....    BL       am_hal_interrupt_master_disable ; 0x1837c
        0x000193bc:    9000        ..      STR      r0,[sp,#0]
        0x000193be:    6830        0h      LDR      r0,[r6,#0]
        0x000193c0:    4338        8C      ORRS     r0,r0,r7
        0x000193c2:    6030        0`      STR      r0,[r6,#0]
        0x000193c4:    9800        ..      LDR      r0,[sp,#0]
        0x000193c6:    f7feffdd    ....    BL       am_hal_interrupt_master_set ; 0x18384
        0x000193ca:    2001        .       MOVS     r0,#1
        0x000193cc:    4623        #F      MOV      r3,r4
        0x000193ce:    9000        ..      STR      r0,[sp,#0]
        0x000193d0:    461a        .F      MOV      r2,r3
        0x000193d2:    4629        )F      MOV      r1,r5
        0x000193d4:    2005        .       MOVS     r0,#5
        0x000193d6:    f7fffb03    ....    BL       am_hal_delay_us_status_check ; 0x189e0
        0x000193da:    2800        .(      CMP      r0,#0
        0x000193dc:    bf18        ..      IT       NE
        0x000193de:    bdf8        ..      POPNE    {r3-r7,pc}
        0x000193e0:    6828        (h      LDR      r0,[r5,#0]
        0x000193e2:    4220         B      TST      r0,r4
        0x000193e4:    bf14        ..      ITE      NE
        0x000193e6:    2000        .       MOVNE    r0,#0
        0x000193e8:    2001        .       MOVEQ    r0,#1
        0x000193ea:    bdf8        ..      POP      {r3-r7,pc}
        0x000193ec:    2310        .#      MOVS     r3,#0x10
        0x000193ee:    041a        ..      LSLS     r2,r3,#16
        0x000193f0:    4611        .F      MOV      r1,r2
        0x000193f2:    4803        .H      LDR      r0,[pc,#12] ; [0x19400] = 0x40021004
        0x000193f4:    f000fe30    ..0.    BL       am_hal_util_write_and_wait ; 0x1a058
        0x000193f8:    e7f2        ..      B        0x193e0 ; am_hal_pwrctrl_periph_enable + 68
    $d
        0x000193fa:    0000        ..      DCW    0
        0x000193fc:    0001d188    ....    DCD    119176
        0x00019400:    40021004    ...@    DCD    1073876996
    $t
    i.am_hal_pwrctrl_sram_config
    am_hal_pwrctrl_sram_config
        0x00019404:    b538        8.      PUSH     {r3-r5,lr}
        0x00019406:    4c22        "L      LDR      r4,[pc,#136] ; [0x19490] = 0x40021000
        0x00019408:    4605        .F      MOV      r5,r0
        0x0001940a:    7801        .x      LDRB     r1,[r0,#0]
        0x0001940c:    6a60        `j      LDR      r0,[r4,#0x24]
        0x0001940e:    f3610001    a...    BFI      r0,r1,#0,#2
        0x00019412:    6260        `b      STR      r0,[r4,#0x24]
        0x00019414:    2001        .       MOVS     r0,#1
        0x00019416:    9000        ..      STR      r0,[sp,#0]
        0x00019418:    6a63        cj      LDR      r3,[r4,#0x24]
        0x0001941a:    2203        ."      MOVS     r2,#3
        0x0001941c:    491d        .I      LDR      r1,[pc,#116] ; [0x19494] = 0x40021028
        0x0001941e:    2005        .       MOVS     r0,#5
        0x00019420:    f7fffade    ....    BL       am_hal_delay_us_status_check ; 0x189e0
        0x00019424:    2800        .(      CMP      r0,#0
        0x00019426:    bf18        ..      IT       NE
        0x00019428:    bd38        8.      POPNE    {r3-r5,pc}
        0x0001942a:    6aa0        .j      LDR      r0,[r4,#0x28]
        0x0001942c:    6a61        aj      LDR      r1,[r4,#0x24]
        0x0001942e:    f0000003    ....    AND      r0,r0,#3
        0x00019432:    f0010103    ....    AND      r1,r1,#3
        0x00019436:    4288        .B      CMP      r0,r1
        0x00019438:    bf1c        ..      ITT      NE
        0x0001943a:    2001        .       MOVNE    r0,#1
        0x0001943c:    bd38        8.      POPNE    {r3-r5,pc}
        0x0001943e:    7869        ix      LDRB     r1,[r5,#1]
        0x00019440:    6ae0        .j      LDR      r0,[r4,#0x2c]
        0x00019442:    f3610083    a...    BFI      r0,r1,#2,#2
        0x00019446:    62e0        .b      STR      r0,[r4,#0x2c]
        0x00019448:    78a9        .x      LDRB     r1,[r5,#2]
        0x0001944a:    6ae0        .j      LDR      r0,[r4,#0x2c]
        0x0001944c:    f3611005    a...    BFI      r0,r1,#4,#2
        0x00019450:    62e0        .b      STR      r0,[r4,#0x2c]
        0x00019452:    6ae0        .j      LDR      r0,[r4,#0x2c]
        0x00019454:    f02000c0     ...    BIC      r0,r0,#0xc0
        0x00019458:    62e0        .b      STR      r0,[r4,#0x2c]
        0x0001945a:    6ae0        .j      LDR      r0,[r4,#0x2c]
        0x0001945c:    f4207040     .@p    BIC      r0,r0,#0x300
        0x00019460:    62e0        .b      STR      r0,[r4,#0x2c]
        0x00019462:    78e8        .x      LDRB     r0,[r5,#3]
        0x00019464:    b140        @.      CBZ      r0,0x19478 ; am_hal_pwrctrl_sram_config + 116
        0x00019466:    2801        .(      CMP      r0,#1
        0x00019468:    d00b        ..      BEQ      0x19482 ; am_hal_pwrctrl_sram_config + 126
        0x0001946a:    2803        .(      CMP      r0,#3
        0x0001946c:    bf04        ..      ITT      EQ
        0x0001946e:    6ae0        .j      LDREQ    r0,[r4,#0x2c]
        0x00019470:    f0200003     ...    BICEQ    r0,r0,#3
        0x00019474:    d009        ..      BEQ      0x1948a ; am_hal_pwrctrl_sram_config + 134
        0x00019476:    e009        ..      B        0x1948c ; am_hal_pwrctrl_sram_config + 136
        0x00019478:    6ae0        .j      LDR      r0,[r4,#0x2c]
        0x0001947a:    f0400003    @...    ORR      r0,r0,#3
        0x0001947e:    62e0        .b      STR      r0,[r4,#0x2c]
        0x00019480:    e004        ..      B        0x1948c ; am_hal_pwrctrl_sram_config + 136
        0x00019482:    6ae0        .j      LDR      r0,[r4,#0x2c]
        0x00019484:    f0200003     ...    BIC      r0,r0,#3
        0x00019488:    1c80        ..      ADDS     r0,r0,#2
        0x0001948a:    62e0        .b      STR      r0,[r4,#0x2c]
        0x0001948c:    2000        .       MOVS     r0,#0
        0x0001948e:    bd38        8.      POP      {r3-r5,pc}
    $d
        0x00019490:    40021000    ...@    DCD    1073876992
        0x00019494:    40021028    (..@    DCD    1073877032
    $t
    i.am_hal_queue_item_add
    am_hal_queue_item_add
        0x00019498:    b5f8        ..      PUSH     {r3-r7,lr}
        0x0001949a:    4604        .F      MOV      r4,r0
        0x0001949c:    6900        .i      LDR      r0,[r0,#0x10]
        0x0001949e:    460d        .F      MOV      r5,r1
        0x000194a0:    fb00f602    ....    MUL      r6,r0,r2
        0x000194a4:    2700        .'      MOVS     r7,#0
        0x000194a6:    f7feff69    ..i.    BL       am_hal_interrupt_master_disable ; 0x1837c
        0x000194aa:    9000        ..      STR      r0,[sp,#0]
        0x000194ac:    e9d41002    ....    LDRD     r1,r0,[r4,#8]
        0x000194b0:    1a40        @.      SUBS     r0,r0,r1
        0x000194b2:    42b0        .B      CMP      r0,r6
        0x000194b4:    d33d        =.      BCC      0x19532 ; am_hal_queue_item_add + 154
        0x000194b6:    2e00        ..      CMP      r6,#0
        0x000194b8:    d037        7.      BEQ      0x1952a ; am_hal_queue_item_add + 146
        0x000194ba:    1e68        h.      SUBS     r0,r5,#1
        0x000194bc:    f0160f01    ....    TST      r6,#1
        0x000194c0:    d00d        ..      BEQ      0x194de ; am_hal_queue_item_add + 70
        0x000194c2:    b11d        ..      CBZ      r5,0x194cc ; am_hal_queue_item_add + 52
        0x000194c4:    6823        #h      LDR      r3,[r4,#0]
        0x000194c6:    6962        bi      LDR      r2,[r4,#0x14]
        0x000194c8:    7841        Ax      LDRB     r1,[r0,#1]
        0x000194ca:    54d1        .T      STRB     r1,[r2,r3]
        0x000194cc:    6821        !h      LDR      r1,[r4,#0]
        0x000194ce:    68e2        .h      LDR      r2,[r4,#0xc]
        0x000194d0:    1c49        I.      ADDS     r1,r1,#1
        0x000194d2:    fbb1f3f2    ....    UDIV     r3,r1,r2
        0x000194d6:    fb021113    ....    MLS      r1,r2,r3,r1
        0x000194da:    1c40        @.      ADDS     r0,r0,#1
        0x000194dc:    6021        !`      STR      r1,[r4,#0]
        0x000194de:    0871        q.      LSRS     r1,r6,#1
        0x000194e0:    d023        #.      BEQ      0x1952a ; am_hal_queue_item_add + 146
        0x000194e2:    2d00        .-      CMP      r5,#0
        0x000194e4:    d005        ..      BEQ      0x194f2 ; am_hal_queue_item_add + 90
        0x000194e6:    f8d4c000    ....    LDR      r12,[r4,#0]
        0x000194ea:    6963        ci      LDR      r3,[r4,#0x14]
        0x000194ec:    7842        Bx      LDRB     r2,[r0,#1]
        0x000194ee:    f803200c    ...     STRB     r2,[r3,r12]
        0x000194f2:    6822        "h      LDR      r2,[r4,#0]
        0x000194f4:    68e3        .h      LDR      r3,[r4,#0xc]
        0x000194f6:    f1020201    ....    ADD      r2,r2,#1
        0x000194fa:    fbb2fcf3    ....    UDIV     r12,r2,r3
        0x000194fe:    fb03221c    ..."    MLS      r2,r3,r12,r2
        0x00019502:    6022        "`      STR      r2,[r4,#0]
        0x00019504:    d005        ..      BEQ      0x19512 ; am_hal_queue_item_add + 122
        0x00019506:    f8d4c014    ....    LDR      r12,[r4,#0x14]
        0x0001950a:    7883        .x      LDRB     r3,[r0,#2]
        0x0001950c:    f80c3002    ...0    STRB     r3,[r12,r2]
        0x00019510:    6822        "h      LDR      r2,[r4,#0]
        0x00019512:    f1000002    ....    ADD      r0,r0,#2
        0x00019516:    f1020301    ....    ADD      r3,r2,#1
        0x0001951a:    68e2        .h      LDR      r2,[r4,#0xc]
        0x0001951c:    1e49        I.      SUBS     r1,r1,#1
        0x0001951e:    fbb3fcf2    ....    UDIV     r12,r3,r2
        0x00019522:    fb02321c    ...2    MLS      r2,r2,r12,r3
        0x00019526:    6022        "`      STR      r2,[r4,#0]
        0x00019528:    d1db        ..      BNE      0x194e2 ; am_hal_queue_item_add + 74
        0x0001952a:    68a0        .h      LDR      r0,[r4,#8]
        0x0001952c:    2701        .'      MOVS     r7,#1
        0x0001952e:    4430        0D      ADD      r0,r0,r6
        0x00019530:    60a0        .`      STR      r0,[r4,#8]
        0x00019532:    9800        ..      LDR      r0,[sp,#0]
        0x00019534:    f7feff26    ..&.    BL       am_hal_interrupt_master_set ; 0x18384
        0x00019538:    4638        8F      MOV      r0,r7
        0x0001953a:    bdf8        ..      POP      {r3-r7,pc}
    i.am_hal_queue_item_get
    am_hal_queue_item_get
        0x0001953c:    b5f8        ..      PUSH     {r3-r7,lr}
        0x0001953e:    4604        .F      MOV      r4,r0
        0x00019540:    6900        .i      LDR      r0,[r0,#0x10]
        0x00019542:    460d        .F      MOV      r5,r1
        0x00019544:    fb00f602    ....    MUL      r6,r0,r2
        0x00019548:    2700        .'      MOVS     r7,#0
        0x0001954a:    f7feff17    ....    BL       am_hal_interrupt_master_disable ; 0x1837c
        0x0001954e:    9000        ..      STR      r0,[sp,#0]
        0x00019550:    68a0        .h      LDR      r0,[r4,#8]
        0x00019552:    42b0        .B      CMP      r0,r6
        0x00019554:    d339        9.      BCC      0x195ca ; am_hal_queue_item_get + 142
        0x00019556:    2e00        ..      CMP      r6,#0
        0x00019558:    d033        3.      BEQ      0x195c2 ; am_hal_queue_item_get + 134
        0x0001955a:    1e68        h.      SUBS     r0,r5,#1
        0x0001955c:    f0160f01    ....    TST      r6,#1
        0x00019560:    d00d        ..      BEQ      0x1957e ; am_hal_queue_item_get + 66
        0x00019562:    b11d        ..      CBZ      r5,0x1956c ; am_hal_queue_item_get + 48
        0x00019564:    6862        bh      LDR      r2,[r4,#4]
        0x00019566:    6961        ai      LDR      r1,[r4,#0x14]
        0x00019568:    5c89        .\      LDRB     r1,[r1,r2]
        0x0001956a:    7041        Ap      STRB     r1,[r0,#1]
        0x0001956c:    6861        ah      LDR      r1,[r4,#4]
        0x0001956e:    68e2        .h      LDR      r2,[r4,#0xc]
        0x00019570:    1c49        I.      ADDS     r1,r1,#1
        0x00019572:    fbb1f3f2    ....    UDIV     r3,r1,r2
        0x00019576:    fb021113    ....    MLS      r1,r2,r3,r1
        0x0001957a:    1c40        @.      ADDS     r0,r0,#1
        0x0001957c:    6061        a`      STR      r1,[r4,#4]
        0x0001957e:    0871        q.      LSRS     r1,r6,#1
        0x00019580:    d01f        ..      BEQ      0x195c2 ; am_hal_queue_item_get + 134
        0x00019582:    2d00        .-      CMP      r5,#0
        0x00019584:    d003        ..      BEQ      0x1958e ; am_hal_queue_item_get + 82
        0x00019586:    6863        ch      LDR      r3,[r4,#4]
        0x00019588:    6962        bi      LDR      r2,[r4,#0x14]
        0x0001958a:    5cd2        .\      LDRB     r2,[r2,r3]
        0x0001958c:    7042        Bp      STRB     r2,[r0,#1]
        0x0001958e:    6862        bh      LDR      r2,[r4,#4]
        0x00019590:    68e3        .h      LDR      r3,[r4,#0xc]
        0x00019592:    f1020201    ....    ADD      r2,r2,#1
        0x00019596:    fbb2fcf3    ....    UDIV     r12,r2,r3
        0x0001959a:    fb03221c    ..."    MLS      r2,r3,r12,r2
        0x0001959e:    6062        b`      STR      r2,[r4,#4]
        0x000195a0:    d003        ..      BEQ      0x195aa ; am_hal_queue_item_get + 110
        0x000195a2:    6963        ci      LDR      r3,[r4,#0x14]
        0x000195a4:    5c9a        .\      LDRB     r2,[r3,r2]
        0x000195a6:    7082        .p      STRB     r2,[r0,#2]
        0x000195a8:    6862        bh      LDR      r2,[r4,#4]
        0x000195aa:    68e3        .h      LDR      r3,[r4,#0xc]
        0x000195ac:    f1020201    ....    ADD      r2,r2,#1
        0x000195b0:    fbb2fcf3    ....    UDIV     r12,r2,r3
        0x000195b4:    fb03221c    ..."    MLS      r2,r3,r12,r2
        0x000195b8:    f1000002    ....    ADD      r0,r0,#2
        0x000195bc:    6062        b`      STR      r2,[r4,#4]
        0x000195be:    1e49        I.      SUBS     r1,r1,#1
        0x000195c0:    d1df        ..      BNE      0x19582 ; am_hal_queue_item_get + 70
        0x000195c2:    68a0        .h      LDR      r0,[r4,#8]
        0x000195c4:    1b80        ..      SUBS     r0,r0,r6
        0x000195c6:    2701        .'      MOVS     r7,#1
        0x000195c8:    60a0        .`      STR      r0,[r4,#8]
        0x000195ca:    9800        ..      LDR      r0,[sp,#0]
        0x000195cc:    f7fefeda    ....    BL       am_hal_interrupt_master_set ; 0x18384
        0x000195d0:    4638        8F      MOV      r0,r7
        0x000195d2:    bdf8        ..      POP      {r3-r7,pc}
    i.am_hal_rtc_osc_disable
    am_hal_rtc_osc_disable
        0x000195d4:    4803        .H      LDR      r0,[pc,#12] ; [0x195e4] = 0x40004800
        0x000195d6:    6801        .h      LDR      r1,[r0,#0]
        0x000195d8:    f0410110    A...    ORR      r1,r1,#0x10
        0x000195dc:    6001        .`      STR      r1,[r0,#0]
        0x000195de:    2000        .       MOVS     r0,#0
        0x000195e0:    4770        pG      BX       lr
    $d
        0x000195e2:    0000        ..      DCW    0
        0x000195e4:    40004800    .H.@    DCD    1073760256
    $t
    i.am_hal_sysctrl_fpu_enable
    am_hal_sysctrl_fpu_enable
        0x000195e8:    4902        .I      LDR      r1,[pc,#8] ; [0x195f4] = 0xe000ed88
        0x000195ea:    f44f0070    O.p.    MOV      r0,#0xf00000
        0x000195ee:    6008        .`      STR      r0,[r1,#0]
        0x000195f0:    4770        pG      BX       lr
    $d
        0x000195f2:    0000        ..      DCW    0
        0x000195f4:    e000ed88    ....    DCD    3758157192
    $t
    i.am_hal_sysctrl_fpu_stacking_enable
    am_hal_sysctrl_fpu_stacking_enable
        0x000195f8:    b538        8.      PUSH     {r3-r5,lr}
        0x000195fa:    4604        .F      MOV      r4,r0
        0x000195fc:    f7fefebe    ....    BL       am_hal_interrupt_master_disable ; 0x1837c
        0x00019600:    9000        ..      STR      r0,[sp,#0]
        0x00019602:    4808        .H      LDR      r0,[pc,#32] ; [0x19624] = 0xe000ef34
        0x00019604:    6801        .h      LDR      r1,[r0,#0]
        0x00019606:    2c00        .,      CMP      r4,#0
        0x00019608:    f0214140    !.@A    BIC      r1,r1,#0xc0000000
        0x0001960c:    bf14        ..      ITE      NE
        0x0001960e:    f04f4240    O.@B    MOVNE    r2,#0xc0000000
        0x00019612:    f04f4200    O..B    MOVEQ    r2,#0x80000000
        0x00019616:    4311        .C      ORRS     r1,r1,r2
        0x00019618:    6001        .`      STR      r1,[r0,#0]
        0x0001961a:    9800        ..      LDR      r0,[sp,#0]
        0x0001961c:    e8bd4038    ..8@    POP      {r3-r5,lr}
        0x00019620:    f7febeb0    ....    B        am_hal_interrupt_master_set ; 0x18384
    $d
        0x00019624:    e000ef34    4...    DCD    3758157620
    $t
    i.am_hal_systick_count
    am_hal_systick_count
        0x00019628:    f04f20e0    O..     MOV      r0,#0xe000e000
        0x0001962c:    6980        .i      LDR      r0,[r0,#0x18]
        0x0001962e:    4770        pG      BX       lr
    i.am_hal_systick_int_enable
    am_hal_systick_int_enable
        0x00019630:    f04f20e0    O..     MOV      r0,#0xe000e000
        0x00019634:    6901        .i      LDR      r1,[r0,#0x10]
        0x00019636:    f0410102    A...    ORR      r1,r1,#2
        0x0001963a:    6101        .a      STR      r1,[r0,#0x10]
        0x0001963c:    4770        pG      BX       lr
    i.am_hal_systick_load
    am_hal_systick_load
        0x0001963e:    f04f21e0    O..!    MOV      r1,#0xe000e000
        0x00019642:    6148        Ha      STR      r0,[r1,#0x14]
        0x00019644:    2000        .       MOVS     r0,#0
        0x00019646:    6188        .a      STR      r0,[r1,#0x18]
        0x00019648:    4770        pG      BX       lr
    i.am_hal_systick_start
    am_hal_systick_start
        0x0001964a:    f04f20e0    O..     MOV      r0,#0xe000e000
        0x0001964e:    6901        .i      LDR      r1,[r0,#0x10]
        0x00019650:    f0410101    A...    ORR      r1,r1,#1
        0x00019654:    6101        .a      STR      r1,[r0,#0x10]
        0x00019656:    4770        pG      BX       lr
    i.am_hal_systick_stop
    am_hal_systick_stop
        0x00019658:    f04f20e0    O..     MOV      r0,#0xe000e000
        0x0001965c:    6901        .i      LDR      r1,[r0,#0x10]
        0x0001965e:    f0210101    !...    BIC      r1,r1,#1
        0x00019662:    6101        .a      STR      r1,[r0,#0x10]
        0x00019664:    4770        pG      BX       lr
        0x00019666:    0000        ..      MOVS     r0,r0
    i.am_hal_timer_clear
    am_hal_timer_clear
        0x00019668:    b538        8.      PUSH     {r3-r5,lr}
        0x0001966a:    4604        .F      MOV      r4,r0
        0x0001966c:    f7fefe86    ....    BL       am_hal_interrupt_master_disable ; 0x1837c
        0x00019670:    4914        .I      LDR      r1,[pc,#80] ; [0x196c4] = 0x40008000
        0x00019672:    9000        ..      STR      r0,[sp,#0]
        0x00019674:    f8d13104    ...1    LDR      r3,[r1,#0x104]
        0x00019678:    2001        .       MOVS     r0,#1
        0x0001967a:    fa00f204    ....    LSL      r2,r0,r4
        0x0001967e:    ea230002    #...    BIC      r0,r3,r2
        0x00019682:    f8c10104    ....    STR      r0,[r1,#0x104]
        0x00019686:    0160        `.      LSLS     r0,r4,#5
        0x00019688:    4408        .D      ADD      r0,r0,r1
        0x0001968a:    f8d03200    ...2    LDR      r3,[r0,#0x200]
        0x0001968e:    f0230301    #...    BIC      r3,r3,#1
        0x00019692:    f8c03200    ...2    STR      r3,[r0,#0x200]
        0x00019696:    f8d03200    ...2    LDR      r3,[r0,#0x200]
        0x0001969a:    f0430302    C...    ORR      r3,r3,#2
        0x0001969e:    f8c03200    ...2    STR      r3,[r0,#0x200]
        0x000196a2:    f8d03200    ...2    LDR      r3,[r0,#0x200]
        0x000196a6:    f0430301    C...    ORR      r3,r3,#1
        0x000196aa:    f8c03200    ...2    STR      r3,[r0,#0x200]
        0x000196ae:    f8d10104    ....    LDR      r0,[r1,#0x104]
        0x000196b2:    4310        .C      ORRS     r0,r0,r2
        0x000196b4:    f8c10104    ....    STR      r0,[r1,#0x104]
        0x000196b8:    9800        ..      LDR      r0,[sp,#0]
        0x000196ba:    f7fefe63    ..c.    BL       am_hal_interrupt_master_set ; 0x18384
        0x000196be:    2000        .       MOVS     r0,#0
        0x000196c0:    bd38        8.      POP      {r3-r5,pc}
    $d
        0x000196c2:    0000        ..      DCW    0
        0x000196c4:    40008000    ...@    DCD    1073774592
    $t
    i.am_hal_timer_clear_stop
    am_hal_timer_clear_stop
        0x000196c8:    b538        8.      PUSH     {r3-r5,lr}
        0x000196ca:    4604        .F      MOV      r4,r0
        0x000196cc:    f7fefe56    ..V.    BL       am_hal_interrupt_master_disable ; 0x1837c
        0x000196d0:    9000        ..      STR      r0,[sp,#0]
        0x000196d2:    4812        .H      LDR      r0,[pc,#72] ; [0x1971c] = 0x40008000
        0x000196d4:    f8d01104    ....    LDR      r1,[r0,#0x104]
        0x000196d8:    2201        ."      MOVS     r2,#1
        0x000196da:    40a2        .@      LSLS     r2,r2,r4
        0x000196dc:    4391        .C      BICS     r1,r1,r2
        0x000196de:    f8c01104    ....    STR      r1,[r0,#0x104]
        0x000196e2:    0160        `.      LSLS     r0,r4,#5
        0x000196e4:    f1004080    ...@    ADD      r0,r0,#0x40000000
        0x000196e8:    f5004000    ...@    ADD      r0,r0,#0x8000
        0x000196ec:    f8d01200    ....    LDR      r1,[r0,#0x200]
        0x000196f0:    f0210101    !...    BIC      r1,r1,#1
        0x000196f4:    f8c01200    ....    STR      r1,[r0,#0x200]
        0x000196f8:    f8d01200    ....    LDR      r1,[r0,#0x200]
        0x000196fc:    f0410102    A...    ORR      r1,r1,#2
        0x00019700:    f8c01200    ....    STR      r1,[r0,#0x200]
        0x00019704:    f8d01200    ....    LDR      r1,[r0,#0x200]
        0x00019708:    f0410101    A...    ORR      r1,r1,#1
        0x0001970c:    f8c01200    ....    STR      r1,[r0,#0x200]
        0x00019710:    9800        ..      LDR      r0,[sp,#0]
        0x00019712:    f7fefe37    ..7.    BL       am_hal_interrupt_master_set ; 0x18384
        0x00019716:    2000        .       MOVS     r0,#0
        0x00019718:    bd38        8.      POP      {r3-r5,pc}
    $d
        0x0001971a:    0000        ..      DCW    0
        0x0001971c:    40008000    ...@    DCD    1073774592
    $t
    i.am_hal_timer_default_config_set
    am_hal_timer_default_config_set
        0x00019720:    2201        ."      MOVS     r2,#1
        0x00019722:    7002        .p      STRB     r2,[r0,#0]
        0x00019724:    7042        Bp      STRB     r2,[r0,#1]
        0x00019726:    1e91        ..      SUBS     r1,r2,#2
        0x00019728:    60c1        .`      STR      r1,[r0,#0xc]
        0x0001972a:    6101        .a      STR      r1,[r0,#0x10]
        0x0001972c:    2100        .!      MOVS     r1,#0
        0x0001972e:    7081        .p      STRB     r1,[r0,#2]
        0x00019730:    70c1        .p      STRB     r1,[r0,#3]
        0x00019732:    7101        .q      STRB     r1,[r0,#4]
        0x00019734:    7142        Bq      STRB     r2,[r0,#5]
        0x00019736:    6081        .`      STR      r1,[r0,#8]
        0x00019738:    4608        .F      MOV      r0,r1
        0x0001973a:    4770        pG      BX       lr
    i.am_hal_timer_interrupt_clear
    am_hal_timer_interrupt_clear
        0x0001973c:    4901        .I      LDR      r1,[pc,#4] ; [0x19744] = 0x40008000
        0x0001973e:    6688        .f      STR      r0,[r1,#0x68]
        0x00019740:    2000        .       MOVS     r0,#0
        0x00019742:    4770        pG      BX       lr
    $d
        0x00019744:    40008000    ...@    DCD    1073774592
    $t
    i.am_hal_timer_interrupt_enable
    am_hal_timer_interrupt_enable
        0x00019748:    4a14        .J      LDR      r2,[pc,#80] ; [0x1979c] = 0x40020000
        0x0001974a:    4601        .F      MOV      r1,r0
        0x0001974c:    68d2        .h      LDR      r2,[r2,#0xc]
        0x0001974e:    b2d2        ..      UXTB     r2,r2
        0x00019750:    2a22        "*      CMP      r2,#0x22
        0x00019752:    bf24        $.      ITT      CS
        0x00019754:    2200        ."      MOVCS    r2,#0
        0x00019756:    4b12        .K      LDRCS    r3,[pc,#72] ; [0x197a0] = 0x100009fc
        0x00019758:    d318        ..      BCC      0x1978c ; am_hal_timer_interrupt_enable + 68
        0x0001975a:    bf00        ..      NOP      
        0x0001975c:    f0110f01    ....    TST      r1,#1
        0x00019760:    d006        ..      BEQ      0x19770 ; am_hal_timer_interrupt_enable + 40
        0x00019762:    eb030c82    ....    ADD      r12,r3,r2,LSL #2
        0x00019766:    f89cc001    ....    LDRB     r12,[r12,#1]
        0x0001976a:    f1bc0f00    ....    CMP      r12,#0
        0x0001976e:    d013        ..      BEQ      0x19798 ; am_hal_timer_interrupt_enable + 80
        0x00019770:    f0110f02    ....    TST      r1,#2
        0x00019774:    d006        ..      BEQ      0x19784 ; am_hal_timer_interrupt_enable + 60
        0x00019776:    eb030c82    ....    ADD      r12,r3,r2,LSL #2
        0x0001977a:    f89cc003    ....    LDRB     r12,[r12,#3]
        0x0001977e:    f1bc0f00    ....    CMP      r12,#0
        0x00019782:    d009        ..      BEQ      0x19798 ; am_hal_timer_interrupt_enable + 80
        0x00019784:    0889        ..      LSRS     r1,r1,#2
        0x00019786:    1c52        R.      ADDS     r2,r2,#1
        0x00019788:    2a10        .*      CMP      r2,#0x10
        0x0001978a:    d3e7        ..      BCC      0x1975c ; am_hal_timer_interrupt_enable + 20
        0x0001978c:    4905        .I      LDR      r1,[pc,#20] ; [0x197a4] = 0x40008000
        0x0001978e:    6e0a        .n      LDR      r2,[r1,#0x60]
        0x00019790:    4310        .C      ORRS     r0,r0,r2
        0x00019792:    6608        .f      STR      r0,[r1,#0x60]
        0x00019794:    2000        .       MOVS     r0,#0
        0x00019796:    4770        pG      BX       lr
        0x00019798:    2006        .       MOVS     r0,#6
        0x0001979a:    4770        pG      BX       lr
    $d
        0x0001979c:    40020000    ...@    DCD    1073872896
        0x000197a0:    100009fc    ....    DCD    268438012
        0x000197a4:    40008000    ...@    DCD    1073774592
    $t
    i.am_hal_timer_interrupt_status_get
    am_hal_timer_interrupt_status_get
        0x000197a8:    4a04        .J      LDR      r2,[pc,#16] ; [0x197bc] = 0x40008000
        0x000197aa:    2800        .(      CMP      r0,#0
        0x000197ac:    6e50        Pn      LDR      r0,[r2,#0x64]
        0x000197ae:    bf1c        ..      ITT      NE
        0x000197b0:    6e12        .n      LDRNE    r2,[r2,#0x60]
        0x000197b2:    4010        .@      ANDNE    r0,r0,r2
        0x000197b4:    6008        .`      STR      r0,[r1,#0]
        0x000197b6:    2000        .       MOVS     r0,#0
        0x000197b8:    4770        pG      BX       lr
    $d
        0x000197ba:    0000        ..      DCW    0
        0x000197bc:    40008000    ...@    DCD    1073774592
    $t
    i.am_hal_timer_read
    am_hal_timer_read
        0x000197c0:    b500        ..      PUSH     {lr}
        0x000197c2:    4907        .I      LDR      r1,[pc,#28] ; [0x197e0] = 0x40008204
        0x000197c4:    b083        ..      SUB      sp,sp,#0xc
        0x000197c6:    eb011040    ..@.    ADD      r0,r1,r0,LSL #5
        0x000197ca:    4669        iF      MOV      r1,sp
        0x000197cc:    f7fefdc4    ....    BL       am_hal_triple_read ; 0x18358
        0x000197d0:    e9dd0100    ....    LDRD     r0,r1,[sp,#0]
        0x000197d4:    4288        .B      CMP      r0,r1
        0x000197d6:    bf0c        ..      ITE      EQ
        0x000197d8:    4608        .F      MOVEQ    r0,r1
        0x000197da:    9802        ..      LDRNE    r0,[sp,#8]
        0x000197dc:    b003        ..      ADD      sp,sp,#0xc
        0x000197de:    bd00        ..      POP      {pc}
    $d
        0x000197e0:    40008204    ...@    DCD    1073775108
    $t
    i.am_hal_timer_reset_config
    am_hal_timer_reset_config
        0x000197e4:    e92d43f8    -..C    PUSH     {r3-r9,lr}
        0x000197e8:    4605        .F      MOV      r5,r0
        0x000197ea:    0041        A.      LSLS     r1,r0,#1
        0x000197ec:    4c36        6L      LDR      r4,[pc,#216] ; [0x198c8] = 0x40008000
        0x000197ee:    2003        .       MOVS     r0,#3
        0x000197f0:    fa00f801    ....    LSL      r8,r0,r1
        0x000197f4:    6e20         n      LDR      r0,[r4,#0x60]
        0x000197f6:    ea200008     ...    BIC      r0,r0,r8
        0x000197fa:    6620         f      STR      r0,[r4,#0x60]
        0x000197fc:    2701        .'      MOVS     r7,#1
        0x000197fe:    fa07f605    ....    LSL      r6,r7,r5
        0x00019802:    f7fefdbb    ....    BL       am_hal_interrupt_master_disable ; 0x1837c
        0x00019806:    9000        ..      STR      r0,[sp,#0]
        0x00019808:    6920         i      LDR      r0,[r4,#0x10]
        0x0001980a:    43b0        .C      BICS     r0,r0,r6
        0x0001980c:    6120         a      STR      r0,[r4,#0x10]
        0x0001980e:    2100        .!      MOVS     r1,#0
        0x00019810:    fa07f001    ....    LSL      r0,r7,r1
        0x00019814:    4230        0B      TST      r0,r6
        0x00019816:    d014        ..      BEQ      0x19842 ; am_hal_timer_reset_config + 94
        0x00019818:    f8d42104    ...!    LDR      r2,[r4,#0x104]
        0x0001981c:    4382        .C      BICS     r2,r2,r0
        0x0001981e:    f8c42104    ...!    STR      r2,[r4,#0x104]
        0x00019822:    014a        J.      LSLS     r2,r1,#5
        0x00019824:    f1024280    ...B    ADD      r2,r2,#0x40000000
        0x00019828:    f5024200    ...B    ADD      r2,r2,#0x8000
        0x0001982c:    f8d23200    ...2    LDR      r3,[r2,#0x200]
        0x00019830:    f0430301    C...    ORR      r3,r3,#1
        0x00019834:    f8c23200    ...2    STR      r3,[r2,#0x200]
        0x00019838:    f8d42104    ...!    LDR      r2,[r4,#0x104]
        0x0001983c:    4310        .C      ORRS     r0,r0,r2
        0x0001983e:    f8c40104    ....    STR      r0,[r4,#0x104]
        0x00019842:    1c49        I.      ADDS     r1,r1,#1
        0x00019844:    2910        .)      CMP      r1,#0x10
        0x00019846:    d3e3        ..      BCC      0x19810 ; am_hal_timer_reset_config + 44
        0x00019848:    6921        !i      LDR      r1,[r4,#0x10]
        0x0001984a:    ea410006    A...    ORR      r0,r1,r6
        0x0001984e:    6120         a      STR      r0,[r4,#0x10]
        0x00019850:    9800        ..      LDR      r0,[sp,#0]
        0x00019852:    f7fefd97    ....    BL       am_hal_interrupt_master_set ; 0x18384
        0x00019856:    f7fefd91    ....    BL       am_hal_interrupt_master_disable ; 0x1837c
        0x0001985a:    9000        ..      STR      r0,[sp,#0]
        0x0001985c:    f8d40104    ....    LDR      r0,[r4,#0x104]
        0x00019860:    43b0        .C      BICS     r0,r0,r6
        0x00019862:    f8c40104    ....    STR      r0,[r4,#0x104]
        0x00019866:    0168        h.      LSLS     r0,r5,#5
        0x00019868:    f1004780    ...G    ADD      r7,r0,#0x40000000
        0x0001986c:    f5074700    ...G    ADD      r7,r7,#0x8000
        0x00019870:    f8d70200    ....    LDR      r0,[r7,#0x200]
        0x00019874:    f0200001     ...    BIC      r0,r0,#1
        0x00019878:    f8c70200    ....    STR      r0,[r7,#0x200]
        0x0001987c:    9800        ..      LDR      r0,[sp,#0]
        0x0001987e:    f7fefd81    ....    BL       am_hal_interrupt_master_set ; 0x18384
        0x00019882:    f8d40104    ....    LDR      r0,[r4,#0x104]
        0x00019886:    43b0        .C      BICS     r0,r0,r6
        0x00019888:    f8c40104    ....    STR      r0,[r4,#0x104]
        0x0001988c:    2100        .!      MOVS     r1,#0
        0x0001988e:    f8c71200    ....    STR      r1,[r7,#0x200]
        0x00019892:    f8c71204    ....    STR      r1,[r7,#0x204]
        0x00019896:    f8c71208    ....    STR      r1,[r7,#0x208]
        0x0001989a:    f8c7120c    ....    STR      r1,[r7,#0x20c]
        0x0001989e:    f8c71210    ....    STR      r1,[r7,#0x210]
        0x000198a2:    f8d40104    ....    LDR      r0,[r4,#0x104]
        0x000198a6:    4330        0C      ORRS     r0,r0,r6
        0x000198a8:    f8c40104    ....    STR      r0,[r4,#0x104]
        0x000198ac:    f8c48068    ..h.    STR      r8,[r4,#0x68]
        0x000198b0:    4806        .H      LDR      r0,[pc,#24] ; [0x198cc] = 0x100009fc
        0x000198b2:    f8001025    ..%.    STRB     r1,[r0,r5,LSL #2]
        0x000198b6:    eb000085    ....    ADD      r0,r0,r5,LSL #2
        0x000198ba:    7041        Ap      STRB     r1,[r0,#1]
        0x000198bc:    7081        .p      STRB     r1,[r0,#2]
        0x000198be:    70c1        .p      STRB     r1,[r0,#3]
        0x000198c0:    4608        .F      MOV      r0,r1
        0x000198c2:    e8bd83f8    ....    POP      {r3-r9,pc}
    $d
        0x000198c6:    0000        ..      DCW    0
        0x000198c8:    40008000    ...@    DCD    1073774592
        0x000198cc:    100009fc    ....    DCD    268438012
    $t
    i.am_hal_timer_start
    am_hal_timer_start
        0x000198d0:    b538        8.      PUSH     {r3-r5,lr}
        0x000198d2:    4604        .F      MOV      r4,r0
        0x000198d4:    f7fefd52    ..R.    BL       am_hal_interrupt_master_disable ; 0x1837c
        0x000198d8:    490d        .I      LDR      r1,[pc,#52] ; [0x19910] = 0x40008000
        0x000198da:    9000        ..      STR      r0,[sp,#0]
        0x000198dc:    f8d12104    ...!    LDR      r2,[r1,#0x104]
        0x000198e0:    2001        .       MOVS     r0,#1
        0x000198e2:    40a0        .@      LSLS     r0,r0,r4
        0x000198e4:    4382        .C      BICS     r2,r2,r0
        0x000198e6:    f8c12104    ...!    STR      r2,[r1,#0x104]
        0x000198ea:    0162        b.      LSLS     r2,r4,#5
        0x000198ec:    440a        .D      ADD      r2,r2,r1
        0x000198ee:    f8d23200    ...2    LDR      r3,[r2,#0x200]
        0x000198f2:    f0430301    C...    ORR      r3,r3,#1
        0x000198f6:    f8c23200    ...2    STR      r3,[r2,#0x200]
        0x000198fa:    f8d12104    ...!    LDR      r2,[r1,#0x104]
        0x000198fe:    4310        .C      ORRS     r0,r0,r2
        0x00019900:    f8c10104    ....    STR      r0,[r1,#0x104]
        0x00019904:    9800        ..      LDR      r0,[sp,#0]
        0x00019906:    f7fefd3d    ..=.    BL       am_hal_interrupt_master_set ; 0x18384
        0x0001990a:    2000        .       MOVS     r0,#0
        0x0001990c:    bd38        8.      POP      {r3-r5,pc}
    $d
        0x0001990e:    0000        ..      DCW    0
        0x00019910:    40008000    ...@    DCD    1073774592
    $t
    i.am_hal_timer_stop
    am_hal_timer_stop
        0x00019914:    b538        8.      PUSH     {r3-r5,lr}
        0x00019916:    4604        .F      MOV      r4,r0
        0x00019918:    f7fefd30    ..0.    BL       am_hal_interrupt_master_disable ; 0x1837c
        0x0001991c:    9000        ..      STR      r0,[sp,#0]
        0x0001991e:    480c        .H      LDR      r0,[pc,#48] ; [0x19950] = 0x40008000
        0x00019920:    f8d01104    ....    LDR      r1,[r0,#0x104]
        0x00019924:    2201        ."      MOVS     r2,#1
        0x00019926:    40a2        .@      LSLS     r2,r2,r4
        0x00019928:    4391        .C      BICS     r1,r1,r2
        0x0001992a:    f8c01104    ....    STR      r1,[r0,#0x104]
        0x0001992e:    0160        `.      LSLS     r0,r4,#5
        0x00019930:    f1004080    ...@    ADD      r0,r0,#0x40000000
        0x00019934:    f5004000    ...@    ADD      r0,r0,#0x8000
        0x00019938:    f8d01200    ....    LDR      r1,[r0,#0x200]
        0x0001993c:    f0210101    !...    BIC      r1,r1,#1
        0x00019940:    f8c01200    ....    STR      r1,[r0,#0x200]
        0x00019944:    9800        ..      LDR      r0,[sp,#0]
        0x00019946:    f7fefd1d    ....    BL       am_hal_interrupt_master_set ; 0x18384
        0x0001994a:    2000        .       MOVS     r0,#0
        0x0001994c:    bd38        8.      POP      {r3-r5,pc}
    $d
        0x0001994e:    0000        ..      DCW    0
        0x00019950:    40008000    ...@    DCD    1073774592
    $t
    i.am_hal_uart_configure
    am_hal_uart_configure
        0x00019954:    6a42        Bj      LDR      r2,[r0,#0x24]
        0x00019956:    2800        .(      CMP      r0,#0
        0x00019958:    bf1c        ..      ITT      NE
        0x0001995a:    6803        .h      LDRNE    r3,[r0,#0]
        0x0001995c:    f0137f80    ....    TSTNE    r3,#0x1000000
        0x00019960:    d005        ..      BEQ      0x1996e ; am_hal_uart_configure + 26
        0x00019962:    f8dfc158    ..X.    LDR      r12,[pc,#344] ; [0x19abc] = 0xea9e06
        0x00019966:    f023437f    #..C    BIC      r3,r3,#0xff000000
        0x0001996a:    4563        cE      CMP      r3,r12
        0x0001996c:    d001        ..      BEQ      0x19972 ; am_hal_uart_configure + 30
        0x0001996e:    2002        .       MOVS     r0,#2
        0x00019970:    4770        pG      BX       lr
        0x00019972:    b470        p.      PUSH     {r4-r6}
        0x00019974:    2500        .%      MOVS     r5,#0
        0x00019976:    0312        ..      LSLS     r2,r2,#12
        0x00019978:    f1024280    ...B    ADD      r2,r2,#0x40000000
        0x0001997c:    f50232e0    ...2    ADD      r2,r2,#0x1c000
        0x00019980:    6315        .c      STR      r5,[r2,#0x30]
        0x00019982:    6b13        .k      LDR      r3,[r2,#0x30]
        0x00019984:    f0430308    C...    ORR      r3,r3,#8
        0x00019988:    6313        .c      STR      r3,[r2,#0x30]
        0x0001998a:    6b13        .k      LDR      r3,[r2,#0x30]
        0x0001998c:    f0230370    #.p.    BIC      r3,r3,#0x70
        0x00019990:    3310        .3      ADDS     r3,r3,#0x10
        0x00019992:    6313        .c      STR      r3,[r2,#0x30]
        0x00019994:    6b13        .k      LDR      r3,[r2,#0x30]
        0x00019996:    f0230301    #...    BIC      r3,r3,#1
        0x0001999a:    6313        .c      STR      r3,[r2,#0x30]
        0x0001999c:    6b13        .k      LDR      r3,[r2,#0x30]
        0x0001999e:    f4237300    #..s    BIC      r3,r3,#0x200
        0x000199a2:    6313        .c      STR      r3,[r2,#0x30]
        0x000199a4:    6b13        .k      LDR      r3,[r2,#0x30]
        0x000199a6:    f4237380    #..s    BIC      r3,r3,#0x100
        0x000199aa:    6313        .c      STR      r3,[r2,#0x30]
        0x000199ac:    f8d1c000    ....    LDR      r12,[r1,#0]
        0x000199b0:    6b13        .k      LDR      r3,[r2,#0x30]
        0x000199b2:    f3c31302    ....    UBFX     r3,r3,#4,#3
        0x000199b6:    2b01        .+      CMP      r3,#1
        0x000199b8:    bf08        ..      IT       EQ
        0x000199ba:    4b41        AK      LDREQ    r3,[pc,#260] ; [0x19ac0] = 0x16e3600
        0x000199bc:    d00f        ..      BEQ      0x199de ; am_hal_uart_configure + 138
        0x000199be:    2b02        .+      CMP      r3,#2
        0x000199c0:    bf08        ..      IT       EQ
        0x000199c2:    4b40        @K      LDREQ    r3,[pc,#256] ; [0x19ac4] = 0xb71b00
        0x000199c4:    d00b        ..      BEQ      0x199de ; am_hal_uart_configure + 138
        0x000199c6:    2b03        .+      CMP      r3,#3
        0x000199c8:    bf08        ..      IT       EQ
        0x000199ca:    4b3f        ?K      LDREQ    r3,[pc,#252] ; [0x19ac8] = 0x5b8d80
        0x000199cc:    d007        ..      BEQ      0x199de ; am_hal_uart_configure + 138
        0x000199ce:    2b04        .+      CMP      r3,#4
        0x000199d0:    bf1b        ..      ITTET    NE
        0x000199d2:    6285        .b      STRNE    r5,[r0,#0x28]
        0x000199d4:    483d        =H      LDRNE    r0,[pc,#244] ; [0x19acc] = 0x8000002
        0x000199d6:    4b3e        >K      LDREQ    r3,[pc,#248] ; [0x19ad0] = 0x2dc6c0
        0x000199d8:    bc70        p.      POPNE    {r4-r6}
        0x000199da:    bf18        ..      IT       NE
        0x000199dc:    4770        pG      BXNE     lr
        0x000199de:    ea4f1c0c    O...    LSL      r12,r12,#4
        0x000199e2:    fbb3f4fc    ....    UDIV     r4,r3,r12
        0x000199e6:    019e        ..      LSLS     r6,r3,#6
        0x000199e8:    fbb6fcfc    ....    UDIV     r12,r6,r12
        0x000199ec:    01a6        ..      LSLS     r6,r4,#6
        0x000199ee:    ebbc0c06    ....    SUBS     r12,r12,r6
        0x000199f2:    2c00        .,      CMP      r4,#0
        0x000199f4:    bf01        ..      ITTTT    EQ
        0x000199f6:    6285        .b      STREQ    r5,[r0,#0x28]
        0x000199f8:    4836        6H      LDREQ    r0,[pc,#216] ; [0x19ad4] = 0x8000003
        0x000199fa:    bc70        p.      POPEQ    {r4-r6}
        0x000199fc:    4770        pG      BXEQ     lr
        0x000199fe:    6254        Tb      STR      r4,[r2,#0x24]
        0x00019a00:    f8c2c028    ..(.    STR      r12,[r2,#0x28]
        0x00019a04:    0124        $.      LSLS     r4,r4,#4
        0x00019a06:    eb040c9c    ....    ADD      r12,r4,r12,LSR #2
        0x00019a0a:    fbb3f3fc    ....    UDIV     r3,r3,r12
        0x00019a0e:    6283        .b      STR      r3,[r0,#0x28]
        0x00019a10:    6b10        .k      LDR      r0,[r2,#0x30]
        0x00019a12:    f4204080     ..@    BIC      r0,r0,#0x4000
        0x00019a16:    6310        .c      STR      r0,[r2,#0x30]
        0x00019a18:    6b10        .k      LDR      r0,[r2,#0x30]
        0x00019a1a:    f4204000     ..@    BIC      r0,r0,#0x8000
        0x00019a1e:    6310        .c      STR      r0,[r2,#0x30]
        0x00019a20:    6b10        .k      LDR      r0,[r2,#0x30]
        0x00019a22:    890b        ..      LDRH     r3,[r1,#8]
        0x00019a24:    4318        .C      ORRS     r0,r0,r3
        0x00019a26:    6310        .c      STR      r0,[r2,#0x30]
        0x00019a28:    2000        .       MOVS     r0,#0
        0x00019a2a:    f891c005    ....    LDRB     r12,[r1,#5]
        0x00019a2e:    4603        .F      MOV      r3,r0
        0x00019a30:    f1bc0f00    ....    CMP      r12,#0
        0x00019a34:    bf08        ..      IT       EQ
        0x00019a36:    2001        .       MOVEQ    r0,#1
        0x00019a38:    d004        ..      BEQ      0x19a44 ; am_hal_uart_configure + 240
        0x00019a3a:    f1bc0f01    ....    CMP      r12,#1
        0x00019a3e:    bf04        ..      ITT      EQ
        0x00019a40:    2001        .       MOVEQ    r0,#1
        0x00019a42:    4603        .F      MOVEQ    r3,r0
        0x00019a44:    f8d2c02c    ..,.    LDR      r12,[r2,#0x2c]
        0x00019a48:    f02c0c01    ,...    BIC      r12,r12,#1
        0x00019a4c:    f8c2c02c    ..,.    STR      r12,[r2,#0x2c]
        0x00019a50:    f8d2c02c    ..,.    LDR      r12,[r2,#0x2c]
        0x00019a54:    f3600c41    `.A.    BFI      r12,r0,#1,#1
        0x00019a58:    f8c2c02c    ..,.    STR      r12,[r2,#0x2c]
        0x00019a5c:    6ad0        .j      LDR      r0,[r2,#0x2c]
        0x00019a5e:    f3630082    c...    BFI      r0,r3,#2,#1
        0x00019a62:    62d0        .b      STR      r0,[r2,#0x2c]
        0x00019a64:    798b        .y      LDRB     r3,[r1,#6]
        0x00019a66:    6ad0        .j      LDR      r0,[r2,#0x2c]
        0x00019a68:    f36300c3    c...    BFI      r0,r3,#3,#1
        0x00019a6c:    62d0        .b      STR      r0,[r2,#0x2c]
        0x00019a6e:    6ad0        .j      LDR      r0,[r2,#0x2c]
        0x00019a70:    f0400010    @...    ORR      r0,r0,#0x10
        0x00019a74:    62d0        .b      STR      r0,[r2,#0x2c]
        0x00019a76:    790b        .y      LDRB     r3,[r1,#4]
        0x00019a78:    6ad0        .j      LDR      r0,[r2,#0x2c]
        0x00019a7a:    f3631046    c.F.    BFI      r0,r3,#5,#2
        0x00019a7e:    62d0        .b      STR      r0,[r2,#0x2c]
        0x00019a80:    6ad0        .j      LDR      r0,[r2,#0x2c]
        0x00019a82:    f0200080     ...    BIC      r0,r0,#0x80
        0x00019a86:    62d0        .b      STR      r0,[r2,#0x2c]
        0x00019a88:    7a8b        .z      LDRB     r3,[r1,#0xa]
        0x00019a8a:    6b50        Pk      LDR      r0,[r2,#0x34]
        0x00019a8c:    f3630002    c...    BFI      r0,r3,#0,#3
        0x00019a90:    6350        Pc      STR      r0,[r2,#0x34]
        0x00019a92:    7ac9        .z      LDRB     r1,[r1,#0xb]
        0x00019a94:    6b50        Pk      LDR      r0,[r2,#0x34]
        0x00019a96:    f36100c5    a...    BFI      r0,r1,#3,#3
        0x00019a9a:    6350        Pc      STR      r0,[r2,#0x34]
        0x00019a9c:    6b10        .k      LDR      r0,[r2,#0x30]
        0x00019a9e:    f0400001    @...    ORR      r0,r0,#1
        0x00019aa2:    6310        .c      STR      r0,[r2,#0x30]
        0x00019aa4:    6b10        .k      LDR      r0,[r2,#0x30]
        0x00019aa6:    f4407000    @..p    ORR      r0,r0,#0x200
        0x00019aaa:    6310        .c      STR      r0,[r2,#0x30]
        0x00019aac:    6b10        .k      LDR      r0,[r2,#0x30]
        0x00019aae:    f4407080    @..p    ORR      r0,r0,#0x100
        0x00019ab2:    6310        .c      STR      r0,[r2,#0x30]
        0x00019ab4:    bc70        p.      POP      {r4-r6}
        0x00019ab6:    2000        .       MOVS     r0,#0
        0x00019ab8:    4770        pG      BX       lr
    $d
        0x00019aba:    0000        ..      DCW    0
        0x00019abc:    00ea9e06    ....    DCD    15375878
        0x00019ac0:    016e3600    .6n.    DCD    24000000
        0x00019ac4:    00b71b00    ....    DCD    12000000
        0x00019ac8:    005b8d80    ..[.    DCD    6000000
        0x00019acc:    08000002    ....    DCD    134217730
        0x00019ad0:    002dc6c0    ..-.    DCD    3000000
        0x00019ad4:    08000003    ....    DCD    134217731
    $t
    i.am_hal_uart_deinitialize
    am_hal_uart_deinitialize
        0x00019ad8:    2800        .(      CMP      r0,#0
        0x00019ada:    bf1c        ..      ITT      NE
        0x00019adc:    6801        .h      LDRNE    r1,[r0,#0]
        0x00019ade:    f0117f80    ....    TSTNE    r1,#0x1000000
        0x00019ae2:    d004        ..      BEQ      0x19aee ; am_hal_uart_deinitialize + 22
        0x00019ae4:    4b07        .K      LDR      r3,[pc,#28] ; [0x19b04] = 0xea9e06
        0x00019ae6:    f021427f    !..B    BIC      r2,r1,#0xff000000
        0x00019aea:    429a        .B      CMP      r2,r3
        0x00019aec:    d001        ..      BEQ      0x19af2 ; am_hal_uart_deinitialize + 26
        0x00019aee:    2002        .       MOVS     r0,#2
        0x00019af0:    4770        pG      BX       lr
        0x00019af2:    f001417e    ..~A    AND      r1,r1,#0xfe000000
        0x00019af6:    6001        .`      STR      r1,[r0,#0]
        0x00019af8:    2100        .!      MOVS     r1,#0
        0x00019afa:    6241        Ab      STR      r1,[r0,#0x24]
        0x00019afc:    7101        .q      STRB     r1,[r0,#4]
        0x00019afe:    4608        .F      MOV      r0,r1
        0x00019b00:    4770        pG      BX       lr
    $d
        0x00019b02:    0000        ..      DCW    0
        0x00019b04:    00ea9e06    ....    DCD    15375878
    $t
    i.am_hal_uart_initialize
    am_hal_uart_initialize
        0x00019b08:    2804        .(      CMP      r0,#4
        0x00019b0a:    bf24        $.      ITT      CS
        0x00019b0c:    2005        .       MOVCS    r0,#5
        0x00019b0e:    4770        pG      BXCS     lr
        0x00019b10:    2900        .)      CMP      r1,#0
        0x00019b12:    bf04        ..      ITT      EQ
        0x00019b14:    2006        .       MOVEQ    r0,#6
        0x00019b16:    4770        pG      BXEQ     lr
        0x00019b18:    b410        ..      PUSH     {r4}
        0x00019b1a:    680a        .h      LDR      r2,[r1,#0]
        0x00019b1c:    4c14        .L      LDR      r4,[pc,#80] ; [0x19b70] = 0xea9e06
        0x00019b1e:    2a00        .*      CMP      r2,#0
        0x00019b20:    bf1c        ..      ITT      NE
        0x00019b22:    6812        .h      LDRNE    r2,[r2,#0]
        0x00019b24:    f0127f80    ....    TSTNE    r2,#0x1000000
        0x00019b28:    d006        ..      BEQ      0x19b38 ; am_hal_uart_initialize + 48
        0x00019b2a:    f022427f    "..B    BIC      r2,r2,#0xff000000
        0x00019b2e:    42a2        .B      CMP      r2,r4
        0x00019b30:    bf02        ..      ITTT     EQ
        0x00019b32:    2007        .       MOVEQ    r0,#7
        0x00019b34:    bc10        ..      POPEQ    {r4}
        0x00019b36:    4770        pG      BXEQ     lr
        0x00019b38:    222b        +"      MOVS     r2,#0x2b
        0x00019b3a:    4342        BC      MULS     r2,r0,r2
        0x00019b3c:    4b0d        .K      LDR      r3,[pc,#52] ; [0x19b74] = 0x1000074c
        0x00019b3e:    f853c022    S.".    LDR      r12,[r3,r2,LSL #2]
        0x00019b42:    f04c7c80    L..|    ORR      r12,r12,#0x1000000
        0x00019b46:    f3640c17    d...    BFI      r12,r4,#0,#24
        0x00019b4a:    f843c022    C.".    STR      r12,[r3,r2,LSL #2]
        0x00019b4e:    eb030282    ....    ADD      r2,r3,r2,LSL #2
        0x00019b52:    6250        Pb      STR      r0,[r2,#0x24]
        0x00019b54:    2000        .       MOVS     r0,#0
        0x00019b56:    7110        .q      STRB     r0,[r2,#4]
        0x00019b58:    6290        .b      STR      r0,[r2,#0x28]
        0x00019b5a:    f882002c    ..,.    STRB     r0,[r2,#0x2c]
        0x00019b5e:    f8820050    ..P.    STRB     r0,[r2,#0x50]
        0x00019b62:    f8820074    ..t.    STRB     r0,[r2,#0x74]
        0x00019b66:    f8820090    ....    STRB     r0,[r2,#0x90]
        0x00019b6a:    600a        .`      STR      r2,[r1,#0]
        0x00019b6c:    bc10        ..      POP      {r4}
        0x00019b6e:    4770        pG      BX       lr
    $d
        0x00019b70:    00ea9e06    ....    DCD    15375878
        0x00019b74:    1000074c    L...    DCD    268437324
    $t
    i.am_hal_uart_power_control
    am_hal_uart_power_control
        0x00019b78:    b570        p.      PUSH     {r4-r6,lr}
        0x00019b7a:    6a45        Ej      LDR      r5,[r0,#0x24]
        0x00019b7c:    1e04        ..      SUBS     r4,r0,#0
        0x00019b7e:    f1050309    ....    ADD      r3,r5,#9
        0x00019b82:    b2db        ..      UXTB     r3,r3
        0x00019b84:    bf1c        ..      ITT      NE
        0x00019b86:    6820         h      LDRNE    r0,[r4,#0]
        0x00019b88:    f0107f80    ....    TSTNE    r0,#0x1000000
        0x00019b8c:    d005        ..      BEQ      0x19b9a ; am_hal_uart_power_control + 34
        0x00019b8e:    f8dfc0c0    ....    LDR      r12,[pc,#192] ; [0x19c50] = 0xea9e06
        0x00019b92:    f020407f     ..@    BIC      r0,r0,#0xff000000
        0x00019b96:    4560        `E      CMP      r0,r12
        0x00019b98:    d001        ..      BEQ      0x19b9e ; am_hal_uart_power_control + 38
        0x00019b9a:    2002        .       MOVS     r0,#2
        0x00019b9c:    bd70        p.      POP      {r4-r6,pc}
        0x00019b9e:    2900        .)      CMP      r1,#0
        0x00019ba0:    d032        2.      BEQ      0x19c08 ; am_hal_uart_power_control + 144
        0x00019ba2:    2901        .)      CMP      r1,#1
        0x00019ba4:    bf1e        ..      ITTT     NE
        0x00019ba6:    2902        .)      CMPNE    r1,#2
        0x00019ba8:    2006        .       MOVNE    r0,#6
        0x00019baa:    bd70        p.      POPNE    {r4-r6,pc}
        0x00019bac:    b1b2        ..      CBZ      r2,0x19bdc ; am_hal_uart_power_control + 100
        0x00019bae:    ea4f3005    O..0    LSL      r0,r5,#12
        0x00019bb2:    f1004080    ...@    ADD      r0,r0,#0x40000000
        0x00019bb6:    f50030e0    ...0    ADD      r0,r0,#0x1c000
        0x00019bba:    6a01        .j      LDR      r1,[r0,#0x20]
        0x00019bbc:    60a1        .`      STR      r1,[r4,#8]
        0x00019bbe:    6a41        Aj      LDR      r1,[r0,#0x24]
        0x00019bc0:    60e1        .`      STR      r1,[r4,#0xc]
        0x00019bc2:    6a81        .j      LDR      r1,[r0,#0x28]
        0x00019bc4:    6121        !a      STR      r1,[r4,#0x10]
        0x00019bc6:    6ac1        .j      LDR      r1,[r0,#0x2c]
        0x00019bc8:    6161        aa      STR      r1,[r4,#0x14]
        0x00019bca:    6b01        .k      LDR      r1,[r0,#0x30]
        0x00019bcc:    61a1        .a      STR      r1,[r4,#0x18]
        0x00019bce:    6b41        Ak      LDR      r1,[r0,#0x34]
        0x00019bd0:    61e1        .a      STR      r1,[r4,#0x1c]
        0x00019bd2:    6b80        .k      LDR      r0,[r0,#0x38]
        0x00019bd4:    6220         b      STR      r0,[r4,#0x20]
        0x00019bd6:    f04f0001    O...    MOV      r0,#1
        0x00019bda:    7120         q      STRB     r0,[r4,#4]
        0x00019bdc:    6822        "h      LDR      r2,[r4,#0]
        0x00019bde:    6a61        aj      LDR      r1,[r4,#0x24]
        0x00019be0:    f04f30ff    O..0    MOV      r0,#0xffffffff
        0x00019be4:    f0127f80    ....    TST      r2,#0x1000000
        0x00019be8:    d009        ..      BEQ      0x19bfe ; am_hal_uart_power_control + 134
        0x00019bea:    f022427f    "..B    BIC      r2,r2,#0xff000000
        0x00019bee:    4562        bE      CMP      r2,r12
        0x00019bf0:    d105        ..      BNE      0x19bfe ; am_hal_uart_power_control + 134
        0x00019bf2:    0309        ..      LSLS     r1,r1,#12
        0x00019bf4:    f1014180    ...A    ADD      r1,r1,#0x40000000
        0x00019bf8:    f50131e0    ...1    ADD      r1,r1,#0x1c000
        0x00019bfc:    6448        Hd      STR      r0,[r1,#0x44]
        0x00019bfe:    4618        .F      MOV      r0,r3
        0x00019c00:    f7fffb94    ....    BL       am_hal_pwrctrl_periph_disable ; 0x1932c
        0x00019c04:    2000        .       MOVS     r0,#0
        0x00019c06:    bd70        p.      POP      {r4-r6,pc}
        0x00019c08:    b1ea        ..      CBZ      r2,0x19c46 ; am_hal_uart_power_control + 206
        0x00019c0a:    7920         y      LDRB     r0,[r4,#4]
        0x00019c0c:    2800        .(      CMP      r0,#0
        0x00019c0e:    bf04        ..      ITT      EQ
        0x00019c10:    2007        .       MOVEQ    r0,#7
        0x00019c12:    bd70        p.      POPEQ    {r4-r6,pc}
        0x00019c14:    4618        .F      MOV      r0,r3
        0x00019c16:    f7fffbc1    ....    BL       am_hal_pwrctrl_periph_enable ; 0x1939c
        0x00019c1a:    0328        (.      LSLS     r0,r5,#12
        0x00019c1c:    f1004080    ...@    ADD      r0,r0,#0x40000000
        0x00019c20:    f50030e0    ...0    ADD      r0,r0,#0x1c000
        0x00019c24:    68a1        .h      LDR      r1,[r4,#8]
        0x00019c26:    6201        .b      STR      r1,[r0,#0x20]
        0x00019c28:    68e1        .h      LDR      r1,[r4,#0xc]
        0x00019c2a:    6241        Ab      STR      r1,[r0,#0x24]
        0x00019c2c:    6921        !i      LDR      r1,[r4,#0x10]
        0x00019c2e:    6281        .b      STR      r1,[r0,#0x28]
        0x00019c30:    6961        ai      LDR      r1,[r4,#0x14]
        0x00019c32:    62c1        .b      STR      r1,[r0,#0x2c]
        0x00019c34:    69a1        .i      LDR      r1,[r4,#0x18]
        0x00019c36:    6301        .c      STR      r1,[r0,#0x30]
        0x00019c38:    69e1        .i      LDR      r1,[r4,#0x1c]
        0x00019c3a:    6341        Ac      STR      r1,[r0,#0x34]
        0x00019c3c:    6a21        !j      LDR      r1,[r4,#0x20]
        0x00019c3e:    6381        .c      STR      r1,[r0,#0x38]
        0x00019c40:    2000        .       MOVS     r0,#0
        0x00019c42:    7120         q      STRB     r0,[r4,#4]
        0x00019c44:    e7de        ..      B        0x19c04 ; am_hal_uart_power_control + 140
        0x00019c46:    4618        .F      MOV      r0,r3
        0x00019c48:    f7fffba8    ....    BL       am_hal_pwrctrl_periph_enable ; 0x1939c
        0x00019c4c:    e7da        ..      B        0x19c04 ; am_hal_uart_power_control + 140
    $d
        0x00019c4e:    0000        ..      DCW    0
        0x00019c50:    00ea9e06    ....    DCD    15375878
    $t
    i.am_hal_uart_transfer
    am_hal_uart_transfer
        0x00019c54:    e92d4ff0    -..O    PUSH     {r4-r11,lr}
        0x00019c58:    460c        .F      MOV      r4,r1
        0x00019c5a:    7809        .x      LDRB     r1,[r1,#0]
        0x00019c5c:    b09d        ..      SUB      sp,sp,#0x74
        0x00019c5e:    4605        .F      MOV      r5,r0
        0x00019c60:    b199        ..      CBZ      r1,0x19c8a ; am_hal_uart_transfer + 54
        0x00019c62:    4bdf        .K      LDR      r3,[pc,#892] ; [0x19fe0] = 0xea9e06
        0x00019c64:    2002        .       MOVS     r0,#2
        0x00019c66:    2901        .)      CMP      r1,#1
        0x00019c68:    d054        T.      BEQ      0x19d14 ; am_hal_uart_transfer + 192
        0x00019c6a:    2902        .)      CMP      r1,#2
        0x00019c6c:    f000811a    ....    BEQ.W    0x19ea4 ; am_hal_uart_transfer + 592
        0x00019c70:    2903        .)      CMP      r1,#3
        0x00019c72:    bf1e        ..      ITTT     NE
        0x00019c74:    2001        .       MOVNE    r0,#1
        0x00019c76:    b01d        ..      ADDNE    sp,sp,#0x74
        0x00019c78:    e8bd8ff0    ....    POPNE    {r4-r11,pc}
        0x00019c7c:    4621        !F      MOV      r1,r4
        0x00019c7e:    b01d        ..      ADD      sp,sp,#0x74
        0x00019c80:    4628        (F      MOV      r0,r5
        0x00019c82:    e8bd4ff0    ...O    POP      {r4-r11,lr}
        0x00019c86:    f002bbbd    ....    B.W      nonblocking_read ; 0x1c404
        0x00019c8a:    2700        .'      MOVS     r7,#0
        0x00019c8c:    f8d49010    ....    LDR      r9,[r4,#0x10]
        0x00019c90:    9703        ..      STR      r7,[sp,#0xc]
        0x00019c92:    68a5        .h      LDR      r5,[r4,#8]
        0x00019c94:    4606        .F      MOV      r6,r0
        0x00019c96:    46ba        .F      MOV      r10,r7
        0x00019c98:    46b8        .F      MOV      r8,r7
        0x00019c9a:    bb8d        ..      CBNZ     r5,0x19d00 ; am_hal_uart_transfer + 172
        0x00019c9c:    e032        2.      B        0x19d04 ; am_hal_uart_transfer + 176
        0x00019c9e:    6860        `h      LDR      r0,[r4,#4]
        0x00019ca0:    6a73        sj      LDR      r3,[r6,#0x24]
        0x00019ca2:    19c2        ..      ADDS     r2,r0,r7
        0x00019ca4:    f10d0c0c    ....    ADD      r12,sp,#0xc
        0x00019ca8:    2100        .!      MOVS     r1,#0
        0x00019caa:    b1c5        ..      CBZ      r5,0x19cde ; am_hal_uart_transfer + 138
        0x00019cac:    f1b54f00    ...O    CMP      r5,#0x80000000
        0x00019cb0:    f0808172    ..r.    BCS.W    0x19f98 ; am_hal_uart_transfer + 836
        0x00019cb4:    2001        .       MOVS     r0,#1
        0x00019cb6:    2d01        .-      CMP      r5,#1
        0x00019cb8:    db11        ..      BLT      0x19cde ; am_hal_uart_transfer + 138
        0x00019cba:    031b        ..      LSLS     r3,r3,#12
        0x00019cbc:    f1034380    ...C    ADD      r3,r3,#0x40000000
        0x00019cc0:    f50333e0    ...3    ADD      r3,r3,#0x1c000
        0x00019cc4:    f8d3b018    ....    LDR      r11,[r3,#0x18]
        0x00019cc8:    f01b0f20    .. .    TST      r11,#0x20
        0x00019ccc:    d107        ..      BNE      0x19cde ; am_hal_uart_transfer + 138
        0x00019cce:    f812b001    ....    LDRB     r11,[r2,r1]
        0x00019cd2:    f8c3b000    ....    STR      r11,[r3,#0]
        0x00019cd6:    1c40        @.      ADDS     r0,r0,#1
        0x00019cd8:    1c49        I.      ADDS     r1,r1,#1
        0x00019cda:    42a8        .B      CMP      r0,r5
        0x00019cdc:    ddf2        ..      BLE      0x19cc4 ; am_hal_uart_transfer + 112
        0x00019cde:    f1bc0f00    ....    CMP      r12,#0
        0x00019ce2:    bf18        ..      IT       NE
        0x00019ce4:    9103        ..      STRNE    r1,[sp,#0xc]
        0x00019ce6:    9803        ..      LDR      r0,[sp,#0xc]
        0x00019ce8:    4407        .D      ADD      r7,r7,r0
        0x00019cea:    1a2d        -.      SUBS     r5,r5,r0
        0x00019cec:    d00a        ..      BEQ      0x19d04 ; am_hal_uart_transfer + 176
        0x00019cee:    f44f707a    O.zp    MOV      r0,#0x3e8
        0x00019cf2:    f7fefe33    ..3.    BL       am_hal_delay_us ; 0x1895c
        0x00019cf6:    f1b93fff    ...?    CMP      r9,#0xffffffff
        0x00019cfa:    bf18        ..      IT       NE
        0x00019cfc:    f1080801    ....    ADDNE    r8,r8,#1
        0x00019d00:    45c8        .E      CMP      r8,r9
        0x00019d02:    d3cc        ..      BCC      0x19c9e ; am_hal_uart_transfer + 74
        0x00019d04:    68e0        .h      LDR      r0,[r4,#0xc]
        0x00019d06:    2800        .(      CMP      r0,#0
        0x00019d08:    bf18        ..      IT       NE
        0x00019d0a:    6007        .`      STRNE    r7,[r0,#0]
        0x00019d0c:    4650        PF      MOV      r0,r10
        0x00019d0e:    b01d        ..      ADD      sp,sp,#0x74
        0x00019d10:    e8bd8ff0    ....    POP      {r4-r11,pc}
        0x00019d14:    e9d47602    ...v    LDRD     r7,r6,[r4,#8]
        0x00019d18:    f04f0800    O...    MOV      r8,#0
        0x00019d1c:    f8d4b010    ....    LDR      r11,[r4,#0x10]
        0x00019d20:    46c2        .F      MOV      r10,r8
        0x00019d22:    2f00        ./      CMP      r7,#0
        0x00019d24:    d17a        z.      BNE      0x19e1c ; am_hal_uart_transfer + 456
        0x00019d26:    e0b7        ..      B        0x19e98 ; am_hal_uart_transfer + 580
        0x00019d28:    e9d40902    ....    LDRD     r0,r9,[r4,#8]
        0x00019d2c:    9008        ..      STR      r0,[sp,#0x20]
        0x00019d2e:    6860        `h      LDR      r0,[r4,#4]
        0x00019d30:    900a        ..      STR      r0,[sp,#0x28]
        0x00019d32:    2d00        .-      CMP      r5,#0
        0x00019d34:    bf1c        ..      ITT      NE
        0x00019d36:    6828        (h      LDRNE    r0,[r5,#0]
        0x00019d38:    f0107f80    ....    TSTNE    r0,#0x1000000
        0x00019d3c:    d004        ..      BEQ      0x19d48 ; am_hal_uart_transfer + 244
        0x00019d3e:    f020417f     ..A    BIC      r1,r0,#0xff000000
        0x00019d42:    48a7        .H      LDR      r0,[pc,#668] ; [0x19fe0] = 0xea9e06
        0x00019d44:    4281        .B      CMP      r1,r0
        0x00019d46:    d001        ..      BEQ      0x19d4c ; am_hal_uart_transfer + 248
        0x00019d48:    2002        .       MOVS     r0,#2
        0x00019d4a:    e05c        \.      B        0x19e06 ; am_hal_uart_transfer + 434
        0x00019d4c:    f1b90f00    ....    CMP      r9,#0
        0x00019d50:    bf1c        ..      ITT      NE
        0x00019d52:    2000        .       MOVNE    r0,#0
        0x00019d54:    f8c90000    ....    STRNE    r0,[r9,#0]
        0x00019d58:    9808        ..      LDR      r0,[sp,#0x20]
        0x00019d5a:    2800        .(      CMP      r0,#0
        0x00019d5c:    d053        S.      BEQ      0x19e06 ; am_hal_uart_transfer + 434
        0x00019d5e:    f8950090    ....    LDRB     r0,[r5,#0x90]
        0x00019d62:    2800        .(      CMP      r0,#0
        0x00019d64:    d062        b.      BEQ      0x19e2c ; am_hal_uart_transfer + 472
        0x00019d66:    9501        ..      STR      r5,[sp,#4]
        0x00019d68:    951a        ..      STR      r5,[sp,#0x68]
        0x00019d6a:    f7fefb07    ....    BL       am_hal_interrupt_master_disable ; 0x1837c
        0x00019d6e:    9016        ..      STR      r0,[sp,#0x58]
        0x00019d70:    a817        ..      ADD      r0,sp,#0x5c
        0x00019d72:    9901        ..      LDR      r1,[sp,#4]
        0x00019d74:    901b        ..      STR      r0,[sp,#0x6c]
        0x00019d76:    2000        .       MOVS     r0,#0
        0x00019d78:    9018        ..      STR      r0,[sp,#0x60]
        0x00019d7a:    6a49        Ij      LDR      r1,[r1,#0x24]
        0x00019d7c:    2320         #      MOVS     r3,#0x20
        0x00019d7e:    0309        ..      LSLS     r1,r1,#12
        0x00019d80:    f1014280    ...B    ADD      r2,r1,#0x40000000
        0x00019d84:    f10d0c38    ..8.    ADD      r12,sp,#0x38
        0x00019d88:    f50232e0    ...2    ADD      r2,r2,#0x1c000
        0x00019d8c:    6991        .i      LDR      r1,[r2,#0x18]
        0x00019d8e:    f0110f10    ....    TST      r1,#0x10
        0x00019d92:    d10c        ..      BNE      0x19dae ; am_hal_uart_transfer + 346
        0x00019d94:    6811        .h      LDR      r1,[r2,#0]
        0x00019d96:    f4116f70    ..po    TST      r1,#0xf00
        0x00019d9a:    d003        ..      BEQ      0x19da4 ; am_hal_uart_transfer + 336
        0x00019d9c:    f04f6100    O..a    MOV      r1,#0x8000000
        0x00019da0:    9118        ..      STR      r1,[sp,#0x60]
        0x00019da2:    e004        ..      B        0x19dae ; am_hal_uart_transfer + 346
        0x00019da4:    f80c1000    ....    STRB     r1,[r12,r0]
        0x00019da8:    1c40        @.      ADDS     r0,r0,#1
        0x00019daa:    4298        .B      CMP      r0,r3
        0x00019dac:    d3ee        ..      BCC      0x19d8c ; am_hal_uart_transfer + 312
        0x00019dae:    991b        ..      LDR      r1,[sp,#0x6c]
        0x00019db0:    2900        .)      CMP      r1,#0
        0x00019db2:    bf18        ..      IT       NE
        0x00019db4:    9017        ..      STRNE    r0,[sp,#0x5c]
        0x00019db6:    9818        ..      LDR      r0,[sp,#0x60]
        0x00019db8:    9001        ..      STR      r0,[sp,#4]
        0x00019dba:    b120         .      CBZ      r0,0x19dc6 ; am_hal_uart_transfer + 370
        0x00019dbc:    9816        ..      LDR      r0,[sp,#0x58]
        0x00019dbe:    f7fefae1    ....    BL       am_hal_interrupt_master_set ; 0x18384
        0x00019dc2:    9801        ..      LDR      r0,[sp,#4]
        0x00019dc4:    e01f        ..      B        0x19e06 ; am_hal_uart_transfer + 434
        0x00019dc6:    981a        ..      LDR      r0,[sp,#0x68]
        0x00019dc8:    4661        aF      MOV      r1,r12
        0x00019dca:    3094        .0      ADDS     r0,r0,#0x94
        0x00019dcc:    9a17        ..      LDR      r2,[sp,#0x5c]
        0x00019dce:    f7fffb63    ..c.    BL       am_hal_queue_item_add ; 0x19498
        0x00019dd2:    b320         .      CBZ      r0,0x19e1e ; am_hal_uart_transfer + 458
        0x00019dd4:    9816        ..      LDR      r0,[sp,#0x58]
        0x00019dd6:    f7fefad5    ....    BL       am_hal_interrupt_master_set ; 0x18384
        0x00019dda:    9801        ..      LDR      r0,[sp,#4]
        0x00019ddc:    900b        ..      STR      r0,[sp,#0x2c]
        0x00019dde:    f8d5209c    ...     LDR      r2,[r5,#0x9c]
        0x00019de2:    9808        ..      LDR      r0,[sp,#0x20]
        0x00019de4:    4290        .B      CMP      r0,r2
        0x00019de6:    bf38        8.      IT       CC
        0x00019de8:    4602        .F      MOVCC    r2,r0
        0x00019dea:    9200        ..      STR      r2,[sp,#0]
        0x00019dec:    f1050094    ....    ADD      r0,r5,#0x94
        0x00019df0:    990a        ..      LDR      r1,[sp,#0x28]
        0x00019df2:    f7fffba3    ....    BL       am_hal_queue_item_get ; 0x1953c
        0x00019df6:    bf00        ..      NOP      
        0x00019df8:    f1b90f00    ....    CMP      r9,#0
        0x00019dfc:    bf1c        ..      ITT      NE
        0x00019dfe:    9800        ..      LDRNE    r0,[sp,#0]
        0x00019e00:    f8c90000    ....    STRNE    r0,[r9,#0]
        0x00019e04:    980b        ..      LDR      r0,[sp,#0x2c]
        0x00019e06:    6831        1h      LDR      r1,[r6,#0]
        0x00019e08:    4488        .D      ADD      r8,r8,r1
        0x00019e0a:    1a7f        ..      SUBS     r7,r7,r1
        0x00019e0c:    b3b0        ..      CBZ      r0,0x19e7c ; am_hal_uart_transfer + 552
        0x00019e0e:    2e00        ..      CMP      r6,#0
        0x00019e10:    bf18        ..      IT       NE
        0x00019e12:    f8c68000    ....    STRNE    r8,[r6,#0]
        0x00019e16:    b01d        ..      ADD      sp,sp,#0x74
        0x00019e18:    e8bd8ff0    ....    POP      {r4-r11,pc}
        0x00019e1c:    e039        9.      B        0x19e92 ; am_hal_uart_transfer + 574
        0x00019e1e:    f8df91c4    ....    LDR      r9,[pc,#452] ; [0x19fe4] = 0x8000001
        0x00019e22:    9816        ..      LDR      r0,[sp,#0x58]
        0x00019e24:    f7fefaae    ....    BL       am_hal_interrupt_master_set ; 0x18384
        0x00019e28:    4648        HF      MOV      r0,r9
        0x00019e2a:    e7ec        ..      B        0x19e06 ; am_hal_uart_transfer + 434
        0x00019e2c:    f8ddc028    ..(.    LDR      r12,[sp,#0x28]
        0x00019e30:    2000        .       MOVS     r0,#0
        0x00019e32:    9b08        ..      LDR      r3,[sp,#0x20]
        0x00019e34:    f8cdd02c    ..,.    STR      sp,[sp,#0x2c]
        0x00019e38:    900a        ..      STR      r0,[sp,#0x28]
        0x00019e3a:    6a69        ij      LDR      r1,[r5,#0x24]
        0x00019e3c:    2b00        .+      CMP      r3,#0
        0x00019e3e:    bf82        ..      ITTT     HI
        0x00019e40:    0309        ..      LSLHI    r1,r1,#12
        0x00019e42:    f1014280    ...B    ADDHI    r2,r1,#0x40000000
        0x00019e46:    f50232e0    ...2    ADDHI    r2,r2,#0x1c000
        0x00019e4a:    d910        ..      BLS      0x19e6e ; am_hal_uart_transfer + 538
        0x00019e4c:    6991        .i      LDR      r1,[r2,#0x18]
        0x00019e4e:    f0110f10    ....    TST      r1,#0x10
        0x00019e52:    d10c        ..      BNE      0x19e6e ; am_hal_uart_transfer + 538
        0x00019e54:    6811        .h      LDR      r1,[r2,#0]
        0x00019e56:    f4116f70    ..po    TST      r1,#0xf00
        0x00019e5a:    d003        ..      BEQ      0x19e64 ; am_hal_uart_transfer + 528
        0x00019e5c:    f04f6100    O..a    MOV      r1,#0x8000000
        0x00019e60:    910a        ..      STR      r1,[sp,#0x28]
        0x00019e62:    e004        ..      B        0x19e6e ; am_hal_uart_transfer + 538
        0x00019e64:    f80c1000    ....    STRB     r1,[r12,r0]
        0x00019e68:    1c40        @.      ADDS     r0,r0,#1
        0x00019e6a:    4298        .B      CMP      r0,r3
        0x00019e6c:    d3ee        ..      BCC      0x19e4c ; am_hal_uart_transfer + 504
        0x00019e6e:    990b        ..      LDR      r1,[sp,#0x2c]
        0x00019e70:    2900        .)      CMP      r1,#0
        0x00019e72:    bf18        ..      IT       NE
        0x00019e74:    9000        ..      STRNE    r0,[sp,#0]
        0x00019e76:    980a        ..      LDR      r0,[sp,#0x28]
        0x00019e78:    900b        ..      STR      r0,[sp,#0x2c]
        0x00019e7a:    e7bd        ..      B        0x19df8 ; am_hal_uart_transfer + 420
        0x00019e7c:    e7ff        ..      B        0x19e7e ; am_hal_uart_transfer + 554
        0x00019e7e:    b15f        _.      CBZ      r7,0x19e98 ; am_hal_uart_transfer + 580
        0x00019e80:    f44f707a    O.zp    MOV      r0,#0x3e8
        0x00019e84:    f7fefd6a    ..j.    BL       am_hal_delay_us ; 0x1895c
        0x00019e88:    f1bb3fff    ...?    CMP      r11,#0xffffffff
        0x00019e8c:    bf18        ..      IT       NE
        0x00019e8e:    f10a0a01    ....    ADDNE    r10,r10,#1
        0x00019e92:    45da        .E      CMP      r10,r11
        0x00019e94:    f4ffaf48    ..H.    BCC      0x19d28 ; am_hal_uart_transfer + 212
        0x00019e98:    2e00        ..      CMP      r6,#0
        0x00019e9a:    bf18        ..      IT       NE
        0x00019e9c:    f8c68000    ....    STRNE    r8,[r6,#0]
        0x00019ea0:    e034        4.      B        0x19f0c ; am_hal_uart_transfer + 696
        0x00019ea2:    bf00        ..      NOP      
        0x00019ea4:    e9d41201    ....    LDRD     r1,r2,[r4,#4]
        0x00019ea8:    68e7        .h      LDR      r7,[r4,#0xc]
        0x00019eaa:    2d00        .-      CMP      r5,#0
        0x00019eac:    bf19        ..      ITTEE    NE
        0x00019eae:    f8d5c000    ....    LDRNE    r12,[r5,#0]
        0x00019eb2:    f01c7f80    ....    TSTNE    r12,#0x1000000
        0x00019eb6:    b01d        ..      ADDEQ    sp,sp,#0x74
        0x00019eb8:    e8bd8ff0    ....    POPEQ    {r4-r11,pc}
        0x00019ebc:    f02c4c7f    ,..L    BIC      r12,r12,#0xff000000
        0x00019ec0:    459c        .E      CMP      r12,r3
        0x00019ec2:    bf1c        ..      ITT      NE
        0x00019ec4:    b01d        ..      ADDNE    sp,sp,#0x74
        0x00019ec6:    e8bd8ff0    ....    POPNE    {r4-r11,pc}
        0x00019eca:    2f00        ./      CMP      r7,#0
        0x00019ecc:    bf1c        ..      ITT      NE
        0x00019ece:    2000        .       MOVNE    r0,#0
        0x00019ed0:    6038        8`      STRNE    r0,[r7,#0]
        0x00019ed2:    b1da        ..      CBZ      r2,0x19f0c ; am_hal_uart_transfer + 696
        0x00019ed4:    f8950074    ..t.    LDRB     r0,[r5,#0x74]
        0x00019ed8:    b3c0        ..      CBZ      r0,0x19f4c ; am_hal_uart_transfer + 760
        0x00019eda:    e9d50320    .. .    LDRD     r0,r3,[r5,#0x80]
        0x00019ede:    1a18        ..      SUBS     r0,r3,r0
        0x00019ee0:    4282        .B      CMP      r2,r0
        0x00019ee2:    bf28        (.      IT       CS
        0x00019ee4:    4602        .F      MOVCS    r2,r0
        0x00019ee6:    f1050078    ..x.    ADD      r0,r5,#0x78
        0x00019eea:    9202        ..      STR      r2,[sp,#8]
        0x00019eec:    f7fffad4    ....    BL       am_hal_queue_item_add ; 0x19498
        0x00019ef0:    6a6c        lj      LDR      r4,[r5,#0x24]
        0x00019ef2:    f7fefa43    ..C.    BL       am_hal_interrupt_master_disable ; 0x1837c
        0x00019ef6:    9005        ..      STR      r0,[sp,#0x14]
        0x00019ef8:    0320         .      LSLS     r0,r4,#12
        0x00019efa:    f1004480    ...D    ADD      r4,r0,#0x40000000
        0x00019efe:    f50434e0    ...4    ADD      r4,r4,#0x1c000
        0x00019f02:    69a0        .i      LDR      r0,[r4,#0x18]
        0x00019f04:    f0100f20    .. .    TST      r0,#0x20
        0x00019f08:    d11c        ..      BNE      0x19f44 ; am_hal_uart_transfer + 752
        0x00019f0a:    e003        ..      B        0x19f14 ; am_hal_uart_transfer + 704
        0x00019f0c:    b01d        ..      ADD      sp,sp,#0x74
        0x00019f0e:    2000        .       MOVS     r0,#0
        0x00019f10:    e8bd8ff0    ....    POP      {r4-r11,pc}
        0x00019f14:    2201        ."      MOVS     r2,#1
        0x00019f16:    4669        iF      MOV      r1,sp
        0x00019f18:    f1050078    ..x.    ADD      r0,r5,#0x78
        0x00019f1c:    f7fffb0e    ....    BL       am_hal_queue_item_get ; 0x1953c
        0x00019f20:    b180        ..      CBZ      r0,0x19f44 ; am_hal_uart_transfer + 752
        0x00019f22:    6a68        hj      LDR      r0,[r5,#0x24]
        0x00019f24:    0300        ..      LSLS     r0,r0,#12
        0x00019f26:    f1004080    ...@    ADD      r0,r0,#0x40000000
        0x00019f2a:    f50030e0    ...0    ADD      r0,r0,#0x1c000
        0x00019f2e:    6981        .i      LDR      r1,[r0,#0x18]
        0x00019f30:    f0110f20    .. .    TST      r1,#0x20
        0x00019f34:    bf04        ..      ITT      EQ
        0x00019f36:    f89d1000    ....    LDRBEQ   r1,[sp,#0]
        0x00019f3a:    6001        .`      STREQ    r1,[r0,#0]
        0x00019f3c:    69a0        .i      LDR      r0,[r4,#0x18]
        0x00019f3e:    f0100f20    .. .    TST      r0,#0x20
        0x00019f42:    d0e7        ..      BEQ      0x19f14 ; am_hal_uart_transfer + 704
        0x00019f44:    9805        ..      LDR      r0,[sp,#0x14]
        0x00019f46:    f7fefa1d    ....    BL       am_hal_interrupt_master_set ; 0x18384
        0x00019f4a:    e020         .      B        0x19f8e ; am_hal_uart_transfer + 826
        0x00019f4c:    e7ff        ..      B        0x19f4e ; am_hal_uart_transfer + 762
        0x00019f4e:    2300        .#      MOVS     r3,#0
        0x00019f50:    f8d5c024    ..$.    LDR      r12,[r5,#0x24]
        0x00019f54:    ac02        ..      ADD      r4,sp,#8
        0x00019f56:    f1b24f00    ...O    CMP      r2,#0x80000000
        0x00019f5a:    d22d        -.      BCS      0x19fb8 ; am_hal_uart_transfer + 868
        0x00019f5c:    2001        .       MOVS     r0,#1
        0x00019f5e:    2a01        .*      CMP      r2,#1
        0x00019f60:    db12        ..      BLT      0x19f88 ; am_hal_uart_transfer + 820
        0x00019f62:    ea4f3c0c    O..<    LSL      r12,r12,#12
        0x00019f66:    f10c4c80    ...L    ADD      r12,r12,#0x40000000
        0x00019f6a:    f50c3ce0    ...<    ADD      r12,r12,#0x1c000
        0x00019f6e:    bf00        ..      NOP      
        0x00019f70:    f8dc5018    ...P    LDR      r5,[r12,#0x18]
        0x00019f74:    f0150f20    .. .    TST      r5,#0x20
        0x00019f78:    d106        ..      BNE      0x19f88 ; am_hal_uart_transfer + 820
        0x00019f7a:    5ccd        .\      LDRB     r5,[r1,r3]
        0x00019f7c:    f8cc5000    ...P    STR      r5,[r12,#0]
        0x00019f80:    1c40        @.      ADDS     r0,r0,#1
        0x00019f82:    1c5b        [.      ADDS     r3,r3,#1
        0x00019f84:    4290        .B      CMP      r0,r2
        0x00019f86:    ddf3        ..      BLE      0x19f70 ; am_hal_uart_transfer + 796
        0x00019f88:    2c00        .,      CMP      r4,#0
        0x00019f8a:    bf18        ..      IT       NE
        0x00019f8c:    9302        ..      STRNE    r3,[sp,#8]
        0x00019f8e:    2f00        ./      CMP      r7,#0
        0x00019f90:    bf1c        ..      ITT      NE
        0x00019f92:    9802        ..      LDRNE    r0,[sp,#8]
        0x00019f94:    6038        8`      STRNE    r0,[r7,#0]
        0x00019f96:    e7b9        ..      B        0x19f0c ; am_hal_uart_transfer + 696
        0x00019f98:    0318        ..      LSLS     r0,r3,#12
        0x00019f9a:    f1004080    ...@    ADD      r0,r0,#0x40000000
        0x00019f9e:    f50030e0    ...0    ADD      r0,r0,#0x1c000
        0x00019fa2:    6983        .i      LDR      r3,[r0,#0x18]
        0x00019fa4:    f0130f20    .. .    TST      r3,#0x20
        0x00019fa8:    f47fae99    ....    BNE      0x19cde ; am_hal_uart_transfer + 138
        0x00019fac:    5c53        S\      LDRB     r3,[r2,r1]
        0x00019fae:    6003        .`      STR      r3,[r0,#0]
        0x00019fb0:    1c49        I.      ADDS     r1,r1,#1
        0x00019fb2:    42a9        .B      CMP      r1,r5
        0x00019fb4:    d3f5        ..      BCC      0x19fa2 ; am_hal_uart_transfer + 846
        0x00019fb6:    e692        ..      B        0x19cde ; am_hal_uart_transfer + 138
        0x00019fb8:    ea4f300c    O..0    LSL      r0,r12,#12
        0x00019fbc:    f1004080    ...@    ADD      r0,r0,#0x40000000
        0x00019fc0:    f50030e0    ...0    ADD      r0,r0,#0x1c000
        0x00019fc4:    f8d0c018    ....    LDR      r12,[r0,#0x18]
        0x00019fc8:    f01c0f20    .. .    TST      r12,#0x20
        0x00019fcc:    d1dc        ..      BNE      0x19f88 ; am_hal_uart_transfer + 820
        0x00019fce:    f811c003    ....    LDRB     r12,[r1,r3]
        0x00019fd2:    f8c0c000    ....    STR      r12,[r0,#0]
        0x00019fd6:    1c5b        [.      ADDS     r3,r3,#1
        0x00019fd8:    4293        .B      CMP      r3,r2
        0x00019fda:    d3f3        ..      BCC      0x19fc4 ; am_hal_uart_transfer + 880
        0x00019fdc:    e7d4        ..      B        0x19f88 ; am_hal_uart_transfer + 820
    $d
        0x00019fde:    0000        ..      DCW    0
        0x00019fe0:    00ea9e06    ....    DCD    15375878
        0x00019fe4:    08000001    ....    DCD    134217729
    $t
    i.am_hal_uart_tx_flush
    am_hal_uart_tx_flush
        0x00019fe8:    b570        p.      PUSH     {r4-r6,lr}
        0x00019fea:    4604        .F      MOV      r4,r0
        0x00019fec:    6a45        Ej      LDR      r5,[r0,#0x24]
        0x00019fee:    f8900074    ..t.    LDRB     r0,[r0,#0x74]
        0x00019ff2:    4e18        .N      LDR      r6,[pc,#96] ; [0x1a054] = 0xf4240
        0x00019ff4:    2800        .(      CMP      r0,#0
        0x00019ff6:    bf1c        ..      ITT      NE
        0x00019ff8:    f8d40080    ....    LDRNE    r0,[r4,#0x80]
        0x00019ffc:    2800        .(      CMPNE    r0,#0
        0x00019ffe:    d00e        ..      BEQ      0x1a01e ; am_hal_uart_tx_flush + 54
        0x0001a000:    6aa0        .j      LDR      r0,[r4,#0x28]
        0x0001a002:    fbb6f0f0    ....    UDIV     r0,r6,r0
        0x0001a006:    f1000001    ....    ADD      r0,r0,#1
        0x0001a00a:    eb000080    ....    ADD      r0,r0,r0,LSL #2
        0x0001a00e:    ea4f0040    O.@.    LSL      r0,r0,#1
        0x0001a012:    f7fefca3    ....    BL       am_hal_delay_us ; 0x1895c
        0x0001a016:    f8d40080    ....    LDR      r0,[r4,#0x80]
        0x0001a01a:    2800        .(      CMP      r0,#0
        0x0001a01c:    d1f0        ..      BNE      0x1a000 ; am_hal_uart_tx_flush + 24
        0x0001a01e:    0328        (.      LSLS     r0,r5,#12
        0x0001a020:    f1004580    ...E    ADD      r5,r0,#0x40000000
        0x0001a024:    f50535e0    ...5    ADD      r5,r5,#0x1c000
        0x0001a028:    69a8        .i      LDR      r0,[r5,#0x18]
        0x0001a02a:    f0100f08    ....    TST      r0,#8
        0x0001a02e:    d00e        ..      BEQ      0x1a04e ; am_hal_uart_tx_flush + 102
        0x0001a030:    6aa0        .j      LDR      r0,[r4,#0x28]
        0x0001a032:    fbb6f0f0    ....    UDIV     r0,r6,r0
        0x0001a036:    f1000001    ....    ADD      r0,r0,#1
        0x0001a03a:    eb000080    ....    ADD      r0,r0,r0,LSL #2
        0x0001a03e:    ea4f0040    O.@.    LSL      r0,r0,#1
        0x0001a042:    f7fefc8b    ....    BL       am_hal_delay_us ; 0x1895c
        0x0001a046:    69a8        .i      LDR      r0,[r5,#0x18]
        0x0001a048:    f0100f08    ....    TST      r0,#8
        0x0001a04c:    d1f0        ..      BNE      0x1a030 ; am_hal_uart_tx_flush + 72
        0x0001a04e:    f04f0000    O...    MOV      r0,#0
        0x0001a052:    bd70        p.      POP      {r4-r6,pc}
    $d
        0x0001a054:    000f4240    @B..    DCD    1000000
    $t
    i.am_hal_util_write_and_wait
    am_hal_util_write_and_wait
        0x0001a058:    e92d4fff    -..O    PUSH     {r0-r11,lr}
        0x0001a05c:    b087        ..      SUB      sp,sp,#0x1c
        0x0001a05e:    461d        .F      MOV      r5,r3
        0x0001a060:    4616        .F      MOV      r6,r2
        0x0001a062:    460f        .F      MOV      r7,r1
        0x0001a064:    2400        .$      MOVS     r4,#0
        0x0001a066:    f7fef989    ....    BL       am_hal_interrupt_master_disable ; 0x1837c
        0x0001a06a:    9005        ..      STR      r0,[sp,#0x14]
        0x0001a06c:    4668        hF      MOV      r0,sp
        0x0001a06e:    f7fffb57    ..W.    BL       am_hal_timer_default_config_set ; 0x19720
        0x0001a072:    1e60        `.      SUBS     r0,r4,#1
        0x0001a074:    f04f0900    O...    MOV      r9,#0
        0x0001a078:    e9cd9002    ....    STRD     r9,r0,[sp,#8]
        0x0001a07c:    4837        7H      LDR      r0,[pc,#220] ; [0x1a15c] = 0x5b8d80
        0x0001a07e:    4938        8I      LDR      r1,[pc,#224] ; [0x1a160] = 0xf4240
        0x0001a080:    4368        hC      MULS     r0,r5,r0
        0x0001a082:    fbb0f0f1    ....    UDIV     r0,r0,r1
        0x0001a086:    f04f0801    O...    MOV      r8,#1
        0x0001a08a:    9004        ..      STR      r0,[sp,#0x10]
        0x0001a08c:    f88d8001    ....    STRB     r8,[sp,#1]
        0x0001a090:    4669        iF      MOV      r1,sp
        0x0001a092:    200d        .       MOVS     r0,#0xd
        0x0001a094:    f001fa78    ..x.    BL       internal_timer_config ; 0x1b588
        0x0001a098:    b978        x.      CBNZ     r0,0x1a0ba ; am_hal_util_write_and_wait + 98
        0x0001a09a:    200d        .       MOVS     r0,#0xd
        0x0001a09c:    f7fffae4    ....    BL       am_hal_timer_clear ; 0x19668
        0x0001a0a0:    200d        .       MOVS     r0,#0xd
        0x0001a0a2:    f7fffc37    ..7.    BL       am_hal_timer_stop ; 0x19914
        0x0001a0a6:    f04f6000    O..`    MOV      r0,#0x8000000
        0x0001a0aa:    f7fffb47    ..G.    BL       am_hal_timer_interrupt_clear ; 0x1973c
        0x0001a0ae:    b920         .      CBNZ     r0,0x1a0ba ; am_hal_util_write_and_wait + 98
        0x0001a0b0:    f04f6000    O..`    MOV      r0,#0x8000000
        0x0001a0b4:    f7fffb48    ..H.    BL       am_hal_timer_interrupt_enable ; 0x19748
        0x0001a0b8:    b108        ..      CBZ      r0,0x1a0be ; am_hal_util_write_and_wait + 102
        0x0001a0ba:    4604        .F      MOV      r4,r0
        0x0001a0bc:    e046        F.      B        0x1a14c ; am_hal_util_write_and_wait + 244
        0x0001a0be:    4829        )H      LDR      r0,[pc,#164] ; [0x1a164] = 0xe000e050
        0x0001a0c0:    f8809400    ....    STRB     r9,[r0,#0x400]
        0x0001a0c4:    f8dfb0a0    ....    LDR      r11,[pc,#160] ; [0x1a168] = 0xe000e008
        0x0001a0c8:    f44f3a80    O..:    MOV      r10,#0x10000
        0x0001a0cc:    f8cba100    ....    STR      r10,[r11,#0x100]
        0x0001a0d0:    4826        &H      LDR      r0,[pc,#152] ; [0x1a16c] = 0xe000ed0c
        0x0001a0d2:    6800        .h      LDR      r0,[r0,#0]
        0x0001a0d4:    f3c02902    ...)    UBFX     r9,r0,#8,#3
        0x0001a0d8:    f1b90f07    ....    CMP      r9,#7
        0x0001a0dc:    bf08        ..      IT       EQ
        0x0001a0de:    2401        .$      MOVEQ    r4,#1
        0x0001a0e0:    d034        4.      BEQ      0x1a14c ; am_hal_util_write_and_wait + 244
        0x0001a0e2:    2100        .!      MOVS     r1,#0
        0x0001a0e4:    2002        .       MOVS     r0,#2
        0x0001a0e6:    f7fefb91    ....    BL       am_hal_daxi_control ; 0x1880c
        0x0001a0ea:    f3ef8511    ....    MRS      r5,BASEPRI
        0x0001a0ee:    f1b90f05    ....    CMP      r9,#5
        0x0001a0f2:    bf23        #.      ITTTE    CS
        0x0001a0f4:    f1090001    ....    ADDCS    r0,r9,#1
        0x0001a0f8:    fa08f000    ....    LSLCS    r0,r8,r0
        0x0001a0fc:    b2c0        ..      UXTBCS   r0,r0
        0x0001a0fe:    2020                MOVCC    r0,#0x20
        0x0001a100:    f3808811    ....    MSR      BASEPRI,r0
        0x0001a104:    f1b73fff    ...?    CMP      r7,#0xffffffff
        0x0001a108:    d003        ..      BEQ      0x1a112 ; am_hal_util_write_and_wait + 186
        0x0001a10a:    9807        ..      LDR      r0,[sp,#0x1c]
        0x0001a10c:    6800        .h      LDR      r0,[r0,#0]
        0x0001a10e:    43b8        .C      BICS     r0,r0,r7
        0x0001a110:    4306        .C      ORRS     r6,r6,r0
        0x0001a112:    200d        .       MOVS     r0,#0xd
        0x0001a114:    f7fffaa8    ....    BL       am_hal_timer_clear ; 0x19668
        0x0001a118:    4815        .H      LDR      r0,[pc,#84] ; [0x1a170] = 0xe000ed10
        0x0001a11a:    6801        .h      LDR      r1,[r0,#0]
        0x0001a11c:    f0210104    !...    BIC      r1,r1,#4
        0x0001a120:    6001        .`      STR      r1,[r0,#0]
        0x0001a122:    4a14        .J      LDR      r2,[pc,#80] ; [0x1a174] = 0x100000a4
        0x0001a124:    4630        0F      MOV      r0,r6
        0x0001a126:    9907        ..      LDR      r1,[sp,#0x1c]
        0x0001a128:    6992        .i      LDR      r2,[r2,#0x18]
        0x0001a12a:    4790        .G      BLX      r2
        0x0001a12c:    200d        .       MOVS     r0,#0xd
        0x0001a12e:    f7fffbf1    ....    BL       am_hal_timer_stop ; 0x19914
        0x0001a132:    f04f6000    O..`    MOV      r0,#0x8000000
        0x0001a136:    f7fffb01    ....    BL       am_hal_timer_interrupt_clear ; 0x1973c
        0x0001a13a:    4669        iF      MOV      r1,sp
        0x0001a13c:    2000        .       MOVS     r0,#0
        0x0001a13e:    f7fffb33    ..3.    BL       am_hal_timer_interrupt_status_get ; 0x197a8
        0x0001a142:    f8cba280    ....    STR      r10,[r11,#0x280]
        0x0001a146:    b2e8        ..      UXTB     r0,r5
        0x0001a148:    f3808811    ....    MSR      BASEPRI,r0
        0x0001a14c:    9805        ..      LDR      r0,[sp,#0x14]
        0x0001a14e:    f7fef919    ....    BL       am_hal_interrupt_master_set ; 0x18384
        0x0001a152:    b00b        ..      ADD      sp,sp,#0x2c
        0x0001a154:    4620         F      MOV      r0,r4
        0x0001a156:    e8bd8ff0    ....    POP      {r4-r11,pc}
    $d
        0x0001a15a:    0000        ..      DCW    0
        0x0001a15c:    005b8d80    ..[.    DCD    6000000
        0x0001a160:    000f4240    @B..    DCD    1000000
        0x0001a164:    e000e050    P...    DCD    3758153808
        0x0001a168:    e000e008    ....    DCD    3758153736
        0x0001a16c:    e000ed0c    ....    DCD    3758157068
        0x0001a170:    e000ed10    ....    DCD    3758157072
        0x0001a174:    100000a4    ....    DCD    268435620
    $t
    i.am_sprintf
    am_sprintf
        0x0001a178:    b40f        ..      PUSH     {r0-r3}
        0x0001a17a:    e92d41f0    -..A    PUSH     {r4-r8,lr}
        0x0001a17e:    4c18        .L      LDR      r4,[pc,#96] ; [0x1a1e0] = 0x10000038
        0x0001a180:    2500        .%      MOVS     r5,#0
        0x0001a182:    6820         h      LDR      r0,[r4,#0]
        0x0001a184:    f5b07f40    ..@.    CMP      r0,#0x300
        0x0001a188:    d224        $.      BCS      0x1a1d4 ; am_sprintf + 92
        0x0001a18a:    aa07        ..      ADD      r2,sp,#0x1c
        0x0001a18c:    9906        ..      LDR      r1,[sp,#0x18]
        0x0001a18e:    6860        `h      LDR      r0,[r4,#4]
        0x0001a190:    f000f8e4    ....    BL       am_util_stdio_vsprintf ; 0x1a35c
        0x0001a194:    6821        !h      LDR      r1,[r4,#0]
        0x0001a196:    2700        .'      MOVS     r7,#0
        0x0001a198:    4401        .D      ADD      r1,r1,r0
        0x0001a19a:    f5b17f40    ..@.    CMP      r1,#0x300
        0x0001a19e:    d30e        ..      BCC      0x1a1be ; am_sprintf + 70
        0x0001a1a0:    4e1a        .N      LDR      r6,[pc,#104] ; [0x1a20c] = 0x100002f8
        0x0001a1a2:    a110        ..      ADR      r1,{pc}+0x42 ; 0x1a1e4
        0x0001a1a4:    f20620d7    ...     ADD      r0,r6,#0x2d7
        0x0001a1a8:    f000f8b0    ....    BL       am_util_stdio_sprintf ; 0x1a30c
        0x0001a1ac:    f88672ff    ...r    STRB     r7,[r6,#0x2ff]
        0x0001a1b0:    f5067040    ..@p    ADD      r0,r6,#0x300
        0x0001a1b4:    6060        ``      STR      r0,[r4,#4]
        0x0001a1b6:    f44f7040    O.@p    MOV      r0,#0x300
        0x0001a1ba:    6020         `      STR      r0,[r4,#0]
        0x0001a1bc:    e00a        ..      B        0x1a1d4 ; am_sprintf + 92
        0x0001a1be:    6861        ah      LDR      r1,[r4,#4]
        0x0001a1c0:    4401        .D      ADD      r1,r1,r0
        0x0001a1c2:    1c49        I.      ADDS     r1,r1,#1
        0x0001a1c4:    6061        a`      STR      r1,[r4,#4]
        0x0001a1c6:    6821        !h      LDR      r1,[r4,#0]
        0x0001a1c8:    4401        .D      ADD      r1,r1,r0
        0x0001a1ca:    6021        !`      STR      r1,[r4,#0]
        0x0001a1cc:    6821        !h      LDR      r1,[r4,#0]
        0x0001a1ce:    1c49        I.      ADDS     r1,r1,#1
        0x0001a1d0:    6021        !`      STR      r1,[r4,#0]
        0x0001a1d2:    4605        .F      MOV      r5,r0
        0x0001a1d4:    4628        (F      MOV      r0,r5
        0x0001a1d6:    e8bd01f0    ....    POP      {r4-r8}
        0x0001a1da:    f85dfb14    ]...    LDR      pc,[sp],#0x14
    $d
        0x0001a1de:    0000        ..      DCW    0
        0x0001a1e0:    10000038    8...    DCD    268435512
        0x0001a1e4:    46465542    BUFF    DCD    1179014466
        0x0001a1e8:    4f205245    ER O    DCD    1327518277
        0x0001a1ec:    46524556    VERF    DCD    1179796822
        0x0001a1f0:    45574f4c    LOWE    DCD    1163349836
        0x0001a1f4:    49202144    D! I    DCD    1226842436
        0x0001a1f8:    6572636e    ncre    DCD    1701995374
        0x0001a1fc:    20657361    ase     DCD    543519585
        0x0001a200:    42545250    PRTB    DCD    1112822352
        0x0001a204:    49534655    UFSI    DCD    1230194261
        0x0001a208:    000a455a    ZE..    DCD    673114
        0x0001a20c:    100002f8    ....    DCD    268436216
    $t
    i.am_util_delay_ms
    am_util_delay_ms
        0x0001a210:    f44f717a    O.zq    MOV      r1,#0x3e8
        0x0001a214:    4348        HC      MULS     r0,r1,r0
        0x0001a216:    f7febba1    ....    B        am_hal_delay_us ; 0x1895c
        0x0001a21a:    0000        ..      MOVS     r0,r0
    i.am_util_faultisr_collect_data
    am_util_faultisr_collect_data
        0x0001a21c:    b092        ..      SUB      sp,sp,#0x48
        0x0001a21e:    4604        .F      MOV      r4,r0
        0x0001a220:    2000        .       MOVS     r0,#0
        0x0001a222:    900c        ..      STR      r0,[sp,#0x30]
        0x0001a224:    900f        ..      STR      r0,[sp,#0x3c]
        0x0001a226:    900d        ..      STR      r0,[sp,#0x34]
        0x0001a228:    900e        ..      STR      r0,[sp,#0x38]
        0x0001a22a:    9010        ..      STR      r0,[sp,#0x40]
        0x0001a22c:    9011        ..      STR      r0,[sp,#0x44]
        0x0001a22e:    900a        ..      STR      r0,[sp,#0x28]
        0x0001a230:    4824        $H      LDR      r0,[pc,#144] ; [0x1a2c4] = 0xe000ed28
        0x0001a232:    6800        .h      LDR      r0,[r0,#0]
        0x0001a234:    900a        ..      STR      r0,[sp,#0x28]
        0x0001a236:    980a        ..      LDR      r0,[sp,#0x28]
        0x0001a238:    f88d002c    ..,.    STRB     r0,[sp,#0x2c]
        0x0001a23c:    980a        ..      LDR      r0,[sp,#0x28]
        0x0001a23e:    0a00        ..      LSRS     r0,r0,#8
        0x0001a240:    f88d002d    ..-.    STRB     r0,[sp,#0x2d]
        0x0001a244:    980a        ..      LDR      r0,[sp,#0x28]
        0x0001a246:    0c00        ..      LSRS     r0,r0,#16
        0x0001a248:    f8ad002e    ....    STRH     r0,[sp,#0x2e]
        0x0001a24c:    481e        .H      LDR      r0,[pc,#120] ; [0x1a2c8] = 0xe000ed38
        0x0001a24e:    6800        .h      LDR      r0,[r0,#0]
        0x0001a250:    9009        ..      STR      r0,[sp,#0x24]
        0x0001a252:    f89d002d    ..-.    LDRB     r0,[sp,#0x2d]
        0x0001a256:    f0100f02    ....    TST      r0,#2
        0x0001a25a:    bf08        ..      IT       EQ
        0x0001a25c:    f04f30ff    O..0    MOVEQ    r0,#0xffffffff
        0x0001a260:    d003        ..      BEQ      0x1a26a ; am_util_faultisr_collect_data + 78
        0x0001a262:    4621        !F      MOV      r1,r4
        0x0001a264:    2006        .       MOVS     r0,#6
        0x0001a266:    f7fef872    ..r.    BL       getStackedReg ; 0x1834e
        0x0001a26a:    9008        ..      STR      r0,[sp,#0x20]
        0x0001a26c:    4621        !F      MOV      r1,r4
        0x0001a26e:    2000        .       MOVS     r0,#0
        0x0001a270:    f7fef86d    ..m.    BL       getStackedReg ; 0x1834e
        0x0001a274:    9000        ..      STR      r0,[sp,#0]
        0x0001a276:    4621        !F      MOV      r1,r4
        0x0001a278:    2001        .       MOVS     r0,#1
        0x0001a27a:    f7fef868    ..h.    BL       getStackedReg ; 0x1834e
        0x0001a27e:    9001        ..      STR      r0,[sp,#4]
        0x0001a280:    4621        !F      MOV      r1,r4
        0x0001a282:    2002        .       MOVS     r0,#2
        0x0001a284:    f7fef863    ..c.    BL       getStackedReg ; 0x1834e
        0x0001a288:    9002        ..      STR      r0,[sp,#8]
        0x0001a28a:    4621        !F      MOV      r1,r4
        0x0001a28c:    2003        .       MOVS     r0,#3
        0x0001a28e:    f7fef85e    ..^.    BL       getStackedReg ; 0x1834e
        0x0001a292:    9003        ..      STR      r0,[sp,#0xc]
        0x0001a294:    4621        !F      MOV      r1,r4
        0x0001a296:    2004        .       MOVS     r0,#4
        0x0001a298:    f7fef859    ..Y.    BL       getStackedReg ; 0x1834e
        0x0001a29c:    9004        ..      STR      r0,[sp,#0x10]
        0x0001a29e:    4621        !F      MOV      r1,r4
        0x0001a2a0:    2005        .       MOVS     r0,#5
        0x0001a2a2:    f7fef854    ..T.    BL       getStackedReg ; 0x1834e
        0x0001a2a6:    9005        ..      STR      r0,[sp,#0x14]
        0x0001a2a8:    4621        !F      MOV      r1,r4
        0x0001a2aa:    2006        .       MOVS     r0,#6
        0x0001a2ac:    f7fef84f    ..O.    BL       getStackedReg ; 0x1834e
        0x0001a2b0:    9006        ..      STR      r0,[sp,#0x18]
        0x0001a2b2:    4621        !F      MOV      r1,r4
        0x0001a2b4:    2007        .       MOVS     r0,#7
        0x0001a2b6:    f7fef84a    ..J.    BL       getStackedReg ; 0x1834e
        0x0001a2ba:    9007        ..      STR      r0,[sp,#0x1c]
        0x0001a2bc:    a80c        ..      ADD      r0,sp,#0x30
        0x0001a2be:    f7fefbc1    ....    BL       am_hal_fault_status_get ; 0x18a44
        0x0001a2c2:    e7fe        ..      B        0x1a2c2 ; am_util_faultisr_collect_data + 166
    $d
        0x0001a2c4:    e000ed28    (...    DCD    3758157096
        0x0001a2c8:    e000ed38    8...    DCD    3758157112
    $t
    i.am_util_stdio_printf
    am_util_stdio_printf
        0x0001a2cc:    b40f        ..      PUSH     {r0-r3}
        0x0001a2ce:    b570        p.      PUSH     {r4-r6,lr}
        0x0001a2d0:    4c09        .L      LDR      r4,[pc,#36] ; [0x1a2f8] = 0x10000094
        0x0001a2d2:    6860        `h      LDR      r0,[r4,#4]
        0x0001a2d4:    2800        .(      CMP      r0,#0
        0x0001a2d6:    bf04        ..      ITT      EQ
        0x0001a2d8:    bc70        p.      POPEQ    {r4-r6}
        0x0001a2da:    f85dfb14    ]...    LDREQ    pc,[sp],#0x14
        0x0001a2de:    aa05        ..      ADD      r2,sp,#0x14
        0x0001a2e0:    4806        .H      LDR      r0,[pc,#24] ; [0x1a2fc] = 0x100005f8
        0x0001a2e2:    9904        ..      LDR      r1,[sp,#0x10]
        0x0001a2e4:    f000f83a    ..:.    BL       am_util_stdio_vsprintf ; 0x1a35c
        0x0001a2e8:    4605        .F      MOV      r5,r0
        0x0001a2ea:    6861        ah      LDR      r1,[r4,#4]
        0x0001a2ec:    4803        .H      LDR      r0,[pc,#12] ; [0x1a2fc] = 0x100005f8
        0x0001a2ee:    4788        .G      BLX      r1
        0x0001a2f0:    4628        (F      MOV      r0,r5
        0x0001a2f2:    bc70        p.      POP      {r4-r6}
        0x0001a2f4:    f85dfb14    ]...    LDR      pc,[sp],#0x14
    $d
        0x0001a2f8:    10000094    ....    DCD    268435604
        0x0001a2fc:    100005f8    ....    DCD    268436984
    $t
    i.am_util_stdio_printf_init
    am_util_stdio_printf_init
        0x0001a300:    4901        .I      LDR      r1,[pc,#4] ; [0x1a308] = 0x10000094
        0x0001a302:    6048        H`      STR      r0,[r1,#4]
        0x0001a304:    4770        pG      BX       lr
    $d
        0x0001a306:    0000        ..      DCW    0
        0x0001a308:    10000094    ....    DCD    268435604
    $t
    i.am_util_stdio_sprintf
    am_util_stdio_sprintf
        0x0001a30c:    b40f        ..      PUSH     {r0-r3}
        0x0001a30e:    b510        ..      PUSH     {r4,lr}
        0x0001a310:    aa04        ..      ADD      r2,sp,#0x10
        0x0001a312:    9903        ..      LDR      r1,[sp,#0xc]
        0x0001a314:    f000f822    ..".    BL       am_util_stdio_vsprintf ; 0x1a35c
        0x0001a318:    bc10        ..      POP      {r4}
        0x0001a31a:    f85dfb14    ]...    LDR      pc,[sp],#0x14
        0x0001a31e:    0000        ..      MOVS     r0,r0
    i.am_util_stdio_terminal_clear
    am_util_stdio_terminal_clear
        0x0001a320:    b538        8.      PUSH     {r3-r5,lr}
        0x0001a322:    4c0c        .L      LDR      r4,[pc,#48] ; [0x1a354] = 0x10000094
        0x0001a324:    a106        ..      ADR      r1,{pc}+0x1c ; 0x1a340
        0x0001a326:    9100        ..      STR      r1,[sp,#0]
        0x0001a328:    6860        `h      LDR      r0,[r4,#4]
        0x0001a32a:    2800        .(      CMP      r0,#0
        0x0001a32c:    bf08        ..      IT       EQ
        0x0001a32e:    bd38        8.      POPEQ    {r3-r5,pc}
        0x0001a330:    aa01        ..      ADD      r2,sp,#4
        0x0001a332:    4809        .H      LDR      r0,[pc,#36] ; [0x1a358] = 0x100005f8
        0x0001a334:    f000f812    ....    BL       am_util_stdio_vsprintf ; 0x1a35c
        0x0001a338:    6861        ah      LDR      r1,[r4,#4]
        0x0001a33a:    4807        .H      LDR      r0,[pc,#28] ; [0x1a358] = 0x100005f8
        0x0001a33c:    4788        .G      BLX      r1
        0x0001a33e:    bd38        8.      POP      {r3-r5,pc}
    $d
        0x0001a340:    0a0a0a0a    ....    DCD    168430090
        0x0001a344:    0a0a0a0a    ....    DCD    168430090
        0x0001a348:    0a0a0a0a    ....    DCD    168430090
        0x0001a34c:    0a0a0a0a    ....    DCD    168430090
        0x0001a350:    00000a0a    ....    DCD    2570
        0x0001a354:    10000094    ....    DCD    268435604
        0x0001a358:    100005f8    ....    DCD    268436984
    $t
    i.am_util_stdio_vsprintf
    am_util_stdio_vsprintf
        0x0001a35c:    e92d4ff7    -..O    PUSH     {r0-r2,r4-r11,lr}
        0x0001a360:    4604        .F      MOV      r4,r0
        0x0001a362:    7808        .x      LDRB     r0,[r1,#0]
        0x0001a364:    2500        .%      MOVS     r5,#0
        0x0001a366:    b088        ..      SUB      sp,sp,#0x20
        0x0001a368:    2800        .(      CMP      r0,#0
        0x0001a36a:    f0008385    ....    BEQ.W    0x1aa78 ; am_util_stdio_vsprintf + 1820
        0x0001a36e:    bf00        ..      NOP      
        0x0001a370:    b2c0        ..      UXTB     r0,r0
        0x0001a372:    f04f0906    O...    MOV      r9,#6
        0x0001a376:    2825        %(      CMP      r0,#0x25
        0x0001a378:    d010        ..      BEQ      0x1a39c ; am_util_stdio_vsprintf + 64
        0x0001a37a:    b15c        \.      CBZ      r4,0x1a394 ; am_util_stdio_vsprintf + 56
        0x0001a37c:    280a        .(      CMP      r0,#0xa
        0x0001a37e:    d106        ..      BNE      0x1a38e ; am_util_stdio_vsprintf + 50
        0x0001a380:    48fe        .H      LDR      r0,[pc,#1016] ; [0x1a77c] = 0x10000094
        0x0001a382:    7800        .x      LDRB     r0,[r0,#0]
        0x0001a384:    b118        ..      CBZ      r0,0x1a38e ; am_util_stdio_vsprintf + 50
        0x0001a386:    200d        .       MOVS     r0,#0xd
        0x0001a388:    f8040b01    ....    STRB     r0,[r4],#1
        0x0001a38c:    1c6d        m.      ADDS     r5,r5,#1
        0x0001a38e:    7808        .x      LDRB     r0,[r1,#0]
        0x0001a390:    f8040b01    ....    STRB     r0,[r4],#1
        0x0001a394:    1c49        I.      ADDS     r1,r1,#1
        0x0001a396:    1c6d        m.      ADDS     r5,r5,#1
        0x0001a398:    f000bb6a    ..j.    B.W      0x1aa70 ; am_util_stdio_vsprintf + 1812
        0x0001a39c:    2020                MOVS     r0,#0x20
        0x0001a39e:    9001        ..      STR      r0,[sp,#4]
        0x0001a3a0:    2700        .'      MOVS     r7,#0
        0x0001a3a2:    f8110f01    ....    LDRB     r0,[r1,#1]!
        0x0001a3a6:    46bc        .F      MOV      r12,r7
        0x0001a3a8:    2830        0(      CMP      r0,#0x30
        0x0001a3aa:    d101        ..      BNE      0x1a3b0 ; am_util_stdio_vsprintf + 84
        0x0001a3ac:    1c49        I.      ADDS     r1,r1,#1
        0x0001a3ae:    9001        ..      STR      r0,[sp,#4]
        0x0001a3b0:    2600        .&      MOVS     r6,#0
        0x0001a3b2:    f891a000    ....    LDRB     r10,[r1,#0]
        0x0001a3b6:    460a        .F      MOV      r2,r1
        0x0001a3b8:    f10d0808    ....    ADD      r8,sp,#8
        0x0001a3bc:    4630        0F      MOV      r0,r6
        0x0001a3be:    4633        3F      MOV      r3,r6
        0x0001a3c0:    f1ba0f2d    ..-.    CMP      r10,#0x2d
        0x0001a3c4:    d102        ..      BNE      0x1a3cc ; am_util_stdio_vsprintf + 112
        0x0001a3c6:    2601        .&      MOVS     r6,#1
        0x0001a3c8:    1c4a        J.      ADDS     r2,r1,#1
        0x0001a3ca:    4633        3F      MOV      r3,r6
        0x0001a3cc:    f892a000    ....    LDRB     r10,[r2,#0]
        0x0001a3d0:    f1aa0a30    ..0.    SUB      r10,r10,#0x30
        0x0001a3d4:    f1ba0f09    ....    CMP      r10,#9
        0x0001a3d8:    d80f        ..      BHI      0x1a3fa ; am_util_stdio_vsprintf + 158
        0x0001a3da:    bf00        ..      NOP      
        0x0001a3dc:    eb000080    ....    ADD      r0,r0,r0,LSL #2
        0x0001a3e0:    0040        @.      LSLS     r0,r0,#1
        0x0001a3e2:    f812ab01    ....    LDRB     r10,[r2],#1
        0x0001a3e6:    3830        08      SUBS     r0,r0,#0x30
        0x0001a3e8:    4450        PD      ADD      r0,r0,r10
        0x0001a3ea:    f892a000    ....    LDRB     r10,[r2,#0]
        0x0001a3ee:    1c5b        [.      ADDS     r3,r3,#1
        0x0001a3f0:    f1aa0a30    ..0.    SUB      r10,r10,#0x30
        0x0001a3f4:    f1ba0f09    ....    CMP      r10,#9
        0x0001a3f8:    d9f0        ..      BLS      0x1a3dc ; am_util_stdio_vsprintf + 128
        0x0001a3fa:    f1b80f00    ....    CMP      r8,#0
        0x0001a3fe:    bf18        ..      IT       NE
        0x0001a400:    9302        ..      STRNE    r3,[sp,#8]
        0x0001a402:    2e00        ..      CMP      r6,#0
        0x0001a404:    bf18        ..      IT       NE
        0x0001a406:    4240        @B      RSBNE    r0,r0,#0
        0x0001a408:    9000        ..      STR      r0,[sp,#0]
        0x0001a40a:    9802        ..      LDR      r0,[sp,#8]
        0x0001a40c:    180e        ..      ADDS     r6,r1,r0
        0x0001a40e:    7830        0x      LDRB     r0,[r6,#0]
        0x0001a410:    2873        s(      CMP      r0,#0x73
        0x0001a412:    d037        7.      BEQ      0x1a484 ; am_util_stdio_vsprintf + 296
        0x0001a414:    9900        ..      LDR      r1,[sp,#0]
        0x0001a416:    2900        .)      CMP      r1,#0
        0x0001a418:    bfbc        ..      ITT      LT
        0x0001a41a:    4249        IB      RSBLT    r1,r1,#0
        0x0001a41c:    9100        ..      STRLT    r1,[sp,#0]
        0x0001a41e:    282e        .(      CMP      r0,#0x2e
        0x0001a420:    d003        ..      BEQ      0x1a42a ; am_util_stdio_vsprintf + 206
        0x0001a422:    7830        0x      LDRB     r0,[r6,#0]
        0x0001a424:    286c        l(      CMP      r0,#0x6c
        0x0001a426:    d12d        -.      BNE      0x1a484 ; am_util_stdio_vsprintf + 296
        0x0001a428:    e025        %.      B        0x1a476 ; am_util_stdio_vsprintf + 282
        0x0001a42a:    1c72        r.      ADDS     r2,r6,#1
        0x0001a42c:    2300        .#      MOVS     r3,#0
        0x0001a42e:    7811        .x      LDRB     r1,[r2,#0]
        0x0001a430:    4616        .F      MOV      r6,r2
        0x0001a432:    4699        .F      MOV      r9,r3
        0x0001a434:    4618        .F      MOV      r0,r3
        0x0001a436:    292d        -)      CMP      r1,#0x2d
        0x0001a438:    d102        ..      BNE      0x1a440 ; am_util_stdio_vsprintf + 228
        0x0001a43a:    2301        .#      MOVS     r3,#1
        0x0001a43c:    1c56        V.      ADDS     r6,r2,#1
        0x0001a43e:    4618        .F      MOV      r0,r3
        0x0001a440:    7831        1x      LDRB     r1,[r6,#0]
        0x0001a442:    3930        09      SUBS     r1,r1,#0x30
        0x0001a444:    2909        .)      CMP      r1,#9
        0x0001a446:    d80b        ..      BHI      0x1a460 ; am_util_stdio_vsprintf + 260
        0x0001a448:    eb090189    ....    ADD      r1,r9,r9,LSL #2
        0x0001a44c:    0049        I.      LSLS     r1,r1,#1
        0x0001a44e:    f8169b01    ....    LDRB     r9,[r6],#1
        0x0001a452:    3930        09      SUBS     r1,r1,#0x30
        0x0001a454:    4489        .D      ADD      r9,r9,r1
        0x0001a456:    7831        1x      LDRB     r1,[r6,#0]
        0x0001a458:    1c40        @.      ADDS     r0,r0,#1
        0x0001a45a:    3930        09      SUBS     r1,r1,#0x30
        0x0001a45c:    2909        .)      CMP      r1,#9
        0x0001a45e:    d9f3        ..      BLS      0x1a448 ; am_util_stdio_vsprintf + 236
        0x0001a460:    f1b80f00    ....    CMP      r8,#0
        0x0001a464:    bf18        ..      IT       NE
        0x0001a466:    9002        ..      STRNE    r0,[sp,#8]
        0x0001a468:    2b00        .+      CMP      r3,#0
        0x0001a46a:    bf18        ..      IT       NE
        0x0001a46c:    f1c90900    ....    RSBNE    r9,r9,#0
        0x0001a470:    9802        ..      LDR      r0,[sp,#8]
        0x0001a472:    1816        ..      ADDS     r6,r2,r0
        0x0001a474:    e7d5        ..      B        0x1a422 ; am_util_stdio_vsprintf + 198
        0x0001a476:    f8160f01    ....    LDRB     r0,[r6,#1]!
        0x0001a47a:    286c        l(      CMP      r0,#0x6c
        0x0001a47c:    bf04        ..      ITT      EQ
        0x0001a47e:    f04f0c01    O...    MOVEQ    r12,#1
        0x0001a482:    1c76        v.      ADDEQ    r6,r6,#1
        0x0001a484:    7830        0x      LDRB     r0,[r6,#0]
        0x0001a486:    2866        f(      CMP      r0,#0x66
        0x0001a488:    f000822a    ..*.    BEQ.W    0x1a8e0 ; am_util_stdio_vsprintf + 1412
        0x0001a48c:    dc0a        ..      BGT      0x1a4a4 ; am_util_stdio_vsprintf + 328
        0x0001a48e:    2846        F(      CMP      r0,#0x46
        0x0001a490:    f0008226    ..&.    BEQ.W    0x1a8e0 ; am_util_stdio_vsprintf + 1412
        0x0001a494:    2858        X(      CMP      r0,#0x58
        0x0001a496:    d07d        }.      BEQ      0x1a594 ; am_util_stdio_vsprintf + 568
        0x0001a498:    2863        c(      CMP      r0,#0x63
        0x0001a49a:    d014        ..      BEQ      0x1a4c6 ; am_util_stdio_vsprintf + 362
        0x0001a49c:    2864        d(      CMP      r0,#0x64
        0x0001a49e:    f00081b5    ....    BEQ.W    0x1a80c ; am_util_stdio_vsprintf + 1200
        0x0001a4a2:    e00b        ..      B        0x1a4bc ; am_util_stdio_vsprintf + 352
        0x0001a4a4:    2869        i(      CMP      r0,#0x69
        0x0001a4a6:    f00081b1    ....    BEQ.W    0x1a80c ; am_util_stdio_vsprintf + 1200
        0x0001a4aa:    2873        s(      CMP      r0,#0x73
        0x0001a4ac:    d016        ..      BEQ      0x1a4dc ; am_util_stdio_vsprintf + 384
        0x0001a4ae:    2875        u(      CMP      r0,#0x75
        0x0001a4b0:    f000810c    ....    BEQ.W    0x1a6cc ; am_util_stdio_vsprintf + 880
        0x0001a4b4:    2878        x(      CMP      r0,#0x78
        0x0001a4b6:    bf08        ..      IT       EQ
        0x0001a4b8:    2701        .'      MOVEQ    r7,#1
        0x0001a4ba:    d06e        n.      BEQ      0x1a59a ; am_util_stdio_vsprintf + 574
        0x0001a4bc:    2c00        .,      CMP      r4,#0
        0x0001a4be:    bf18        ..      IT       NE
        0x0001a4c0:    f8040b01    ....    STRBNE   r0,[r4],#1
        0x0001a4c4:    e007        ..      B        0x1a4d6 ; am_util_stdio_vsprintf + 378
        0x0001a4c6:    980a        ..      LDR      r0,[sp,#0x28]
        0x0001a4c8:    2c00        .,      CMP      r4,#0
        0x0001a4ca:    f8101b04    ....    LDRB     r1,[r0],#4
        0x0001a4ce:    900a        ..      STR      r0,[sp,#0x28]
        0x0001a4d0:    bf18        ..      IT       NE
        0x0001a4d2:    f8041b01    ....    STRBNE   r1,[r4],#1
        0x0001a4d6:    1c6d        m.      ADDS     r5,r5,#1
        0x0001a4d8:    f000bac9    ....    B.W      0x1aa6e ; am_util_stdio_vsprintf + 1810
        0x0001a4dc:    990a        ..      LDR      r1,[sp,#0x28]
        0x0001a4de:    2200        ."      MOVS     r2,#0
        0x0001a4e0:    f8510b04    Q...    LDR      r0,[r1],#4
        0x0001a4e4:    910a        ..      STR      r1,[sp,#0x28]
        0x0001a4e6:    b140        @.      CBZ      r0,0x1a4fa ; am_util_stdio_vsprintf + 414
        0x0001a4e8:    7803        .x      LDRB     r3,[r0,#0]
        0x0001a4ea:    1c41        A.      ADDS     r1,r0,#1
        0x0001a4ec:    b12b        +.      CBZ      r3,0x1a4fa ; am_util_stdio_vsprintf + 414
        0x0001a4ee:    bf00        ..      NOP      
        0x0001a4f0:    f8113b01    ...;    LDRB     r3,[r1],#1
        0x0001a4f4:    1c52        R.      ADDS     r2,r2,#1
        0x0001a4f6:    2b00        .+      CMP      r3,#0
        0x0001a4f8:    d1fa        ..      BNE      0x1a4f0 ; am_util_stdio_vsprintf + 404
        0x0001a4fa:    9900        ..      LDR      r1,[sp,#0]
        0x0001a4fc:    2900        .)      CMP      r1,#0
        0x0001a4fe:    dd1e        ..      BLE      0x1a53e ; am_util_stdio_vsprintf + 482
        0x0001a500:    428a        .B      CMP      r2,r1
        0x0001a502:    d21c        ..      BCS      0x1a53e ; am_util_stdio_vsprintf + 482
        0x0001a504:    1a8b        ..      SUBS     r3,r1,r2
        0x0001a506:    9f01        ..      LDR      r7,[sp,#4]
        0x0001a508:    4621        !F      MOV      r1,r4
        0x0001a50a:    f04f0c00    O...    MOV      r12,#0
        0x0001a50e:    2b00        .+      CMP      r3,#0
        0x0001a510:    bfc4        ..      ITT      GT
        0x0001a512:    1e5b        [.      SUBGT    r3,r3,#1
        0x0001a514:    f1b33fff    ...?    CMPGT    r3,#0xffffffff
        0x0001a518:    dd09        ..      BLE      0x1a52e ; am_util_stdio_vsprintf + 466
        0x0001a51a:    2900        .)      CMP      r1,#0
        0x0001a51c:    bf18        ..      IT       NE
        0x0001a51e:    f8017b01    ...{    STRBNE   r7,[r1],#1
        0x0001a522:    1e5b        [.      SUBS     r3,r3,#1
        0x0001a524:    f10c0c01    ....    ADD      r12,r12,#1
        0x0001a528:    f1b33fff    ...?    CMP      r3,#0xffffffff
        0x0001a52c:    dcf5        ..      BGT      0x1a51a ; am_util_stdio_vsprintf + 446
        0x0001a52e:    2c00        .,      CMP      r4,#0
        0x0001a530:    bf14        ..      ITE      NE
        0x0001a532:    4661        aF      MOVNE    r1,r12
        0x0001a534:    2100        .!      MOVEQ    r1,#0
        0x0001a536:    440c        .D      ADD      r4,r4,r1
        0x0001a538:    2100        .!      MOVS     r1,#0
        0x0001a53a:    4465        eD      ADD      r5,r5,r12
        0x0001a53c:    9100        ..      STR      r1,[sp,#0]
        0x0001a53e:    7801        .x      LDRB     r1,[r0,#0]
        0x0001a540:    b139        9.      CBZ      r1,0x1a552 ; am_util_stdio_vsprintf + 502
        0x0001a542:    b10c        ..      CBZ      r4,0x1a548 ; am_util_stdio_vsprintf + 492
        0x0001a544:    f8041b01    ....    STRB     r1,[r4],#1
        0x0001a548:    f8101f01    ....    LDRB     r1,[r0,#1]!
        0x0001a54c:    1c6d        m.      ADDS     r5,r5,#1
        0x0001a54e:    2900        .)      CMP      r1,#0
        0x0001a550:    d1f7        ..      BNE      0x1a542 ; am_util_stdio_vsprintf + 486
        0x0001a552:    9800        ..      LDR      r0,[sp,#0]
        0x0001a554:    2800        .(      CMP      r0,#0
        0x0001a556:    bf1c        ..      ITT      NE
        0x0001a558:    4240        @B      RSBNE    r0,r0,#0
        0x0001a55a:    4282        .B      CMPNE    r2,r0
        0x0001a55c:    f0808287    ....    BCS.W    0x1aa6e ; am_util_stdio_vsprintf + 1810
        0x0001a560:    1a82        ..      SUBS     r2,r0,r2
        0x0001a562:    2000        .       MOVS     r0,#0
        0x0001a564:    9b01        ..      LDR      r3,[sp,#4]
        0x0001a566:    4621        !F      MOV      r1,r4
        0x0001a568:    2a00        .*      CMP      r2,#0
        0x0001a56a:    bfc4        ..      ITT      GT
        0x0001a56c:    1e52        R.      SUBGT    r2,r2,#1
        0x0001a56e:    f1b23fff    ...?    CMPGT    r2,#0xffffffff
        0x0001a572:    dd08        ..      BLE      0x1a586 ; am_util_stdio_vsprintf + 554
        0x0001a574:    2900        .)      CMP      r1,#0
        0x0001a576:    bf18        ..      IT       NE
        0x0001a578:    f8013b01    ...;    STRBNE   r3,[r1],#1
        0x0001a57c:    1c40        @.      ADDS     r0,r0,#1
        0x0001a57e:    1e52        R.      SUBS     r2,r2,#1
        0x0001a580:    f1b23fff    ...?    CMP      r2,#0xffffffff
        0x0001a584:    dcf6        ..      BGT      0x1a574 ; am_util_stdio_vsprintf + 536
        0x0001a586:    2c00        .,      CMP      r4,#0
        0x0001a588:    bf14        ..      ITE      NE
        0x0001a58a:    4601        .F      MOVNE    r1,r0
        0x0001a58c:    2100        .!      MOVEQ    r1,#0
        0x0001a58e:    440c        .D      ADD      r4,r4,r1
        0x0001a590:    4405        .D      ADD      r5,r5,r0
        0x0001a592:    e000        ..      B        0x1a596 ; am_util_stdio_vsprintf + 570
        0x0001a594:    e001        ..      B        0x1a59a ; am_util_stdio_vsprintf + 574
        0x0001a596:    f000ba6a    ..j.    B.W      0x1aa6e ; am_util_stdio_vsprintf + 1810
        0x0001a59a:    f1bc0f00    ....    CMP      r12,#0
        0x0001a59e:    d007        ..      BEQ      0x1a5b0 ; am_util_stdio_vsprintf + 596
        0x0001a5a0:    980a        ..      LDR      r0,[sp,#0x28]
        0x0001a5a2:    1dc0        ..      ADDS     r0,r0,#7
        0x0001a5a4:    f0200207     ...    BIC      r2,r0,#7
        0x0001a5a8:    e8f20102    ....    LDRD     r0,r1,[r2],#8
        0x0001a5ac:    920a        ..      STR      r2,[sp,#0x28]
        0x0001a5ae:    e004        ..      B        0x1a5ba ; am_util_stdio_vsprintf + 606
        0x0001a5b0:    990a        ..      LDR      r1,[sp,#0x28]
        0x0001a5b2:    f8510b04    Q...    LDR      r0,[r1],#4
        0x0001a5b6:    910a        ..      STR      r1,[sp,#0x28]
        0x0001a5b8:    2100        .!      MOVS     r1,#0
        0x0001a5ba:    9a00        ..      LDR      r2,[sp,#0]
        0x0001a5bc:    b38a        ..      CBZ      r2,0x1a622 ; am_util_stdio_vsprintf + 710
        0x0001a5be:    460b        .F      MOV      r3,r1
        0x0001a5c0:    4602        .F      MOV      r2,r0
        0x0001a5c2:    ea500c03    P...    ORRS     r12,r0,r3
        0x0001a5c6:    bf0c        ..      ITE      EQ
        0x0001a5c8:    f04f0c01    O...    MOVEQ    r12,#1
        0x0001a5cc:    f04f0c00    O...    MOVNE    r12,#0
        0x0001a5d0:    d008        ..      BEQ      0x1a5e4 ; am_util_stdio_vsprintf + 648
        0x0001a5d2:    0912        ..      LSRS     r2,r2,#4
        0x0001a5d4:    ea427203    B..r    ORR      r2,r2,r3,LSL #28
        0x0001a5d8:    091b        ..      LSRS     r3,r3,#4
        0x0001a5da:    f10c0c01    ....    ADD      r12,r12,#1
        0x0001a5de:    ea520803    R...    ORRS     r8,r2,r3
        0x0001a5e2:    d1f6        ..      BNE      0x1a5d2 ; am_util_stdio_vsprintf + 630
        0x0001a5e4:    9a00        ..      LDR      r2,[sp,#0]
        0x0001a5e6:    9b01        ..      LDR      r3,[sp,#4]
        0x0001a5e8:    eba2020c    ....    SUB      r2,r2,r12
        0x0001a5ec:    46a4        .F      MOV      r12,r4
        0x0001a5ee:    f04f0800    O...    MOV      r8,#0
        0x0001a5f2:    2a00        .*      CMP      r2,#0
        0x0001a5f4:    bfc4        ..      ITT      GT
        0x0001a5f6:    1e52        R.      SUBGT    r2,r2,#1
        0x0001a5f8:    f1b23fff    ...?    CMPGT    r2,#0xffffffff
        0x0001a5fc:    dd0b        ..      BLE      0x1a616 ; am_util_stdio_vsprintf + 698
        0x0001a5fe:    bf00        ..      NOP      
        0x0001a600:    f1bc0f00    ....    CMP      r12,#0
        0x0001a604:    bf18        ..      IT       NE
        0x0001a606:    f80c3b01    ...;    STRBNE   r3,[r12],#1
        0x0001a60a:    1e52        R.      SUBS     r2,r2,#1
        0x0001a60c:    f1080801    ....    ADD      r8,r8,#1
        0x0001a610:    f1b23fff    ...?    CMP      r2,#0xffffffff
        0x0001a614:    dcf4        ..      BGT      0x1a600 ; am_util_stdio_vsprintf + 676
        0x0001a616:    2c00        .,      CMP      r4,#0
        0x0001a618:    bf14        ..      ITE      NE
        0x0001a61a:    4642        BF      MOVNE    r2,r8
        0x0001a61c:    2200        ."      MOVEQ    r2,#0
        0x0001a61e:    4414        .D      ADD      r4,r4,r2
        0x0001a620:    4445        ED      ADD      r5,r5,r8
        0x0001a622:    46a0        .F      MOV      r8,r4
        0x0001a624:    f04f0c00    O...    MOV      r12,#0
        0x0001a628:    ea500201    P...    ORRS     r2,r0,r1
        0x0001a62c:    d106        ..      BNE      0x1a63c ; am_util_stdio_vsprintf + 736
        0x0001a62e:    bf00        ..      NOP      
        0x0001a630:    f04f0230    O.0.    MOV      r2,#0x30
        0x0001a634:    f88d200c    ...     STRB     r2,[sp,#0xc]
        0x0001a638:    f04f0c01    O...    MOV      r12,#1
        0x0001a63c:    bf18        ..      IT       NE
        0x0001a63e:    ab03        ..      ADDNE    r3,sp,#0xc
        0x0001a640:    d017        ..      BEQ      0x1a672 ; am_util_stdio_vsprintf + 790
        0x0001a642:    bf00        ..      NOP      
        0x0001a644:    f000020f    ....    AND      r2,r0,#0xf
        0x0001a648:    2a09        .*      CMP      r2,#9
        0x0001a64a:    d906        ..      BLS      0x1a65a ; am_util_stdio_vsprintf + 766
        0x0001a64c:    2f00        ./      CMP      r7,#0
        0x0001a64e:    bf14        ..      ITE      NE
        0x0001a650:    f04f0927    O.'.    MOVNE    r9,#0x27
        0x0001a654:    f04f0907    O...    MOVEQ    r9,#7
        0x0001a658:    444a        JD      ADD      r2,r2,r9
        0x0001a65a:    3230        02      ADDS     r2,r2,#0x30
        0x0001a65c:    0900        ..      LSRS     r0,r0,#4
        0x0001a65e:    f803200c    ...     STRB     r2,[r3,r12]
        0x0001a662:    ea407001    @..p    ORR      r0,r0,r1,LSL #28
        0x0001a666:    0909        ..      LSRS     r1,r1,#4
        0x0001a668:    f10c0c01    ....    ADD      r12,r12,#1
        0x0001a66c:    ea500201    P...    ORRS     r2,r0,r1
        0x0001a670:    d1e8        ..      BNE      0x1a644 ; am_util_stdio_vsprintf + 744
        0x0001a672:    f1b80f00    ....    CMP      r8,#0
        0x0001a676:    d022        ".      BEQ      0x1a6be ; am_util_stdio_vsprintf + 866
        0x0001a678:    f1ac0301    ....    SUB      r3,r12,#1
        0x0001a67c:    f1bc0200    ....    SUBS     r2,r12,#0
        0x0001a680:    dd1a        ..      BLE      0x1a6b8 ; am_util_stdio_vsprintf + 860
        0x0001a682:    a803        ..      ADD      r0,sp,#0xc
        0x0001a684:    4418        .D      ADD      r0,r0,r3
        0x0001a686:    1c41        A.      ADDS     r1,r0,#1
        0x0001a688:    f1a80001    ....    SUB      r0,r8,#1
        0x0001a68c:    f0130f01    ....    TST      r3,#1
        0x0001a690:    d103        ..      BNE      0x1a69a ; am_util_stdio_vsprintf + 830
        0x0001a692:    f8117d01    ...}    LDRB     r7,[r1,#-1]!
        0x0001a696:    f8007f01    ....    STRB     r7,[r0,#1]!
        0x0001a69a:    1052        R.      ASRS     r2,r2,#1
        0x0001a69c:    d009        ..      BEQ      0x1a6b2 ; am_util_stdio_vsprintf + 854
        0x0001a69e:    bf00        ..      NOP      
        0x0001a6a0:    f8117c01    ...|    LDRB     r7,[r1,#-1]
        0x0001a6a4:    7047        Gp      STRB     r7,[r0,#1]
        0x0001a6a6:    f8117d02    ...}    LDRB     r7,[r1,#-2]!
        0x0001a6aa:    f8007f02    ....    STRB     r7,[r0,#2]!
        0x0001a6ae:    1e52        R.      SUBS     r2,r2,#1
        0x0001a6b0:    d1f6        ..      BNE      0x1a6a0 ; am_util_stdio_vsprintf + 836
        0x0001a6b2:    18e0        ..      ADDS     r0,r4,r3
        0x0001a6b4:    f1000801    ....    ADD      r8,r0,#1
        0x0001a6b8:    2000        .       MOVS     r0,#0
        0x0001a6ba:    f8880000    ....    STRB     r0,[r8,#0]
        0x0001a6be:    2c00        .,      CMP      r4,#0
        0x0001a6c0:    bf18        ..      IT       NE
        0x0001a6c2:    4464        dD      ADDNE    r4,r4,r12
        0x0001a6c4:    4465        eD      ADD      r5,r5,r12
        0x0001a6c6:    f000b9d2    ....    B.W      0x1aa6e ; am_util_stdio_vsprintf + 1810
        0x0001a6ca:    bf00        ..      NOP      
        0x0001a6cc:    980a        ..      LDR      r0,[sp,#0x28]
        0x0001a6ce:    f1bc0f00    ....    CMP      r12,#0
        0x0001a6d2:    d006        ..      BEQ      0x1a6e2 ; am_util_stdio_vsprintf + 902
        0x0001a6d4:    1dc0        ..      ADDS     r0,r0,#7
        0x0001a6d6:    f0200107     ...    BIC      r1,r0,#7
        0x0001a6da:    e8f1e002    ....    LDRD     lr,r0,[r1],#8
        0x0001a6de:    910a        ..      STR      r1,[sp,#0x28]
        0x0001a6e0:    e003        ..      B        0x1a6ea ; am_util_stdio_vsprintf + 910
        0x0001a6e2:    f850eb04    P...    LDR      lr,[r0],#4
        0x0001a6e6:    900a        ..      STR      r0,[sp,#0x28]
        0x0001a6e8:    2000        .       MOVS     r0,#0
        0x0001a6ea:    9003        ..      STR      r0,[sp,#0xc]
        0x0001a6ec:    9800        ..      LDR      r0,[sp,#0]
        0x0001a6ee:    2800        .(      CMP      r0,#0
        0x0001a6f0:    d07e        ~.      BEQ      0x1a7f0 ; am_util_stdio_vsprintf + 1172
        0x0001a6f2:    9903        ..      LDR      r1,[sp,#0xc]
        0x0001a6f4:    4670        pF      MOV      r0,lr
        0x0001a6f6:    ea5e0201    ^...    ORRS     r2,lr,r1
        0x0001a6fa:    bf0e        ..      ITEE     EQ
        0x0001a6fc:    2301        .#      MOVEQ    r3,#1
        0x0001a6fe:    2300        .#      MOVNE    r3,#0
        0x0001a700:    f04f0c00    O...    MOVNE    r12,#0
        0x0001a704:    d05e        ^.      BEQ      0x1a7c4 ; am_util_stdio_vsprintf + 1128
        0x0001a706:    b3c1        ..      CBZ      r1,0x1a77a ; am_util_stdio_vsprintf + 1054
        0x0001a708:    084a        J.      LSRS     r2,r1,#1
        0x0001a70a:    ea4f0990    O...    LSR      r9,r0,#2
        0x0001a70e:    ea4f0730    O.0.    RRX      r7,r0
        0x0001a712:    ea497881    I..x    ORR      r8,r9,r1,LSL #30
        0x0001a716:    eb170708    ....    ADDS     r7,r7,r8
        0x0001a71a:    eb420291    B...    ADC      r2,r2,r1,LSR #2
        0x0001a71e:    ea4f1917    O...    LSR      r9,r7,#4
        0x0001a722:    ea497802    I..x    ORR      r8,r9,r2,LSL #28
        0x0001a726:    eb180707    ....    ADDS     r7,r8,r7
        0x0001a72a:    eb421812    B...    ADC      r8,r2,r2,LSR #4
        0x0001a72e:    ea4f2917    O..)    LSR      r9,r7,#8
        0x0001a732:    ea496208    I..b    ORR      r2,r9,r8,LSL #24
        0x0001a736:    19d2        ..      ADDS     r2,r2,r7
        0x0001a738:    eb482718    H..'    ADC      r7,r8,r8,LSR #8
        0x0001a73c:    ea4f4912    O..I    LSR      r9,r2,#16
        0x0001a740:    ea494807    I..H    ORR      r8,r9,r7,LSL #16
        0x0001a744:    eb180802    ....    ADDS     r8,r8,r2
        0x0001a748:    eb474217    G..B    ADC      r2,r7,r7,LSR #16
        0x0001a74c:    eb180702    ....    ADDS     r7,r8,r2
        0x0001a750:    eb42020c    B...    ADC      r2,r2,r12
        0x0001a754:    08ff        ..      LSRS     r7,r7,#3
        0x0001a756:    ea477742    G.Bw    ORR      r7,r7,r2,LSL #29
        0x0001a75a:    f04f080a    O...    MOV      r8,#0xa
        0x0001a75e:    fba7ab08    ....    UMULL    r10,r11,r7,r8
        0x0001a762:    08d2        ..      LSRS     r2,r2,#3
        0x0001a764:    fb02b808    ....    MLA      r8,r2,r8,r11
        0x0001a768:    f04f0900    O...    MOV      r9,#0
        0x0001a76c:    fb078909    ....    MLA      r9,r7,r9,r8
        0x0001a770:    ebb0080a    ....    SUBS     r8,r0,r10
        0x0001a774:    eb610009    a...    SBC      r0,r1,r9
        0x0001a778:    e002        ..      B        0x1a780 ; am_util_stdio_vsprintf + 1060
        0x0001a77a:    e00c        ..      B        0x1a796 ; am_util_stdio_vsprintf + 1082
    $d
        0x0001a77c:    10000094    ....    DCD    268435604
    $t
        0x0001a780:    f1180106    ....    ADDS     r1,r8,#6
        0x0001a784:    f1400800    @...    ADC      r8,r0,#0
        0x0001a788:    0909        ..      LSRS     r1,r1,#4
        0x0001a78a:    ea417008    A..p    ORR      r0,r1,r8,LSL #28
        0x0001a78e:    19c0        ..      ADDS     r0,r0,r7
        0x0001a790:    eb421118    B...    ADC      r1,r2,r8,LSR #4
        0x0001a794:    e012        ..      B        0x1a7bc ; am_util_stdio_vsprintf + 1120
        0x0001a796:    0841        A.      LSRS     r1,r0,#1
        0x0001a798:    eb010190    ....    ADD      r1,r1,r0,LSR #2
        0x0001a79c:    eb011111    ....    ADD      r1,r1,r1,LSR #4
        0x0001a7a0:    eb012111    ...!    ADD      r1,r1,r1,LSR #8
        0x0001a7a4:    eb014111    ...A    ADD      r1,r1,r1,LSR #16
        0x0001a7a8:    08c9        ..      LSRS     r1,r1,#3
        0x0001a7aa:    424a        JB      RSBS     r2,r1,#0
        0x0001a7ac:    eb020282    ....    ADD      r2,r2,r2,LSL #2
        0x0001a7b0:    eb000042    ..B.    ADD      r0,r0,r2,LSL #1
        0x0001a7b4:    1d80        ..      ADDS     r0,r0,#6
        0x0001a7b6:    eb011010    ....    ADD      r0,r1,r0,LSR #4
        0x0001a7ba:    4661        aF      MOV      r1,r12
        0x0001a7bc:    1c5b        [.      ADDS     r3,r3,#1
        0x0001a7be:    ea500201    P...    ORRS     r2,r0,r1
        0x0001a7c2:    d1a0        ..      BNE      0x1a706 ; am_util_stdio_vsprintf + 938
        0x0001a7c4:    9800        ..      LDR      r0,[sp,#0]
        0x0001a7c6:    2100        .!      MOVS     r1,#0
        0x0001a7c8:    1ac2        ..      SUBS     r2,r0,r3
        0x0001a7ca:    9b01        ..      LDR      r3,[sp,#4]
        0x0001a7cc:    4620         F      MOV      r0,r4
        0x0001a7ce:    2a00        .*      CMP      r2,#0
        0x0001a7d0:    bfc4        ..      ITT      GT
        0x0001a7d2:    1e52        R.      SUBGT    r2,r2,#1
        0x0001a7d4:    f1b23fff    ...?    CMPGT    r2,#0xffffffff
        0x0001a7d8:    dd08        ..      BLE      0x1a7ec ; am_util_stdio_vsprintf + 1168
        0x0001a7da:    2800        .(      CMP      r0,#0
        0x0001a7dc:    bf18        ..      IT       NE
        0x0001a7de:    f8003b01    ...;    STRBNE   r3,[r0],#1
        0x0001a7e2:    1c49        I.      ADDS     r1,r1,#1
        0x0001a7e4:    1e52        R.      SUBS     r2,r2,#1
        0x0001a7e6:    f1b23fff    ...?    CMP      r2,#0xffffffff
        0x0001a7ea:    dcf6        ..      BGT      0x1a7da ; am_util_stdio_vsprintf + 1150
        0x0001a7ec:    2c00        .,      CMP      r4,#0
        0x0001a7ee:    e000        ..      B        0x1a7f2 ; am_util_stdio_vsprintf + 1174
        0x0001a7f0:    e004        ..      B        0x1a7fc ; am_util_stdio_vsprintf + 1184
        0x0001a7f2:    bf14        ..      ITE      NE
        0x0001a7f4:    4608        .F      MOVNE    r0,r1
        0x0001a7f6:    2000        .       MOVEQ    r0,#0
        0x0001a7f8:    4404        .D      ADD      r4,r4,r0
        0x0001a7fa:    440d        .D      ADD      r5,r5,r1
        0x0001a7fc:    4622        "F      MOV      r2,r4
        0x0001a7fe:    4670        pF      MOV      r0,lr
        0x0001a800:    9903        ..      LDR      r1,[sp,#0xc]
        0x0001a802:    f002f8c7    ....    BL       uint64_to_str ; 0x1c994
        0x0001a806:    bbdc        ..      CBNZ     r4,0x1a880 ; am_util_stdio_vsprintf + 1316
        0x0001a808:    4405        .D      ADD      r5,r5,r0
        0x0001a80a:    e130        0.      B        0x1aa6e ; am_util_stdio_vsprintf + 1810
        0x0001a80c:    980a        ..      LDR      r0,[sp,#0x28]
        0x0001a80e:    f1bc0f00    ....    CMP      r12,#0
        0x0001a812:    d006        ..      BEQ      0x1a822 ; am_util_stdio_vsprintf + 1222
        0x0001a814:    1dc0        ..      ADDS     r0,r0,#7
        0x0001a816:    f0200007     ...    BIC      r0,r0,#7
        0x0001a81a:    e8f08702    ....    LDRD     r8,r7,[r0],#8
        0x0001a81e:    900a        ..      STR      r0,[sp,#0x28]
        0x0001a820:    e004        ..      B        0x1a82c ; am_util_stdio_vsprintf + 1232
        0x0001a822:    f8508b04    P...    LDR      r8,[r0],#4
        0x0001a826:    900a        ..      STR      r0,[sp,#0x28]
        0x0001a828:    ea4f77e8    O..w    ASR      r7,r8,#31
        0x0001a82c:    2f00        ./      CMP      r7,#0
        0x0001a82e:    bfa8        ..      IT       GE
        0x0001a830:    f04f0900    O...    MOVGE    r9,#0
        0x0001a834:    da06        ..      BGE      0x1a844 ; am_util_stdio_vsprintf + 1256
        0x0001a836:    2000        .       MOVS     r0,#0
        0x0001a838:    f1d80800    ....    RSBS     r8,r8,#0
        0x0001a83c:    eb600707    `...    SBC      r7,r0,r7
        0x0001a840:    f04f0901    O...    MOV      r9,#1
        0x0001a844:    9800        ..      LDR      r0,[sp,#0]
        0x0001a846:    b3d8        ..      CBZ      r0,0x1a8c0 ; am_util_stdio_vsprintf + 1380
        0x0001a848:    4640        @F      MOV      r0,r8
        0x0001a84a:    0039        9.      MOVS     r1,r7
        0x0001a84c:    d503        ..      BPL      0x1a856 ; am_util_stdio_vsprintf + 1274
        0x0001a84e:    2200        ."      MOVS     r2,#0
        0x0001a850:    4240        @B      RSBS     r0,r0,#0
        0x0001a852:    eb620107    b...    SBC      r1,r2,r7
        0x0001a856:    f001fd72    ..r.    BL       ndigits_in_u64 ; 0x1c33e
        0x0001a85a:    9900        ..      LDR      r1,[sp,#0]
        0x0001a85c:    1a0a        ..      SUBS     r2,r1,r0
        0x0001a85e:    f1b90f00    ....    CMP      r9,#0
        0x0001a862:    d008        ..      BEQ      0x1a876 ; am_util_stdio_vsprintf + 1306
        0x0001a864:    9801        ..      LDR      r0,[sp,#4]
        0x0001a866:    1e52        R.      SUBS     r2,r2,#1
        0x0001a868:    2830        0(      CMP      r0,#0x30
        0x0001a86a:    d104        ..      BNE      0x1a876 ; am_util_stdio_vsprintf + 1306
        0x0001a86c:    b114        ..      CBZ      r4,0x1a874 ; am_util_stdio_vsprintf + 1304
        0x0001a86e:    202d        -       MOVS     r0,#0x2d
        0x0001a870:    f8040b01    ....    STRB     r0,[r4],#1
        0x0001a874:    1c6d        m.      ADDS     r5,r5,#1
        0x0001a876:    2100        .!      MOVS     r1,#0
        0x0001a878:    4620         F      MOV      r0,r4
        0x0001a87a:    9b01        ..      LDR      r3,[sp,#4]
        0x0001a87c:    2a00        .*      CMP      r2,#0
        0x0001a87e:    e000        ..      B        0x1a882 ; am_util_stdio_vsprintf + 1318
        0x0001a880:    e02c        ,.      B        0x1a8dc ; am_util_stdio_vsprintf + 1408
        0x0001a882:    bfc4        ..      ITT      GT
        0x0001a884:    1e52        R.      SUBGT    r2,r2,#1
        0x0001a886:    f1b23fff    ...?    CMPGT    r2,#0xffffffff
        0x0001a88a:    dd08        ..      BLE      0x1a89e ; am_util_stdio_vsprintf + 1346
        0x0001a88c:    2800        .(      CMP      r0,#0
        0x0001a88e:    bf18        ..      IT       NE
        0x0001a890:    f8003b01    ...;    STRBNE   r3,[r0],#1
        0x0001a894:    1c49        I.      ADDS     r1,r1,#1
        0x0001a896:    1e52        R.      SUBS     r2,r2,#1
        0x0001a898:    f1b23fff    ...?    CMP      r2,#0xffffffff
        0x0001a89c:    dcf6        ..      BGT      0x1a88c ; am_util_stdio_vsprintf + 1328
        0x0001a89e:    2c00        .,      CMP      r4,#0
        0x0001a8a0:    bf14        ..      ITE      NE
        0x0001a8a2:    4608        .F      MOVNE    r0,r1
        0x0001a8a4:    2000        .       MOVEQ    r0,#0
        0x0001a8a6:    4404        .D      ADD      r4,r4,r0
        0x0001a8a8:    440d        .D      ADD      r5,r5,r1
        0x0001a8aa:    f1b90f00    ....    CMP      r9,#0
        0x0001a8ae:    d00e        ..      BEQ      0x1a8ce ; am_util_stdio_vsprintf + 1394
        0x0001a8b0:    9801        ..      LDR      r0,[sp,#4]
        0x0001a8b2:    2820         (      CMP      r0,#0x20
        0x0001a8b4:    d10b        ..      BNE      0x1a8ce ; am_util_stdio_vsprintf + 1394
        0x0001a8b6:    b14c        L.      CBZ      r4,0x1a8cc ; am_util_stdio_vsprintf + 1392
        0x0001a8b8:    202d        -       MOVS     r0,#0x2d
        0x0001a8ba:    f8040b01    ....    STRB     r0,[r4],#1
        0x0001a8be:    e005        ..      B        0x1a8cc ; am_util_stdio_vsprintf + 1392
        0x0001a8c0:    e7ff        ..      B        0x1a8c2 ; am_util_stdio_vsprintf + 1382
        0x0001a8c2:    f1b90f00    ....    CMP      r9,#0
        0x0001a8c6:    d002        ..      BEQ      0x1a8ce ; am_util_stdio_vsprintf + 1394
        0x0001a8c8:    2c00        .,      CMP      r4,#0
        0x0001a8ca:    d1f5        ..      BNE      0x1a8b8 ; am_util_stdio_vsprintf + 1372
        0x0001a8cc:    1c6d        m.      ADDS     r5,r5,#1
        0x0001a8ce:    4622        "F      MOV      r2,r4
        0x0001a8d0:    4640        @F      MOV      r0,r8
        0x0001a8d2:    4639        9F      MOV      r1,r7
        0x0001a8d4:    f002f85e    ..^.    BL       uint64_to_str ; 0x1c994
        0x0001a8d8:    2c00        .,      CMP      r4,#0
        0x0001a8da:    d095        ..      BEQ      0x1a808 ; am_util_stdio_vsprintf + 1196
        0x0001a8dc:    4404        .D      ADD      r4,r4,r0
        0x0001a8de:    e793        ..      B        0x1a808 ; am_util_stdio_vsprintf + 1196
        0x0001a8e0:    2c00        .,      CMP      r4,#0
        0x0001a8e2:    d07d        }.      BEQ      0x1a9e0 ; am_util_stdio_vsprintf + 1668
        0x0001a8e4:    980a        ..      LDR      r0,[sp,#0x28]
        0x0001a8e6:    1dc0        ..      ADDS     r0,r0,#7
        0x0001a8e8:    f0200007     ...    BIC      r0,r0,#7
        0x0001a8ec:    ecb00b02    ....    VLDM     r0!,{d0}
        0x0001a8f0:    900a        ..      STR      r0,[sp,#0x28]
        0x0001a8f2:    ec510b10    Q...    VMOV     r0,r1,d0
        0x0001a8f6:    f002f8e1    ....    BL       __aeabi_d2f ; 0x1cabc
        0x0001a8fa:    ee000a10    ....    VMOV     s0,r0
        0x0001a8fe:    f04f0a14    O...    MOV      r10,#0x14
        0x0001a902:    4627        'F      MOV      r7,r4
        0x0001a904:    eeb50ac0    ....    VCMPE.F32 s0,#0.0
        0x0001a908:    f8c4a000    ....    STR      r10,[r4,#0]
        0x0001a90c:    eef1fa10    ....    VMRS     APSR_nzcv,FPSCR
        0x0001a910:    d103        ..      BNE      0x1a91a ; am_util_stdio_vsprintf + 1470
        0x0001a912:    485f        _H      LDR      r0,[pc,#380] ; [0x1aa90] = 0x302e30
        0x0001a914:    6020         `      STR      r0,[r4,#0]
        0x0001a916:    2003        .       MOVS     r0,#3
        0x0001a918:    e0a7        ..      B        0x1aa6a ; am_util_stdio_vsprintf + 1806
        0x0001a91a:    ee100a10    ....    VMOV     r0,s0
        0x0001a91e:    f04f0800    O...    MOV      r8,#0
        0x0001a922:    46a3        .F      MOV      r11,r4
        0x0001a924:    f3c051c7    ...Q    UBFX     r1,r0,#23,#8
        0x0001a928:    f020427f     ..B    BIC      r2,r0,#0xff000000
        0x0001a92c:    397f        .9      SUBS     r1,r1,#0x7f
        0x0001a92e:    f4420200    B...    ORR      r2,r2,#0x800000
        0x0001a932:    4643        CF      MOV      r3,r8
        0x0001a934:    291f        .)      CMP      r1,#0x1f
        0x0001a936:    da7d        }.      BGE      0x1aa34 ; am_util_stdio_vsprintf + 1752
        0x0001a938:    f1110f17    ....    CMN      r1,#0x17
        0x0001a93c:    db7b        {.      BLT      0x1aa36 ; am_util_stdio_vsprintf + 1754
        0x0001a93e:    2917        .)      CMP      r1,#0x17
        0x0001a940:    bfa4        ..      ITT      GE
        0x0001a942:    3917        .9      SUBGE    r1,r1,#0x17
        0x0001a944:    fa02f301    ....    LSLGE    r3,r2,r1
        0x0001a948:    da0e        ..      BGE      0x1a968 ; am_util_stdio_vsprintf + 1548
        0x0001a94a:    2900        .)      CMP      r1,#0
        0x0001a94c:    bfbc        ..      ITT      LT
        0x0001a94e:    43c9        .C      MVNLT    r1,r1
        0x0001a950:    fa22f801    "...    LSRLT    r8,r2,r1
        0x0001a954:    db08        ..      BLT      0x1a968 ; am_util_stdio_vsprintf + 1548
        0x0001a956:    f1c10317    ....    RSB      r3,r1,#0x17
        0x0001a95a:    fa42f303    B...    ASR      r3,r2,r3
        0x0001a95e:    1c49        I.      ADDS     r1,r1,#1
        0x0001a960:    fa02f101    ....    LSL      r1,r2,r1
        0x0001a964:    f021487f    !..H    BIC      r8,r1,#0xff000000
        0x0001a968:    2800        .(      CMP      r0,#0
        0x0001a96a:    da03        ..      BGE      0x1a974 ; am_util_stdio_vsprintf + 1560
        0x0001a96c:    202d        -       MOVS     r0,#0x2d
        0x0001a96e:    7038        8p      STRB     r0,[r7,#0]
        0x0001a970:    f10b0701    ....    ADD      r7,r11,#1
        0x0001a974:    2b00        .+      CMP      r3,#0
        0x0001a976:    bf04        ..      ITT      EQ
        0x0001a978:    2030        0       MOVEQ    r0,#0x30
        0x0001a97a:    f8070b01    ....    STRBEQ   r0,[r7],#1
        0x0001a97e:    d015        ..      BEQ      0x1a9ac ; am_util_stdio_vsprintf + 1616
        0x0001a980:    dd06        ..      BLE      0x1a990 ; am_util_stdio_vsprintf + 1588
        0x0001a982:    463a        :F      MOV      r2,r7
        0x0001a984:    4618        .F      MOV      r0,r3
        0x0001a986:    ea4f71e3    O..q    ASR      r1,r3,#31
        0x0001a98a:    f002f803    ....    BL       uint64_to_str ; 0x1c994
        0x0001a98e:    e007        ..      B        0x1a9a0 ; am_util_stdio_vsprintf + 1604
        0x0001a990:    202d        -       MOVS     r0,#0x2d
        0x0001a992:    f8070b01    ....    STRB     r0,[r7],#1
        0x0001a996:    4258        XB      RSBS     r0,r3,#0
        0x0001a998:    463a        :F      MOV      r2,r7
        0x0001a99a:    17c1        ..      ASRS     r1,r0,#31
        0x0001a99c:    f001fffa    ....    BL       uint64_to_str ; 0x1c994
        0x0001a9a0:    7838        8x      LDRB     r0,[r7,#0]
        0x0001a9a2:    b118        ..      CBZ      r0,0x1a9ac ; am_util_stdio_vsprintf + 1616
        0x0001a9a4:    f8170f01    ....    LDRB     r0,[r7,#1]!
        0x0001a9a8:    2800        .(      CMP      r0,#0
        0x0001a9aa:    d1fb        ..      BNE      0x1a9a4 ; am_util_stdio_vsprintf + 1608
        0x0001a9ac:    202e        .       MOVS     r0,#0x2e
        0x0001a9ae:    1c7a        z.      ADDS     r2,r7,#1
        0x0001a9b0:    7038        8p      STRB     r0,[r7,#0]
        0x0001a9b2:    f1b80f00    ....    CMP      r8,#0
        0x0001a9b6:    d041        A.      BEQ      0x1aa3c ; am_util_stdio_vsprintf + 1760
        0x0001a9b8:    eba2000b    ....    SUB      r0,r2,r11
        0x0001a9bc:    ebaa0000    ....    SUB      r0,r10,r0
        0x0001a9c0:    f1a00c01    ....    SUB      r12,r0,#1
        0x0001a9c4:    45cc        .E      CMP      r12,r9
        0x0001a9c6:    bfc8        ..      IT       GT
        0x0001a9c8:    46cc        .F      MOVGT    r12,r9
        0x0001a9ca:    f1bc0f00    ....    CMP      r12,#0
        0x0001a9ce:    dd11        ..      BLE      0x1a9f4 ; am_util_stdio_vsprintf + 1688
        0x0001a9d0:    4617        .F      MOV      r7,r2
        0x0001a9d2:    4660        `F      MOV      r0,r12
        0x0001a9d4:    f05f0330    _.0.    MOVS.W   r3,#0x30
        0x0001a9d8:    eb080188    ....    ADD      r1,r8,r8,LSL #2
        0x0001a9dc:    0049        I.      LSLS     r1,r1,#1
        0x0001a9de:    e000        ..      B        0x1a9e2 ; am_util_stdio_vsprintf + 1670
        0x0001a9e0:    e045        E.      B        0x1aa6e ; am_util_stdio_vsprintf + 1810
        0x0001a9e2:    eb036821    ..!h    ADD      r8,r3,r1,ASR #24
        0x0001a9e6:    f8078b01    ....    STRB     r8,[r7],#1
        0x0001a9ea:    f021487f    !..H    BIC      r8,r1,#0xff000000
        0x0001a9ee:    1e40        @.      SUBS     r0,r0,#1
        0x0001a9f0:    d1f2        ..      BNE      0x1a9d8 ; am_util_stdio_vsprintf + 1660
        0x0001a9f2:    4462        bD      ADD      r2,r2,r12
        0x0001a9f4:    eb080088    ....    ADD      r0,r8,r8,LSL #2
        0x0001a9f8:    0041        A.      LSLS     r1,r0,#1
        0x0001a9fa:    2005        .       MOVS     r0,#5
        0x0001a9fc:    ebb06f21    ..!o    CMP      r0,r1,ASR #24
        0x0001aa00:    dc24        $.      BGT      0x1aa4c ; am_util_stdio_vsprintf + 1776
        0x0001aa02:    1e50        P.      SUBS     r0,r2,#1
        0x0001aa04:    ebab0300    ....    SUB      r3,r11,r0
        0x0001aa08:    2101        .!      MOVS     r1,#1
        0x0001aa0a:    f1c30301    ....    RSB      r3,r3,#1
        0x0001aa0e:    2b01        .+      CMP      r3,#1
        0x0001aa10:    bfa8        ..      IT       GE
        0x0001aa12:    2730        0'      MOVGE    r7,#0x30
        0x0001aa14:    db1a        ..      BLT      0x1aa4c ; am_util_stdio_vsprintf + 1776
        0x0001aa16:    bf00        ..      NOP      
        0x0001aa18:    f890c000    ....    LDRB     r12,[r0,#0]
        0x0001aa1c:    f1bc0f2e    ....    CMP      r12,#0x2e
        0x0001aa20:    d010        ..      BEQ      0x1aa44 ; am_util_stdio_vsprintf + 1768
        0x0001aa22:    f1bc0f39    ..9.    CMP      r12,#0x39
        0x0001aa26:    bf08        ..      IT       EQ
        0x0001aa28:    7007        .p      STRBEQ   r7,[r0,#0]
        0x0001aa2a:    d00b        ..      BEQ      0x1aa44 ; am_util_stdio_vsprintf + 1768
        0x0001aa2c:    f00c01ff    ....    AND      r1,r12,#0xff
        0x0001aa30:    1c49        I.      ADDS     r1,r1,#1
        0x0001aa32:    e001        ..      B        0x1aa38 ; am_util_stdio_vsprintf + 1756
        0x0001aa34:    e02a        *.      B        0x1aa8c ; am_util_stdio_vsprintf + 1840
        0x0001aa36:    e027        '.      B        0x1aa88 ; am_util_stdio_vsprintf + 1836
        0x0001aa38:    7001        .p      STRB     r1,[r0,#0]
        0x0001aa3a:    e007        ..      B        0x1aa4c ; am_util_stdio_vsprintf + 1776
        0x0001aa3c:    2030        0       MOVS     r0,#0x30
        0x0001aa3e:    f8020b01    ....    STRB     r0,[r2],#1
        0x0001aa42:    e003        ..      B        0x1aa4c ; am_util_stdio_vsprintf + 1776
        0x0001aa44:    1e40        @.      SUBS     r0,r0,#1
        0x0001aa46:    1c49        I.      ADDS     r1,r1,#1
        0x0001aa48:    428b        .B      CMP      r3,r1
        0x0001aa4a:    dae5        ..      BGE      0x1aa18 ; am_util_stdio_vsprintf + 1724
        0x0001aa4c:    2000        .       MOVS     r0,#0
        0x0001aa4e:    7010        .p      STRB     r0,[r2,#0]
        0x0001aa50:    ebb2000b    ....    SUBS     r0,r2,r11
        0x0001aa54:    d509        ..      BPL      0x1aa6a ; am_util_stdio_vsprintf + 1806
        0x0001aa56:    f1b03fff    ...?    CMP      r0,#0xffffffff
        0x0001aa5a:    d015        ..      BEQ      0x1aa88 ; am_util_stdio_vsprintf + 1836
        0x0001aa5c:    f1100f02    ....    CMN      r0,#2
        0x0001aa60:    bf18        ..      IT       NE
        0x0001aa62:    480c        .H      LDRNE    r0,[pc,#48] ; [0x1aa94] = 0x3f2e3f
        0x0001aa64:    d012        ..      BEQ      0x1aa8c ; am_util_stdio_vsprintf + 1840
        0x0001aa66:    6020         `      STR      r0,[r4,#0]
        0x0001aa68:    2003        .       MOVS     r0,#3
        0x0001aa6a:    4405        .D      ADD      r5,r5,r0
        0x0001aa6c:    4404        .D      ADD      r4,r4,r0
        0x0001aa6e:    1c71        q.      ADDS     r1,r6,#1
        0x0001aa70:    7808        .x      LDRB     r0,[r1,#0]
        0x0001aa72:    2800        .(      CMP      r0,#0
        0x0001aa74:    f47fac7c    ..|.    BNE      0x1a370 ; am_util_stdio_vsprintf + 20
        0x0001aa78:    2c00        .,      CMP      r4,#0
        0x0001aa7a:    bf1c        ..      ITT      NE
        0x0001aa7c:    2000        .       MOVNE    r0,#0
        0x0001aa7e:    7020         p      STRBNE   r0,[r4,#0]
        0x0001aa80:    4628        (F      MOV      r0,r5
        0x0001aa82:    b00b        ..      ADD      sp,sp,#0x2c
        0x0001aa84:    e8bd8ff0    ....    POP      {r4-r11,pc}
        0x0001aa88:    4801        .H      LDR      r0,[pc,#4] ; [0x1aa90] = 0x302e30
        0x0001aa8a:    e7ec        ..      B        0x1aa66 ; am_util_stdio_vsprintf + 1802
        0x0001aa8c:    4802        .H      LDR      r0,[pc,#8] ; [0x1aa98] = 0x232e23
        0x0001aa8e:    e7ea        ..      B        0x1aa66 ; am_util_stdio_vsprintf + 1802
    $d
        0x0001aa90:    00302e30    0.0.    DCD    3157552
        0x0001aa94:    003f2e3f    ?.?.    DCD    4140607
        0x0001aa98:    00232e23    #.#.    DCD    2305571
    $t
    i.buck_interval_check
    buck_interval_check
        0x0001aa9c:    e92d43f0    -..C    PUSH     {r4-r9,lr}
        0x0001aaa0:    4607        .F      MOV      r7,r0
        0x0001aaa2:    4852        RH      LDR      r0,[pc,#328] ; [0x1abec] = 0x40021000
        0x0001aaa4:    b08b        ..      SUB      sp,sp,#0x2c
        0x0001aaa6:    f04f0800    O...    MOV      r8,#0
        0x0001aaaa:    6802        .h      LDR      r2,[r0,#0]
        0x0001aaac:    f2427910    B..y    MOV      r9,#0x2710
        0x0001aab0:    f3c202c1    ....    UBFX     r2,r2,#3,#2
        0x0001aab4:    2a02        .*      CMP      r2,#2
        0x0001aab6:    bf08        ..      IT       EQ
        0x0001aab8:    f6446920    D. i    MOVEQ    r9,#0x4e20
        0x0001aabc:    b117        ..      CBZ      r7,0x1aac4 ; buck_interval_check + 40
        0x0001aabe:    b129        ).      CBZ      r1,0x1aacc ; buck_interval_check + 48
        0x0001aac0:    2901        .)      CMP      r1,#1
        0x0001aac2:    d007        ..      BEQ      0x1aad4 ; buck_interval_check + 56
        0x0001aac4:    b00b        ..      ADD      sp,sp,#0x2c
        0x0001aac6:    2006        .       MOVS     r0,#6
        0x0001aac8:    e8bd83f0    ....    POP      {r4-r9,pc}
        0x0001aacc:    241c        .$      MOVS     r4,#0x1c
        0x0001aace:    2632        2&      MOVS     r6,#0x32
        0x0001aad0:    2596        .%      MOVS     r5,#0x96
        0x0001aad2:    e002        ..      B        0x1aada ; buck_interval_check + 62
        0x0001aad4:    241d        .$      MOVS     r4,#0x1d
        0x0001aad6:    2632        2&      MOVS     r6,#0x32
        0x0001aad8:    2596        .%      MOVS     r5,#0x96
        0x0001aada:    f8d00100    ....    LDR      r0,[r0,#0x100]
        0x0001aade:    f0100f01    ....    TST      r0,#1
        0x0001aae2:    d005        ..      BEQ      0x1aaf0 ; buck_interval_check + 84
        0x0001aae4:    4842        BH      LDR      r0,[pc,#264] ; [0x1abf0] = 0x40020000
        0x0001aae6:    6e00        .n      LDR      r0,[r0,#0x60]
        0x0001aae8:    f24011ef    @...    MOV      r1,#0x1ef
        0x0001aaec:    4208        .B      TST      r0,r1
        0x0001aaee:    d003        ..      BEQ      0x1aaf8 ; buck_interval_check + 92
        0x0001aaf0:    b00b        ..      ADD      sp,sp,#0x2c
        0x0001aaf2:    2007        .       MOVS     r0,#7
        0x0001aaf4:    e8bd83f0    ....    POP      {r4-r9,pc}
        0x0001aaf8:    200d        .       MOVS     r0,#0xd
        0x0001aafa:    f7fefde5    ....    BL       am_hal_timer_clear_stop ; 0x196c8
        0x0001aafe:    200d        .       MOVS     r0,#0xd
        0x0001ab00:    f7feff08    ....    BL       am_hal_timer_stop ; 0x19914
        0x0001ab04:    200d        .       MOVS     r0,#0xd
        0x0001ab06:    f7fefe6d    ..m.    BL       am_hal_timer_reset_config ; 0x197e4
        0x0001ab0a:    4668        hF      MOV      r0,sp
        0x0001ab0c:    f7fefe08    ....    BL       am_hal_timer_default_config_set ; 0x19720
        0x0001ab10:    f88d4000    ...@    STRB     r4,[sp,#0]
        0x0001ab14:    2402        .$      MOVS     r4,#2
        0x0001ab16:    f88d4001    ...@    STRB     r4,[sp,#1]
        0x0001ab1a:    4669        iF      MOV      r1,sp
        0x0001ab1c:    200d        .       MOVS     r0,#0xd
        0x0001ab1e:    f001fe63    ..c.    BL       timer_config_b1 ; 0x1c7e8
        0x0001ab22:    2008        .       MOVS     r0,#8
        0x0001ab24:    f7fefdd0    ....    BL       am_hal_timer_clear_stop ; 0x196c8
        0x0001ab28:    2008        .       MOVS     r0,#8
        0x0001ab2a:    f7fefef3    ....    BL       am_hal_timer_stop ; 0x19914
        0x0001ab2e:    2008        .       MOVS     r0,#8
        0x0001ab30:    f7fefe58    ..X.    BL       am_hal_timer_reset_config ; 0x197e4
        0x0001ab34:    a805        ..      ADD      r0,sp,#0x14
        0x0001ab36:    f7fefdf3    ....    BL       am_hal_timer_default_config_set ; 0x19720
        0x0001ab3a:    2001        .       MOVS     r0,#1
        0x0001ab3c:    f88d0014    ....    STRB     r0,[sp,#0x14]
        0x0001ab40:    f88d4015    ...@    STRB     r4,[sp,#0x15]
        0x0001ab44:    a905        ..      ADD      r1,sp,#0x14
        0x0001ab46:    2008        .       MOVS     r0,#8
        0x0001ab48:    f001fe4e    ..N.    BL       timer_config_b1 ; 0x1c7e8
        0x0001ab4c:    f7fdfc16    ....    BL       am_hal_interrupt_master_disable ; 0x1837c
        0x0001ab50:    900a        ..      STR      r0,[sp,#0x28]
        0x0001ab52:    2008        .       MOVS     r0,#8
        0x0001ab54:    f7fefebc    ....    BL       am_hal_timer_start ; 0x198d0
        0x0001ab58:    200d        .       MOVS     r0,#0xd
        0x0001ab5a:    f7fefeb9    ....    BL       am_hal_timer_start ; 0x198d0
        0x0001ab5e:    980a        ..      LDR      r0,[sp,#0x28]
        0x0001ab60:    f7fdfc10    ....    BL       am_hal_interrupt_master_set ; 0x18384
        0x0001ab64:    f1b90401    ....    SUBS     r4,r9,#1
        0x0001ab68:    d315        ..      BCC      0x1ab96 ; buck_interval_check + 250
        0x0001ab6a:    bf00        ..      NOP      
        0x0001ab6c:    f7fdfc06    ....    BL       am_hal_interrupt_master_disable ; 0x1837c
        0x0001ab70:    900a        ..      STR      r0,[sp,#0x28]
        0x0001ab72:    200d        .       MOVS     r0,#0xd
        0x0001ab74:    f7fefe24    ..$.    BL       am_hal_timer_read ; 0x197c0
        0x0001ab78:    280a        .(      CMP      r0,#0xa
        0x0001ab7a:    d307        ..      BCC      0x1ab8c ; buck_interval_check + 240
        0x0001ab7c:    2008        .       MOVS     r0,#8
        0x0001ab7e:    f7fefe1f    ....    BL       am_hal_timer_read ; 0x197c0
        0x0001ab82:    4680        .F      MOV      r8,r0
        0x0001ab84:    980a        ..      LDR      r0,[sp,#0x28]
        0x0001ab86:    f7fdfbfd    ....    BL       am_hal_interrupt_master_set ; 0x18384
        0x0001ab8a:    e004        ..      B        0x1ab96 ; buck_interval_check + 250
        0x0001ab8c:    980a        ..      LDR      r0,[sp,#0x28]
        0x0001ab8e:    f7fdfbf9    ....    BL       am_hal_interrupt_master_set ; 0x18384
        0x0001ab92:    1e64        d.      SUBS     r4,r4,#1
        0x0001ab94:    d2ea        ..      BCS      0x1ab6c ; buck_interval_check + 208
        0x0001ab96:    200d        .       MOVS     r0,#0xd
        0x0001ab98:    f7fefd96    ....    BL       am_hal_timer_clear_stop ; 0x196c8
        0x0001ab9c:    200d        .       MOVS     r0,#0xd
        0x0001ab9e:    f7fefeb9    ....    BL       am_hal_timer_stop ; 0x19914
        0x0001aba2:    200d        .       MOVS     r0,#0xd
        0x0001aba4:    f7fefe1e    ....    BL       am_hal_timer_reset_config ; 0x197e4
        0x0001aba8:    2008        .       MOVS     r0,#8
        0x0001abaa:    f7fefd8d    ....    BL       am_hal_timer_clear_stop ; 0x196c8
        0x0001abae:    2008        .       MOVS     r0,#8
        0x0001abb0:    f7fefeb0    ....    BL       am_hal_timer_stop ; 0x19914
        0x0001abb4:    2008        .       MOVS     r0,#8
        0x0001abb6:    f7fefe15    ....    BL       am_hal_timer_reset_config ; 0x197e4
        0x0001abba:    f1b80f00    ....    CMP      r8,#0
        0x0001abbe:    bf02        ..      ITTT     EQ
        0x0001abc0:    2001        .       MOVEQ    r0,#1
        0x0001abc2:    b00b        ..      ADDEQ    sp,sp,#0x2c
        0x0001abc4:    e8bd83f0    ....    POPEQ    {r4-r9,pc}
        0x0001abc8:    480a        .H      LDR      r0,[pc,#40] ; [0x1abf4] = 0xaaaaaaab
        0x0001abca:    fba01008    ....    UMULL    r1,r0,r0,r8
        0x0001abce:    0884        ..      LSRS     r4,r0,#2
        0x0001abd0:    42b4        .B      CMP      r4,r6
        0x0001abd2:    d306        ..      BCC      0x1abe2 ; buck_interval_check + 326
        0x0001abd4:    42ac        .B      CMP      r4,r5
        0x0001abd6:    d806        ..      BHI      0x1abe6 ; buck_interval_check + 330
        0x0001abd8:    603c        <`      STR      r4,[r7,#0]
        0x0001abda:    b00b        ..      ADD      sp,sp,#0x2c
        0x0001abdc:    2000        .       MOVS     r0,#0
        0x0001abde:    e8bd83f0    ....    POP      {r4-r9,pc}
        0x0001abe2:    4634        4F      MOV      r4,r6
        0x0001abe4:    e7f8        ..      B        0x1abd8 ; buck_interval_check + 316
        0x0001abe6:    462c        ,F      MOV      r4,r5
        0x0001abe8:    e7f6        ..      B        0x1abd8 ; buck_interval_check + 316
    $d
        0x0001abea:    0000        ..      DCW    0
        0x0001abec:    40021000    ...@    DCD    1073876992
        0x0001abf0:    40020000    ...@    DCD    1073872896
        0x0001abf4:    aaaaaaab    ....    DCD    2863311531
    $t
    i.calc_func
    calc_func
        0x0001abf8:    b5f0        ..      PUSH     {r4-r7,lr}
        0x0001abfa:    f9b06000    ...`    LDRSH    r6,[r0,#0]
        0x0001abfe:    4607        .F      MOV      r7,r0
        0x0001ac00:    f3c610c0    ....    UBFX     r0,r6,#7,#1
        0x0001ac04:    b083        ..      SUB      sp,sp,#0xc
        0x0001ac06:    460c        .F      MOV      r4,r1
        0x0001ac08:    2800        .(      CMP      r0,#0
        0x0001ac0a:    bf1e        ..      ITTT     NE
        0x0001ac0c:    f006007f    ....    ANDNE    r0,r6,#0x7f
        0x0001ac10:    b003        ..      ADDNE    sp,sp,#0xc
        0x0001ac12:    bdf0        ..      POPNE    {r4-r7,pc}
        0x0001ac14:    f0160007    ....    ANDS     r0,r6,#7
        0x0001ac18:    f3c601c3    ....    UBFX     r1,r6,#3,#4
        0x0001ac1c:    ea411101    A...    ORR      r1,r1,r1,LSL #4
        0x0001ac20:    d012        ..      BEQ      0x1ac48 ; calc_func + 80
        0x0001ac22:    2801        .(      CMP      r0,#1
        0x0001ac24:    bf18        ..      IT       NE
        0x0001ac26:    4635        5F      MOVNE    r5,r6
        0x0001ac28:    d022        ".      BEQ      0x1ac70 ; calc_func + 120
        0x0001ac2a:    8f21        !.      LDRH     r1,[r4,#0x38]
        0x0001ac2c:    b2a8        ..      UXTH     r0,r5
        0x0001ac2e:    f000fc51    ..Q.    BL       crcu16 ; 0x1b4d4
        0x0001ac32:    8720         .      STRH     r0,[r4,#0x38]
        0x0001ac34:    f005007f    ....    AND      r0,r5,#0x7f
        0x0001ac38:    f406417f    ...A    AND      r1,r6,#0xff00
        0x0001ac3c:    4301        .C      ORRS     r1,r1,r0
        0x0001ac3e:    f0410180    A...    ORR      r1,r1,#0x80
        0x0001ac42:    8039        9.      STRH     r1,[r7,#0]
        0x0001ac44:    b003        ..      ADD      sp,sp,#0xc
        0x0001ac46:    bdf0        ..      POP      {r4-r7,pc}
        0x0001ac48:    2922        ")      CMP      r1,#0x22
        0x0001ac4a:    bfb8        ..      IT       LT
        0x0001ac4c:    2122        "!      MOVLT    r1,#0x22
        0x0001ac4e:    8f20         .      LDRH     r0,[r4,#0x38]
        0x0001ac50:    e9cd1000    ....    STRD     r1,r0,[sp,#0]
        0x0001ac54:    e9d41005    ....    LDRD     r1,r0,[r4,#0x14]
        0x0001ac58:    f9b43002    ...0    LDRSH    r3,[r4,#2]
        0x0001ac5c:    f9b42000    ...     LDRSH    r2,[r4,#0]
        0x0001ac60:    f000f90f    ....    BL       core_bench_state ; 0x1ae82
        0x0001ac64:    b205        ..      SXTH     r5,r0
        0x0001ac66:    8fe0        ..      LDRH     r0,[r4,#0x3e]
        0x0001ac68:    2800        .(      CMP      r0,#0
        0x0001ac6a:    bf08        ..      IT       EQ
        0x0001ac6c:    87e5        ..      STRHEQ   r5,[r4,#0x3e]
        0x0001ac6e:    e7dc        ..      B        0x1ac2a ; calc_func + 50
        0x0001ac70:    8f22        ".      LDRH     r2,[r4,#0x38]
        0x0001ac72:    f1040028    ..(.    ADD      r0,r4,#0x28
        0x0001ac76:    f000f8f3    ....    BL       core_bench_matrix ; 0x1ae60
        0x0001ac7a:    b205        ..      SXTH     r5,r0
        0x0001ac7c:    8fa0        ..      LDRH     r0,[r4,#0x3c]
        0x0001ac7e:    2800        .(      CMP      r0,#0
        0x0001ac80:    bf08        ..      IT       EQ
        0x0001ac82:    87a5        ..      STRHEQ   r5,[r4,#0x3c]
        0x0001ac84:    e7d1        ..      B        0x1ac2a ; calc_func + 50
    i.check_data_types
    check_data_types
        0x0001ac86:    2000        .       MOVS     r0,#0
        0x0001ac88:    4770        pG      BX       lr
    i.cmp_complex
    cmp_complex
        0x0001ac8a:    b570        p.      PUSH     {r4-r6,lr}
        0x0001ac8c:    460e        .F      MOV      r6,r1
        0x0001ac8e:    4615        .F      MOV      r5,r2
        0x0001ac90:    4611        .F      MOV      r1,r2
        0x0001ac92:    f7ffffb1    ....    BL       calc_func ; 0x1abf8
        0x0001ac96:    4604        .F      MOV      r4,r0
        0x0001ac98:    4629        )F      MOV      r1,r5
        0x0001ac9a:    4630        0F      MOV      r0,r6
        0x0001ac9c:    f7ffffac    ....    BL       calc_func ; 0x1abf8
        0x0001aca0:    1a20         .      SUBS     r0,r4,r0
        0x0001aca2:    bd70        p.      POP      {r4-r6,pc}
    i.cmp_idx
    cmp_idx
        0x0001aca4:    b96a        j.      CBNZ     r2,0x1acc2 ; cmp_idx + 30
        0x0001aca6:    8802        ..      LDRH     r2,[r0,#0]
        0x0001aca8:    f402437f    ...C    AND      r3,r2,#0xff00
        0x0001acac:    f3c22207    ..."    UBFX     r2,r2,#8,#8
        0x0001acb0:    431a        .C      ORRS     r2,r2,r3
        0x0001acb2:    8002        ..      STRH     r2,[r0,#0]
        0x0001acb4:    880a        ..      LDRH     r2,[r1,#0]
        0x0001acb6:    f402437f    ...C    AND      r3,r2,#0xff00
        0x0001acba:    f3c22207    ..."    UBFX     r2,r2,#8,#8
        0x0001acbe:    431a        .C      ORRS     r2,r2,r3
        0x0001acc0:    800a        ..      STRH     r2,[r1,#0]
        0x0001acc2:    f9b00002    ....    LDRSH    r0,[r0,#2]
        0x0001acc6:    f9b11002    ....    LDRSH    r1,[r1,#2]
        0x0001acca:    1a40        @.      SUBS     r0,r0,r1
        0x0001accc:    4770        pG      BX       lr
        0x0001acce:    0000        ..      MOVS     r0,r0
    i.core_bench_list
    core_bench_list
        0x0001acd0:    e92d5ff0    -.._    PUSH     {r4-r12,lr}
        0x0001acd4:    f04f0c00    O...    MOV      r12,#0
        0x0001acd8:    468a        .F      MOV      r10,r1
        0x0001acda:    f9b0b004    ....    LDRSH    r11,[r0,#4]
        0x0001acde:    4667        gF      MOV      r7,r12
        0x0001ace0:    463e        >F      MOV      r6,r7
        0x0001ace2:    6a45        Ej      LDR      r5,[r0,#0x24]
        0x0001ace4:    4602        .F      MOV      r2,r0
        0x0001ace6:    46e1        .F      MOV      r9,r12
        0x0001ace8:    46e0        .F      MOV      r8,r12
        0x0001acea:    f36a461f    j..F    BFI      r6,r10,#16,#16
        0x0001acee:    4661        aF      MOV      r1,r12
        0x0001acf0:    f1bb0f00    ....    CMP      r11,#0
        0x0001acf4:    dd45        E.      BLE      0x1ad82 ; core_bench_list + 178
        0x0001acf6:    b2c8        ..      UXTB     r0,r1
        0x0001acf8:    f360060f    `...    BFI      r6,r0,#0,#16
        0x0001acfc:    462c        ,F      MOV      r4,r5
        0x0001acfe:    1433        3.      ASRS     r3,r6,#16
        0x0001ad00:    d408        ..      BMI      0x1ad14 ; core_bench_list + 68
        0x0001ad02:    b184        ..      CBZ      r4,0x1ad26 ; core_bench_list + 86
        0x0001ad04:    6860        `h      LDR      r0,[r4,#4]
        0x0001ad06:    f9b00002    ....    LDRSH    r0,[r0,#2]
        0x0001ad0a:    4298        .B      CMP      r0,r3
        0x0001ad0c:    bf18        ..      IT       NE
        0x0001ad0e:    6824        $h      LDRNE    r4,[r4,#0]
        0x0001ad10:    d1f7        ..      BNE      0x1ad02 ; core_bench_list + 50
        0x0001ad12:    e008        ..      B        0x1ad26 ; core_bench_list + 86
        0x0001ad14:    b13c        <.      CBZ      r4,0x1ad26 ; core_bench_list + 86
        0x0001ad16:    f8d4e004    ....    LDR      lr,[r4,#4]
        0x0001ad1a:    f89ee000    ....    LDRB     lr,[lr,#0]
        0x0001ad1e:    4586        .E      CMP      lr,r0
        0x0001ad20:    bf18        ..      IT       NE
        0x0001ad22:    6824        $h      LDRNE    r4,[r4,#0]
        0x0001ad24:    d1f6        ..      BNE      0x1ad14 ; core_bench_list + 68
        0x0001ad26:    2000        .       MOVS     r0,#0
        0x0001ad28:    b13d        =.      CBZ      r5,0x1ad3a ; core_bench_list + 106
        0x0001ad2a:    bf00        ..      NOP      
        0x0001ad2c:    f8d5e000    ....    LDR      lr,[r5,#0]
        0x0001ad30:    6028        (`      STR      r0,[r5,#0]
        0x0001ad32:    4628        (F      MOV      r0,r5
        0x0001ad34:    ea5f050e    _...    MOVS     r5,lr
        0x0001ad38:    d1f8        ..      BNE      0x1ad2c ; core_bench_list + 92
        0x0001ad3a:    4605        .F      MOV      r5,r0
        0x0001ad3c:    2c00        .,      CMP      r4,#0
        0x0001ad3e:    d048        H.      BEQ      0x1add2 ; core_bench_list + 258
        0x0001ad40:    f1090001    ....    ADD      r0,r9,#1
        0x0001ad44:    fa1ff980    ....    UXTH     r9,r0
        0x0001ad48:    6860        `h      LDR      r0,[r4,#4]
        0x0001ad4a:    f9b00000    ....    LDRSH    r0,[r0,#0]
        0x0001ad4e:    f0100f01    ....    TST      r0,#1
        0x0001ad52:    d004        ..      BEQ      0x1ad5e ; core_bench_list + 142
        0x0001ad54:    f3c02040    ..@     UBFX     r0,r0,#9,#1
        0x0001ad58:    4460        `D      ADD      r0,r0,r12
        0x0001ad5a:    fa1ffc80    ....    UXTH     r12,r0
        0x0001ad5e:    6820         h      LDR      r0,[r4,#0]
        0x0001ad60:    b130        0.      CBZ      r0,0x1ad70 ; core_bench_list + 160
        0x0001ad62:    f8d0e000    ....    LDR      lr,[r0,#0]
        0x0001ad66:    f8c4e000    ....    STR      lr,[r4,#0]
        0x0001ad6a:    682c        ,h      LDR      r4,[r5,#0]
        0x0001ad6c:    6004        .`      STR      r4,[r0,#0]
        0x0001ad6e:    6028        (`      STR      r0,[r5,#0]
        0x0001ad70:    2b00        .+      CMP      r3,#0
        0x0001ad72:    bfa4        ..      ITT      GE
        0x0001ad74:    1c58        X.      ADDGE    r0,r3,#1
        0x0001ad76:    f360461f    `..F    BFIGE    r6,r0,#16,#16
        0x0001ad7a:    1c48        H.      ADDS     r0,r1,#1
        0x0001ad7c:    b201        ..      SXTH     r1,r0
        0x0001ad7e:    4559        YE      CMP      r1,r11
        0x0001ad80:    dbb9        ..      BLT      0x1acf6 ; core_bench_list + 38
        0x0001ad82:    ebc80089    ....    RSB      r0,r8,r9,LSL #2
        0x0001ad86:    4460        `D      ADD      r0,r0,r12
        0x0001ad88:    fa1ff880    ....    UXTH     r8,r0
        0x0001ad8c:    f1ba0f00    ....    CMP      r10,#0
        0x0001ad90:    dd04        ..      BLE      0x1ad9c ; core_bench_list + 204
        0x0001ad92:    4931        1I      LDR      r1,[pc,#196] ; [0x1ae58] = 0x1ac8b
        0x0001ad94:    4628        (F      MOV      r0,r5
        0x0001ad96:    f000fa4d    ..M.    BL       core_list_mergesort ; 0x1b234
        0x0001ad9a:    4605        .F      MOV      r5,r0
        0x0001ad9c:    6828        (h      LDR      r0,[r5,#0]
        0x0001ad9e:    e9d09100    ....    LDRD     r9,r1,[r0,#0]
        0x0001ada2:    f8d92004    ...     LDR      r2,[r9,#4]
        0x0001ada6:    6042        B`      STR      r2,[r0,#4]
        0x0001ada8:    f8c91004    ....    STR      r1,[r9,#4]
        0x0001adac:    6801        .h      LDR      r1,[r0,#0]
        0x0001adae:    6809        .h      LDR      r1,[r1,#0]
        0x0001adb0:    6001        .`      STR      r1,[r0,#0]
        0x0001adb2:    4628        (F      MOV      r0,r5
        0x0001adb4:    f8c97000    ...p    STR      r7,[r9,#0]
        0x0001adb8:    1431        1.      ASRS     r1,r6,#16
        0x0001adba:    bf48        H.      IT       MI
        0x0001adbc:    b231        1.      SXTHMI   r1,r6
        0x0001adbe:    d415        ..      BMI      0x1adec ; core_bench_list + 284
        0x0001adc0:    b1e8        ..      CBZ      r0,0x1adfe ; core_bench_list + 302
        0x0001adc2:    6842        Bh      LDR      r2,[r0,#4]
        0x0001adc4:    f9b22002    ...     LDRSH    r2,[r2,#2]
        0x0001adc8:    428a        .B      CMP      r2,r1
        0x0001adca:    bf18        ..      IT       NE
        0x0001adcc:    6800        .h      LDRNE    r0,[r0,#0]
        0x0001adce:    d1f7        ..      BNE      0x1adc0 ; core_bench_list + 240
        0x0001add0:    e013        ..      B        0x1adfa ; core_bench_list + 298
        0x0001add2:    f1080001    ....    ADD      r0,r8,#1
        0x0001add6:    fa1ff880    ....    UXTH     r8,r0
        0x0001adda:    6828        (h      LDR      r0,[r5,#0]
        0x0001addc:    6840        @h      LDR      r0,[r0,#4]
        0x0001adde:    8800        ..      LDRH     r0,[r0,#0]
        0x0001ade0:    f3c02000    ...     UBFX     r0,r0,#8,#1
        0x0001ade4:    4460        `D      ADD      r0,r0,r12
        0x0001ade6:    fa1ffc80    ....    UXTH     r12,r0
        0x0001adea:    e7c1        ..      B        0x1ad70 ; core_bench_list + 160
        0x0001adec:    b138        8.      CBZ      r0,0x1adfe ; core_bench_list + 302
        0x0001adee:    6842        Bh      LDR      r2,[r0,#4]
        0x0001adf0:    7812        .x      LDRB     r2,[r2,#0]
        0x0001adf2:    428a        .B      CMP      r2,r1
        0x0001adf4:    bf18        ..      IT       NE
        0x0001adf6:    6800        .h      LDRNE    r0,[r0,#0]
        0x0001adf8:    d1f8        ..      BNE      0x1adec ; core_bench_list + 284
        0x0001adfa:    4604        .F      MOV      r4,r0
        0x0001adfc:    e001        ..      B        0x1ae02 ; core_bench_list + 306
        0x0001adfe:    682c        ,h      LDR      r4,[r5,#0]
        0x0001ae00:    b14c        L.      CBZ      r4,0x1ae16 ; core_bench_list + 326
        0x0001ae02:    6868        hh      LDR      r0,[r5,#4]
        0x0001ae04:    4641        AF      MOV      r1,r8
        0x0001ae06:    f9b00000    ....    LDRSH    r0,[r0,#0]
        0x0001ae0a:    f000fb3b    ..;.    BL       crc16 ; 0x1b484
        0x0001ae0e:    6824        $h      LDR      r4,[r4,#0]
        0x0001ae10:    4680        .F      MOV      r8,r0
        0x0001ae12:    2c00        .,      CMP      r4,#0
        0x0001ae14:    d1f5        ..      BNE      0x1ae02 ; core_bench_list + 306
        0x0001ae16:    6828        (h      LDR      r0,[r5,#0]
        0x0001ae18:    f8d91004    ....    LDR      r1,[r9,#4]
        0x0001ae1c:    6842        Bh      LDR      r2,[r0,#4]
        0x0001ae1e:    f8c92004    ...     STR      r2,[r9,#4]
        0x0001ae22:    6041        A`      STR      r1,[r0,#4]
        0x0001ae24:    6801        .h      LDR      r1,[r0,#0]
        0x0001ae26:    f8c91000    ....    STR      r1,[r9,#0]
        0x0001ae2a:    f8c09000    ....    STR      r9,[r0,#0]
        0x0001ae2e:    2200        ."      MOVS     r2,#0
        0x0001ae30:    490a        .I      LDR      r1,[pc,#40] ; [0x1ae5c] = 0x1aca5
        0x0001ae32:    4628        (F      MOV      r0,r5
        0x0001ae34:    f000f9fe    ....    BL       core_list_mergesort ; 0x1b234
        0x0001ae38:    6804        .h      LDR      r4,[r0,#0]
        0x0001ae3a:    4605        .F      MOV      r5,r0
        0x0001ae3c:    b14c        L.      CBZ      r4,0x1ae52 ; core_bench_list + 386
        0x0001ae3e:    6868        hh      LDR      r0,[r5,#4]
        0x0001ae40:    4641        AF      MOV      r1,r8
        0x0001ae42:    f9b00000    ....    LDRSH    r0,[r0,#0]
        0x0001ae46:    f000fb1d    ....    BL       crc16 ; 0x1b484
        0x0001ae4a:    6824        $h      LDR      r4,[r4,#0]
        0x0001ae4c:    4680        .F      MOV      r8,r0
        0x0001ae4e:    2c00        .,      CMP      r4,#0
        0x0001ae50:    d1f5        ..      BNE      0x1ae3e ; core_bench_list + 366
        0x0001ae52:    4640        @F      MOV      r0,r8
        0x0001ae54:    e8bd9ff0    ....    POP      {r4-r12,pc}
    $d
        0x0001ae58:    0001ac8b    ....    DCD    109707
        0x0001ae5c:    0001aca5    ....    DCD    109733
    $t
    i.core_bench_matrix
    core_bench_matrix
        0x0001ae60:    b538        8.      PUSH     {r3-r5,lr}
        0x0001ae62:    4615        .F      MOV      r5,r2
        0x0001ae64:    e9d02301    ...#    LDRD     r2,r3,[r0,#4]
        0x0001ae68:    f8d0c000    ....    LDR      r12,[r0,#0]
        0x0001ae6c:    68c4        .h      LDR      r4,[r0,#0xc]
        0x0001ae6e:    9100        ..      STR      r1,[sp,#0]
        0x0001ae70:    4621        !F      MOV      r1,r4
        0x0001ae72:    4660        `F      MOV      r0,r12
        0x0001ae74:    f001f8fe    ....    BL       matrix_test ; 0x1c074
        0x0001ae78:    4629        )F      MOV      r1,r5
        0x0001ae7a:    e8bd4038    ..8@    POP      {r3-r5,lr}
        0x0001ae7e:    f000bb01    ....    B.W      crc16 ; 0x1b484
    i.core_bench_state
    core_bench_state
        0x0001ae82:    e92d4ff0    -..O    PUSH     {r4-r11,lr}
        0x0001ae86:    b095        ..      SUB      sp,sp,#0x54
        0x0001ae88:    4680        .F      MOV      r8,r0
        0x0001ae8a:    2000        .       MOVS     r0,#0
        0x0001ae8c:    e9dd6a1e    ...j    LDRD     r6,r10,[sp,#0x78]
        0x0001ae90:    900a        ..      STR      r0,[sp,#0x28]
        0x0001ae92:    900b        ..      STR      r0,[sp,#0x2c]
        0x0001ae94:    900c        ..      STR      r0,[sp,#0x30]
        0x0001ae96:    900f        ..      STR      r0,[sp,#0x3c]
        0x0001ae98:    9010        ..      STR      r0,[sp,#0x40]
        0x0001ae9a:    900d        ..      STR      r0,[sp,#0x34]
        0x0001ae9c:    900e        ..      STR      r0,[sp,#0x38]
        0x0001ae9e:    9011        ..      STR      r0,[sp,#0x44]
        0x0001aea0:    9000        ..      STR      r0,[sp,#0]
        0x0001aea2:    9001        ..      STR      r0,[sp,#4]
        0x0001aea4:    460d        .F      MOV      r5,r1
        0x0001aea6:    9002        ..      STR      r0,[sp,#8]
        0x0001aea8:    9003        ..      STR      r0,[sp,#0xc]
        0x0001aeaa:    9004        ..      STR      r0,[sp,#0x10]
        0x0001aeac:    9005        ..      STR      r0,[sp,#0x14]
        0x0001aeae:    9006        ..      STR      r0,[sp,#0x18]
        0x0001aeb0:    e9cd0507    ....    STRD     r0,r5,[sp,#0x1c]
        0x0001aeb4:    7828        (x      LDRB     r0,[r5,#0]
        0x0001aeb6:    4699        .F      MOV      r9,r3
        0x0001aeb8:    4693        .F      MOV      r11,r2
        0x0001aeba:    466f        oF      MOV      r7,sp
        0x0001aebc:    b160        `.      CBZ      r0,0x1aed8 ; core_bench_state + 86
        0x0001aebe:    a90a        ..      ADD      r1,sp,#0x28
        0x0001aec0:    a808        ..      ADD      r0,sp,#0x20
        0x0001aec2:    f000fa0a    ....    BL       core_state_transition ; 0x1b2da
        0x0001aec6:    f8571020    W. .    LDR      r1,[r7,r0,LSL #2]
        0x0001aeca:    1c49        I.      ADDS     r1,r1,#1
        0x0001aecc:    f8471020    G. .    STR      r1,[r7,r0,LSL #2]
        0x0001aed0:    9808        ..      LDR      r0,[sp,#0x20]
        0x0001aed2:    7800        .x      LDRB     r0,[r0,#0]
        0x0001aed4:    2800        .(      CMP      r0,#0
        0x0001aed6:    d1f2        ..      BNE      0x1aebe ; core_bench_state + 60
        0x0001aed8:    eb050008    ....    ADD      r0,r5,r8
        0x0001aedc:    1b40        @.      SUBS     r0,r0,r5
        0x0001aede:    4430        0D      ADD      r0,r0,r6
        0x0001aee0:    f1a00801    ....    SUB      r8,r0,#1
        0x0001aee4:    fb98f0f6    ....    SDIV     r0,r8,r6
        0x0001aee8:    462c        ,F      MOV      r4,r5
        0x0001aeea:    9508        ..      STR      r5,[sp,#0x20]
        0x0001aeec:    2800        .(      CMP      r0,#0
        0x0001aeee:    bfc8        ..      IT       GT
        0x0001aef0:    f00b02ff    ....    ANDGT    r2,r11,#0xff
        0x0001aef4:    dd07        ..      BLE      0x1af06 ; core_bench_state + 132
        0x0001aef6:    7821        !x      LDRB     r1,[r4,#0]
        0x0001aef8:    292c        ,)      CMP      r1,#0x2c
        0x0001aefa:    bf1c        ..      ITT      NE
        0x0001aefc:    4051        Q@      EORNE    r1,r1,r2
        0x0001aefe:    7021        !p      STRBNE   r1,[r4,#0]
        0x0001af00:    4434        4D      ADD      r4,r4,r6
        0x0001af02:    1e40        @.      SUBS     r0,r0,#1
        0x0001af04:    d1f7        ..      BNE      0x1aef6 ; core_bench_state + 116
        0x0001af06:    9508        ..      STR      r5,[sp,#0x20]
        0x0001af08:    7828        (x      LDRB     r0,[r5,#0]
        0x0001af0a:    b160        `.      CBZ      r0,0x1af26 ; core_bench_state + 164
        0x0001af0c:    a90a        ..      ADD      r1,sp,#0x28
        0x0001af0e:    a808        ..      ADD      r0,sp,#0x20
        0x0001af10:    f000f9e3    ....    BL       core_state_transition ; 0x1b2da
        0x0001af14:    f8571020    W. .    LDR      r1,[r7,r0,LSL #2]
        0x0001af18:    1c49        I.      ADDS     r1,r1,#1
        0x0001af1a:    f8471020    G. .    STR      r1,[r7,r0,LSL #2]
        0x0001af1e:    9808        ..      LDR      r0,[sp,#0x20]
        0x0001af20:    7800        .x      LDRB     r0,[r0,#0]
        0x0001af22:    2800        .(      CMP      r0,#0
        0x0001af24:    d1f2        ..      BNE      0x1af0c ; core_bench_state + 138
        0x0001af26:    fb98f0f6    ....    SDIV     r0,r8,r6
        0x0001af2a:    9508        ..      STR      r5,[sp,#0x20]
        0x0001af2c:    2800        .(      CMP      r0,#0
        0x0001af2e:    bfc8        ..      IT       GT
        0x0001af30:    f00902ff    ....    ANDGT    r2,r9,#0xff
        0x0001af34:    dd07        ..      BLE      0x1af46 ; core_bench_state + 196
        0x0001af36:    7829        )x      LDRB     r1,[r5,#0]
        0x0001af38:    292c        ,)      CMP      r1,#0x2c
        0x0001af3a:    bf1c        ..      ITT      NE
        0x0001af3c:    4051        Q@      EORNE    r1,r1,r2
        0x0001af3e:    7029        )p      STRBNE   r1,[r5,#0]
        0x0001af40:    4435        5D      ADD      r5,r5,r6
        0x0001af42:    1e40        @.      SUBS     r0,r0,#1
        0x0001af44:    d1f7        ..      BNE      0x1af36 ; core_bench_state + 180
        0x0001af46:    2400        .$      MOVS     r4,#0
        0x0001af48:    ad0a        ..      ADD      r5,sp,#0x28
        0x0001af4a:    f8570024    W.$.    LDR      r0,[r7,r4,LSL #2]
        0x0001af4e:    4651        QF      MOV      r1,r10
        0x0001af50:    f000fae5    ....    BL       crcu32 ; 0x1b51e
        0x0001af54:    f8552024    U.$     LDR      r2,[r5,r4,LSL #2]
        0x0001af58:    4601        .F      MOV      r1,r0
        0x0001af5a:    4610        .F      MOV      r0,r2
        0x0001af5c:    f000fadf    ....    BL       crcu32 ; 0x1b51e
        0x0001af60:    1c64        d.      ADDS     r4,r4,#1
        0x0001af62:    4682        .F      MOV      r10,r0
        0x0001af64:    2c08        .,      CMP      r4,#8
        0x0001af66:    d3f0        ..      BCC      0x1af4a ; core_bench_state + 200
        0x0001af68:    b015        ..      ADD      sp,sp,#0x54
        0x0001af6a:    e8bd8ff0    ....    POP      {r4-r11,pc}
        0x0001af6e:    0000        ..      MOVS     r0,r0
    i.core_init_matrix
    core_init_matrix
        0x0001af70:    e92d4ff0    -..O    PUSH     {r4-r11,lr}
        0x0001af74:    2400        .$      MOVS     r4,#0
        0x0001af76:    f04f0c01    O...    MOV      r12,#1
        0x0001af7a:    2a00        .*      CMP      r2,#0
        0x0001af7c:    bf08        ..      IT       EQ
        0x0001af7e:    2201        ."      MOVEQ    r2,#1
        0x0001af80:    2800        .(      CMP      r0,#0
        0x0001af82:    d905        ..      BLS      0x1af90 ; core_init_matrix + 32
        0x0001af84:    1c64        d.      ADDS     r4,r4,#1
        0x0001af86:    fb04f504    ....    MUL      r5,r4,r4
        0x0001af8a:    00ed        ..      LSLS     r5,r5,#3
        0x0001af8c:    42a8        .B      CMP      r0,r5
        0x0001af8e:    d8f9        ..      BHI      0x1af84 ; core_init_matrix + 20
        0x0001af90:    1e49        I.      SUBS     r1,r1,#1
        0x0001af92:    1e60        `.      SUBS     r0,r4,#1
        0x0001af94:    f0210103    !...    BIC      r1,r1,#3
        0x0001af98:    f1010b04    ....    ADD      r11,r1,#4
        0x0001af9c:    fb00fe00    ....    MUL      lr,r0,r0
        0x0001afa0:    eb0b0a4e    ..N.    ADD      r10,r11,lr,LSL #1
        0x0001afa4:    2800        .(      CMP      r0,#0
        0x0001afa6:    bf18        ..      IT       NE
        0x0001afa8:    2100        .!      MOVNE    r1,#0
        0x0001afaa:    d928        (.      BLS      0x1affe ; core_init_matrix + 142
        0x0001afac:    e000        ..      B        0x1afb0 ; core_init_matrix + 64
        0x0001afae:    b318        ..      CBZ      r0,0x1aff8 ; core_init_matrix + 136
        0x0001afb0:    fb01f400    ....    MUL      r4,r1,r0
        0x0001afb4:    eb0a0644    ..D.    ADD      r6,r10,r4,LSL #1
        0x0001afb8:    eb0b0544    ..D.    ADD      r5,r11,r4,LSL #1
        0x0001afbc:    f04f0400    O...    MOV      r4,#0
        0x0001afc0:    ea4f0700    O...    MOV.W    r7,r0
        0x0001afc4:    eb0c0904    ....    ADD      r9,r12,r4
        0x0001afc8:    fb09f202    ....    MUL      r2,r9,r2
        0x0001afcc:    ea4f78e2    O..x    ASR      r8,r2,#31
        0x0001afd0:    eb024818    ...H    ADD      r8,r2,r8,LSR #16
        0x0001afd4:    f36f080f    o...    BFC      r8,#0,#16
        0x0001afd8:    eba20208    ....    SUB      r2,r2,r8
        0x0001afdc:    eb090802    ....    ADD      r8,r9,r2
        0x0001afe0:    f8268b02    &...    STRH     r8,[r6],#2
        0x0001afe4:    44c8        .D      ADD      r8,r8,r9
        0x0001afe6:    f00808ff    ....    AND      r8,r8,#0xff
        0x0001afea:    f8258b02    %...    STRH     r8,[r5],#2
        0x0001afee:    f1040401    ....    ADD      r4,r4,#1
        0x0001aff2:    1e7f        ..      SUBS     r7,r7,#1
        0x0001aff4:    d1e6        ..      BNE      0x1afc4 ; core_init_matrix + 84
        0x0001aff6:    4484        .D      ADD      r12,r12,r0
        0x0001aff8:    1c49        I.      ADDS     r1,r1,#1
        0x0001affa:    4281        .B      CMP      r1,r0
        0x0001affc:    d3d7        ..      BCC      0x1afae ; core_init_matrix + 62
        0x0001affe:    eb0a014e    ..N.    ADD      r1,r10,lr,LSL #1
        0x0001b002:    e9c3ba01    ....    STRD     r11,r10,[r3,#4]
        0x0001b006:    1e49        I.      SUBS     r1,r1,#1
        0x0001b008:    f0210103    !...    BIC      r1,r1,#3
        0x0001b00c:    1d09        ..      ADDS     r1,r1,#4
        0x0001b00e:    60d9        .`      STR      r1,[r3,#0xc]
        0x0001b010:    6018        .`      STR      r0,[r3,#0]
        0x0001b012:    e8bd8ff0    ....    POP      {r4-r11,pc}
        0x0001b016:    0000        ..      MOVS     r0,r0
    i.core_init_state
    core_init_state
        0x0001b018:    e92d4ff8    -..O    PUSH     {r3-r11,lr}
        0x0001b01c:    f04f0c00    O...    MOV      r12,#0
        0x0001b020:    f1a00801    ....    SUB      r8,r0,#1
        0x0001b024:    4665        eF      MOV      r5,r12
        0x0001b026:    4666        fF      MOV      r6,r12
        0x0001b028:    4667        gF      MOV      r7,r12
        0x0001b02a:    f1b80f01    ....    CMP      r8,#1
        0x0001b02e:    d94d        M.      BLS      0x1b0cc ; core_init_state + 180
        0x0001b030:    f8dfa0e8    ....    LDR      r10,[pc,#232] ; [0x1b11c] = 0x10000054
        0x0001b034:    f10a0b10    ....    ADD      r11,r10,#0x10
        0x0001b038:    f10a0e20    .. .    ADD      lr,r10,#0x20
        0x0001b03c:    e01d        ..      B        0x1b07a ; core_init_state + 98
        0x0001b03e:    b1e5        ..      CBZ      r5,0x1b07a ; core_init_state + 98
        0x0001b040:    eb02000c    ....    ADD      r0,r2,r12
        0x0001b044:    1e73        s.      SUBS     r3,r6,#1
        0x0001b046:    9000        ..      STR      r0,[sp,#0]
        0x0001b048:    1e40        @.      SUBS     r0,r0,#1
        0x0001b04a:    f0150f01    ....    TST      r5,#1
        0x0001b04e:    d003        ..      BEQ      0x1b058 ; core_init_state + 64
        0x0001b050:    f813cf01    ....    LDRB     r12,[r3,#1]!
        0x0001b054:    f800cf01    ....    STRB     r12,[r0,#1]!
        0x0001b058:    ea5f0c55    _.U.    LSRS     r12,r5,#1
        0x0001b05c:    d008        ..      BEQ      0x1b070 ; core_init_state + 88
        0x0001b05e:    785c        \x      LDRB     r4,[r3,#1]
        0x0001b060:    7044        Dp      STRB     r4,[r0,#1]
        0x0001b062:    f8134f02    ...O    LDRB     r4,[r3,#2]!
        0x0001b066:    f8004f02    ...O    STRB     r4,[r0,#2]!
        0x0001b06a:    f1bc0c01    ....    SUBS     r12,r12,#1
        0x0001b06e:    d1f6        ..      BNE      0x1b05e ; core_init_state + 70
        0x0001b070:    9b00        ..      LDR      r3,[sp,#0]
        0x0001b072:    202c        ,       MOVS     r0,#0x2c
        0x0001b074:    f1090c01    ....    ADD      r12,r9,#1
        0x0001b078:    5558        XU      STRB     r0,[r3,r5]
        0x0001b07a:    1c48        H.      ADDS     r0,r1,#1
        0x0001b07c:    b201        ..      SXTH     r1,r0
        0x0001b07e:    f0010007    ....    AND      r0,r1,#7
        0x0001b082:    2808        .(      CMP      r0,#8
        0x0001b084:    d21c        ..      BCS      0x1b0c0 ; core_init_state + 168
        0x0001b086:    e8dff000    ....    TBB      [pc,r0]
    $d
        0x0001b08a:    0404        ..      DCW    1028
        0x0001b08c:    0f0a0a04    ....    DCD    252316164
        0x0001b090:    150f        ..      DCW    5391
    $t
        0x0001b092:    f3c100c1    ....    UBFX     r0,r1,#3,#2
        0x0001b096:    2504        .%      MOVS     r5,#4
        0x0001b098:    f85a6020    Z. `    LDR      r6,[r10,r0,LSL #2]
        0x0001b09c:    e010        ..      B        0x1b0c0 ; core_init_state + 168
        0x0001b09e:    f3c100c1    ....    UBFX     r0,r1,#3,#2
        0x0001b0a2:    f85b6020    [. `    LDR      r6,[r11,r0,LSL #2]
        0x0001b0a6:    e003        ..      B        0x1b0b0 ; core_init_state + 152
        0x0001b0a8:    f3c100c1    ....    UBFX     r0,r1,#3,#2
        0x0001b0ac:    f85e6020    ^. `    LDR      r6,[lr,r0,LSL #2]
        0x0001b0b0:    2508        .%      MOVS     r5,#8
        0x0001b0b2:    e005        ..      B        0x1b0c0 ; core_init_state + 168
        0x0001b0b4:    481a        .H      LDR      r0,[pc,#104] ; [0x1b120] = 0x10000084
        0x0001b0b6:    f3c103c1    ....    UBFX     r3,r1,#3,#2
        0x0001b0ba:    2508        .%      MOVS     r5,#8
        0x0001b0bc:    f8506023    P.#`    LDR      r6,[r0,r3,LSL #2]
        0x0001b0c0:    eb0c0905    ....    ADD      r9,r12,r5
        0x0001b0c4:    f1090001    ....    ADD      r0,r9,#1
        0x0001b0c8:    4540        @E      CMP      r0,r8
        0x0001b0ca:    d3b8        ..      BCC      0x1b03e ; core_init_state + 38
        0x0001b0cc:    f1080001    ....    ADD      r0,r8,#1
        0x0001b0d0:    4584        .E      CMP      r12,r0
        0x0001b0d2:    bf38        8.      IT       CC
        0x0001b0d4:    f1b04f00    ...O    CMPCC    r0,#0x80000000
        0x0001b0d8:    d214        ..      BCS      0x1b104 ; core_init_state + 236
        0x0001b0da:    eb02010c    ....    ADD      r1,r2,r12
        0x0001b0de:    eba0000c    ....    SUB      r0,r0,r12
        0x0001b0e2:    1e49        I.      SUBS     r1,r1,#1
        0x0001b0e4:    f0100f01    ....    TST      r0,#1
        0x0001b0e8:    bf18        ..      IT       NE
        0x0001b0ea:    f8017f01    ....    STRBNE   r7,[r1,#1]!
        0x0001b0ee:    0840        @.      LSRS     r0,r0,#1
        0x0001b0f0:    bf08        ..      IT       EQ
        0x0001b0f2:    e8bd8ff8    ....    POPEQ    {r3-r11,pc}
        0x0001b0f6:    704f        Op      STRB     r7,[r1,#1]
        0x0001b0f8:    f8017f02    ....    STRB     r7,[r1,#2]!
        0x0001b0fc:    1e40        @.      SUBS     r0,r0,#1
        0x0001b0fe:    d1fa        ..      BNE      0x1b0f6 ; core_init_state + 222
        0x0001b100:    e8bd8ff8    ....    POP      {r3-r11,pc}
        0x0001b104:    4560        `E      CMP      r0,r12
        0x0001b106:    bf98        ..      IT       LS
        0x0001b108:    e8bd8ff8    ....    POPLS    {r3-r11,pc}
        0x0001b10c:    f802700c    ...p    STRB     r7,[r2,r12]
        0x0001b110:    f10c0c01    ....    ADD      r12,r12,#1
        0x0001b114:    4584        .E      CMP      r12,r0
        0x0001b116:    d3f9        ..      BCC      0x1b10c ; core_init_state + 244
        0x0001b118:    e8bd8ff8    ....    POP      {r3-r11,pc}
    $d
        0x0001b11c:    10000054    T...    DCD    268435540
        0x0001b120:    10000084    ....    DCD    268435588
    $t
    i.core_list_init
    core_list_init
        0x0001b124:    e92d0ff0    -...    PUSH     {r4-r11}
        0x0001b128:    2314        .#      MOVS     r3,#0x14
        0x0001b12a:    fbb0f0f3    ....    UDIV     r0,r0,r3
        0x0001b12e:    1e87        ..      SUBS     r7,r0,#2
        0x0001b130:    eb0104c7    ....    ADD      r4,r1,r7,LSL #3
        0x0001b134:    2300        .#      MOVS     r3,#0
        0x0001b136:    604c        L`      STR      r4,[r1,#4]
        0x0001b138:    600b        .`      STR      r3,[r1,#0]
        0x0001b13a:    8063        c.      STRH     r3,[r4,#2]
        0x0001b13c:    f8d1c004    ....    LDR      r12,[r1,#4]
        0x0001b140:    f2480380    H...    MOV      r3,#0x8080
        0x0001b144:    4608        .F      MOV      r0,r1
        0x0001b146:    f8ac3000    ...0    STRH     r3,[r12,#0]
        0x0001b14a:    f1010c08    ....    ADD      r12,r1,#8
        0x0001b14e:    1d23        #.      ADDS     r3,r4,#4
        0x0001b150:    3110        .1      ADDS     r1,r1,#0x10
        0x0001b152:    eb040587    ....    ADD      r5,r4,r7,LSL #2
        0x0001b156:    f64779ff    G..y    MOV      r9,#0x7fff
        0x0001b15a:    f04f36ff    O..6    MOV      r6,#0xffffffff
        0x0001b15e:    42a1        .B      CMP      r1,r4
        0x0001b160:    bf3c        <.      ITT      CC
        0x0001b162:    f1030804    ....    ADDCC    r8,r3,#4
        0x0001b166:    45a8        .E      CMPCC    r8,r5
        0x0001b168:    d20d        ..      BCS      0x1b186 ; core_list_init + 98
        0x0001b16a:    4661        aF      MOV      r1,r12
        0x0001b16c:    f8d08000    ....    LDR      r8,[r0,#0]
        0x0001b170:    f8c18000    ....    STR      r8,[r1,#0]
        0x0001b174:    6001        .`      STR      r1,[r0,#0]
        0x0001b176:    604b        K`      STR      r3,[r1,#4]
        0x0001b178:    4619        .F      MOV      r1,r3
        0x0001b17a:    f10c0c08    ....    ADD      r12,r12,#8
        0x0001b17e:    800e        ..      STRH     r6,[r1,#0]
        0x0001b180:    1d1b        ..      ADDS     r3,r3,#4
        0x0001b182:    f8a19002    ....    STRH     r9,[r1,#2]
        0x0001b186:    2100        .!      MOVS     r1,#0
        0x0001b188:    2f00        ./      CMP      r7,#0
        0x0001b18a:    d922        ".      BLS      0x1b1d2 ; core_list_init + 174
        0x0001b18c:    ea820601    ....    EOR      r6,r2,r1
        0x0001b190:    f006080f    ....    AND      r8,r6,#0xf
        0x0001b194:    460e        .F      MOV      r6,r1
        0x0001b196:    f36806df    h...    BFI      r6,r8,#3,#29
        0x0001b19a:    ea462a06    F..*    ORR      r10,r6,r6,LSL #8
        0x0001b19e:    f10c0608    ....    ADD      r6,r12,#8
        0x0001b1a2:    42a6        .B      CMP      r6,r4
        0x0001b1a4:    bf3c        <.      ITT      CC
        0x0001b1a6:    f1030804    ....    ADDCC    r8,r3,#4
        0x0001b1aa:    45a8        .E      CMPCC    r8,r5
        0x0001b1ac:    d20e        ..      BCS      0x1b1cc ; core_list_init + 168
        0x0001b1ae:    46e0        .F      MOV      r8,r12
        0x0001b1b0:    6806        .h      LDR      r6,[r0,#0]
        0x0001b1b2:    f8c86000    ...`    STR      r6,[r8,#0]
        0x0001b1b6:    f8c08000    ....    STR      r8,[r0,#0]
        0x0001b1ba:    f8c83004    ...0    STR      r3,[r8,#4]
        0x0001b1be:    f8a3a000    ....    STRH     r10,[r3,#0]
        0x0001b1c2:    f8a39002    ....    STRH     r9,[r3,#2]
        0x0001b1c6:    f10c0c08    ....    ADD      r12,r12,#8
        0x0001b1ca:    1d1b        ..      ADDS     r3,r3,#4
        0x0001b1cc:    1c49        I.      ADDS     r1,r1,#1
        0x0001b1ce:    42b9        .B      CMP      r1,r7
        0x0001b1d0:    d3dc        ..      BCC      0x1b18c ; core_list_init + 104
        0x0001b1d2:    6803        .h      LDR      r3,[r0,#0]
        0x0001b1d4:    2101        .!      MOVS     r1,#1
        0x0001b1d6:    f8d3c000    ....    LDR      r12,[r3,#0]
        0x0001b1da:    f1bc0f00    ....    CMP      r12,#0
        0x0001b1de:    d01f        ..      BEQ      0x1b220 ; core_list_init + 252
        0x0001b1e0:    f8dfc048    ..H.    LDR      r12,[pc,#72] ; [0x1b22c] = 0xcccccccd
        0x0001b1e4:    fbac4c07    ...L    UMULL    r4,r12,r12,r7
        0x0001b1e8:    ea4f049c    O...    LSR      r4,r12,#2
        0x0001b1ec:    428c        .B      CMP      r4,r1
        0x0001b1ee:    d905        ..      BLS      0x1b1fc ; core_list_init + 216
        0x0001b1f0:    f8d3c004    ....    LDR      r12,[r3,#4]
        0x0001b1f4:    f8ac1002    ....    STRH     r1,[r12,#2]
        0x0001b1f8:    1c49        I.      ADDS     r1,r1,#1
        0x0001b1fa:    e00b        ..      B        0x1b214 ; core_list_init + 240
        0x0001b1fc:    ea810c02    ....    EOR      r12,r1,r2
        0x0001b200:    1c49        I.      ADDS     r1,r1,#1
        0x0001b202:    f0010507    ....    AND      r5,r1,#7
        0x0001b206:    ea4c2c05    L..,    ORR      r12,r12,r5,LSL #8
        0x0001b20a:    685d        ]h      LDR      r5,[r3,#4]
        0x0001b20c:    f3cc0c0d    ....    UBFX     r12,r12,#0,#14
        0x0001b210:    f8a5c002    ....    STRH     r12,[r5,#2]
        0x0001b214:    681b        .h      LDR      r3,[r3,#0]
        0x0001b216:    f8d3c000    ....    LDR      r12,[r3,#0]
        0x0001b21a:    f1bc0f00    ....    CMP      r12,#0
        0x0001b21e:    d1e5        ..      BNE      0x1b1ec ; core_list_init + 200
        0x0001b220:    e8bd0ff0    ....    POP      {r4-r11}
        0x0001b224:    2200        ."      MOVS     r2,#0
        0x0001b226:    4902        .I      LDR      r1,[pc,#8] ; [0x1b230] = 0x1aca5
        0x0001b228:    f000b804    ....    B.W      core_list_mergesort ; 0x1b234
    $d
        0x0001b22c:    cccccccd    ....    DCD    3435973837
        0x0001b230:    0001aca5    ....    DCD    109733
    $t
    i.core_list_mergesort
    core_list_mergesort
        0x0001b234:    e92d4ff7    -..O    PUSH     {r0-r2,r4-r11,lr}
        0x0001b238:    4682        .F      MOV      r10,r0
        0x0001b23a:    f04f0901    O...    MOV      r9,#1
        0x0001b23e:    bf00        ..      NOP      
        0x0001b240:    ea5f050a    _...    MOVS     r5,r10
        0x0001b244:    f04f0a00    O...    MOV      r10,#0
        0x0001b248:    4657        WF      MOV      r7,r10
        0x0001b24a:    46d3        .F      MOV      r11,r10
        0x0001b24c:    d03f        ?.      BEQ      0x1b2ce ; core_list_mergesort + 154
        0x0001b24e:    2600        .&      MOVS     r6,#0
        0x0001b250:    462c        ,F      MOV      r4,r5
        0x0001b252:    4630        0F      MOV      r0,r6
        0x0001b254:    f10b0b01    ....    ADD      r11,r11,#1
        0x0001b258:    f1b90f00    ....    CMP      r9,#0
        0x0001b25c:    bfd8        ..      IT       LE
        0x0001b25e:    46c8        .F      MOVLE    r8,r9
        0x0001b260:    dd24        $.      BLE      0x1b2ac ; core_list_mergesort + 120
        0x0001b262:    6824        $h      LDR      r4,[r4,#0]
        0x0001b264:    1c76        v.      ADDS     r6,r6,#1
        0x0001b266:    2c00        .,      CMP      r4,#0
        0x0001b268:    bf1c        ..      ITT      NE
        0x0001b26a:    1c40        @.      ADDNE    r0,r0,#1
        0x0001b26c:    4548        HE      CMPNE    r0,r9
        0x0001b26e:    dbf8        ..      BLT      0x1b262 ; core_list_mergesort + 46
        0x0001b270:    46c8        .F      MOV      r8,r9
        0x0001b272:    2e00        ..      CMP      r6,#0
        0x0001b274:    dd1a        ..      BLE      0x1b2ac ; core_list_mergesort + 120
        0x0001b276:    b17e        ~.      CBZ      r6,0x1b298 ; core_list_mergesort + 100
        0x0001b278:    f1b80f00    ....    CMP      r8,#0
        0x0001b27c:    bf18        ..      IT       NE
        0x0001b27e:    2c00        .,      CMPNE    r4,#0
        0x0001b280:    d006        ..      BEQ      0x1b290 ; core_list_mergesort + 92
        0x0001b282:    e9dd3201    ...2    LDRD     r3,r2,[sp,#4]
        0x0001b286:    6861        ah      LDR      r1,[r4,#4]
        0x0001b288:    6868        hh      LDR      r0,[r5,#4]
        0x0001b28a:    4798        .G      BLX      r3
        0x0001b28c:    2800        .(      CMP      r0,#0
        0x0001b28e:    dc03        ..      BGT      0x1b298 ; core_list_mergesort + 100
        0x0001b290:    4628        (F      MOV      r0,r5
        0x0001b292:    682d        -h      LDR      r5,[r5,#0]
        0x0001b294:    1e76        v.      SUBS     r6,r6,#1
        0x0001b296:    e003        ..      B        0x1b2a0 ; core_list_mergesort + 108
        0x0001b298:    4620         F      MOV      r0,r4
        0x0001b29a:    6824        $h      LDR      r4,[r4,#0]
        0x0001b29c:    f1a80801    ....    SUB      r8,r8,#1
        0x0001b2a0:    2f00        ./      CMP      r7,#0
        0x0001b2a2:    bf14        ..      ITE      NE
        0x0001b2a4:    6038        8`      STRNE    r0,[r7,#0]
        0x0001b2a6:    4682        .F      MOVEQ    r10,r0
        0x0001b2a8:    4607        .F      MOV      r7,r0
        0x0001b2aa:    e7e2        ..      B        0x1b272 ; core_list_mergesort + 62
        0x0001b2ac:    f1b80f00    ....    CMP      r8,#0
        0x0001b2b0:    dd02        ..      BLE      0x1b2b8 ; core_list_mergesort + 132
        0x0001b2b2:    2c00        .,      CMP      r4,#0
        0x0001b2b4:    d1df        ..      BNE      0x1b276 ; core_list_mergesort + 66
        0x0001b2b6:    e001        ..      B        0x1b2bc ; core_list_mergesort + 136
        0x0001b2b8:    0025        %.      MOVS     r5,r4
        0x0001b2ba:    d1c8        ..      BNE      0x1b24e ; core_list_mergesort + 26
        0x0001b2bc:    2000        .       MOVS     r0,#0
        0x0001b2be:    6038        8`      STR      r0,[r7,#0]
        0x0001b2c0:    f1bb0f01    ....    CMP      r11,#1
        0x0001b2c4:    bfc8        ..      IT       GT
        0x0001b2c6:    ea4f0949    O.I.    LSLGT    r9,r9,#1
        0x0001b2ca:    dcb9        ..      BGT      0x1b240 ; core_list_mergesort + 12
        0x0001b2cc:    e001        ..      B        0x1b2d2 ; core_list_mergesort + 158
        0x0001b2ce:    2000        .       MOVS     r0,#0
        0x0001b2d0:    6000        .`      STR      r0,[r0,#0]
        0x0001b2d2:    b003        ..      ADD      sp,sp,#0xc
        0x0001b2d4:    4650        PF      MOV      r0,r10
        0x0001b2d6:    e8bd8ff0    ....    POP      {r4-r11,pc}
    i.core_state_transition
    core_state_transition
        0x0001b2da:    6803        .h      LDR      r3,[r0,#0]
        0x0001b2dc:    4684        .F      MOV      r12,r0
        0x0001b2de:    2000        .       MOVS     r0,#0
        0x0001b2e0:    781a        .x      LDRB     r2,[r3,#0]
        0x0001b2e2:    2a00        .*      CMP      r2,#0
        0x0001b2e4:    f00080ca    ....    BEQ.W    0x1b47c ; core_state_transition + 418
        0x0001b2e8:    2a2c        ,*      CMP      r2,#0x2c
        0x0001b2ea:    d05b        [.      BEQ      0x1b3a4 ; core_state_transition + 202
        0x0001b2ec:    f1a20030    ..0.    SUB      r0,r2,#0x30
        0x0001b2f0:    2809        .(      CMP      r0,#9
        0x0001b2f2:    d833        3.      BHI      0x1b35c ; core_state_transition + 130
        0x0001b2f4:    680a        .h      LDR      r2,[r1,#0]
        0x0001b2f6:    2004        .       MOVS     r0,#4
        0x0001b2f8:    1c52        R.      ADDS     r2,r2,#1
        0x0001b2fa:    600a        .`      STR      r2,[r1,#0]
        0x0001b2fc:    f8132f01    .../    LDRB     r2,[r3,#1]!
        0x0001b300:    2a00        .*      CMP      r2,#0
        0x0001b302:    d076        v.      BEQ      0x1b3f2 ; core_state_transition + 280
        0x0001b304:    2a2c        ,*      CMP      r2,#0x2c
        0x0001b306:    d07b        {.      BEQ      0x1b400 ; core_state_transition + 294
        0x0001b308:    e05e        ^.      B        0x1b3c8 ; core_state_transition + 238
        0x0001b30a:    f1a20030    ..0.    SUB      r0,r2,#0x30
        0x0001b30e:    2809        .(      CMP      r0,#9
        0x0001b310:    d870        p.      BHI      0x1b3f4 ; core_state_transition + 282
        0x0001b312:    698a        .i      LDR      r2,[r1,#0x18]
        0x0001b314:    2007        .       MOVS     r0,#7
        0x0001b316:    1c52        R.      ADDS     r2,r2,#1
        0x0001b318:    618a        .a      STR      r2,[r1,#0x18]
        0x0001b31a:    f8132f01    .../    LDRB     r2,[r3,#1]!
        0x0001b31e:    2a00        .*      CMP      r2,#0
        0x0001b320:    d067        g.      BEQ      0x1b3f2 ; core_state_transition + 280
        0x0001b322:    2a2c        ,*      CMP      r2,#0x2c
        0x0001b324:    d167        g.      BNE      0x1b3f6 ; core_state_transition + 284
        0x0001b326:    e06b        k.      B        0x1b400 ; core_state_transition + 294
        0x0001b328:    2a2b        +*      CMP      r2,#0x2b
        0x0001b32a:    bf18        ..      IT       NE
        0x0001b32c:    2a2d        -*      CMPNE    r2,#0x2d
        0x0001b32e:    d077        w.      BEQ      0x1b420 ; core_state_transition + 326
        0x0001b330:    68ca        .h      LDR      r2,[r1,#0xc]
        0x0001b332:    f04f0001    O...    MOV      r0,#1
        0x0001b336:    f1020201    ....    ADD      r2,r2,#1
        0x0001b33a:    60ca        .`      STR      r2,[r1,#0xc]
        0x0001b33c:    e060        `.      B        0x1b400 ; core_state_transition + 294
        0x0001b33e:    f1a20030    ..0.    SUB      r0,r2,#0x30
        0x0001b342:    2809        .(      CMP      r0,#9
        0x0001b344:    d82f        /.      BHI      0x1b3a6 ; core_state_transition + 204
        0x0001b346:    688a        .h      LDR      r2,[r1,#8]
        0x0001b348:    2004        .       MOVS     r0,#4
        0x0001b34a:    1c52        R.      ADDS     r2,r2,#1
        0x0001b34c:    608a        .`      STR      r2,[r1,#8]
        0x0001b34e:    f8132f01    .../    LDRB     r2,[r3,#1]!
        0x0001b352:    2a00        .*      CMP      r2,#0
        0x0001b354:    d04d        M.      BEQ      0x1b3f2 ; core_state_transition + 280
        0x0001b356:    2a2c        ,*      CMP      r2,#0x2c
        0x0001b358:    d052        R.      BEQ      0x1b400 ; core_state_transition + 294
        0x0001b35a:    e035        5.      B        0x1b3c8 ; core_state_transition + 238
        0x0001b35c:    2a2b        +*      CMP      r2,#0x2b
        0x0001b35e:    bf18        ..      IT       NE
        0x0001b360:    2a2d        -*      CMPNE    r2,#0x2d
        0x0001b362:    d00a        ..      BEQ      0x1b37a ; core_state_transition + 160
        0x0001b364:    2a2e        .*      CMP      r2,#0x2e
        0x0001b366:    d013        ..      BEQ      0x1b390 ; core_state_transition + 182
        0x0001b368:    684a        Jh      LDR      r2,[r1,#4]
        0x0001b36a:    2001        .       MOVS     r0,#1
        0x0001b36c:    1c52        R.      ADDS     r2,r2,#1
        0x0001b36e:    604a        J`      STR      r2,[r1,#4]
        0x0001b370:    680a        .h      LDR      r2,[r1,#0]
        0x0001b372:    1c52        R.      ADDS     r2,r2,#1
        0x0001b374:    1c5b        [.      ADDS     r3,r3,#1
        0x0001b376:    600a        .`      STR      r2,[r1,#0]
        0x0001b378:    e080        ..      B        0x1b47c ; core_state_transition + 418
        0x0001b37a:    680a        .h      LDR      r2,[r1,#0]
        0x0001b37c:    2002        .       MOVS     r0,#2
        0x0001b37e:    1c52        R.      ADDS     r2,r2,#1
        0x0001b380:    600a        .`      STR      r2,[r1,#0]
        0x0001b382:    f8132f01    .../    LDRB     r2,[r3,#1]!
        0x0001b386:    2a00        .*      CMP      r2,#0
        0x0001b388:    d078        x.      BEQ      0x1b47c ; core_state_transition + 418
        0x0001b38a:    2a2c        ,*      CMP      r2,#0x2c
        0x0001b38c:    d038        8.      BEQ      0x1b400 ; core_state_transition + 294
        0x0001b38e:    e7d6        ..      B        0x1b33e ; core_state_transition + 100
        0x0001b390:    680a        .h      LDR      r2,[r1,#0]
        0x0001b392:    2005        .       MOVS     r0,#5
        0x0001b394:    1c52        R.      ADDS     r2,r2,#1
        0x0001b396:    600a        .`      STR      r2,[r1,#0]
        0x0001b398:    f8132f01    .../    LDRB     r2,[r3,#1]!
        0x0001b39c:    2a00        .*      CMP      r2,#0
        0x0001b39e:    d06d        m.      BEQ      0x1b47c ; core_state_transition + 418
        0x0001b3a0:    2a2c        ,*      CMP      r2,#0x2c
        0x0001b3a2:    d12f        /.      BNE      0x1b404 ; core_state_transition + 298
        0x0001b3a4:    e02c        ,.      B        0x1b400 ; core_state_transition + 294
        0x0001b3a6:    2a2e        .*      CMP      r2,#0x2e
        0x0001b3a8:    d004        ..      BEQ      0x1b3b4 ; core_state_transition + 218
        0x0001b3aa:    688a        .h      LDR      r2,[r1,#8]
        0x0001b3ac:    2001        .       MOVS     r0,#1
        0x0001b3ae:    1c52        R.      ADDS     r2,r2,#1
        0x0001b3b0:    608a        .`      STR      r2,[r1,#8]
        0x0001b3b2:    e025        %.      B        0x1b400 ; core_state_transition + 294
        0x0001b3b4:    688a        .h      LDR      r2,[r1,#8]
        0x0001b3b6:    2005        .       MOVS     r0,#5
        0x0001b3b8:    1c52        R.      ADDS     r2,r2,#1
        0x0001b3ba:    608a        .`      STR      r2,[r1,#8]
        0x0001b3bc:    f8132f01    .../    LDRB     r2,[r3,#1]!
        0x0001b3c0:    b1ba        ..      CBZ      r2,0x1b3f2 ; core_state_transition + 280
        0x0001b3c2:    2a2c        ,*      CMP      r2,#0x2c
        0x0001b3c4:    d11e        ..      BNE      0x1b404 ; core_state_transition + 298
        0x0001b3c6:    e01b        ..      B        0x1b400 ; core_state_transition + 294
        0x0001b3c8:    2a2e        .*      CMP      r2,#0x2e
        0x0001b3ca:    d008        ..      BEQ      0x1b3de ; core_state_transition + 260
        0x0001b3cc:    3a30        0:      SUBS     r2,r2,#0x30
        0x0001b3ce:    2a09        .*      CMP      r2,#9
        0x0001b3d0:    d812        ..      BHI      0x1b3f8 ; core_state_transition + 286
        0x0001b3d2:    f8132f01    .../    LDRB     r2,[r3,#1]!
        0x0001b3d6:    b162        b.      CBZ      r2,0x1b3f2 ; core_state_transition + 280
        0x0001b3d8:    2a2c        ,*      CMP      r2,#0x2c
        0x0001b3da:    d1f5        ..      BNE      0x1b3c8 ; core_state_transition + 238
        0x0001b3dc:    e010        ..      B        0x1b400 ; core_state_transition + 294
        0x0001b3de:    690a        .i      LDR      r2,[r1,#0x10]
        0x0001b3e0:    2005        .       MOVS     r0,#5
        0x0001b3e2:    1c52        R.      ADDS     r2,r2,#1
        0x0001b3e4:    610a        .a      STR      r2,[r1,#0x10]
        0x0001b3e6:    f8132f01    .../    LDRB     r2,[r3,#1]!
        0x0001b3ea:    b112        ..      CBZ      r2,0x1b3f2 ; core_state_transition + 280
        0x0001b3ec:    2a2c        ,*      CMP      r2,#0x2c
        0x0001b3ee:    d109        ..      BNE      0x1b404 ; core_state_transition + 298
        0x0001b3f0:    e006        ..      B        0x1b400 ; core_state_transition + 294
        0x0001b3f2:    e042        B.      B        0x1b47a ; core_state_transition + 416
        0x0001b3f4:    e02e        ..      B        0x1b454 ; core_state_transition + 378
        0x0001b3f6:    e032        2.      B        0x1b45e ; core_state_transition + 388
        0x0001b3f8:    690a        .i      LDR      r2,[r1,#0x10]
        0x0001b3fa:    2001        .       MOVS     r0,#1
        0x0001b3fc:    1c52        R.      ADDS     r2,r2,#1
        0x0001b3fe:    610a        .a      STR      r2,[r1,#0x10]
        0x0001b400:    1c5b        [.      ADDS     r3,r3,#1
        0x0001b402:    e03b        ;.      B        0x1b47c ; core_state_transition + 418
        0x0001b404:    2a45        E*      CMP      r2,#0x45
        0x0001b406:    bf18        ..      IT       NE
        0x0001b408:    2a65        e*      CMPNE    r2,#0x65
        0x0001b40a:    d00a        ..      BEQ      0x1b422 ; core_state_transition + 328
        0x0001b40c:    f1a20230    ..0.    SUB      r2,r2,#0x30
        0x0001b410:    2a09        .*      CMP      r2,#9
        0x0001b412:    d810        ..      BHI      0x1b436 ; core_state_transition + 348
        0x0001b414:    f8132f01    .../    LDRB     r2,[r3,#1]!
        0x0001b418:    b37a        z.      CBZ      r2,0x1b47a ; core_state_transition + 416
        0x0001b41a:    2a2c        ,*      CMP      r2,#0x2c
        0x0001b41c:    d1f2        ..      BNE      0x1b404 ; core_state_transition + 298
        0x0001b41e:    e7ef        ..      B        0x1b400 ; core_state_transition + 294
        0x0001b420:    e00e        ..      B        0x1b440 ; core_state_transition + 358
        0x0001b422:    694a        Ji      LDR      r2,[r1,#0x14]
        0x0001b424:    2003        .       MOVS     r0,#3
        0x0001b426:    1c52        R.      ADDS     r2,r2,#1
        0x0001b428:    614a        Ja      STR      r2,[r1,#0x14]
        0x0001b42a:    f8132f01    .../    LDRB     r2,[r3,#1]!
        0x0001b42e:    b322        ".      CBZ      r2,0x1b47a ; core_state_transition + 416
        0x0001b430:    2a2c        ,*      CMP      r2,#0x2c
        0x0001b432:    d0e5        ..      BEQ      0x1b400 ; core_state_transition + 294
        0x0001b434:    e778        x.      B        0x1b328 ; core_state_transition + 78
        0x0001b436:    694a        Ji      LDR      r2,[r1,#0x14]
        0x0001b438:    2001        .       MOVS     r0,#1
        0x0001b43a:    1c52        R.      ADDS     r2,r2,#1
        0x0001b43c:    614a        Ja      STR      r2,[r1,#0x14]
        0x0001b43e:    e7df        ..      B        0x1b400 ; core_state_transition + 294
        0x0001b440:    68ca        .h      LDR      r2,[r1,#0xc]
        0x0001b442:    2006        .       MOVS     r0,#6
        0x0001b444:    1c52        R.      ADDS     r2,r2,#1
        0x0001b446:    60ca        .`      STR      r2,[r1,#0xc]
        0x0001b448:    f8132f01    .../    LDRB     r2,[r3,#1]!
        0x0001b44c:    b1aa        ..      CBZ      r2,0x1b47a ; core_state_transition + 416
        0x0001b44e:    2a2c        ,*      CMP      r2,#0x2c
        0x0001b450:    d0d6        ..      BEQ      0x1b400 ; core_state_transition + 294
        0x0001b452:    e75a        Z.      B        0x1b30a ; core_state_transition + 48
        0x0001b454:    698a        .i      LDR      r2,[r1,#0x18]
        0x0001b456:    2001        .       MOVS     r0,#1
        0x0001b458:    1c52        R.      ADDS     r2,r2,#1
        0x0001b45a:    618a        .a      STR      r2,[r1,#0x18]
        0x0001b45c:    e7d0        ..      B        0x1b400 ; core_state_transition + 294
        0x0001b45e:    3a30        0:      SUBS     r2,r2,#0x30
        0x0001b460:    2a09        .*      CMP      r2,#9
        0x0001b462:    d805        ..      BHI      0x1b470 ; core_state_transition + 406
        0x0001b464:    f8132f01    .../    LDRB     r2,[r3,#1]!
        0x0001b468:    b13a        :.      CBZ      r2,0x1b47a ; core_state_transition + 416
        0x0001b46a:    2a2c        ,*      CMP      r2,#0x2c
        0x0001b46c:    d1f7        ..      BNE      0x1b45e ; core_state_transition + 388
        0x0001b46e:    e7c7        ..      B        0x1b400 ; core_state_transition + 294
        0x0001b470:    684a        Jh      LDR      r2,[r1,#4]
        0x0001b472:    2001        .       MOVS     r0,#1
        0x0001b474:    1c52        R.      ADDS     r2,r2,#1
        0x0001b476:    604a        J`      STR      r2,[r1,#4]
        0x0001b478:    e7c2        ..      B        0x1b400 ; core_state_transition + 294
        0x0001b47a:    e7ff        ..      B        0x1b47c ; core_state_transition + 418
        0x0001b47c:    f8cc3000    ...0    STR      r3,[r12,#0]
        0x0001b480:    4770        pG      BX       lr
        0x0001b482:    0000        ..      MOVS     r0,r0
    i.crc16
    crc16
        0x0001b484:    fa1ffc80    ....    UXTH     r12,r0
        0x0001b488:    f00c00ff    ....    AND      r0,r12,#0xff
        0x0001b48c:    f05f0208    _...    MOVS.W   r2,#8
        0x0001b490:    ea800301    ....    EOR      r3,r0,r1
        0x0001b494:    f0130f01    ....    TST      r3,#1
        0x0001b498:    ea4f0050    O.P.    LSR      r0,r0,#1
        0x0001b49c:    bf1a        ..      ITTE     NE
        0x0001b49e:    f24a0301    J...    MOVNE    r3,#0xa001
        0x0001b4a2:    ea830151    ..Q.    EORNE    r1,r3,r1,LSR #1
        0x0001b4a6:    0849        I.      LSREQ    r1,r1,#1
        0x0001b4a8:    1e52        R.      SUBS     r2,r2,#1
        0x0001b4aa:    d1f1        ..      BNE      0x1b490 ; crc16 + 12
        0x0001b4ac:    4608        .F      MOV      r0,r1
        0x0001b4ae:    ea4f221c    O.."    LSR      r2,r12,#8
        0x0001b4b2:    2108        .!      MOVS     r1,#8
        0x0001b4b4:    f24a0c01    J...    MOV      r12,#0xa001
        0x0001b4b8:    ea820300    ....    EOR      r3,r2,r0
        0x0001b4bc:    f0130f01    ....    TST      r3,#1
        0x0001b4c0:    ea4f0252    O.R.    LSR      r2,r2,#1
        0x0001b4c4:    bf14        ..      ITE      NE
        0x0001b4c6:    ea8c0050    ..P.    EORNE    r0,r12,r0,LSR #1
        0x0001b4ca:    0840        @.      LSREQ    r0,r0,#1
        0x0001b4cc:    1e49        I.      SUBS     r1,r1,#1
        0x0001b4ce:    d1f3        ..      BNE      0x1b4b8 ; crc16 + 52
        0x0001b4d0:    4770        pG      BX       lr
        0x0001b4d2:    0000        ..      MOVS     r0,r0
    i.crcu16
    crcu16
        0x0001b4d4:    4603        .F      MOV      r3,r0
        0x0001b4d6:    b2c0        ..      UXTB     r0,r0
        0x0001b4d8:    f05f0208    _...    MOVS.W   r2,#8
        0x0001b4dc:    ea800c01    ....    EOR      r12,r0,r1
        0x0001b4e0:    f01c0f01    ....    TST      r12,#1
        0x0001b4e4:    ea4f0050    O.P.    LSR      r0,r0,#1
        0x0001b4e8:    bf1a        ..      ITTE     NE
        0x0001b4ea:    f24a0c01    J...    MOVNE    r12,#0xa001
        0x0001b4ee:    ea8c0151    ..Q.    EORNE    r1,r12,r1,LSR #1
        0x0001b4f2:    0849        I.      LSREQ    r1,r1,#1
        0x0001b4f4:    1e52        R.      SUBS     r2,r2,#1
        0x0001b4f6:    d1f1        ..      BNE      0x1b4dc ; crcu16 + 8
        0x0001b4f8:    4608        .F      MOV      r0,r1
        0x0001b4fa:    0a1a        ..      LSRS     r2,r3,#8
        0x0001b4fc:    2108        .!      MOVS     r1,#8
        0x0001b4fe:    f24a0c01    J...    MOV      r12,#0xa001
        0x0001b502:    bf00        ..      NOP      
        0x0001b504:    ea820300    ....    EOR      r3,r2,r0
        0x0001b508:    f0130f01    ....    TST      r3,#1
        0x0001b50c:    ea4f0252    O.R.    LSR      r2,r2,#1
        0x0001b510:    bf14        ..      ITE      NE
        0x0001b512:    ea8c0050    ..P.    EORNE    r0,r12,r0,LSR #1
        0x0001b516:    0840        @.      LSREQ    r0,r0,#1
        0x0001b518:    1e49        I.      SUBS     r1,r1,#1
        0x0001b51a:    d1f3        ..      BNE      0x1b504 ; crcu16 + 48
        0x0001b51c:    4770        pG      BX       lr
    i.crcu32
    crcu32
        0x0001b51e:    b510        ..      PUSH     {r4,lr}
        0x0001b520:    4604        .F      MOV      r4,r0
        0x0001b522:    b200        ..      SXTH     r0,r0
        0x0001b524:    f7ffffae    ....    BL       crc16 ; 0x1b484
        0x0001b528:    1422        ".      ASRS     r2,r4,#16
        0x0001b52a:    4601        .F      MOV      r1,r0
        0x0001b52c:    e8bd4010    ...@    POP      {r4,lr}
        0x0001b530:    4610        .F      MOV      r0,r2
        0x0001b532:    f7ffbfa7    ....    B.W      crc16 ; 0x1b484
        0x0001b536:    0000        ..      MOVS     r0,r0
    i.get_seed_32
    get_seed_32
        0x0001b538:    2806        .(      CMP      r0,#6
        0x0001b53a:    d210        ..      BCS      0x1b55e ; get_seed_32 + 38
        0x0001b53c:    e8dff000    ....    TBB      [pc,r0]
    $d
        0x0001b540:    0806030f    ....    DCD    134611727
        0x0001b544:    0d0b        ..      DCW    3339
    $t
        0x0001b546:    4807        .H      LDR      r0,[pc,#28] ; [0x1b564] = 0x10000024
        0x0001b548:    6800        .h      LDR      r0,[r0,#0]
        0x0001b54a:    4770        pG      BX       lr
        0x0001b54c:    4806        .H      LDR      r0,[pc,#24] ; [0x1b568] = 0x10000028
        0x0001b54e:    e000        ..      B        0x1b552 ; get_seed_32 + 26
        0x0001b550:    4806        .H      LDR      r0,[pc,#24] ; [0x1b56c] = 0x1000002c
        0x0001b552:    6800        .h      LDR      r0,[r0,#0]
        0x0001b554:    4770        pG      BX       lr
        0x0001b556:    4806        .H      LDR      r0,[pc,#24] ; [0x1b570] = 0x10000030
        0x0001b558:    e7fb        ..      B        0x1b552 ; get_seed_32 + 26
        0x0001b55a:    4806        .H      LDR      r0,[pc,#24] ; [0x1b574] = 0x10000034
        0x0001b55c:    e7f9        ..      B        0x1b552 ; get_seed_32 + 26
        0x0001b55e:    2000        .       MOVS     r0,#0
        0x0001b560:    4770        pG      BX       lr
    $d
        0x0001b562:    0000        ..      DCW    0
        0x0001b564:    10000024    $...    DCD    268435492
        0x0001b568:    10000028    (...    DCD    268435496
        0x0001b56c:    1000002c    ,...    DCD    268435500
        0x0001b570:    10000030    0...    DCD    268435504
        0x0001b574:    10000034    4...    DCD    268435508
    $t
    i.get_time
    get_time
        0x0001b578:    4802        .H      LDR      r0,[pc,#8] ; [0x1b584] = 0x10000038
        0x0001b57a:    6901        .i      LDR      r1,[r0,#0x10]
        0x0001b57c:    6880        .h      LDR      r0,[r0,#8]
        0x0001b57e:    1a08        ..      SUBS     r0,r1,r0
        0x0001b580:    4770        pG      BX       lr
    $d
        0x0001b582:    0000        ..      DCW    0
        0x0001b584:    10000038    8...    DCD    268435512
    $t
    i.internal_timer_config
    internal_timer_config
        0x0001b588:    4a36        6J      LDR      r2,[pc,#216] ; [0x1b664] = 0x40020000
        0x0001b58a:    68d3        .h      LDR      r3,[r2,#0xc]
        0x0001b58c:    b2db        ..      UXTB     r3,r3
        0x0001b58e:    2b21        !+      CMP      r3,#0x21
        0x0001b590:    d01c        ..      BEQ      0x1b5cc ; internal_timer_config + 68
        0x0001b592:    68d2        .h      LDR      r2,[r2,#0xc]
        0x0001b594:    b2d2        ..      UXTB     r2,r2
        0x0001b596:    2a22        "*      CMP      r2,#0x22
        0x0001b598:    bf3c        <.      ITT      CC
        0x0001b59a:    2001        .       MOVCC    r0,#1
        0x0001b59c:    4770        pG      BXCC     lr
        0x0001b59e:    2801        .(      CMP      r0,#1
        0x0001b5a0:    bf18        ..      IT       NE
        0x0001b5a2:    2803        .(      CMPNE    r0,#3
        0x0001b5a4:    d054        T.      BEQ      0x1b650 ; internal_timer_config + 200
        0x0001b5a6:    280a        .(      CMP      r0,#0xa
        0x0001b5a8:    bf18        ..      IT       NE
        0x0001b5aa:    280b        .(      CMPNE    r0,#0xb
        0x0001b5ac:    d050        P.      BEQ      0x1b650 ; internal_timer_config + 200
        0x0001b5ae:    280c        .(      CMP      r0,#0xc
        0x0001b5b0:    bf1c        ..      ITT      NE
        0x0001b5b2:    280e        .(      CMPNE    r0,#0xe
        0x0001b5b4:    280f        .(      CMPNE    r0,#0xf
        0x0001b5b6:    d04b        K.      BEQ      0x1b650 ; internal_timer_config + 200
        0x0001b5b8:    2805        .(      CMP      r0,#5
        0x0001b5ba:    bf18        ..      IT       NE
        0x0001b5bc:    2807        .(      CMPNE    r0,#7
        0x0001b5be:    d04a        J.      BEQ      0x1b656 ; internal_timer_config + 206
        0x0001b5c0:    2808        .(      CMP      r0,#8
        0x0001b5c2:    bf1c        ..      ITT      NE
        0x0001b5c4:    2809        .(      CMPNE    r0,#9
        0x0001b5c6:    280d        .(      CMPNE    r0,#0xd
        0x0001b5c8:    d045        E.      BEQ      0x1b656 ; internal_timer_config + 206
        0x0001b5ca:    e049        I.      B        0x1b660 ; internal_timer_config + 216
        0x0001b5cc:    784b        Kx      LDRB     r3,[r1,#1]
        0x0001b5ce:    780a        .x      LDRB     r2,[r1,#0]
        0x0001b5d0:    f04f0cf0    O...    MOV      r12,#0xf0
        0x0001b5d4:    ea0c1303    ....    AND      r3,r12,r3,LSL #4
        0x0001b5d8:    ea432202    C.."    ORR      r2,r3,r2,LSL #8
        0x0001b5dc:    78cb        .x      LDRB     r3,[r1,#3]
        0x0001b5de:    f04f0c08    O...    MOV      r12,#8
        0x0001b5e2:    ea0c03c3    ....    AND      r3,r12,r3,LSL #3
        0x0001b5e6:    ea430202    C...    ORR      r2,r3,r2
        0x0001b5ea:    788b        .x      LDRB     r3,[r1,#2]
        0x0001b5ec:    f04f0c04    O...    MOV      r12,#4
        0x0001b5f0:    ea0c0383    ....    AND      r3,r12,r3,LSL #2
        0x0001b5f4:    ea430202    C...    ORR      r2,r3,r2
        0x0001b5f8:    790b        .y      LDRB     r3,[r1,#4]
        0x0001b5fa:    f44f3c40    O.@<    MOV      r12,#0x30000
        0x0001b5fe:    ea0c4303    ...C    AND      r3,r12,r3,LSL #16
        0x0001b602:    ea430202    C...    ORR      r2,r3,r2
        0x0001b606:    7a0b        .z      LDRB     r3,[r1,#8]
        0x0001b608:    ea4f1040    O.@.    LSL      r0,r0,#5
        0x0001b60c:    f1004080    ...@    ADD      r0,r0,#0x40000000
        0x0001b610:    ea426303    B..c    ORR      r3,r2,r3,LSL #24
        0x0001b614:    f5004000    ...@    ADD      r0,r0,#0x8000
        0x0001b618:    794a        Jy      LDRB     r2,[r1,#5]
        0x0001b61a:    f8d0c200    ....    LDR      r12,[r0,#0x200]
        0x0001b61e:    ea4f2202    O.."    LSL      r2,r2,#8
        0x0001b622:    f02c0c01    ,...    BIC      r12,r12,#1
        0x0001b626:    f8c0c200    ....    STR      r12,[r0,#0x200]
        0x0001b62a:    f8c03200    ...2    STR      r3,[r0,#0x200]
        0x0001b62e:    f8c02210    ..."    STR      r2,[r0,#0x210]
        0x0001b632:    68ca        .h      LDR      r2,[r1,#0xc]
        0x0001b634:    f8c02208    ..."    STR      r2,[r0,#0x208]
        0x0001b638:    6909        .i      LDR      r1,[r1,#0x10]
        0x0001b63a:    f8c0120c    ....    STR      r1,[r0,#0x20c]
        0x0001b63e:    f8d01200    ....    LDR      r1,[r0,#0x200]
        0x0001b642:    f0410102    A...    ORR      r1,r1,#2
        0x0001b646:    f8c01200    ....    STR      r1,[r0,#0x200]
        0x0001b64a:    f04f0000    O...    MOV      r0,#0
        0x0001b64e:    4770        pG      BX       lr
        0x0001b650:    f04f0006    O...    MOV      r0,#6
        0x0001b654:    4770        pG      BX       lr
        0x0001b656:    790a        .y      LDRB     r2,[r1,#4]
        0x0001b658:    2a00        .*      CMP      r2,#0
        0x0001b65a:    bf1c        ..      ITT      NE
        0x0001b65c:    2007        .       MOVNE    r0,#7
        0x0001b65e:    4770        pG      BXNE     lr
        0x0001b660:    f001b8c2    ....    B.W      timer_config_b1 ; 0x1c7e8
    $d
        0x0001b664:    40020000    ...@    DCD    1073872896
    $t
    i.main
    main
        0x0001b668:    e92d4ff0    -..O    PUSH     {r4-r11,lr}
        0x0001b66c:    f04f0a00    O...    MOV      r10,#0
        0x0001b670:    ed2d8b06    -...    VPUSH    {d8-d10}
        0x0001b674:    f6ad0d2c    ..,.    SUB      sp,sp,#0x82c
        0x0001b678:    f60d0224    ..$.    ADD      r2,sp,#0x824
        0x0001b67c:    4655        UF      MOV      r5,r10
        0x0001b67e:    4654        TF      MOV      r4,r10
        0x0001b680:    f04f38ff    O..8    MOV      r8,#0xffffffff
        0x0001b684:    46d1        .F      MOV      r9,r10
        0x0001b686:    1f11        ..      SUBS     r1,r2,#4
        0x0001b688:    af02        ..      ADD      r7,sp,#8
        0x0001b68a:    f10d004a    ..J.    ADD      r0,sp,#0x4a
        0x0001b68e:    f8cda820    .. .    STR      r10,[sp,#0x820]
        0x0001b692:    f000ffc7    ....    BL       portable_init ; 0x1c624
        0x0001b696:    2001        .       MOVS     r0,#1
        0x0001b698:    f7ffff4e    ..N.    BL       get_seed_32 ; 0x1b538
        0x0001b69c:    f8ad0008    ....    STRH     r0,[sp,#8]
        0x0001b6a0:    2002        .       MOVS     r0,#2
        0x0001b6a2:    f7ffff49    ..I.    BL       get_seed_32 ; 0x1b538
        0x0001b6a6:    f8ad000a    ....    STRH     r0,[sp,#0xa]
        0x0001b6aa:    2003        .       MOVS     r0,#3
        0x0001b6ac:    f7ffff44    ..D.    BL       get_seed_32 ; 0x1b538
        0x0001b6b0:    f8ad000c    ....    STRH     r0,[sp,#0xc]
        0x0001b6b4:    2004        .       MOVS     r0,#4
        0x0001b6b6:    f7ffff3f    ..?.    BL       get_seed_32 ; 0x1b538
        0x0001b6ba:    0040        @.      LSLS     r0,r0,#1
        0x0001b6bc:    9009        ..      STR      r0,[sp,#0x24]
        0x0001b6be:    2005        .       MOVS     r0,#5
        0x0001b6c0:    f7ffff3a    ..:.    BL       get_seed_32 ; 0x1b538
        0x0001b6c4:    900a        ..      STR      r0,[sp,#0x28]
        0x0001b6c6:    2800        .(      CMP      r0,#0
        0x0001b6c8:    bf04        ..      ITT      EQ
        0x0001b6ca:    2007        .       MOVEQ    r0,#7
        0x0001b6cc:    900a        ..      STREQ    r0,[sp,#0x28]
        0x0001b6ce:    f8bd1008    ....    LDRH     r1,[sp,#8]
        0x0001b6d2:    2066        f       MOVS     r0,#0x66
        0x0001b6d4:    2900        .)      CMP      r1,#0
        0x0001b6d6:    bf01        ..      ITTTT    EQ
        0x0001b6d8:    f8bd100a    ....    LDRHEQ   r1,[sp,#0xa]
        0x0001b6dc:    2900        .)      CMPEQ    r1,#0
        0x0001b6de:    f8bd100c    ....    LDRHEQ   r1,[sp,#0xc]
        0x0001b6e2:    2900        .)      CMPEQ    r1,#0
        0x0001b6e4:    d105        ..      BNE      0x1b6f2 ; main + 138
        0x0001b6e6:    f8ada008    ....    STRH     r10,[sp,#8]
        0x0001b6ea:    f8ada00a    ....    STRH     r10,[sp,#0xa]
        0x0001b6ee:    f8ad000c    ....    STRH     r0,[sp,#0xc]
        0x0001b6f2:    f8bd1008    ....    LDRH     r1,[sp,#8]
        0x0001b6f6:    2901        .)      CMP      r1,#1
        0x0001b6f8:    bf01        ..      ITTTT    EQ
        0x0001b6fa:    f8bd100a    ....    LDRHEQ   r1,[sp,#0xa]
        0x0001b6fe:    2900        .)      CMPEQ    r1,#0
        0x0001b700:    f8bd100c    ....    LDRHEQ   r1,[sp,#0xc]
        0x0001b704:    2900        .)      CMPEQ    r1,#0
        0x0001b706:    d107        ..      BNE      0x1b718 ; main + 176
        0x0001b708:    f2434115    C..A    MOV      r1,#0x3415
        0x0001b70c:    f8ad1008    ....    STRH     r1,[sp,#8]
        0x0001b710:    f8ad100a    ....    STRH     r1,[sp,#0xa]
        0x0001b714:    f8ad000c    ....    STRH     r0,[sp,#0xc]
        0x0001b718:    a814        ..      ADD      r0,sp,#0x50
        0x0001b71a:    9004        ..      STR      r0,[sp,#0x10]
        0x0001b71c:    f44f60fa    O..`    MOV      r0,#0x7d0
        0x0001b720:    9008        ..      STR      r0,[sp,#0x20]
        0x0001b722:    f8bd0008    ....    LDRH     r0,[sp,#8]
        0x0001b726:    f8ad0008    ....    STRH     r0,[sp,#8]
        0x0001b72a:    f8bd000a    ....    LDRH     r0,[sp,#0xa]
        0x0001b72e:    f8ad000a    ....    STRH     r0,[sp,#0xa]
        0x0001b732:    f8bd000c    ....    LDRH     r0,[sp,#0xc]
        0x0001b736:    f8ad000c    ....    STRH     r0,[sp,#0xc]
        0x0001b73a:    980a        ..      LDR      r0,[sp,#0x28]
        0x0001b73c:    f8ada048    ..H.    STRH     r10,[sp,#0x48]
        0x0001b740:    f0100f01    ....    TST      r0,#1
        0x0001b744:    f04f0b01    O...    MOV      r11,#1
        0x0001b748:    bf18        ..      IT       NE
        0x0001b74a:    2401        .$      MOVNE    r4,#1
        0x0001b74c:    980a        ..      LDR      r0,[sp,#0x28]
        0x0001b74e:    f0100f02    ....    TST      r0,#2
        0x0001b752:    bf18        ..      IT       NE
        0x0001b754:    1c64        d.      ADDNE    r4,r4,#1
        0x0001b756:    980a        ..      LDR      r0,[sp,#0x28]
        0x0001b758:    f0100f04    ....    TST      r0,#4
        0x0001b75c:    bf18        ..      IT       NE
        0x0001b75e:    1c64        d.      ADDNE    r4,r4,#1
        0x0001b760:    9808        ..      LDR      r0,[sp,#0x20]
        0x0001b762:    fbb0f0f4    ....    UDIV     r0,r0,r4
        0x0001b766:    9008        ..      STR      r0,[sp,#0x20]
        0x0001b768:    980a        ..      LDR      r0,[sp,#0x28]
        0x0001b76a:    f0100f01    ....    TST      r0,#1
        0x0001b76e:    d006        ..      BEQ      0x1b77e ; main + 278
        0x0001b770:    9908        ..      LDR      r1,[sp,#0x20]
        0x0001b772:    9804        ..      LDR      r0,[sp,#0x10]
        0x0001b774:    fb010005    ....    MLA      r0,r1,r5,r0
        0x0001b778:    f04f0501    O...    MOV      r5,#1
        0x0001b77c:    9005        ..      STR      r0,[sp,#0x14]
        0x0001b77e:    980a        ..      LDR      r0,[sp,#0x28]
        0x0001b780:    f0100f02    ....    TST      r0,#2
        0x0001b784:    d006        ..      BEQ      0x1b794 ; main + 300
        0x0001b786:    9908        ..      LDR      r1,[sp,#0x20]
        0x0001b788:    9804        ..      LDR      r0,[sp,#0x10]
        0x0001b78a:    fb010005    ....    MLA      r0,r1,r5,r0
        0x0001b78e:    f1050501    ....    ADD      r5,r5,#1
        0x0001b792:    9006        ..      STR      r0,[sp,#0x18]
        0x0001b794:    980a        ..      LDR      r0,[sp,#0x28]
        0x0001b796:    f0100f04    ....    TST      r0,#4
        0x0001b79a:    d004        ..      BEQ      0x1b7a6 ; main + 318
        0x0001b79c:    9908        ..      LDR      r1,[sp,#0x20]
        0x0001b79e:    9804        ..      LDR      r0,[sp,#0x10]
        0x0001b7a0:    fb010005    ....    MLA      r0,r1,r5,r0
        0x0001b7a4:    9007        ..      STR      r0,[sp,#0x1c]
        0x0001b7a6:    f04f0500    O...    MOV      r5,#0
        0x0001b7aa:    bf00        ..      NOP      
        0x0001b7ac:    eb051605    ....    ADD      r6,r5,r5,LSL #4
        0x0001b7b0:    eb070486    ....    ADD      r4,r7,r6,LSL #2
        0x0001b7b4:    f8940020    .. .    LDRB     r0,[r4,#0x20]
        0x0001b7b8:    f0100f01    ....    TST      r0,#1
        0x0001b7bc:    d006        ..      BEQ      0x1b7cc ; main + 356
        0x0001b7be:    f9372026    7.&     LDRSH    r2,[r7,r6,LSL #2]
        0x0001b7c2:    68e1        .h      LDR      r1,[r4,#0xc]
        0x0001b7c4:    9808        ..      LDR      r0,[sp,#0x20]
        0x0001b7c6:    f7fffcad    ....    BL       core_list_init ; 0x1b124
        0x0001b7ca:    6260        `b      STR      r0,[r4,#0x24]
        0x0001b7cc:    f8940020    .. .    LDRB     r0,[r4,#0x20]
        0x0001b7d0:    f0100f02    ....    TST      r0,#2
        0x0001b7d4:    d00a        ..      BEQ      0x1b7ec ; main + 388
        0x0001b7d6:    f9371026    7.&.    LDRSH    r1,[r7,r6,LSL #2]
        0x0001b7da:    8860        `.      LDRH     r0,[r4,#2]
        0x0001b7dc:    f1040328    ..(.    ADD      r3,r4,#0x28
        0x0001b7e0:    ea414200    A..B    ORR      r2,r1,r0,LSL #16
        0x0001b7e4:    6921        !i      LDR      r1,[r4,#0x10]
        0x0001b7e6:    9808        ..      LDR      r0,[sp,#0x20]
        0x0001b7e8:    f7fffbc2    ....    BL       core_init_matrix ; 0x1af70
        0x0001b7ec:    f8940020    .. .    LDRB     r0,[r4,#0x20]
        0x0001b7f0:    f0100f04    ....    TST      r0,#4
        0x0001b7f4:    d005        ..      BEQ      0x1b802 ; main + 410
        0x0001b7f6:    f9371026    7.&.    LDRSH    r1,[r7,r6,LSL #2]
        0x0001b7fa:    6962        bi      LDR      r2,[r4,#0x14]
        0x0001b7fc:    9808        ..      LDR      r0,[sp,#0x20]
        0x0001b7fe:    f7fffc0b    ....    BL       core_init_state ; 0x1b018
        0x0001b802:    1c68        h.      ADDS     r0,r5,#1
        0x0001b804:    0405        ..      LSLS     r5,r0,#16
        0x0001b806:    0c2d        -.      LSRS     r5,r5,#16
        0x0001b808:    d0d0        ..      BEQ      0x1b7ac ; main + 324
        0x0001b80a:    ed9fabfd    ....    VLDR     d10,[pc,#1012] ; [0x1bc00] = 0
        0x0001b80e:    9809        ..      LDR      r0,[sp,#0x24]
        0x0001b810:    2800        .(      CMP      r0,#0
        0x0001b812:    d152        R.      BNE      0x1b8ba ; main + 594
        0x0001b814:    eeb08a4a    ..J.    VMOV.F32 s16,s20
        0x0001b818:    eef08a6a    ..j.    VMOV.F32 s17,s21
        0x0001b81c:    ed9f9bfa    ....    VLDR     d9,[pc,#1000] ; [0x1bc08] = 0
        0x0001b820:    f8cdb024    ..$.    STR      r11,[sp,#0x24]
        0x0001b824:    e034        4.      B        0x1b890 ; main + 552
        0x0001b826:    9809        ..      LDR      r0,[sp,#0x24]
        0x0001b828:    eb000080    ....    ADD      r0,r0,r0,LSL #2
        0x0001b82c:    0040        @.      LSLS     r0,r0,#1
        0x0001b82e:    9009        ..      STR      r0,[sp,#0x24]
        0x0001b830:    f000ff92    ....    BL       start_time ; 0x1c758
        0x0001b834:    9e09        ..      LDR      r6,[sp,#0x24]
        0x0001b836:    f8ada040    ..@.    STRH     r10,[sp,#0x40]
        0x0001b83a:    f8ada044    ..D.    STRH     r10,[sp,#0x44]
        0x0001b83e:    2500        .%      MOVS     r5,#0
        0x0001b840:    ac02        ..      ADD      r4,sp,#8
        0x0001b842:    f8ada042    ..B.    STRH     r10,[sp,#0x42]
        0x0001b846:    f8ada046    ..F.    STRH     r10,[sp,#0x46]
        0x0001b84a:    2e00        ..      CMP      r6,#0
        0x0001b84c:    d916        ..      BLS      0x1b87c ; main + 532
        0x0001b84e:    2101        .!      MOVS     r1,#1
        0x0001b850:    4620         F      MOV      r0,r4
        0x0001b852:    f7fffa3d    ..=.    BL       core_bench_list ; 0x1acd0
        0x0001b856:    8f21        !.      LDRH     r1,[r4,#0x38]
        0x0001b858:    f7fffe3c    ..<.    BL       crcu16 ; 0x1b4d4
        0x0001b85c:    8720         .      STRH     r0,[r4,#0x38]
        0x0001b85e:    f04f31ff    O..1    MOV      r1,#0xffffffff
        0x0001b862:    4620         F      MOV      r0,r4
        0x0001b864:    f7fffa34    ..4.    BL       core_bench_list ; 0x1acd0
        0x0001b868:    8f21        !.      LDRH     r1,[r4,#0x38]
        0x0001b86a:    f7fffe33    ..3.    BL       crcu16 ; 0x1b4d4
        0x0001b86e:    8720         .      STRH     r0,[r4,#0x38]
        0x0001b870:    2d00        .-      CMP      r5,#0
        0x0001b872:    bf08        ..      IT       EQ
        0x0001b874:    8760        `.      STRHEQ   r0,[r4,#0x3a]
        0x0001b876:    1c6d        m.      ADDS     r5,r5,#1
        0x0001b878:    42b5        .B      CMP      r5,r6
        0x0001b87a:    d3e8        ..      BCC      0x1b84e ; main + 486
        0x0001b87c:    f000ff84    ....    BL       stop_time ; 0x1c788
        0x0001b880:    f7fffe7a    ..z.    BL       get_time ; 0x1b578
        0x0001b884:    f000ffa0    ....    BL       time_in_secs ; 0x1c7c8
        0x0001b888:    eeb08a40    ..@.    VMOV.F32 s16,s0
        0x0001b88c:    eef08a60    ..`.    VMOV.F32 s17,s1
        0x0001b890:    ec532b19    S..+    VMOV     r2,r3,d9
        0x0001b894:    ec510b18    Q...    VMOV     r0,r1,d8
        0x0001b898:    f001fae6    ....    BL       __aeabi_cdcmple ; 0x1ce68
        0x0001b89c:    d3c3        ..      BCC      0x1b826 ; main + 446
        0x0001b89e:    ec510b18    Q...    VMOV     r0,r1,d8
        0x0001b8a2:    f001faa1    ....    BL       __aeabi_d2uiz ; 0x1cde8
        0x0001b8a6:    2800        .(      CMP      r0,#0
        0x0001b8a8:    bf08        ..      IT       EQ
        0x0001b8aa:    2001        .       MOVEQ    r0,#1
        0x0001b8ac:    210a        .!      MOVS     r1,#0xa
        0x0001b8ae:    fbb1f0f0    ....    UDIV     r0,r1,r0
        0x0001b8b2:    9909        ..      LDR      r1,[sp,#0x24]
        0x0001b8b4:    1c40        @.      ADDS     r0,r0,#1
        0x0001b8b6:    4348        HC      MULS     r0,r1,r0
        0x0001b8b8:    9009        ..      STR      r0,[sp,#0x24]
        0x0001b8ba:    f000ff4d    ..M.    BL       start_time ; 0x1c758
        0x0001b8be:    9d09        ..      LDR      r5,[sp,#0x24]
        0x0001b8c0:    f8ada040    ..@.    STRH     r10,[sp,#0x40]
        0x0001b8c4:    f8ada044    ..D.    STRH     r10,[sp,#0x44]
        0x0001b8c8:    2600        .&      MOVS     r6,#0
        0x0001b8ca:    ac02        ..      ADD      r4,sp,#8
        0x0001b8cc:    f8ada042    ..B.    STRH     r10,[sp,#0x42]
        0x0001b8d0:    f8ada046    ..F.    STRH     r10,[sp,#0x46]
        0x0001b8d4:    2d00        .-      CMP      r5,#0
        0x0001b8d6:    d916        ..      BLS      0x1b906 ; main + 670
        0x0001b8d8:    2101        .!      MOVS     r1,#1
        0x0001b8da:    4620         F      MOV      r0,r4
        0x0001b8dc:    f7fff9f8    ....    BL       core_bench_list ; 0x1acd0
        0x0001b8e0:    8f21        !.      LDRH     r1,[r4,#0x38]
        0x0001b8e2:    f7fffdf7    ....    BL       crcu16 ; 0x1b4d4
        0x0001b8e6:    8720         .      STRH     r0,[r4,#0x38]
        0x0001b8e8:    f04f31ff    O..1    MOV      r1,#0xffffffff
        0x0001b8ec:    4620         F      MOV      r0,r4
        0x0001b8ee:    f7fff9ef    ....    BL       core_bench_list ; 0x1acd0
        0x0001b8f2:    8f21        !.      LDRH     r1,[r4,#0x38]
        0x0001b8f4:    f7fffdee    ....    BL       crcu16 ; 0x1b4d4
        0x0001b8f8:    8720         .      STRH     r0,[r4,#0x38]
        0x0001b8fa:    2e00        ..      CMP      r6,#0
        0x0001b8fc:    bf08        ..      IT       EQ
        0x0001b8fe:    8760        `.      STRHEQ   r0,[r4,#0x3a]
        0x0001b900:    1c76        v.      ADDS     r6,r6,#1
        0x0001b902:    42ae        .B      CMP      r6,r5
        0x0001b904:    d3e8        ..      BCC      0x1b8d8 ; main + 624
        0x0001b906:    f000ff3f    ..?.    BL       stop_time ; 0x1c788
        0x0001b90a:    f7fffe35    ..5.    BL       get_time ; 0x1b578
        0x0001b90e:    9013        ..      STR      r0,[sp,#0x4c]
        0x0001b910:    f9bd0008    ....    LDRSH    r0,[sp,#8]
        0x0001b914:    2100        .!      MOVS     r1,#0
        0x0001b916:    f7fffdb5    ....    BL       crc16 ; 0x1b484
        0x0001b91a:    f9bd200a    ...     LDRSH    r2,[sp,#0xa]
        0x0001b91e:    4601        .F      MOV      r1,r0
        0x0001b920:    4610        .F      MOV      r0,r2
        0x0001b922:    f7fffdaf    ....    BL       crc16 ; 0x1b484
        0x0001b926:    f9bd200c    ...     LDRSH    r2,[sp,#0xc]
        0x0001b92a:    4601        .F      MOV      r1,r0
        0x0001b92c:    4610        .F      MOV      r0,r2
        0x0001b92e:    f7fffda9    ....    BL       crc16 ; 0x1b484
        0x0001b932:    9a08        ..      LDR      r2,[sp,#0x20]
        0x0001b934:    4601        .F      MOV      r1,r0
        0x0001b936:    b212        ..      SXTH     r2,r2
        0x0001b938:    4610        .F      MOV      r0,r2
        0x0001b93a:    f7fffda3    ....    BL       crc16 ; 0x1b484
        0x0001b93e:    f6473205    G..2    MOV      r2,#0x7b05
        0x0001b942:    1a81        ..      SUBS     r1,r0,r2
        0x0001b944:    4db2        .M      LDR      r5,[pc,#712] ; [0x1bc10] = 0x10000050
        0x0001b946:    9000        ..      STR      r0,[sp,#0]
        0x0001b948:    4290        .B      CMP      r0,r2
        0x0001b94a:    bf04        ..      ITT      EQ
        0x0001b94c:    f04f0801    O...    MOVEQ    r8,#1
        0x0001b950:    a0b0        ..      ADREQ    r0,{pc}+0x2c4 ; 0x1bc14
        0x0001b952:    d028        (.      BEQ      0x1b9a6 ; main + 830
        0x0001b954:    dc12        ..      BGT      0x1b97c ; main + 788
        0x0001b956:    f200700e    ...p    ADD      r0,r0,#0x70e
        0x0001b95a:    f5b05000    ...P    SUBS     r0,r0,#0x2000
        0x0001b95e:    bf04        ..      ITT      EQ
        0x0001b960:    f04f0804    O...    MOVEQ    r8,#4
        0x0001b964:    a0b6        ..      ADREQ    r0,{pc}+0x2dc ; 0x1bc40
        0x0001b966:    d01e        ..      BEQ      0x1b9a6 ; main + 830
        0x0001b968:    f6002043    ..C     ADD      r0,r0,#0xa43
        0x0001b96c:    f5b04f80    ...O    CMP      r0,#0x4000
        0x0001b970:    bf04        ..      ITT      EQ
        0x0001b972:    f04f0802    O...    MOVEQ    r8,#2
        0x0001b976:    a0bd        ..      ADREQ    r0,{pc}+0x2f6 ; 0x1bc6c
        0x0001b978:    d015        ..      BEQ      0x1b9a6 ; main + 830
        0x0001b97a:    e00b        ..      B        0x1b994 ; main + 812
        0x0001b97c:    f5a16060    ..``    SUB      r0,r1,#0xe00
        0x0001b980:    38fd        .8      SUBS     r0,r0,#0xfd
        0x0001b982:    d00a        ..      BEQ      0x1b99a ; main + 818
        0x0001b984:    300d        .0      ADDS     r0,r0,#0xd
        0x0001b986:    f5b04fc0    ...O    CMP      r0,#0x6000
        0x0001b98a:    bf04        ..      ITT      EQ
        0x0001b98c:    f04f0803    O...    MOVEQ    r8,#3
        0x0001b990:    a0c3        ..      ADREQ    r0,{pc}+0x310 ; 0x1bca0
        0x0001b992:    d008        ..      BEQ      0x1b9a6 ; main + 830
        0x0001b994:    f04f39ff    O..9    MOV      r9,#0xffffffff
        0x0001b998:    e059        Y.      B        0x1ba4e ; main + 998
        0x0001b99a:    f04f0800    O...    MOV      r8,#0
        0x0001b99e:    a0cc        ..      ADR      r0,{pc}+0x332 ; 0x1bcd0
        0x0001b9a0:    f7fefbea    ....    BL       am_sprintf ; 0x1a178
        0x0001b9a4:    e001        ..      B        0x1b9aa ; main + 834
        0x0001b9a6:    f7fefbe7    ....    BL       am_sprintf ; 0x1a178
        0x0001b9aa:    6828        (h      LDR      r0,[r5,#0]
        0x0001b9ac:    2400        .$      MOVS     r4,#0
        0x0001b9ae:    2800        .(      CMP      r0,#0
        0x0001b9b0:    bf88        ..      IT       HI
        0x0001b9b2:    f8dfb34c    ..L.    LDRHI    r11,[pc,#844] ; [0x1bd00] = 0x10000004
        0x0001b9b6:    d94a        J.      BLS      0x1ba4e ; main + 998
        0x0001b9b8:    eb041004    ....    ADD      r0,r4,r4,LSL #4
        0x0001b9bc:    eb070680    ....    ADD      r6,r7,r0,LSL #2
        0x0001b9c0:    f8a6a040    ..@.    STRH     r10,[r6,#0x40]
        0x0001b9c4:    f8960020    .. .    LDRB     r0,[r6,#0x20]
        0x0001b9c8:    f0100f01    ....    TST      r0,#1
        0x0001b9cc:    d00d        ..      BEQ      0x1b9ea ; main + 898
        0x0001b9ce:    8f72        r.      LDRH     r2,[r6,#0x3a]
        0x0001b9d0:    f83b3018    ;..0    LDRH     r3,[r11,r8,LSL #1]
        0x0001b9d4:    429a        .B      CMP      r2,r3
        0x0001b9d6:    d008        ..      BEQ      0x1b9ea ; main + 898
        0x0001b9d8:    4621        !F      MOV      r1,r4
        0x0001b9da:    a0ca        ..      ADR      r0,{pc}+0x32a ; 0x1bd04
        0x0001b9dc:    f7fefbcc    ....    BL       am_sprintf ; 0x1a178
        0x0001b9e0:    f8b60040    ..@.    LDRH     r0,[r6,#0x40]
        0x0001b9e4:    1c40        @.      ADDS     r0,r0,#1
        0x0001b9e6:    f8a60040    ..@.    STRH     r0,[r6,#0x40]
        0x0001b9ea:    f8960020    .. .    LDRB     r0,[r6,#0x20]
        0x0001b9ee:    f0100f02    ....    TST      r0,#2
        0x0001b9f2:    d00e        ..      BEQ      0x1ba12 ; main + 938
        0x0001b9f4:    48cf        .H      LDR      r0,[pc,#828] ; [0x1bd34] = 0x1000000e
        0x0001b9f6:    8fb2        ..      LDRH     r2,[r6,#0x3c]
        0x0001b9f8:    f8303018    0..0    LDRH     r3,[r0,r8,LSL #1]
        0x0001b9fc:    429a        .B      CMP      r2,r3
        0x0001b9fe:    d008        ..      BEQ      0x1ba12 ; main + 938
        0x0001ba00:    4621        !F      MOV      r1,r4
        0x0001ba02:    a0cd        ..      ADR      r0,{pc}+0x336 ; 0x1bd38
        0x0001ba04:    f7fefbb8    ....    BL       am_sprintf ; 0x1a178
        0x0001ba08:    f8b60040    ..@.    LDRH     r0,[r6,#0x40]
        0x0001ba0c:    1c40        @.      ADDS     r0,r0,#1
        0x0001ba0e:    f8a60040    ..@.    STRH     r0,[r6,#0x40]
        0x0001ba12:    f8960020    .. .    LDRB     r0,[r6,#0x20]
        0x0001ba16:    f0100f04    ....    TST      r0,#4
        0x0001ba1a:    d00e        ..      BEQ      0x1ba3a ; main + 978
        0x0001ba1c:    48d3        .H      LDR      r0,[pc,#844] ; [0x1bd6c] = 0x10000018
        0x0001ba1e:    8ff2        ..      LDRH     r2,[r6,#0x3e]
        0x0001ba20:    f8303018    0..0    LDRH     r3,[r0,r8,LSL #1]
        0x0001ba24:    429a        .B      CMP      r2,r3
        0x0001ba26:    d008        ..      BEQ      0x1ba3a ; main + 978
        0x0001ba28:    4621        !F      MOV      r1,r4
        0x0001ba2a:    a0d1        ..      ADR      r0,{pc}+0x346 ; 0x1bd70
        0x0001ba2c:    f7fefba4    ....    BL       am_sprintf ; 0x1a178
        0x0001ba30:    f8b60040    ..@.    LDRH     r0,[r6,#0x40]
        0x0001ba34:    1c40        @.      ADDS     r0,r0,#1
        0x0001ba36:    f8a60040    ..@.    STRH     r0,[r6,#0x40]
        0x0001ba3a:    f8b60040    ..@.    LDRH     r0,[r6,#0x40]
        0x0001ba3e:    4448        HD      ADD      r0,r0,r9
        0x0001ba40:    fa0ff980    ....    SXTH     r9,r0
        0x0001ba44:    1c60        `.      ADDS     r0,r4,#1
        0x0001ba46:    b284        ..      UXTH     r4,r0
        0x0001ba48:    6828        (h      LDR      r0,[r5,#0]
        0x0001ba4a:    4284        .B      CMP      r4,r0
        0x0001ba4c:    d3b4        ..      BCC      0x1b9b8 ; main + 848
        0x0001ba4e:    f7fff91a    ....    BL       check_data_types ; 0x1ac86
        0x0001ba52:    4448        HD      ADD      r0,r0,r9
        0x0001ba54:    b206        ..      SXTH     r6,r0
        0x0001ba56:    a0d2        ..      ADR      r0,{pc}+0x34a ; 0x1bda0
        0x0001ba58:    9908        ..      LDR      r1,[sp,#0x20]
        0x0001ba5a:    f7fefb8d    ....    BL       am_sprintf ; 0x1a178
        0x0001ba5e:    2300        .#      MOVS     r3,#0
        0x0001ba60:    a0d5        ..      ADR      r0,{pc}+0x358 ; 0x1bdb8
        0x0001ba62:    9a13        ..      LDR      r2,[sp,#0x4c]
        0x0001ba64:    f7fefb88    ....    BL       am_sprintf ; 0x1a178
        0x0001ba68:    9813        ..      LDR      r0,[sp,#0x4c]
        0x0001ba6a:    f000fead    ....    BL       time_in_secs ; 0x1c7c8
        0x0001ba6e:    ec532b10    S..+    VMOV     r2,r3,d0
        0x0001ba72:    a0d8        ..      ADR      r0,{pc}+0x362 ; 0x1bdd4
        0x0001ba74:    f7fefb80    ....    BL       am_sprintf ; 0x1a178
        0x0001ba78:    9813        ..      LDR      r0,[sp,#0x4c]
        0x0001ba7a:    f000fea5    ....    BL       time_in_secs ; 0x1c7c8
        0x0001ba7e:    ec532b1a    S..+    VMOV     r2,r3,d10
        0x0001ba82:    ec510b10    Q...    VMOV     r0,r1,d0
        0x0001ba86:    f001fa7f    ....    BL       __aeabi_cdrcmple ; 0x1cf88
        0x0001ba8a:    d216        ..      BCS      0x1baba ; main + 1106
        0x0001ba8c:    9813        ..      LDR      r0,[sp,#0x4c]
        0x0001ba8e:    f000fe9b    ....    BL       time_in_secs ; 0x1c7c8
        0x0001ba92:    9809        ..      LDR      r0,[sp,#0x24]
        0x0001ba94:    6829        )h      LDR      r1,[r5,#0]
        0x0001ba96:    eeb08a40    ..@.    VMOV.F32 s16,s0
        0x0001ba9a:    eef08a60    ..`.    VMOV.F32 s17,s1
        0x0001ba9e:    4348        HC      MULS     r0,r1,r0
        0x0001baa0:    f001f9cf    ....    BL       __aeabi_ui2d ; 0x1ce42
        0x0001baa4:    ec532b18    S..+    VMOV     r2,r3,d8
        0x0001baa8:    f001f846    ..F.    BL       __aeabi_ddiv ; 0x1cb38
        0x0001baac:    ec410b10    A...    VMOV     d0,r0,r1
        0x0001bab0:    a0ce        ..      ADR      r0,{pc}+0x33c ; 0x1bdec
        0x0001bab2:    ec532b10    S..+    VMOV     r2,r3,d0
        0x0001bab6:    f7fefb5f    .._.    BL       am_sprintf ; 0x1a178
        0x0001baba:    9813        ..      LDR      r0,[sp,#0x4c]
        0x0001babc:    f000fe84    ....    BL       time_in_secs ; 0x1c7c8
        0x0001bac0:    ed9f1bd1    ....    VLDR     d1,[pc,#836] ; [0x1be08] = 0
        0x0001bac4:    ec510b10    Q...    VMOV     r0,r1,d0
        0x0001bac8:    ec532b11    S..+    VMOV     r2,r3,d1
        0x0001bacc:    f001f9cc    ....    BL       __aeabi_cdcmple ; 0x1ce68
        0x0001bad0:    d204        ..      BCS      0x1badc ; main + 1140
        0x0001bad2:    a0cf        ..      ADR      r0,{pc}+0x33e ; 0x1be10
        0x0001bad4:    f7fefb50    ..P.    BL       am_sprintf ; 0x1a178
        0x0001bad8:    1c70        p.      ADDS     r0,r6,#1
        0x0001bada:    b206        ..      SXTH     r6,r0
        0x0001badc:    9809        ..      LDR      r0,[sp,#0x24]
        0x0001bade:    6829        )h      LDR      r1,[r5,#0]
        0x0001bae0:    4341        AC      MULS     r1,r0,r1
        0x0001bae2:    a0db        ..      ADR      r0,{pc}+0x36e ; 0x1be50
        0x0001bae4:    f7fefb48    ..H.    BL       am_sprintf ; 0x1a178
        0x0001bae8:    a1df        ..      ADR      r1,{pc}+0x380 ; 0x1be68
        0x0001baea:    a0e3        ..      ADR      r0,{pc}+0x38e ; 0x1be78
        0x0001baec:    f7fefb44    ..D.    BL       am_sprintf ; 0x1a178
        0x0001baf0:    a1e7        ..      ADR      r1,{pc}+0x3a0 ; 0x1be90
        0x0001baf2:    a0e9        ..      ADR      r0,{pc}+0x3a6 ; 0x1be98
        0x0001baf4:    f7fefb40    ..@.    BL       am_sprintf ; 0x1a178
        0x0001baf8:    a0ed        ..      ADR      r0,{pc}+0x3b8 ; 0x1beb0
        0x0001bafa:    9900        ..      LDR      r1,[sp,#0]
        0x0001bafc:    f7fefb3c    ..<.    BL       am_sprintf ; 0x1a178
        0x0001bb00:    980a        ..      LDR      r0,[sp,#0x28]
        0x0001bb02:    f0100f01    ....    TST      r0,#1
        0x0001bb06:    d011        ..      BEQ      0x1bb2c ; main + 1220
        0x0001bb08:    6828        (h      LDR      r0,[r5,#0]
        0x0001bb0a:    2400        .$      MOVS     r4,#0
        0x0001bb0c:    2800        .(      CMP      r0,#0
        0x0001bb0e:    d90d        ..      BLS      0x1bb2c ; main + 1220
        0x0001bb10:    eb041004    ....    ADD      r0,r4,r4,LSL #4
        0x0001bb14:    eb070080    ....    ADD      r0,r7,r0,LSL #2
        0x0001bb18:    4621        !F      MOV      r1,r4
        0x0001bb1a:    8f42        B.      LDRH     r2,[r0,#0x3a]
        0x0001bb1c:    a0eb        ..      ADR      r0,{pc}+0x3b0 ; 0x1becc
        0x0001bb1e:    f7fefb2b    ..+.    BL       am_sprintf ; 0x1a178
        0x0001bb22:    1c60        `.      ADDS     r0,r4,#1
        0x0001bb24:    b284        ..      UXTH     r4,r0
        0x0001bb26:    6828        (h      LDR      r0,[r5,#0]
        0x0001bb28:    42a0        .B      CMP      r0,r4
        0x0001bb2a:    d8f1        ..      BHI      0x1bb10 ; main + 1192
        0x0001bb2c:    980a        ..      LDR      r0,[sp,#0x28]
        0x0001bb2e:    f0100f02    ....    TST      r0,#2
        0x0001bb32:    d011        ..      BEQ      0x1bb58 ; main + 1264
        0x0001bb34:    6828        (h      LDR      r0,[r5,#0]
        0x0001bb36:    2400        .$      MOVS     r4,#0
        0x0001bb38:    2800        .(      CMP      r0,#0
        0x0001bb3a:    d90d        ..      BLS      0x1bb58 ; main + 1264
        0x0001bb3c:    eb041004    ....    ADD      r0,r4,r4,LSL #4
        0x0001bb40:    eb070080    ....    ADD      r0,r7,r0,LSL #2
        0x0001bb44:    4621        !F      MOV      r1,r4
        0x0001bb46:    8f82        ..      LDRH     r2,[r0,#0x3c]
        0x0001bb48:    a0e7        ..      ADR      r0,{pc}+0x3a0 ; 0x1bee8
        0x0001bb4a:    f7fefb15    ....    BL       am_sprintf ; 0x1a178
        0x0001bb4e:    1c60        `.      ADDS     r0,r4,#1
        0x0001bb50:    b284        ..      UXTH     r4,r0
        0x0001bb52:    6828        (h      LDR      r0,[r5,#0]
        0x0001bb54:    42a0        .B      CMP      r0,r4
        0x0001bb56:    d8f1        ..      BHI      0x1bb3c ; main + 1236
        0x0001bb58:    980a        ..      LDR      r0,[sp,#0x28]
        0x0001bb5a:    f0100f04    ....    TST      r0,#4
        0x0001bb5e:    d011        ..      BEQ      0x1bb84 ; main + 1308
        0x0001bb60:    6828        (h      LDR      r0,[r5,#0]
        0x0001bb62:    2400        .$      MOVS     r4,#0
        0x0001bb64:    2800        .(      CMP      r0,#0
        0x0001bb66:    d90d        ..      BLS      0x1bb84 ; main + 1308
        0x0001bb68:    eb041004    ....    ADD      r0,r4,r4,LSL #4
        0x0001bb6c:    eb070080    ....    ADD      r0,r7,r0,LSL #2
        0x0001bb70:    4621        !F      MOV      r1,r4
        0x0001bb72:    8fc2        ..      LDRH     r2,[r0,#0x3e]
        0x0001bb74:    a0e3        ..      ADR      r0,{pc}+0x390 ; 0x1bf04
        0x0001bb76:    f7fefaff    ....    BL       am_sprintf ; 0x1a178
        0x0001bb7a:    1c60        `.      ADDS     r0,r4,#1
        0x0001bb7c:    b284        ..      UXTH     r4,r0
        0x0001bb7e:    6828        (h      LDR      r0,[r5,#0]
        0x0001bb80:    42a0        .B      CMP      r0,r4
        0x0001bb82:    d8f1        ..      BHI      0x1bb68 ; main + 1280
        0x0001bb84:    6828        (h      LDR      r0,[r5,#0]
        0x0001bb86:    2400        .$      MOVS     r4,#0
        0x0001bb88:    2800        .(      CMP      r0,#0
        0x0001bb8a:    d90d        ..      BLS      0x1bba8 ; main + 1344
        0x0001bb8c:    eb041004    ....    ADD      r0,r4,r4,LSL #4
        0x0001bb90:    eb070080    ....    ADD      r0,r7,r0,LSL #2
        0x0001bb94:    4621        !F      MOV      r1,r4
        0x0001bb96:    8f02        ..      LDRH     r2,[r0,#0x38]
        0x0001bb98:    a0e1        ..      ADR      r0,{pc}+0x388 ; 0x1bf20
        0x0001bb9a:    f7fefaed    ....    BL       am_sprintf ; 0x1a178
        0x0001bb9e:    1c60        `.      ADDS     r0,r4,#1
        0x0001bba0:    b284        ..      UXTH     r4,r0
        0x0001bba2:    6828        (h      LDR      r0,[r5,#0]
        0x0001bba4:    42a0        .B      CMP      r0,r4
        0x0001bba6:    d8f1        ..      BHI      0x1bb8c ; main + 1316
        0x0001bba8:    2e00        ..      CMP      r6,#0
        0x0001bbaa:    bfc8        ..      IT       GT
        0x0001bbac:    a0e3        ..      ADRGT    r0,{pc}+0x390 ; 0x1bf3c
        0x0001bbae:    d004        ..      BEQ      0x1bbba ; main + 1362
        0x0001bbb0:    dd22        ".      BLE      0x1bbf8 ; main + 1424
        0x0001bbb2:    bf00        ..      NOP      
        0x0001bbb4:    f7fefae0    ....    BL       am_sprintf ; 0x1a178
        0x0001bbb8:    e1e0        ..      B        0x1bf7c ; main + 2324
        0x0001bbba:    48e5        .H      LDR      r0,[pc,#916] ; [0x1bf50] = 0x1d464
        0x0001bbbc:    f7fefadc    ....    BL       am_sprintf ; 0x1a178
        0x0001bbc0:    f1b80f03    ....    CMP      r8,#3
        0x0001bbc4:    d119        ..      BNE      0x1bbfa ; main + 1426
        0x0001bbc6:    9813        ..      LDR      r0,[sp,#0x4c]
        0x0001bbc8:    f000fdfe    ....    BL       time_in_secs ; 0x1c7c8
        0x0001bbcc:    9809        ..      LDR      r0,[sp,#0x24]
        0x0001bbce:    6829        )h      LDR      r1,[r5,#0]
        0x0001bbd0:    eeb08a40    ..@.    VMOV.F32 s16,s0
        0x0001bbd4:    eef08a60    ..`.    VMOV.F32 s17,s1
        0x0001bbd8:    4348        HC      MULS     r0,r1,r0
        0x0001bbda:    f001f932    ..2.    BL       __aeabi_ui2d ; 0x1ce42
        0x0001bbde:    ec532b18    S..+    VMOV     r2,r3,d8
        0x0001bbe2:    f000ffa9    ....    BL       __aeabi_ddiv ; 0x1cb38
        0x0001bbe6:    ec410b10    A...    VMOV     d0,r0,r1
        0x0001bbea:    a1da        ..      ADR      r1,{pc}+0x36a ; 0x1bf54
        0x0001bbec:    a09e        ..      ADR      r0,{pc}+0x27c ; 0x1be68
        0x0001bbee:    ec532b10    S..+    VMOV     r2,r3,d0
        0x0001bbf2:    e9cd0100    ....    STRD     r0,r1,[sp,#0]
        0x0001bbf6:    e1b3        ..      B        0x1bf60 ; main + 2296
        0x0001bbf8:    e1bd        ..      B        0x1bf76 ; main + 2318
        0x0001bbfa:    e1bf        ..      B        0x1bf7c ; main + 2324
    $d
        0x0001bbfc:    00000000    ....    DCD    0
        0x0001bc00:    00000000    ....    DCD    0
        0x0001bc04:    00000000    ....    DCD    0
        0x0001bc08:    00000000    ....    DCD    0
        0x0001bc0c:    3ff00000    ...?    DCD    1072693248
        0x0001bc10:    10000050    P...    DCD    268435536
        0x0001bc14:    76206b36    6k v    DCD    1981836086
        0x0001bc18:    64696c61    alid    DCD    1684630625
        0x0001bc1c:    6f697461    atio    DCD    1869182049
        0x0001bc20:    7572206e    n ru    DCD    1970413678
        0x0001bc24:    6170206e    n pa    DCD    1634738286
        0x0001bc28:    656d6172    rame    DCD    1701667186
        0x0001bc2c:    73726574    ters    DCD    1936876916
        0x0001bc30:    726f6620     for    DCD    1919903264
        0x0001bc34:    726f6320     cor    DCD    1919902496
        0x0001bc38:    72616d65    emar    DCD    1918987621
        0x0001bc3c:    000a2e6b    k...    DCD    667243
        0x0001bc40:    76204b32    2K v    DCD    1981827890
        0x0001bc44:    64696c61    alid    DCD    1684630625
        0x0001bc48:    6f697461    atio    DCD    1869182049
        0x0001bc4c:    7572206e    n ru    DCD    1970413678
        0x0001bc50:    6170206e    n pa    DCD    1634738286
        0x0001bc54:    656d6172    rame    DCD    1701667186
        0x0001bc58:    73726574    ters    DCD    1936876916
        0x0001bc5c:    726f6620     for    DCD    1919903264
        0x0001bc60:    726f6320     cor    DCD    1919902496
        0x0001bc64:    72616d65    emar    DCD    1918987621
        0x0001bc68:    000a2e6b    k...    DCD    667243
        0x0001bc6c:    666f7250    Prof    DCD    1718579792
        0x0001bc70:    20656c69    ile     DCD    543517801
        0x0001bc74:    656e6567    gene    DCD    1701733735
        0x0001bc78:    69746172    rati    DCD    1769234802
        0x0001bc7c:    72206e6f    on r    DCD    1914728047
        0x0001bc80:    70206e75    un p    DCD    1881173621
        0x0001bc84:    6d617261    aram    DCD    1835102817
        0x0001bc88:    72657465    eter    DCD    1919251557
        0x0001bc8c:    6f662073    s fo    DCD    1868963955
        0x0001bc90:    6f632072    r co    DCD    1868767346
        0x0001bc94:    616d6572    rema    DCD    1634559346
        0x0001bc98:    0a2e6b72    rk..    DCD    170814322
        0x0001bc9c:    00000000    ....    DCD    0
        0x0001bca0:    70204b32    2K p    DCD    1881164594
        0x0001bca4:    6f667265    erfo    DCD    1868984933
        0x0001bca8:    6e616d72    rman    DCD    1851878770
        0x0001bcac:    72206563    ce r    DCD    1914725731
        0x0001bcb0:    70206e75    un p    DCD    1881173621
        0x0001bcb4:    6d617261    aram    DCD    1835102817
        0x0001bcb8:    72657465    eter    DCD    1919251557
        0x0001bcbc:    6f662073    s fo    DCD    1868963955
        0x0001bcc0:    6f632072    r co    DCD    1868767346
        0x0001bcc4:    616d6572    rema    DCD    1634559346
        0x0001bcc8:    0a2e6b72    rk..    DCD    170814322
        0x0001bccc:    00000000    ....    DCD    0
        0x0001bcd0:    70206b36    6k p    DCD    1881172790
        0x0001bcd4:    6f667265    erfo    DCD    1868984933
        0x0001bcd8:    6e616d72    rman    DCD    1851878770
        0x0001bcdc:    72206563    ce r    DCD    1914725731
        0x0001bce0:    70206e75    un p    DCD    1881173621
        0x0001bce4:    6d617261    aram    DCD    1835102817
        0x0001bce8:    72657465    eter    DCD    1919251557
        0x0001bcec:    6f662073    s fo    DCD    1868963955
        0x0001bcf0:    6f632072    r co    DCD    1868767346
        0x0001bcf4:    616d6572    rema    DCD    1634559346
        0x0001bcf8:    0a2e6b72    rk..    DCD    170814322
        0x0001bcfc:    00000000    ....    DCD    0
        0x0001bd00:    10000004    ....    DCD    268435460
        0x0001bd04:    5d75255b    [%u]    DCD    1567958363
        0x0001bd08:    4f525245    ERRO    DCD    1330795077
        0x0001bd0c:    6c202152    R! l    DCD    1814045010
        0x0001bd10:    20747369    ist     DCD    544502633
        0x0001bd14:    20637263    crc     DCD    543388259
        0x0001bd18:    30257830    0x%0    DCD    807761968
        0x0001bd1c:    2d207834    4x -    DCD    757102644
        0x0001bd20:    6f687320     sho    DCD    1869116192
        0x0001bd24:    20646c75    uld     DCD    543452277
        0x0001bd28:    30206562    be 0    DCD    807429474
        0x0001bd2c:    34302578    x%04    DCD    875570552
        0x0001bd30:    00000a78    x...    DCD    2680
        0x0001bd34:    1000000e    ....    DCD    268435470
        0x0001bd38:    5d75255b    [%u]    DCD    1567958363
        0x0001bd3c:    4f525245    ERRO    DCD    1330795077
        0x0001bd40:    6d202152    R! m    DCD    1830822226
        0x0001bd44:    69727461    atri    DCD    1769108577
        0x0001bd48:    72632078    x cr    DCD    1919099000
        0x0001bd4c:    78302063    c 0x    DCD    2016419939
        0x0001bd50:    78343025    %04x    DCD    2016686117
        0x0001bd54:    73202d20     - s    DCD    1931488544
        0x0001bd58:    6c756f68    houl    DCD    1819635560
        0x0001bd5c:    65622064    d be    DCD    1700929636
        0x0001bd60:    25783020     0x%    DCD    628633632
        0x0001bd64:    0a783430    04x.    DCD    175649840
        0x0001bd68:    00000000    ....    DCD    0
        0x0001bd6c:    10000018    ....    DCD    268435480
        0x0001bd70:    5d75255b    [%u]    DCD    1567958363
        0x0001bd74:    4f525245    ERRO    DCD    1330795077
        0x0001bd78:    73202152    R! s    DCD    1931485522
        0x0001bd7c:    65746174    tate    DCD    1702125940
        0x0001bd80:    63726320     crc    DCD    1668440864
        0x0001bd84:    25783020     0x%    DCD    628633632
        0x0001bd88:    20783430    04x     DCD    544748592
        0x0001bd8c:    6873202d    - sh    DCD    1752375341
        0x0001bd90:    646c756f    ould    DCD    1684829551
        0x0001bd94:    20656220     be     DCD    543515168
        0x0001bd98:    30257830    0x%0    DCD    807761968
        0x0001bd9c:    000a7834    4x..    DCD    686132
        0x0001bda0:    65726f43    Core    DCD    1701998403
        0x0001bda4:    6b72614d    Mark    DCD    1802658125
        0x0001bda8:    7a695320     Siz    DCD    2053722912
        0x0001bdac:    20202065    e       DCD    538976357
        0x0001bdb0:    25203a20     : %    DCD    622869024
        0x0001bdb4:    000a756c    lu..    DCD    685420
        0x0001bdb8:    61746f54    Tota    DCD    1635020628
        0x0001bdbc:    6974206c    l ti    DCD    1769218156
        0x0001bdc0:    20736b63    cks     DCD    544435043
        0x0001bdc4:    20202020            DCD    538976288
        0x0001bdc8:    25203a20     : %    DCD    622869024
        0x0001bdcc:    0a756c6c    llu.    DCD    175467628
        0x0001bdd0:    00000000    ....    DCD    0
        0x0001bdd4:    61746f54    Tota    DCD    1635020628
        0x0001bdd8:    6974206c    l ti    DCD    1769218156
        0x0001bddc:    2820656d    me (    DCD    673211757
        0x0001bde0:    73636573    secs    DCD    1935893875
        0x0001bde4:    25203a29    ): %    DCD    622869033
        0x0001bde8:    00000a66    f...    DCD    2662
        0x0001bdec:    72657449    Iter    DCD    1919251529
        0x0001bdf0:    6f697461    atio    DCD    1869182049
        0x0001bdf4:    532f736e    ns/S    DCD    1395618670
        0x0001bdf8:    20206365    ec      DCD    538993509
        0x0001bdfc:    25203a20     : %    DCD    622869024
        0x0001be00:    00000a66    f...    DCD    2662
        0x0001be04:    00000000    ....    DCD    0
        0x0001be08:    00000000    ....    DCD    0
        0x0001be0c:    40240000    ..$@    DCD    1076101120
        0x0001be10:    4f525245    ERRO    DCD    1330795077
        0x0001be14:    4d202152    R! M    DCD    1293951314
        0x0001be18:    20747375    ust     DCD    544502645
        0x0001be1c:    63657865    exec    DCD    1667594341
        0x0001be20:    20657475    ute     DCD    543519861
        0x0001be24:    20726f66    for     DCD    544370534
        0x0001be28:    6c207461    at l    DCD    1814066273
        0x0001be2c:    74736165    east    DCD    1953718629
        0x0001be30:    20303120     10     DCD    540029216
        0x0001be34:    73636573    secs    DCD    1935893875
        0x0001be38:    726f6620     for    DCD    1919903264
        0x0001be3c:    76206120     a v    DCD    1981833504
        0x0001be40:    64696c61    alid    DCD    1684630625
        0x0001be44:    73657220     res    DCD    1936028192
        0x0001be48:    21746c75    ult!    DCD    561278069
        0x0001be4c:    0000000a    ....    DCD    10
        0x0001be50:    72657449    Iter    DCD    1919251529
        0x0001be54:    6f697461    atio    DCD    1869182049
        0x0001be58:    2020736e    ns      DCD    538997614
        0x0001be5c:    20202020            DCD    538976288
        0x0001be60:    25203a20     : %    DCD    622869024
        0x0001be64:    000a756c    lu..    DCD    685420
        0x0001be68:    434d5241    ARMC    DCD    1129140801
        0x0001be6c:    30352043    C 50    DCD    808788035
        0x0001be70:    35373036    6075    DCD    892809270
        0x0001be74:    00000030    0...    DCD    48
        0x0001be78:    706d6f43    Comp    DCD    1886220099
        0x0001be7c:    72656c69    iler    DCD    1919249513
        0x0001be80:    72657620     ver    DCD    1919252000
        0x0001be84:    6e6f6973    sion    DCD    1852795251
        0x0001be88:    25203a20     : %    DCD    622869024
        0x0001be8c:    00000a73    s...    DCD    2675
        0x0001be90:    43415453    STAC    DCD    1128354899
        0x0001be94:    0000004b    K...    DCD    75
        0x0001be98:    6f6d654d    Memo    DCD    1869440333
        0x0001be9c:    6c207972    ry l    DCD    1814067570
        0x0001bea0:    7461636f    ocat    DCD    1952539503
        0x0001bea4:    206e6f69    ion     DCD    544108393
        0x0001bea8:    25203a20     : %    DCD    622869024
        0x0001beac:    00000a73    s...    DCD    2675
        0x0001beb0:    64656573    seed    DCD    1684366707
        0x0001beb4:    20637263    crc     DCD    543388259
        0x0001beb8:    20202020            DCD    538976288
        0x0001bebc:    20202020            DCD    538976288
        0x0001bec0:    30203a20     : 0    DCD    807418400
        0x0001bec4:    34302578    x%04    DCD    875570552
        0x0001bec8:    00000a78    x...    DCD    2680
        0x0001becc:    5d64255b    [%d]    DCD    1566844251
        0x0001bed0:    6c637263    crcl    DCD    1818456675
        0x0001bed4:    20747369    ist     DCD    544502633
        0x0001bed8:    20202020            DCD    538976288
        0x0001bedc:    203a2020      :     DCD    540680224
        0x0001bee0:    30257830    0x%0    DCD    807761968
        0x0001bee4:    000a7834    4x..    DCD    686132
        0x0001bee8:    5d64255b    [%d]    DCD    1566844251
        0x0001beec:    6d637263    crcm    DCD    1835233891
        0x0001bef0:    69727461    atri    DCD    1769108577
        0x0001bef4:    20202078    x       DCD    538976376
        0x0001bef8:    203a2020      :     DCD    540680224
        0x0001befc:    30257830    0x%0    DCD    807761968
        0x0001bf00:    000a7834    4x..    DCD    686132
        0x0001bf04:    5d64255b    [%d]    DCD    1566844251
        0x0001bf08:    73637263    crcs    DCD    1935897187
        0x0001bf0c:    65746174    tate    DCD    1702125940
        0x0001bf10:    20202020            DCD    538976288
        0x0001bf14:    203a2020      :     DCD    540680224
        0x0001bf18:    30257830    0x%0    DCD    807761968
        0x0001bf1c:    000a7834    4x..    DCD    686132
        0x0001bf20:    5d64255b    [%d]    DCD    1566844251
        0x0001bf24:    66637263    crcf    DCD    1717793379
        0x0001bf28:    6c616e69    inal    DCD    1818324585
        0x0001bf2c:    20202020            DCD    538976288
        0x0001bf30:    203a2020      :     DCD    540680224
        0x0001bf34:    30257830    0x%0    DCD    807761968
        0x0001bf38:    000a7834    4x..    DCD    686132
        0x0001bf3c:    6f727245    Erro    DCD    1869771333
        0x0001bf40:    64207372    rs d    DCD    1679848306
        0x0001bf44:    63657465    etec    DCD    1667593317
        0x0001bf48:    0a646574    ted.    DCD    174351732
        0x0001bf4c:    00000000    ....    DCD    0
        0x0001bf50:    0001d464    d...    DCD    119908
        0x0001bf54:    67616c66    flag    DCD    1734437990
        0x0001bf58:    2d203a73    s: -    DCD    757086835
        0x0001bf5c:    0000336f    o3..    DCD    13167
    $t
        0x0001bf60:    a01d        ..      ADR      r0,{pc}+0x78 ; 0x1bfd8
        0x0001bf62:    f7fef909    ....    BL       am_sprintf ; 0x1a178
        0x0001bf66:    f2af01d8    ....    ADR      r1,{pc}-0xd6 ; 0x1be90
        0x0001bf6a:    a022        ".      ADR      r0,{pc}+0x8a ; 0x1bff4
        0x0001bf6c:    f7fef904    ....    BL       am_sprintf ; 0x1a178
        0x0001bf70:    f2af1028    ..(.    ADR      r0,{pc}-0x124 ; 0x1be4c
        0x0001bf74:    e61e        ..      B        0x1bbb4 ; main + 1356
        0x0001bf76:    4821        !H      LDR      r0,[pc,#132] ; [0x1bffc] = 0x1d400
        0x0001bf78:    f7fef8fe    ....    BL       am_sprintf ; 0x1a178
        0x0001bf7c:    9813        ..      LDR      r0,[sp,#0x4c]
        0x0001bf7e:    f000fc23    ..#.    BL       time_in_secs ; 0x1c7c8
        0x0001bf82:    9809        ..      LDR      r0,[sp,#0x24]
        0x0001bf84:    6829        )h      LDR      r1,[r5,#0]
        0x0001bf86:    eeb08a40    ..@.    VMOV.F32 s16,s0
        0x0001bf8a:    eef08a60    ..`.    VMOV.F32 s17,s1
        0x0001bf8e:    4348        HC      MULS     r0,r1,r0
        0x0001bf90:    f000ff57    ..W.    BL       __aeabi_ui2d ; 0x1ce42
        0x0001bf94:    ec532b18    S..+    VMOV     r2,r3,d8
        0x0001bf98:    f000fdce    ....    BL       __aeabi_ddiv ; 0x1cb38
        0x0001bf9c:    ed9f1b18    ....    VLDR     d1,[pc,#96] ; [0x1c000] = 0
        0x0001bfa0:    ec532b11    S..+    VMOV     r2,r3,d1
        0x0001bfa4:    f000fdc8    ....    BL       __aeabi_ddiv ; 0x1cb38
        0x0001bfa8:    f000fd88    ....    BL       __aeabi_d2f ; 0x1cabc
        0x0001bfac:    f001f822    ..".    BL       __aeabi_f2d ; 0x1cff4
        0x0001bfb0:    ec410b10    A...    VMOV     d0,r0,r1
        0x0001bfb4:    a014        ..      ADR      r0,{pc}+0x54 ; 0x1c008
        0x0001bfb6:    ec532b10    S..+    VMOV     r2,r3,d0
        0x0001bfba:    f7fef8dd    ....    BL       am_sprintf ; 0x1a178
        0x0001bfbe:    f1070042    ..B.    ADD      r0,r7,#0x42
        0x0001bfc2:    f000fab7    ....    BL       portable_fini ; 0x1c534
        0x0001bfc6:    f60d0d2c    ..,.    ADD      sp,sp,#0x82c
        0x0001bfca:    2000        .       MOVS     r0,#0
        0x0001bfcc:    ecbd8b06    ....    VPOP     {d8-d10}
        0x0001bfd0:    e8bd8ff0    ....    POP      {r4-r11,pc}
    $d
        0x0001bfd4:    00000000    ....    DCD    0
        0x0001bfd8:    65726f43    Core    DCD    1701998403
        0x0001bfdc:    6b72614d    Mark    DCD    1802658125
        0x0001bfe0:    302e3120     1.0    DCD    808333600
        0x0001bfe4:    25203a20     : %    DCD    622869024
        0x0001bfe8:    202f2066    f /     DCD    539959398
        0x0001bfec:    25207325    %s %    DCD    622883621
        0x0001bff0:    00000073    s...    DCD    115
        0x0001bff4:    25202f20     / %    DCD    622866208
        0x0001bff8:    00000073    s...    DCD    115
        0x0001bffc:    0001d400    ....    DCD    119808
        0x0001c000:    00000000    ....    DCD    0
        0x0001c004:    40580000    ..X@    DCD    1079508992
        0x0001c008:    4d2f4d43    CM/M    DCD    1294945603
        0x0001c00c:    253d7a48    Hz=%    DCD    624785992
        0x0001c010:    2e66332e    .3f.    DCD    778449710
        0x0001c014:    0000000a    ....    DCD    10
    $t
    i.matrix_sum
    matrix_sum
        0x0001c018:    e92d01f0    -...    PUSH     {r4-r8}
        0x0001c01c:    2400        .$      MOVS     r4,#0
        0x0001c01e:    46a0        .F      MOV      r8,r4
        0x0001c020:    46a4        .F      MOV      r12,r4
        0x0001c022:    2800        .(      CMP      r0,#0
        0x0001c024:    bf18        ..      IT       NE
        0x0001c026:    2500        .%      MOVNE    r5,#0
        0x0001c028:    d916        ..      BLS      0x1c058 ; matrix_sum + 64
        0x0001c02a:    e000        ..      B        0x1c02e ; matrix_sum + 22
        0x0001c02c:    b188        ..      CBZ      r0,0x1c052 ; matrix_sum + 58
        0x0001c02e:    fb05f300    ....    MUL      r3,r5,r0
        0x0001c032:    eb010683    ....    ADD      r6,r1,r3,LSL #2
        0x0001c036:    4607        .F      MOV      r7,r0
        0x0001c038:    6833        3h      LDR      r3,[r6,#0]
        0x0001c03a:    441c        .D      ADD      r4,r4,r3
        0x0001c03c:    4294        .B      CMP      r4,r2
        0x0001c03e:    dd0f        ..      BLE      0x1c060 ; matrix_sum + 72
        0x0001c040:    f10c0c0a    ....    ADD      r12,r12,#0xa
        0x0001c044:    fa0ffc8c    ....    SXTH     r12,r12
        0x0001c048:    2400        .$      MOVS     r4,#0
        0x0001c04a:    1d36        6.      ADDS     r6,r6,#4
        0x0001c04c:    4698        .F      MOV      r8,r3
        0x0001c04e:    1e7f        ..      SUBS     r7,r7,#1
        0x0001c050:    d1f2        ..      BNE      0x1c038 ; matrix_sum + 32
        0x0001c052:    1c6d        m.      ADDS     r5,r5,#1
        0x0001c054:    4285        .B      CMP      r5,r0
        0x0001c056:    d3e9        ..      BCC      0x1c02c ; matrix_sum + 20
        0x0001c058:    e8bd01f0    ....    POP      {r4-r8}
        0x0001c05c:    4660        `F      MOV      r0,r12
        0x0001c05e:    4770        pG      BX       lr
        0x0001c060:    4543        CE      CMP      r3,r8
        0x0001c062:    bfcc        ..      ITE      GT
        0x0001c064:    f04f0801    O...    MOVGT    r8,#1
        0x0001c068:    f04f0800    O...    MOVLE    r8,#0
        0x0001c06c:    44c4        .D      ADD      r12,r12,r8
        0x0001c06e:    fa0ffc8c    ....    SXTH     r12,r12
        0x0001c072:    e7ea        ..      B        0x1c04a ; matrix_sum + 50
    i.matrix_test
    matrix_test
        0x0001c074:    e92d4fff    -..O    PUSH     {r0-r11,lr}
        0x0001c078:    b091        ..      SUB      sp,sp,#0x44
        0x0001c07a:    2600        .&      MOVS     r6,#0
        0x0001c07c:    981e        ..      LDR      r0,[sp,#0x78]
        0x0001c07e:    9a13        ..      LDR      r2,[sp,#0x4c]
        0x0001c080:    f4404070    @.p@    ORR      r0,r0,#0xf000
        0x0001c084:    b200        ..      SXTH     r0,r0
        0x0001c086:    900c        ..      STR      r0,[sp,#0x30]
        0x0001c088:    9811        ..      LDR      r0,[sp,#0x44]
        0x0001c08a:    991e        ..      LDR      r1,[sp,#0x78]
        0x0001c08c:    fb00f300    ....    MUL      r3,r0,r0
        0x0001c090:    930b        ..      STR      r3,[sp,#0x2c]
        0x0001c092:    2800        .(      CMP      r0,#0
        0x0001c094:    bf18        ..      IT       NE
        0x0001c096:    ea5f0c03    _...    MOVSNE   r12,r3
        0x0001c09a:    d014        ..      BEQ      0x1c0c6 ; matrix_test + 82
        0x0001c09c:    f0100001    ....    ANDS     r0,r0,#1
        0x0001c0a0:    d002        ..      BEQ      0x1c0a8 ; matrix_test + 52
        0x0001c0a2:    8813        ..      LDRH     r3,[r2,#0]
        0x0001c0a4:    440b        .D      ADD      r3,r3,r1
        0x0001c0a6:    8013        ..      STRH     r3,[r2,#0]
        0x0001c0a8:    4584        .E      CMP      r12,r0
        0x0001c0aa:    d90c        ..      BLS      0x1c0c6 ; matrix_test + 82
        0x0001c0ac:    f8323010    2..0    LDRH     r3,[r2,r0,LSL #1]
        0x0001c0b0:    440b        .D      ADD      r3,r3,r1
        0x0001c0b2:    f8223010    "..0    STRH     r3,[r2,r0,LSL #1]
        0x0001c0b6:    eb020340    ..@.    ADD      r3,r2,r0,LSL #1
        0x0001c0ba:    1c80        ..      ADDS     r0,r0,#2
        0x0001c0bc:    885c        \.      LDRH     r4,[r3,#2]
        0x0001c0be:    4584        .E      CMP      r12,r0
        0x0001c0c0:    440c        .D      ADD      r4,r4,r1
        0x0001c0c2:    805c        \.      STRH     r4,[r3,#2]
        0x0001c0c4:    d8f2        ..      BHI      0x1c0ac ; matrix_test + 56
        0x0001c0c6:    e9dd0911    ....    LDRD     r0,r9,[sp,#0x44]
        0x0001c0ca:    f8dd804c    ..L.    LDR      r8,[sp,#0x4c]
        0x0001c0ce:    9d1e        ..      LDR      r5,[sp,#0x78]
        0x0001c0d0:    2800        .(      CMP      r0,#0
        0x0001c0d2:    bf18        ..      IT       NE
        0x0001c0d4:    2400        .$      MOVNE    r4,#0
        0x0001c0d6:    bf88        ..      IT       HI
        0x0001c0d8:    0847        G.      LSRHI    r7,r0,#1
        0x0001c0da:    d926        &.      BLS      0x1c12a ; matrix_test + 182
        0x0001c0dc:    fb04f100    ....    MUL      r1,r4,r0
        0x0001c0e0:    eb080241    ..A.    ADD      r2,r8,r1,LSL #1
        0x0001c0e4:    eb090181    ....    ADD      r1,r9,r1,LSL #2
        0x0001c0e8:    f1a20c02    ....    SUB      r12,r2,#2
        0x0001c0ec:    f1a10304    ....    SUB      r3,r1,#4
        0x0001c0f0:    f0100f01    ....    TST      r0,#1
        0x0001c0f4:    d005        ..      BEQ      0x1c102 ; matrix_test + 142
        0x0001c0f6:    f93c1f02    <...    LDRSH    r1,[r12,#2]!
        0x0001c0fa:    fb01f105    ....    MUL      r1,r1,r5
        0x0001c0fe:    f8431f04    C...    STR      r1,[r3,#4]!
        0x0001c102:    003a        :.      MOVS     r2,r7
        0x0001c104:    d00b        ..      BEQ      0x1c11e ; matrix_test + 170
        0x0001c106:    bf00        ..      NOP      
        0x0001c108:    f9bc1002    ....    LDRSH    r1,[r12,#2]
        0x0001c10c:    4369        iC      MULS     r1,r5,r1
        0x0001c10e:    6059        Y`      STR      r1,[r3,#4]
        0x0001c110:    f93c1f04    <...    LDRSH    r1,[r12,#4]!
        0x0001c114:    4369        iC      MULS     r1,r5,r1
        0x0001c116:    f8431f08    C...    STR      r1,[r3,#8]!
        0x0001c11a:    1e52        R.      SUBS     r2,r2,#1
        0x0001c11c:    d1f4        ..      BNE      0x1c108 ; matrix_test + 148
        0x0001c11e:    1c64        d.      ADDS     r4,r4,#1
        0x0001c120:    4284        .B      CMP      r4,r0
        0x0001c122:    d202        ..      BCS      0x1c12a ; matrix_test + 182
        0x0001c124:    2800        .(      CMP      r0,#0
        0x0001c126:    d1d9        ..      BNE      0x1c0dc ; matrix_test + 104
        0x0001c128:    e7f9        ..      B        0x1c11e ; matrix_test + 170
        0x0001c12a:    e9dd0111    ....    LDRD     r0,r1,[sp,#0x44]
        0x0001c12e:    9a0c        ..      LDR      r2,[sp,#0x30]
        0x0001c130:    f7ffff72    ..r.    BL       matrix_sum ; 0x1c018
        0x0001c134:    4631        1F      MOV      r1,r6
        0x0001c136:    f7fff9a5    ....    BL       crc16 ; 0x1b484
        0x0001c13a:    9001        ..      STR      r0,[sp,#4]
        0x0001c13c:    e9ddc811    ....    LDRD     r12,r8,[sp,#0x44]
        0x0001c140:    e9ddba13    ....    LDRD     r11,r10,[sp,#0x4c]
        0x0001c144:    f1bc0f00    ....    CMP      r12,#0
        0x0001c148:    bf18        ..      IT       NE
        0x0001c14a:    2400        .$      MOVNE    r4,#0
        0x0001c14c:    bf84        ..      ITT      HI
        0x0001c14e:    ea4f095c    O.\.    LSRHI    r9,r12,#1
        0x0001c152:    2700        .'      MOVHI    r7,#0
        0x0001c154:    d92c        ,.      BLS      0x1c1b0 ; matrix_test + 316
        0x0001c156:    4638        8F      MOV      r0,r7
        0x0001c158:    f8487024    H.$p    STR      r7,[r8,r4,LSL #2]
        0x0001c15c:    f1bc0f00    ....    CMP      r12,#0
        0x0001c160:    d023        #.      BEQ      0x1c1aa ; matrix_test + 310
        0x0001c162:    fb04f10c    ....    MUL      r1,r4,r12
        0x0001c166:    eb0b0141    ..A.    ADD      r1,r11,r1,LSL #1
        0x0001c16a:    1e8a        ..      SUBS     r2,r1,#2
        0x0001c16c:    f1aa0302    ....    SUB      r3,r10,#2
        0x0001c170:    f01c0f01    ....    TST      r12,#1
        0x0001c174:    d005        ..      BEQ      0x1c182 ; matrix_test + 270
        0x0001c176:    f8321f02    2...    LDRH     r1,[r2,#2]!
        0x0001c17a:    f8335f02    3.._    LDRH     r5,[r3,#2]!
        0x0001c17e:    fb110005    ....    SMLABB   r0,r1,r5,r0
        0x0001c182:    2500        .%      MOVS     r5,#0
        0x0001c184:    ea5f0109    _...    MOVS     r1,r9
        0x0001c188:    d00c        ..      BEQ      0x1c1a4 ; matrix_test + 304
        0x0001c18a:    8856        V.      LDRH     r6,[r2,#2]
        0x0001c18c:    f8b3e002    ....    LDRH     lr,[r3,#2]
        0x0001c190:    fb16000e    ....    SMLABB   r0,r6,lr,r0
        0x0001c194:    f8326f04    2..o    LDRH     r6,[r2,#4]!
        0x0001c198:    f833ef04    3...    LDRH     lr,[r3,#4]!
        0x0001c19c:    fb16550e    ...U    SMLABB   r5,r6,lr,r5
        0x0001c1a0:    1e49        I.      SUBS     r1,r1,#1
        0x0001c1a2:    d1f2        ..      BNE      0x1c18a ; matrix_test + 278
        0x0001c1a4:    4428        (D      ADD      r0,r0,r5
        0x0001c1a6:    f8480024    H.$.    STR      r0,[r8,r4,LSL #2]
        0x0001c1aa:    1c64        d.      ADDS     r4,r4,#1
        0x0001c1ac:    4564        dE      CMP      r4,r12
        0x0001c1ae:    d3d2        ..      BCC      0x1c156 ; matrix_test + 226
        0x0001c1b0:    e9dd0111    ....    LDRD     r0,r1,[sp,#0x44]
        0x0001c1b4:    9a0c        ..      LDR      r2,[sp,#0x30]
        0x0001c1b6:    f7ffff2f    ../.    BL       matrix_sum ; 0x1c018
        0x0001c1ba:    9901        ..      LDR      r1,[sp,#4]
        0x0001c1bc:    f7fff962    ..b.    BL       crc16 ; 0x1b484
        0x0001c1c0:    9001        ..      STR      r0,[sp,#4]
        0x0001c1c2:    e9dd0711    ....    LDRD     r0,r7,[sp,#0x44]
        0x0001c1c6:    9913        ..      LDR      r1,[sp,#0x4c]
        0x0001c1c8:    9109        ..      STR      r1,[sp,#0x24]
        0x0001c1ca:    9914        ..      LDR      r1,[sp,#0x50]
        0x0001c1cc:    910d        ..      STR      r1,[sp,#0x34]
        0x0001c1ce:    2800        .(      CMP      r0,#0
        0x0001c1d0:    bf18        ..      IT       NE
        0x0001c1d2:    2500        .%      MOVNE    r5,#0
        0x0001c1d4:    bf88        ..      IT       HI
        0x0001c1d6:    ea4f0850    O.P.    LSRHI    r8,r0,#1
        0x0001c1da:    d93f        ?.      BLS      0x1c25c ; matrix_test + 488
        0x0001c1dc:    f04f0600    O...    MOV      r6,#0
        0x0001c1e0:    2800        .(      CMP      r0,#0
        0x0001c1e2:    d935        5.      BLS      0x1c250 ; matrix_test + 476
        0x0001c1e4:    9a09        ..      LDR      r2,[sp,#0x24]
        0x0001c1e6:    fb05f100    ....    MUL      r1,r5,r0
        0x0001c1ea:    eb020a41    ..A.    ADD      r10,r2,r1,LSL #1
        0x0001c1ee:    fb056900    ...i    MLA      r9,r5,r0,r6
        0x0001c1f2:    2100        .!      MOVS     r1,#0
        0x0001c1f4:    f8471029    G.).    STR      r1,[r7,r9,LSL #2]
        0x0001c1f8:    b338        8.      CBZ      r0,0x1c24a ; matrix_test + 470
        0x0001c1fa:    1a33        3.      SUBS     r3,r6,r0
        0x0001c1fc:    9a0d        ..      LDR      r2,[sp,#0x34]
        0x0001c1fe:    f1aa0c02    ....    SUB      r12,r10,#2
        0x0001c202:    eb020343    ..C.    ADD      r3,r2,r3,LSL #1
        0x0001c206:    f0100f01    ....    TST      r0,#1
        0x0001c20a:    d006        ..      BEQ      0x1c21a ; matrix_test + 422
        0x0001c20c:    eb030340    ..@.    ADD      r3,r3,r0,LSL #1
        0x0001c210:    f83c2f02    <../    LDRH     r2,[r12,#2]!
        0x0001c214:    881c        ..      LDRH     r4,[r3,#0]
        0x0001c216:    fb121104    ....    SMLABB   r1,r2,r4,r1
        0x0001c21a:    2400        .$      MOVS     r4,#0
        0x0001c21c:    ea5f0208    _...    MOVS     r2,r8
        0x0001c220:    d010        ..      BEQ      0x1c244 ; matrix_test + 464
        0x0001c222:    bf00        ..      NOP      
        0x0001c224:    f8bcb002    ....    LDRH     r11,[r12,#2]
        0x0001c228:    f833e010    3...    LDRH     lr,[r3,r0,LSL #1]
        0x0001c22c:    fb1b110e    ....    SMLABB   r1,r11,lr,r1
        0x0001c230:    eb030380    ....    ADD      r3,r3,r0,LSL #2
        0x0001c234:    f83cbf04    <...    LDRH     r11,[r12,#4]!
        0x0001c238:    f8b3e000    ....    LDRH     lr,[r3,#0]
        0x0001c23c:    fb1b440e    ...D    SMLABB   r4,r11,lr,r4
        0x0001c240:    1e52        R.      SUBS     r2,r2,#1
        0x0001c242:    d1ef        ..      BNE      0x1c224 ; matrix_test + 432
        0x0001c244:    4421        !D      ADD      r1,r1,r4
        0x0001c246:    f8471029    G.).    STR      r1,[r7,r9,LSL #2]
        0x0001c24a:    1c76        v.      ADDS     r6,r6,#1
        0x0001c24c:    4286        .B      CMP      r6,r0
        0x0001c24e:    d3ce        ..      BCC      0x1c1ee ; matrix_test + 378
        0x0001c250:    1c6d        m.      ADDS     r5,r5,#1
        0x0001c252:    4285        .B      CMP      r5,r0
        0x0001c254:    d202        ..      BCS      0x1c25c ; matrix_test + 488
        0x0001c256:    2800        .(      CMP      r0,#0
        0x0001c258:    d0fa        ..      BEQ      0x1c250 ; matrix_test + 476
        0x0001c25a:    e7bf        ..      B        0x1c1dc ; matrix_test + 360
        0x0001c25c:    e9dd0111    ....    LDRD     r0,r1,[sp,#0x44]
        0x0001c260:    9a0c        ..      LDR      r2,[sp,#0x30]
        0x0001c262:    f7fffed9    ....    BL       matrix_sum ; 0x1c018
        0x0001c266:    9901        ..      LDR      r1,[sp,#4]
        0x0001c268:    f7fff90c    ....    BL       crc16 ; 0x1b484
        0x0001c26c:    9001        ..      STR      r0,[sp,#4]
        0x0001c26e:    e9dd0811    ....    LDRD     r0,r8,[sp,#0x44]
        0x0001c272:    9913        ..      LDR      r1,[sp,#0x4c]
        0x0001c274:    910a        ..      STR      r1,[sp,#0x28]
        0x0001c276:    f8ddb050    ..P.    LDR      r11,[sp,#0x50]
        0x0001c27a:    2800        .(      CMP      r0,#0
        0x0001c27c:    bf18        ..      IT       NE
        0x0001c27e:    2600        .&      MOVNE    r6,#0
        0x0001c280:    bf88        ..      IT       HI
        0x0001c282:    f04f0900    O...    MOVHI    r9,#0
        0x0001c286:    d92d        -.      BLS      0x1c2e4 ; matrix_test + 624
        0x0001c288:    f04f0400    O...    MOV      r4,#0
        0x0001c28c:    2800        .(      CMP      r0,#0
        0x0001c28e:    d923        #.      BLS      0x1c2d8 ; matrix_test + 612
        0x0001c290:    9a0a        ..      LDR      r2,[sp,#0x28]
        0x0001c292:    fb06f100    ....    MUL      r1,r6,r0
        0x0001c296:    eb020a41    ..A.    ADD      r10,r2,r1,LSL #1
        0x0001c29a:    fb064e00    ...N    MLA      lr,r6,r0,r4
        0x0001c29e:    4649        IF      MOV      r1,r9
        0x0001c2a0:    f848902e    H...    STR      r9,[r8,lr,LSL #2]
        0x0001c2a4:    b1a8        ..      CBZ      r0,0x1c2d2 ; matrix_test + 606
        0x0001c2a6:    4652        RF      MOV      r2,r10
        0x0001c2a8:    eb0b0344    ..D.    ADD      r3,r11,r4,LSL #1
        0x0001c2ac:    ea4f0500    O...    MOV.W    r5,r0
        0x0001c2b0:    f832cb02    2...    LDRH     r12,[r2],#2
        0x0001c2b4:    881f        ..      LDRH     r7,[r3,#0]
        0x0001c2b6:    fb1cfc07    ....    SMULBB   r12,r12,r7
        0x0001c2ba:    f3cc0783    ....    UBFX     r7,r12,#2,#4
        0x0001c2be:    f3cc1c46    ..F.    UBFX     r12,r12,#5,#7
        0x0001c2c2:    fb17110c    ....    SMLABB   r1,r7,r12,r1
        0x0001c2c6:    eb030340    ..@.    ADD      r3,r3,r0,LSL #1
        0x0001c2ca:    1e6d        m.      SUBS     r5,r5,#1
        0x0001c2cc:    d1f0        ..      BNE      0x1c2b0 ; matrix_test + 572
        0x0001c2ce:    f848102e    H...    STR      r1,[r8,lr,LSL #2]
        0x0001c2d2:    1c64        d.      ADDS     r4,r4,#1
        0x0001c2d4:    4284        .B      CMP      r4,r0
        0x0001c2d6:    d3e0        ..      BCC      0x1c29a ; matrix_test + 550
        0x0001c2d8:    1c76        v.      ADDS     r6,r6,#1
        0x0001c2da:    4286        .B      CMP      r6,r0
        0x0001c2dc:    d202        ..      BCS      0x1c2e4 ; matrix_test + 624
        0x0001c2de:    2800        .(      CMP      r0,#0
        0x0001c2e0:    d0fa        ..      BEQ      0x1c2d8 ; matrix_test + 612
        0x0001c2e2:    e7d1        ..      B        0x1c288 ; matrix_test + 532
        0x0001c2e4:    e9dd0111    ....    LDRD     r0,r1,[sp,#0x44]
        0x0001c2e8:    9a0c        ..      LDR      r2,[sp,#0x30]
        0x0001c2ea:    f7fffe95    ....    BL       matrix_sum ; 0x1c018
        0x0001c2ee:    9901        ..      LDR      r1,[sp,#4]
        0x0001c2f0:    f7fff8c8    ....    BL       crc16 ; 0x1b484
        0x0001c2f4:    9a1e        ..      LDR      r2,[sp,#0x78]
        0x0001c2f6:    9911        ..      LDR      r1,[sp,#0x44]
        0x0001c2f8:    4252        RB      RSBS     r2,r2,#0
        0x0001c2fa:    9b13        ..      LDR      r3,[sp,#0x4c]
        0x0001c2fc:    fa0ffc82    ....    SXTH     r12,r2
        0x0001c300:    2900        .)      CMP      r1,#0
        0x0001c302:    bf1c        ..      ITT      NE
        0x0001c304:    9c0b        ..      LDRNE    r4,[sp,#0x2c]
        0x0001c306:    2c00        .,      CMPNE    r4,#0
        0x0001c308:    d015        ..      BEQ      0x1c336 ; matrix_test + 706
        0x0001c30a:    f0110101    ....    ANDS     r1,r1,#1
        0x0001c30e:    d002        ..      BEQ      0x1c316 ; matrix_test + 674
        0x0001c310:    881a        ..      LDRH     r2,[r3,#0]
        0x0001c312:    4462        bD      ADD      r2,r2,r12
        0x0001c314:    801a        ..      STRH     r2,[r3,#0]
        0x0001c316:    428c        .B      CMP      r4,r1
        0x0001c318:    d90d        ..      BLS      0x1c336 ; matrix_test + 706
        0x0001c31a:    bf00        ..      NOP      
        0x0001c31c:    f8332011    3..     LDRH     r2,[r3,r1,LSL #1]
        0x0001c320:    4462        bD      ADD      r2,r2,r12
        0x0001c322:    f8232011    #..     STRH     r2,[r3,r1,LSL #1]
        0x0001c326:    eb030241    ..A.    ADD      r2,r3,r1,LSL #1
        0x0001c32a:    1c89        ..      ADDS     r1,r1,#2
        0x0001c32c:    8855        U.      LDRH     r5,[r2,#2]
        0x0001c32e:    428c        .B      CMP      r4,r1
        0x0001c330:    4465        eD      ADD      r5,r5,r12
        0x0001c332:    8055        U.      STRH     r5,[r2,#2]
        0x0001c334:    d8f2        ..      BHI      0x1c31c ; matrix_test + 680
        0x0001c336:    b015        ..      ADD      sp,sp,#0x54
        0x0001c338:    b200        ..      SXTH     r0,r0
        0x0001c33a:    e8bd8ff0    ....    POP      {r4-r11,pc}
    i.ndigits_in_u64
    ndigits_in_u64
        0x0001c33e:    e92d01f0    -...    PUSH     {r4-r8}
        0x0001c342:    ea500201    P...    ORRS     r2,r0,r1
        0x0001c346:    bf0e        ..      ITEE     EQ
        0x0001c348:    2301        .#      MOVEQ    r3,#1
        0x0001c34a:    2300        .#      MOVNE    r3,#0
        0x0001c34c:    f04f0c00    O...    MOVNE    r12,#0
        0x0001c350:    d054        T.      BEQ      0x1c3fc ; ndigits_in_u64 + 190
        0x0001c352:    2900        .)      CMP      r1,#0
        0x0001c354:    d03b        ;.      BEQ      0x1c3ce ; ndigits_in_u64 + 144
        0x0001c356:    084c        L.      LSRS     r4,r1,#1
        0x0001c358:    ea4f0690    O...    LSR      r6,r0,#2
        0x0001c35c:    ea4f0230    O.0.    RRX      r2,r0
        0x0001c360:    ea467681    F..v    ORR      r6,r6,r1,LSL #30
        0x0001c364:    1992        ..      ADDS     r2,r2,r6
        0x0001c366:    eb440491    D...    ADC      r4,r4,r1,LSR #2
        0x0001c36a:    ea4f1612    O...    LSR      r6,r2,#4
        0x0001c36e:    ea467504    F..u    ORR      r5,r6,r4,LSL #28
        0x0001c372:    18aa        ..      ADDS     r2,r5,r2
        0x0001c374:    eb441414    D...    ADC      r4,r4,r4,LSR #4
        0x0001c378:    ea4f2612    O..&    LSR      r6,r2,#8
        0x0001c37c:    ea466504    F..e    ORR      r5,r6,r4,LSL #24
        0x0001c380:    18aa        ..      ADDS     r2,r5,r2
        0x0001c382:    eb442514    D..%    ADC      r5,r4,r4,LSR #8
        0x0001c386:    ea4f4612    O..F    LSR      r6,r2,#16
        0x0001c38a:    ea464405    F..D    ORR      r4,r6,r5,LSL #16
        0x0001c38e:    18a4        ..      ADDS     r4,r4,r2
        0x0001c390:    eb454215    E..B    ADC      r2,r5,r5,LSR #16
        0x0001c394:    18a4        ..      ADDS     r4,r4,r2
        0x0001c396:    eb42020c    B...    ADC      r2,r2,r12
        0x0001c39a:    08e4        ..      LSRS     r4,r4,#3
        0x0001c39c:    ea447442    D.Bt    ORR      r4,r4,r2,LSL #29
        0x0001c3a0:    270a        .'      MOVS     r7,#0xa
        0x0001c3a2:    fba45807    ...X    UMULL    r5,r8,r4,r7
        0x0001c3a6:    08d2        ..      LSRS     r2,r2,#3
        0x0001c3a8:    fb028707    ....    MLA      r7,r2,r7,r8
        0x0001c3ac:    2600        .&      MOVS     r6,#0
        0x0001c3ae:    fb047606    ...v    MLA      r6,r4,r6,r7
        0x0001c3b2:    1b40        @.      SUBS     r0,r0,r5
        0x0001c3b4:    eb610106    a...    SBC      r1,r1,r6
        0x0001c3b8:    1d85        ..      ADDS     r5,r0,#6
        0x0001c3ba:    f1410000    A...    ADC      r0,r1,#0
        0x0001c3be:    092d        -.      LSRS     r5,r5,#4
        0x0001c3c0:    ea457100    E..q    ORR      r1,r5,r0,LSL #28
        0x0001c3c4:    0905        ..      LSRS     r5,r0,#4
        0x0001c3c6:    1908        ..      ADDS     r0,r1,r4
        0x0001c3c8:    eb450102    E...    ADC      r1,r5,r2
        0x0001c3cc:    e012        ..      B        0x1c3f4 ; ndigits_in_u64 + 182
        0x0001c3ce:    0841        A.      LSRS     r1,r0,#1
        0x0001c3d0:    eb010190    ....    ADD      r1,r1,r0,LSR #2
        0x0001c3d4:    eb011111    ....    ADD      r1,r1,r1,LSR #4
        0x0001c3d8:    eb012111    ...!    ADD      r1,r1,r1,LSR #8
        0x0001c3dc:    eb014111    ...A    ADD      r1,r1,r1,LSR #16
        0x0001c3e0:    08c9        ..      LSRS     r1,r1,#3
        0x0001c3e2:    424a        JB      RSBS     r2,r1,#0
        0x0001c3e4:    eb020282    ....    ADD      r2,r2,r2,LSL #2
        0x0001c3e8:    eb000042    ..B.    ADD      r0,r0,r2,LSL #1
        0x0001c3ec:    1d80        ..      ADDS     r0,r0,#6
        0x0001c3ee:    eb011010    ....    ADD      r0,r1,r0,LSR #4
        0x0001c3f2:    4661        aF      MOV      r1,r12
        0x0001c3f4:    1c5b        [.      ADDS     r3,r3,#1
        0x0001c3f6:    ea500201    P...    ORRS     r2,r0,r1
        0x0001c3fa:    d1aa        ..      BNE      0x1c352 ; ndigits_in_u64 + 20
        0x0001c3fc:    e8bd01f0    ....    POP      {r4-r8}
        0x0001c400:    4618        .F      MOV      r0,r3
        0x0001c402:    4770        pG      BX       lr
    i.nonblocking_read
    nonblocking_read
        0x0001c404:    e92d4ff0    -..O    PUSH     {r4-r11,lr}
        0x0001c408:    e9d15702    ...W    LDRD     r5,r7,[r1,#8]
        0x0001c40c:    f8d18004    ....    LDR      r8,[r1,#4]
        0x0001c410:    b097        ..      SUB      sp,sp,#0x5c
        0x0001c412:    1e06        ..      SUBS     r6,r0,#0
        0x0001c414:    bf1c        ..      ITT      NE
        0x0001c416:    6801        .h      LDRNE    r1,[r0,#0]
        0x0001c418:    f0117f80    ....    TSTNE    r1,#0x1000000
        0x0001c41c:    d004        ..      BEQ      0x1c428 ; nonblocking_read + 36
        0x0001c41e:    4a43        CJ      LDR      r2,[pc,#268] ; [0x1c52c] = 0xea9e06
        0x0001c420:    f021417f    !..A    BIC      r1,r1,#0xff000000
        0x0001c424:    4291        .B      CMP      r1,r2
        0x0001c426:    d003        ..      BEQ      0x1c430 ; nonblocking_read + 44
        0x0001c428:    b017        ..      ADD      sp,sp,#0x5c
        0x0001c42a:    2002        .       MOVS     r0,#2
        0x0001c42c:    e8bd8ff0    ....    POP      {r4-r11,pc}
        0x0001c430:    2f00        ./      CMP      r7,#0
        0x0001c432:    bf1c        ..      ITT      NE
        0x0001c434:    2100        .!      MOVNE    r1,#0
        0x0001c436:    6039        9`      STRNE    r1,[r7,#0]
        0x0001c438:    2d00        .-      CMP      r5,#0
        0x0001c43a:    bf02        ..      ITTT     EQ
        0x0001c43c:    2000        .       MOVEQ    r0,#0
        0x0001c43e:    b017        ..      ADDEQ    sp,sp,#0x5c
        0x0001c440:    e8bd8ff0    ....    POPEQ    {r4-r11,pc}
        0x0001c444:    f8961090    ....    LDRB     r1,[r6,#0x90]
        0x0001c448:    2900        .)      CMP      r1,#0
        0x0001c44a:    d047        G.      BEQ      0x1c4dc ; nonblocking_read + 216
        0x0001c44c:    46b1        .F      MOV      r9,r6
        0x0001c44e:    f7fbff95    ....    BL       am_hal_interrupt_master_disable ; 0x1837c
        0x0001c452:    9010        ..      STR      r0,[sp,#0x40]
        0x0001c454:    2000        .       MOVS     r0,#0
        0x0001c456:    f8d91024    ..$.    LDR      r1,[r9,#0x24]
        0x0001c45a:    2320         #      MOVS     r3,#0x20
        0x0001c45c:    0309        ..      LSLS     r1,r1,#12
        0x0001c45e:    f1014280    ...B    ADD      r2,r1,#0x40000000
        0x0001c462:    f10d0c20    .. .    ADD      r12,sp,#0x20
        0x0001c466:    f10d0a44    ..D.    ADD      r10,sp,#0x44
        0x0001c46a:    4604        .F      MOV      r4,r0
        0x0001c46c:    f50232e0    ...2    ADD      r2,r2,#0x1c000
        0x0001c470:    6991        .i      LDR      r1,[r2,#0x18]
        0x0001c472:    f0110f10    ....    TST      r1,#0x10
        0x0001c476:    d10b        ..      BNE      0x1c490 ; nonblocking_read + 140
        0x0001c478:    6811        .h      LDR      r1,[r2,#0]
        0x0001c47a:    f4116f70    ..po    TST      r1,#0xf00
        0x0001c47e:    d002        ..      BEQ      0x1c486 ; nonblocking_read + 130
        0x0001c480:    f04f6400    O..d    MOV      r4,#0x8000000
        0x0001c484:    e004        ..      B        0x1c490 ; nonblocking_read + 140
        0x0001c486:    f80c1000    ....    STRB     r1,[r12,r0]
        0x0001c48a:    1c40        @.      ADDS     r0,r0,#1
        0x0001c48c:    4298        .B      CMP      r0,r3
        0x0001c48e:    d3ef        ..      BCC      0x1c470 ; nonblocking_read + 108
        0x0001c490:    f1ba0f00    ....    CMP      r10,#0
        0x0001c494:    bf18        ..      IT       NE
        0x0001c496:    9011        ..      STRNE    r0,[sp,#0x44]
        0x0001c498:    b134        4.      CBZ      r4,0x1c4a8 ; nonblocking_read + 164
        0x0001c49a:    9810        ..      LDR      r0,[sp,#0x40]
        0x0001c49c:    f7fbff72    ..r.    BL       am_hal_interrupt_master_set ; 0x18384
        0x0001c4a0:    b017        ..      ADD      sp,sp,#0x5c
        0x0001c4a2:    4620         F      MOV      r0,r4
        0x0001c4a4:    e8bd8ff0    ....    POP      {r4-r11,pc}
        0x0001c4a8:    4661        aF      MOV      r1,r12
        0x0001c4aa:    f1090094    ....    ADD      r0,r9,#0x94
        0x0001c4ae:    9a11        ..      LDR      r2,[sp,#0x44]
        0x0001c4b0:    f7fcfff2    ....    BL       am_hal_queue_item_add ; 0x19498
        0x0001c4b4:    2800        .(      CMP      r0,#0
        0x0001c4b6:    bf08        ..      IT       EQ
        0x0001c4b8:    4c1d        .L      LDREQ    r4,[pc,#116] ; [0x1c530] = 0x8000001
        0x0001c4ba:    d0ee        ..      BEQ      0x1c49a ; nonblocking_read + 150
        0x0001c4bc:    9810        ..      LDR      r0,[sp,#0x40]
        0x0001c4be:    f7fbff61    ..a.    BL       am_hal_interrupt_master_set ; 0x18384
        0x0001c4c2:    f8d6009c    ....    LDR      r0,[r6,#0x9c]
        0x0001c4c6:    4285        .B      CMP      r5,r0
        0x0001c4c8:    bf28        (.      IT       CS
        0x0001c4ca:    4605        .F      MOVCS    r5,r0
        0x0001c4cc:    462a        *F      MOV      r2,r5
        0x0001c4ce:    4641        AF      MOV      r1,r8
        0x0001c4d0:    f1060094    ....    ADD      r0,r6,#0x94
        0x0001c4d4:    9500        ..      STR      r5,[sp,#0]
        0x0001c4d6:    f7fdf831    ..1.    BL       am_hal_queue_item_get ; 0x1953c
        0x0001c4da:    e01e        ..      B        0x1c51a ; nonblocking_read + 278
        0x0001c4dc:    2200        ."      MOVS     r2,#0
        0x0001c4de:    6a70        pj      LDR      r0,[r6,#0x24]
        0x0001c4e0:    466b        kF      MOV      r3,sp
        0x0001c4e2:    4614        .F      MOV      r4,r2
        0x0001c4e4:    2d00        .-      CMP      r5,#0
        0x0001c4e6:    bf82        ..      ITTT     HI
        0x0001c4e8:    0300        ..      LSLHI    r0,r0,#12
        0x0001c4ea:    f1004180    ...A    ADDHI    r1,r0,#0x40000000
        0x0001c4ee:    f50131e0    ...1    ADDHI    r1,r1,#0x1c000
        0x0001c4f2:    d90f        ..      BLS      0x1c514 ; nonblocking_read + 272
        0x0001c4f4:    6988        .i      LDR      r0,[r1,#0x18]
        0x0001c4f6:    f0100f10    ....    TST      r0,#0x10
        0x0001c4fa:    d10b        ..      BNE      0x1c514 ; nonblocking_read + 272
        0x0001c4fc:    6808        .h      LDR      r0,[r1,#0]
        0x0001c4fe:    f4106f70    ..po    TST      r0,#0xf00
        0x0001c502:    d002        ..      BEQ      0x1c50a ; nonblocking_read + 262
        0x0001c504:    f04f6400    O..d    MOV      r4,#0x8000000
        0x0001c508:    e004        ..      B        0x1c514 ; nonblocking_read + 272
        0x0001c50a:    f8080002    ....    STRB     r0,[r8,r2]
        0x0001c50e:    1c52        R.      ADDS     r2,r2,#1
        0x0001c510:    42aa        .B      CMP      r2,r5
        0x0001c512:    d3ef        ..      BCC      0x1c4f4 ; nonblocking_read + 240
        0x0001c514:    2b00        .+      CMP      r3,#0
        0x0001c516:    bf18        ..      IT       NE
        0x0001c518:    9200        ..      STRNE    r2,[sp,#0]
        0x0001c51a:    2f00        ./      CMP      r7,#0
        0x0001c51c:    bf1c        ..      ITT      NE
        0x0001c51e:    9800        ..      LDRNE    r0,[sp,#0]
        0x0001c520:    6038        8`      STRNE    r0,[r7,#0]
        0x0001c522:    4620         F      MOV      r0,r4
        0x0001c524:    b017        ..      ADD      sp,sp,#0x5c
        0x0001c526:    e8bd8ff0    ....    POP      {r4-r11,pc}
    $d
        0x0001c52a:    0000        ..      DCW    0
        0x0001c52c:    00ea9e06    ....    DCD    15375878
        0x0001c530:    08000001    ....    DCD    134217729
    $t
    i.portable_fini
    portable_fini
        0x0001c534:    e92d41f0    -..A    PUSH     {r4-r8,lr}
        0x0001c538:    2100        .!      MOVS     r1,#0
        0x0001c53a:    7001        .p      STRB     r1,[r0,#0]
        0x0001c53c:    f7fcf85e    ..^.    BL       am_bsp_uart_printf_enable ; 0x185fc
        0x0001c540:    f7fdfeee    ....    BL       am_util_stdio_terminal_clear ; 0x1a320
        0x0001c544:    a02a        *.      ADR      r0,{pc}+0xac ; 0x1c5f0
        0x0001c546:    f7fdfec1    ....    BL       am_util_stdio_printf ; 0x1a2cc
        0x0001c54a:    4c33        3L      LDR      r4,[pc,#204] ; [0x1c618] = 0x100002f8
        0x0001c54c:    2500        .%      MOVS     r5,#0
        0x0001c54e:    e00c        ..      B        0x1c56a ; portable_fini + 54
        0x0001c550:    4620         F      MOV      r0,r4
        0x0001c552:    f7fdfebb    ....    BL       am_util_stdio_printf ; 0x1a2cc
        0x0001c556:    7820         x      LDRB     r0,[r4,#0]
        0x0001c558:    b128        (.      CBZ      r0,0x1c566 ; portable_fini + 50
        0x0001c55a:    bf00        ..      NOP      
        0x0001c55c:    f8140f01    ....    LDRB     r0,[r4,#1]!
        0x0001c560:    1c6d        m.      ADDS     r5,r5,#1
        0x0001c562:    2800        .(      CMP      r0,#0
        0x0001c564:    d1fa        ..      BNE      0x1c55c ; portable_fini + 40
        0x0001c566:    1c64        d.      ADDS     r4,r4,#1
        0x0001c568:    1c6d        m.      ADDS     r5,r5,#1
        0x0001c56a:    7820         x      LDRB     r0,[r4,#0]
        0x0001c56c:    2800        .(      CMP      r0,#0
        0x0001c56e:    bf18        ..      IT       NE
        0x0001c570:    f5b57f40    ..@.    CMPNE    r5,#0x300
        0x0001c574:    dbec        ..      BLT      0x1c550 ; portable_fini + 28
        0x0001c576:    f7fcf81b    ....    BL       am_bsp_uart_printf_disable ; 0x185b0
        0x0001c57a:    2103        .!      MOVS     r1,#3
        0x0001c57c:    4827        'H      LDR      r0,[pc,#156] ; [0x1c61c] = 0x100000e0
        0x0001c57e:    f7fcf899    ....    BL       am_devices_led_array_init ; 0x186b4
        0x0001c582:    2400        .$      MOVS     r4,#0
        0x0001c584:    4d26        &M      LDR      r5,[pc,#152] ; [0x1c620] = 0xaaaaaaab
        0x0001c586:    2601        .&      MOVS     r6,#1
        0x0001c588:    f05f0704    _...    MOVS.W   r7,#4
        0x0001c58c:    fba51004    ....    UMULL    r1,r0,r5,r4
        0x0001c590:    0880        ..      LSRS     r0,r0,#2
        0x0001c592:    eba00080    ....    SUB      r0,r0,r0,LSL #2
        0x0001c596:    eb040040    ..@.    ADD      r0,r4,r0,LSL #1
        0x0001c59a:    2803        .(      CMP      r0,#3
        0x0001c59c:    bf32        2.      ITEE     CC
        0x0001c59e:    fa06f200    ....    LSLCC    r2,r6,r0
        0x0001c5a2:    1ec0        ..      SUBCS    r0,r0,#3
        0x0001c5a4:    fa27f200    '...    LSRCS    r2,r7,r0
        0x0001c5a8:    f04f08c8    O...    MOV      r8,#0xc8
        0x0001c5ac:    2103        .!      MOVS     r1,#3
        0x0001c5ae:    481b        .H      LDR      r0,[pc,#108] ; [0x1c61c] = 0x100000e0
        0x0001c5b0:    f7fcf8c6    ....    BL       am_devices_led_array_out ; 0x18740
        0x0001c5b4:    4640        @F      MOV      r0,r8
        0x0001c5b6:    f7fdfe2b    ..+.    BL       am_util_delay_ms ; 0x1a210
        0x0001c5ba:    1c64        d.      ADDS     r4,r4,#1
        0x0001c5bc:    2c0c        .,      CMP      r4,#0xc
        0x0001c5be:    d3e5        ..      BCC      0x1c58c ; portable_fini + 88
        0x0001c5c0:    2400        .$      MOVS     r4,#0
        0x0001c5c2:    2207        ."      MOVS     r2,#7
        0x0001c5c4:    f44f7596    O..u    MOV      r5,#0x12c
        0x0001c5c8:    2103        .!      MOVS     r1,#3
        0x0001c5ca:    4814        .H      LDR      r0,[pc,#80] ; [0x1c61c] = 0x100000e0
        0x0001c5cc:    f7fcf8b8    ....    BL       am_devices_led_array_out ; 0x18740
        0x0001c5d0:    4628        (F      MOV      r0,r5
        0x0001c5d2:    f7fdfe1d    ....    BL       am_util_delay_ms ; 0x1a210
        0x0001c5d6:    2200        ."      MOVS     r2,#0
        0x0001c5d8:    2103        .!      MOVS     r1,#3
        0x0001c5da:    4810        .H      LDR      r0,[pc,#64] ; [0x1c61c] = 0x100000e0
        0x0001c5dc:    f7fcf8b0    ....    BL       am_devices_led_array_out ; 0x18740
        0x0001c5e0:    4628        (F      MOV      r0,r5
        0x0001c5e2:    f7fdfe15    ....    BL       am_util_delay_ms ; 0x1a210
        0x0001c5e6:    1c64        d.      ADDS     r4,r4,#1
        0x0001c5e8:    2c03        .,      CMP      r4,#3
        0x0001c5ea:    d3ea        ..      BCC      0x1c5c2 ; portable_fini + 142
        0x0001c5ec:    e8bd81f0    ....    POP      {r4-r8,pc}
    $d
        0x0001c5f0:    626d410a    .Amb    DCD    1651327242
        0x0001c5f4:    4d207169    iq M    DCD    1293971817
        0x0001c5f8:    6f726369    icro    DCD    1869767529
        0x0001c5fc:    726f4320     Cor    DCD    1919894304
        0x0001c600:    72616d65    emar    DCD    1918987621
        0x0001c604:    7572206b    k ru    DCD    1970413675
        0x0001c608:    6966206e    n fi    DCD    1768300654
        0x0001c60c:    6873696e    nish    DCD    1752394094
        0x0001c610:    0a216465    ed!.    DCD    169960549
        0x0001c614:    0000000a    ....    DCD    10
        0x0001c618:    100002f8    ....    DCD    268436216
        0x0001c61c:    100000e0    ....    DCD    268435680
        0x0001c620:    aaaaaaab    ....    DCD    2863311531
    $t
    i.portable_init
    portable_init
        0x0001c624:    b510        ..      PUSH     {r4,lr}
        0x0001c626:    b084        ..      SUB      sp,sp,#0x10
        0x0001c628:    2101        .!      MOVS     r1,#1
        0x0001c62a:    7001        .p      STRB     r1,[r0,#0]
        0x0001c62c:    f44f7140    O.@q    MOV      r1,#0x300
        0x0001c630:    483b        ;H      LDR      r0,[pc,#236] ; [0x1c720] = 0x100002f8
        0x0001c632:    f7fbfeb7    ....    BL       __aeabi_memclr ; 0x183a4
        0x0001c636:    483b        ;H      LDR      r0,[pc,#236] ; [0x1c724] = 0x10000038
        0x0001c638:    2400        .$      MOVS     r4,#0
        0x0001c63a:    4939        9I      LDR      r1,[pc,#228] ; [0x1c720] = 0x100002f8
        0x0001c63c:    6004        .`      STR      r4,[r0,#0]
        0x0001c63e:    6041        A`      STR      r1,[r0,#4]
        0x0001c640:    f7fbffdc    ....    BL       am_bsp_uart_printf_enable ; 0x185fc
        0x0001c644:    f7fdfe6c    ..l.    BL       am_util_stdio_terminal_clear ; 0x1a320
        0x0001c648:    a037        7.      ADR      r0,{pc}+0xe0 ; 0x1c728
        0x0001c64a:    f7fdfe3f    ..?.    BL       am_util_stdio_printf ; 0x1a2cc
        0x0001c64e:    f7fbffaf    ....    BL       am_bsp_uart_printf_disable ; 0x185b0
        0x0001c652:    f7fbffa1    ....    BL       am_bsp_low_power_init ; 0x18598
        0x0001c656:    2100        .!      MOVS     r1,#0
        0x0001c658:    2001        .       MOVS     r0,#1
        0x0001c65a:    f7fcfacf    ....    BL       am_hal_pwrctrl_control ; 0x18bfc
        0x0001c65e:    2100        .!      MOVS     r1,#0
        0x0001c660:    2003        .       MOVS     r0,#3
        0x0001c662:    f7fcfacb    ....    BL       am_hal_pwrctrl_control ; 0x18bfc
        0x0001c666:    2100        .!      MOVS     r1,#0
        0x0001c668:    2002        .       MOVS     r0,#2
        0x0001c66a:    f7fcfac7    ....    BL       am_hal_pwrctrl_control ; 0x18bfc
        0x0001c66e:    4936        6I      LDR      r1,[pc,#216] ; [0x1c748] = 0x1d158
        0x0001c670:    9402        ..      STR      r4,[sp,#8]
        0x0001c672:    e9d10100    ....    LDRD     r0,r1,[r1,#0]
        0x0001c676:    e9cd0100    ....    STRD     r0,r1,[sp,#0]
        0x0001c67a:    4668        hF      MOV      r0,sp
        0x0001c67c:    f7fcfdc8    ....    BL       am_hal_pwrctrl_mcu_memory_config ; 0x19210
        0x0001c680:    f04f4090    O..@    MOV      r0,#0x48000000
        0x0001c684:    6801        .h      LDR      r1,[r0,#0]
        0x0001c686:    f02101f0    !...    BIC      r1,r1,#0xf0
        0x0001c68a:    31e0        .1      ADDS     r1,r1,#0xe0
        0x0001c68c:    6001        .`      STR      r1,[r0,#0]
        0x0001c68e:    6801        .h      LDR      r1,[r0,#0]
        0x0001c690:    f4417100    A..q    ORR      r1,r1,#0x200
        0x0001c694:    6001        .`      STR      r1,[r0,#0]
        0x0001c696:    6801        .h      LDR      r1,[r0,#0]
        0x0001c698:    f4417180    A..q    ORR      r1,r1,#0x100
        0x0001c69c:    6001        .`      STR      r1,[r0,#0]
        0x0001c69e:    6801        .h      LDR      r1,[r0,#0]
        0x0001c6a0:    f0410101    A...    ORR      r1,r1,#1
        0x0001c6a4:    6001        .`      STR      r1,[r0,#0]
        0x0001c6a6:    4829        )H      LDR      r0,[pc,#164] ; [0x1c74c] = 0x40021000
        0x0001c6a8:    6941        Ai      LDR      r1,[r0,#0x14]
        0x0001c6aa:    f0410120    A. .    ORR      r1,r1,#0x20
        0x0001c6ae:    6141        Aa      STR      r1,[r0,#0x14]
        0x0001c6b0:    6941        Ai      LDR      r1,[r0,#0x14]
        0x0001c6b2:    f0410110    A...    ORR      r1,r1,#0x10
        0x0001c6b6:    6141        Aa      STR      r1,[r0,#0x14]
        0x0001c6b8:    69c1        .i      LDR      r1,[r0,#0x1c]
        0x0001c6ba:    f0210110    !...    BIC      r1,r1,#0x10
        0x0001c6be:    61c1        .a      STR      r1,[r0,#0x1c]
        0x0001c6c0:    4823        #H      LDR      r0,[pc,#140] ; [0x1c750] = 0x40020000
        0x0001c6c2:    f8d01180    ....    LDR      r1,[r0,#0x180]
        0x0001c6c6:    f0210104    !...    BIC      r1,r1,#4
        0x0001c6ca:    f8c01180    ....    STR      r1,[r0,#0x180]
        0x0001c6ce:    f8d01180    ....    LDR      r1,[r0,#0x180]
        0x0001c6d2:    f0210102    !...    BIC      r1,r1,#2
        0x0001c6d6:    f8c01180    ....    STR      r1,[r0,#0x180]
        0x0001c6da:    f8d01180    ....    LDR      r1,[r0,#0x180]
        0x0001c6de:    f0410101    A...    ORR      r1,r1,#1
        0x0001c6e2:    f8c01180    ....    STR      r1,[r0,#0x180]
        0x0001c6e6:    a802        ..      ADD      r0,sp,#8
        0x0001c6e8:    f7fcfe8c    ....    BL       am_hal_pwrctrl_sram_config ; 0x19404
        0x0001c6ec:    f7fcff7c    ..|.    BL       am_hal_sysctrl_fpu_enable ; 0x195e8
        0x0001c6f0:    2001        .       MOVS     r0,#1
        0x0001c6f2:    f7fcff81    ....    BL       am_hal_sysctrl_fpu_stacking_enable ; 0x195f8
        0x0001c6f6:    2100        .!      MOVS     r1,#0
        0x0001c6f8:    202a        *       MOVS     r0,#0x2a
        0x0001c6fa:    f7fcf9ed    ....    BL       am_hal_gpio_state_write ; 0x18ad8
        0x0001c6fe:    4815        .H      LDR      r0,[pc,#84] ; [0x1c754] = 0x1d160
        0x0001c700:    6801        .h      LDR      r1,[r0,#0]
        0x0001c702:    9100        ..      STR      r1,[sp,#0]
        0x0001c704:    202a        *       MOVS     r0,#0x2a
        0x0001c706:    f7fcf9bd    ....    BL       am_hal_gpio_pinconfig ; 0x18a84
        0x0001c70a:    2101        .!      MOVS     r1,#1
        0x0001c70c:    202a        *       MOVS     r0,#0x2a
        0x0001c70e:    f7fcf9e3    ....    BL       am_hal_gpio_state_write ; 0x18ad8
        0x0001c712:    b004        ..      ADD      sp,sp,#0x10
        0x0001c714:    2100        .!      MOVS     r1,#0
        0x0001c716:    e8bd4010    ...@    POP      {r4,lr}
        0x0001c71a:    202a        *       MOVS     r0,#0x2a
        0x0001c71c:    f7fcb9dc    ....    B        am_hal_gpio_state_write ; 0x18ad8
    $d
        0x0001c720:    100002f8    ....    DCD    268436216
        0x0001c724:    10000038    8...    DCD    268435512
        0x0001c728:    69626d41    Ambi    DCD    1768058177
        0x0001c72c:    694d2071    q Mi    DCD    1766662257
        0x0001c730:    206f7263    cro     DCD    544174691
        0x0001c734:    65726f43    Core    DCD    1701998403
        0x0001c738:    6b72616d    mark    DCD    1802658157
        0x0001c73c:    73657420     tes    DCD    1936028704
        0x0001c740:    2e2e2e74    t...    DCD    774778484
        0x0001c744:    00000a0a    ....    DCD    2570
        0x0001c748:    0001d158    X...    DCD    119128
        0x0001c74c:    40021000    ...@    DCD    1073876992
        0x0001c750:    40020000    ...@    DCD    1073872896
        0x0001c754:    0001d160    `...    DCD    119136
    $t
    i.start_time
    start_time
        0x0001c758:    b510        ..      PUSH     {r4,lr}
        0x0001c75a:    f06f407f    o..@    MVN      r0,#0xff000000
        0x0001c75e:    f7fcff6e    ..n.    BL       am_hal_systick_load ; 0x1963e
        0x0001c762:    f7fcff65    ..e.    BL       am_hal_systick_int_enable ; 0x19630
        0x0001c766:    f7fbfe05    ....    BL       am_hal_interrupt_master_enable ; 0x18374
        0x0001c76a:    f7fcff6e    ..n.    BL       am_hal_systick_start ; 0x1964a
        0x0001c76e:    4a04        .J      LDR      r2,[pc,#16] ; [0x1c780] = 0x10000038
        0x0001c770:    2000        .       MOVS     r0,#0
        0x0001c772:    4904        .I      LDR      r1,[pc,#16] ; [0x1c784] = 0x4ffff000
        0x0001c774:    e9c20002    ....    STRD     r0,r0,[r2,#8]
        0x0001c778:    2001        .       MOVS     r0,#1
        0x0001c77a:    6148        Ha      STR      r0,[r1,#0x14]
        0x0001c77c:    bd10        ..      POP      {r4,pc}
    $d
        0x0001c77e:    0000        ..      DCW    0
        0x0001c780:    10000038    8...    DCD    268435512
        0x0001c784:    4ffff000    ...O    DCD    1342173184
    $t
    i.stop_time
    stop_time
        0x0001c788:    b510        ..      PUSH     {r4,lr}
        0x0001c78a:    f7fcff65    ..e.    BL       am_hal_systick_stop ; 0x19658
        0x0001c78e:    f7fcff4b    ..K.    BL       am_hal_systick_count ; 0x19628
        0x0001c792:    4a0a        .J      LDR      r2,[pc,#40] ; [0x1c7bc] = 0x10000000
        0x0001c794:    f06f417f    o..A    MVN      r1,#0xff000000
        0x0001c798:    1a09        ..      SUBS     r1,r1,r0
        0x0001c79a:    6812        .h      LDR      r2,[r2,#0]
        0x0001c79c:    2000        .       MOVS     r0,#0
        0x0001c79e:    ea4f6c00    O..l    LSL      r12,r0,#24
        0x0001c7a2:    ea4c2312    L..#    ORR      r3,r12,r2,LSR #8
        0x0001c7a6:    0612        ..      LSLS     r2,r2,#24
        0x0001c7a8:    1889        ..      ADDS     r1,r1,r2
        0x0001c7aa:    eb400203    @...    ADC      r2,r0,r3
        0x0001c7ae:    4b04        .K      LDR      r3,[pc,#16] ; [0x1c7c0] = 0x10000038
        0x0001c7b0:    e9c31204    ....    STRD     r1,r2,[r3,#0x10]
        0x0001c7b4:    4903        .I      LDR      r1,[pc,#12] ; [0x1c7c4] = 0x4ffff000
        0x0001c7b6:    6148        Ha      STR      r0,[r1,#0x14]
        0x0001c7b8:    bd10        ..      POP      {r4,pc}
    $d
        0x0001c7ba:    0000        ..      DCW    0
        0x0001c7bc:    10000000    ....    DCD    268435456
        0x0001c7c0:    10000038    8...    DCD    268435512
        0x0001c7c4:    4ffff000    ...O    DCD    1342173184
    $t
    i.time_in_secs
    time_in_secs
        0x0001c7c8:    b510        ..      PUSH     {r4,lr}
        0x0001c7ca:    f000fb3a    ..:.    BL       __aeabi_ui2d ; 0x1ce42
        0x0001c7ce:    ed9f1b04    ....    VLDR     d1,[pc,#16] ; [0x1c7e0] = 0
        0x0001c7d2:    ec532b11    S..+    VMOV     r2,r3,d1
        0x0001c7d6:    f000f9af    ....    BL       __aeabi_ddiv ; 0x1cb38
        0x0001c7da:    ec410b10    A...    VMOV     d0,r0,r1
        0x0001c7de:    bd10        ..      POP      {r4,pc}
    $d
        0x0001c7e0:    00000000    ....    DCD    0
        0x0001c7e4:    4196e360    `..A    DCD    1100407648
    $t
    i.timer_config_b1
    timer_config_b1
        0x0001c7e8:    e92d01f0    -...    PUSH     {r4-r8}
        0x0001c7ec:    4d67        gM      LDR      r5,[pc,#412] ; [0x1c98c] = 0x100009fc
        0x0001c7ee:    e9d12c02    ...,    LDRD     r2,r12,[r1,#8]
        0x0001c7f2:    2400        .$      MOVS     r4,#0
        0x0001c7f4:    690b        .i      LDR      r3,[r1,#0x10]
        0x0001c7f6:    f8054020    .. @    STRB     r4,[r5,r0,LSL #2]
        0x0001c7fa:    eb050580    ....    ADD      r5,r5,r0,LSL #2
        0x0001c7fe:    706c        lp      STRB     r4,[r5,#1]
        0x0001c800:    70ac        .p      STRB     r4,[r5,#2]
        0x0001c802:    70ec        .p      STRB     r4,[r5,#3]
        0x0001c804:    784c        Lx      LDRB     r4,[r1,#1]
        0x0001c806:    2c0f        .,      CMP      r4,#0xf
        0x0001c808:    d246        F.      BCS      0x1c898 ; timer_config_b1 + 176
        0x0001c80a:    e8dff004    ....    TBB      [pc,r4]
    $d
        0x0001c80e:    0866        f.      DCW    2150
        0x0001c810:    45154521    !E.E    DCD    1159021857
        0x0001c814:    45454566    fEEE    DCD    1162167654
        0x0001c818:    3c2d4545    EE-<    DCD    1009599813
        0x0001c81c:    0066        f.      DCW    102
    $t
        0x0001c81e:    4d5b        [M      LDR      r5,[pc,#364] ; [0x1c98c] = 0x100009fc
        0x0001c820:    2401        .$      MOVS     r4,#1
        0x0001c822:    eb050580    ....    ADD      r5,r5,r0,LSL #2
        0x0001c826:    f1bc3fff    ...?    CMP      r12,#0xffffffff
        0x0001c82a:    70ec        .p      STRB     r4,[r5,#3]
        0x0001c82c:    70ac        .p      STRB     r4,[r5,#2]
        0x0001c82e:    d154        T.      BNE      0x1c8da ; timer_config_b1 + 242
        0x0001c830:    1c5c        \.      ADDS     r4,r3,#1
        0x0001c832:    bf18        ..      IT       NE
        0x0001c834:    46a4        .F      MOVNE    r12,r4
        0x0001c836:    e02f        /.      B        0x1c898 ; timer_config_b1 + 176
        0x0001c838:    4e54        TN      LDR      r6,[pc,#336] ; [0x1c98c] = 0x100009fc
        0x0001c83a:    2401        .$      MOVS     r4,#1
        0x0001c83c:    eb060580    ....    ADD      r5,r6,r0,LSL #2
        0x0001c840:    2a00        .*      CMP      r2,#0
        0x0001c842:    706c        lp      STRB     r4,[r5,#1]
        0x0001c844:    f8064020    .. @    STRB     r4,[r6,r0,LSL #2]
        0x0001c848:    70ec        .p      STRB     r4,[r5,#3]
        0x0001c84a:    70ac        .p      STRB     r4,[r5,#2]
        0x0001c84c:    d14e        N.      BNE      0x1c8ec ; timer_config_b1 + 260
        0x0001c84e:    e023        #.      B        0x1c898 ; timer_config_b1 + 176
        0x0001c850:    4e4e        NN      LDR      r6,[pc,#312] ; [0x1c98c] = 0x100009fc
        0x0001c852:    2401        .$      MOVS     r4,#1
        0x0001c854:    eb060580    ....    ADD      r5,r6,r0,LSL #2
        0x0001c858:    2a00        .*      CMP      r2,#0
        0x0001c85a:    706c        lp      STRB     r4,[r5,#1]
        0x0001c85c:    f8064020    .. @    STRB     r4,[r6,r0,LSL #2]
        0x0001c860:    70ec        .p      STRB     r4,[r5,#3]
        0x0001c862:    70ac        .p      STRB     r4,[r5,#2]
        0x0001c864:    d142        B.      BNE      0x1c8ec ; timer_config_b1 + 260
        0x0001c866:    e017        ..      B        0x1c898 ; timer_config_b1 + 176
        0x0001c868:    688b        .h      LDR      r3,[r1,#8]
        0x0001c86a:    2b20         +      CMP      r3,#0x20
        0x0001c86c:    d835        5.      BHI      0x1c8da ; timer_config_b1 + 242
        0x0001c86e:    1e13        ..      SUBS     r3,r2,#0
        0x0001c870:    bf18        ..      IT       NE
        0x0001c872:    1c5a        Z.      ADDNE    r2,r3,#1
        0x0001c874:    2401        .$      MOVS     r4,#1
        0x0001c876:    4d45        EM      LDR      r5,[pc,#276] ; [0x1c98c] = 0x100009fc
        0x0001c878:    f8054020    .. @    STRB     r4,[r5,r0,LSL #2]
        0x0001c87c:    eb050580    ....    ADD      r5,r5,r0,LSL #2
        0x0001c880:    70ec        .p      STRB     r4,[r5,#3]
        0x0001c882:    70ac        .p      STRB     r4,[r5,#2]
        0x0001c884:    e008        ..      B        0x1c898 ; timer_config_b1 + 176
        0x0001c886:    4d41        AM      LDR      r5,[pc,#260] ; [0x1c98c] = 0x100009fc
        0x0001c888:    2401        .$      MOVS     r4,#1
        0x0001c88a:    f8054020    .. @    STRB     r4,[r5,r0,LSL #2]
        0x0001c88e:    eb050580    ....    ADD      r5,r5,r0,LSL #2
        0x0001c892:    706c        lp      STRB     r4,[r5,#1]
        0x0001c894:    70ac        .p      STRB     r4,[r5,#2]
        0x0001c896:    70ec        .p      STRB     r4,[r5,#3]
        0x0001c898:    780c        .x      LDRB     r4,[r1,#0]
        0x0001c89a:    f1a40520    .. .    SUB      r5,r4,#0x20
        0x0001c89e:    2d1f        .-      CMP      r5,#0x1f
        0x0001c8a0:    d80a        ..      BHI      0x1c8b8 ; timer_config_b1 + 208
        0x0001c8a2:    106d        m.      ASRS     r5,r5,#1
        0x0001c8a4:    f0140401    ....    ANDS     r4,r4,#1
        0x0001c8a8:    d01b        ..      BEQ      0x1c8e2 ; timer_config_b1 + 250
        0x0001c8aa:    b12c        ,.      CBZ      r4,0x1c8b8 ; timer_config_b1 + 208
        0x0001c8ac:    4c37        7L      LDR      r4,[pc,#220] ; [0x1c98c] = 0x100009fc
        0x0001c8ae:    eb040485    ....    ADD      r4,r4,r5,LSL #2
        0x0001c8b2:    78a4        .x      LDRB     r4,[r4,#2]
        0x0001c8b4:    2c00        .,      CMP      r4,#0
        0x0001c8b6:    d065        e.      BEQ      0x1c984 ; timer_config_b1 + 412
        0x0001c8b8:    790c        .y      LDRB     r4,[r1,#4]
        0x0001c8ba:    b1e4        ..      CBZ      r4,0x1c8f6 ; timer_config_b1 + 270
        0x0001c8bc:    794d        My      LDRB     r5,[r1,#5]
        0x0001c8be:    2d1f        .-      CMP      r5,#0x1f
        0x0001c8c0:    d819        ..      BHI      0x1c8f6 ; timer_config_b1 + 270
        0x0001c8c2:    086c        l.      LSRS     r4,r5,#1
        0x0001c8c4:    f0150501    ....    ANDS     r5,r5,#1
        0x0001c8c8:    d011        ..      BEQ      0x1c8ee ; timer_config_b1 + 262
        0x0001c8ca:    b1a5        ..      CBZ      r5,0x1c8f6 ; timer_config_b1 + 270
        0x0001c8cc:    4d2f        /M      LDR      r5,[pc,#188] ; [0x1c98c] = 0x100009fc
        0x0001c8ce:    eb050484    ....    ADD      r4,r5,r4,LSL #2
        0x0001c8d2:    78a4        .x      LDRB     r4,[r4,#2]
        0x0001c8d4:    2c00        .,      CMP      r4,#0
        0x0001c8d6:    d055        U.      BEQ      0x1c984 ; timer_config_b1 + 412
        0x0001c8d8:    e00d        ..      B        0x1c8f6 ; timer_config_b1 + 270
        0x0001c8da:    e8bd01f0    ....    POP      {r4-r8}
        0x0001c8de:    2007        .       MOVS     r0,#7
        0x0001c8e0:    4770        pG      BX       lr
        0x0001c8e2:    4c2a        *L      LDR      r4,[pc,#168] ; [0x1c98c] = 0x100009fc
        0x0001c8e4:    f8144025    ..%@    LDRB     r4,[r4,r5,LSL #2]
        0x0001c8e8:    2c00        .,      CMP      r4,#0
        0x0001c8ea:    d1e5        ..      BNE      0x1c8b8 ; timer_config_b1 + 208
        0x0001c8ec:    e04a        J.      B        0x1c984 ; timer_config_b1 + 412
        0x0001c8ee:    4d27        'M      LDR      r5,[pc,#156] ; [0x1c98c] = 0x100009fc
        0x0001c8f0:    f8154024    ..$@    LDRB     r4,[r5,r4,LSL #2]
        0x0001c8f4:    b3f4        ..      CBZ      r4,0x1c974 ; timer_config_b1 + 396
        0x0001c8f6:    4c26        &L      LDR      r4,[pc,#152] ; [0x1c990] = 0x40008000
        0x0001c8f8:    f8d46104    ...a    LDR      r6,[r4,#0x104]
        0x0001c8fc:    2501        .%      MOVS     r5,#1
        0x0001c8fe:    4085        .@      LSLS     r5,r5,r0
        0x0001c900:    43ae        .C      BICS     r6,r6,r5
        0x0001c902:    f8c46104    ...a    STR      r6,[r4,#0x104]
        0x0001c906:    784f        Ox      LDRB     r7,[r1,#1]
        0x0001c908:    780e        .x      LDRB     r6,[r1,#0]
        0x0001c90a:    f04f08f0    O...    MOV      r8,#0xf0
        0x0001c90e:    ea081707    ....    AND      r7,r8,r7,LSL #4
        0x0001c912:    ea472606    G..&    ORR      r6,r7,r6,LSL #8
        0x0001c916:    78cf        .x      LDRB     r7,[r1,#3]
        0x0001c918:    f04f0808    O...    MOV      r8,#8
        0x0001c91c:    ea0807c7    ....    AND      r7,r8,r7,LSL #3
        0x0001c920:    433e        >C      ORRS     r6,r6,r7
        0x0001c922:    788f        .x      LDRB     r7,[r1,#2]
        0x0001c924:    f04f0804    O...    MOV      r8,#4
        0x0001c928:    ea080787    ....    AND      r7,r8,r7,LSL #2
        0x0001c92c:    433e        >C      ORRS     r6,r6,r7
        0x0001c92e:    790f        .y      LDRB     r7,[r1,#4]
        0x0001c930:    f44f3840    O.@8    MOV      r8,#0x30000
        0x0001c934:    7949        Iy      LDRB     r1,[r1,#5]
        0x0001c936:    ea084707    ...G    AND      r7,r8,r7,LSL #16
        0x0001c93a:    433e        >C      ORRS     r6,r6,r7
        0x0001c93c:    0209        ..      LSLS     r1,r1,#8
        0x0001c93e:    0140        @.      LSLS     r0,r0,#5
        0x0001c940:    4420         D      ADD      r0,r0,r4
        0x0001c942:    ea466202    F..b    ORR      r2,r6,r2,LSL #24
        0x0001c946:    f8d06200    ...b    LDR      r6,[r0,#0x200]
        0x0001c94a:    f0260601    &...    BIC      r6,r6,#1
        0x0001c94e:    f8c06200    ...b    STR      r6,[r0,#0x200]
        0x0001c952:    f8c02200    ..."    STR      r2,[r0,#0x200]
        0x0001c956:    f8c01210    ....    STR      r1,[r0,#0x210]
        0x0001c95a:    f8c0c208    ....    STR      r12,[r0,#0x208]
        0x0001c95e:    f8c0320c    ...2    STR      r3,[r0,#0x20c]
        0x0001c962:    f8d01200    ....    LDR      r1,[r0,#0x200]
        0x0001c966:    f0410102    A...    ORR      r1,r1,#2
        0x0001c96a:    f8c01200    ....    STR      r1,[r0,#0x200]
        0x0001c96e:    f8d40104    ....    LDR      r0,[r4,#0x104]
        0x0001c972:    e000        ..      B        0x1c976 ; timer_config_b1 + 398
        0x0001c974:    e006        ..      B        0x1c984 ; timer_config_b1 + 412
        0x0001c976:    4328        (C      ORRS     r0,r0,r5
        0x0001c978:    f8c40104    ....    STR      r0,[r4,#0x104]
        0x0001c97c:    e8bd01f0    ....    POP      {r4-r8}
        0x0001c980:    2000        .       MOVS     r0,#0
        0x0001c982:    4770        pG      BX       lr
        0x0001c984:    e8bd01f0    ....    POP      {r4-r8}
        0x0001c988:    2006        .       MOVS     r0,#6
        0x0001c98a:    4770        pG      BX       lr
    $d
        0x0001c98c:    100009fc    ....    DCD    268438012
        0x0001c990:    40008000    ...@    DCD    1073774592
    $t
    i.uint64_to_str
    uint64_to_str
        0x0001c994:    e92d07f0    -...    PUSH     {r4-r10}
        0x0001c998:    b087        ..      SUB      sp,sp,#0x1c
        0x0001c99a:    f04f0c00    O...    MOV      r12,#0
        0x0001c99e:    4666        fF      MOV      r6,r12
        0x0001c9a0:    466d        mF      MOV      r5,sp
        0x0001c9a2:    2900        .)      CMP      r1,#0
        0x0001c9a4:    d03f        ?.      BEQ      0x1ca26 ; uint64_to_str + 146
        0x0001c9a6:    084f        O.      LSRS     r7,r1,#1
        0x0001c9a8:    ea4f0390    O...    LSR      r3,r0,#2
        0x0001c9ac:    ea4f0430    O.0.    RRX      r4,r0
        0x0001c9b0:    ea437381    C..s    ORR      r3,r3,r1,LSL #30
        0x0001c9b4:    18e4        ..      ADDS     r4,r4,r3
        0x0001c9b6:    eb470391    G...    ADC      r3,r7,r1,LSR #2
        0x0001c9ba:    ea4f1814    O...    LSR      r8,r4,#4
        0x0001c9be:    ea487803    H..x    ORR      r8,r8,r3,LSL #28
        0x0001c9c2:    eb180404    ....    ADDS     r4,r8,r4
        0x0001c9c6:    eb431313    C...    ADC      r3,r3,r3,LSR #4
        0x0001c9ca:    ea4f2814    O..(    LSR      r8,r4,#8
        0x0001c9ce:    ea486803    H..h    ORR      r8,r8,r3,LSL #24
        0x0001c9d2:    eb180404    ....    ADDS     r4,r8,r4
        0x0001c9d6:    eb432313    C..#    ADC      r3,r3,r3,LSR #8
        0x0001c9da:    ea4f4814    O..H    LSR      r8,r4,#16
        0x0001c9de:    ea484803    H..H    ORR      r8,r8,r3,LSL #16
        0x0001c9e2:    eb180404    ....    ADDS     r4,r8,r4
        0x0001c9e6:    eb434313    C..C    ADC      r3,r3,r3,LSR #16
        0x0001c9ea:    18e7        ..      ADDS     r7,r4,r3
        0x0001c9ec:    eb430406    C...    ADC      r4,r3,r6
        0x0001c9f0:    08ff        ..      LSRS     r7,r7,#3
        0x0001c9f2:    ea477344    G.Ds    ORR      r3,r7,r4,LSL #29
        0x0001c9f6:    270a        .'      MOVS     r7,#0xa
        0x0001c9f8:    fba39a07    ....    UMULL    r9,r10,r3,r7
        0x0001c9fc:    08e4        ..      LSRS     r4,r4,#3
        0x0001c9fe:    fb04a707    ....    MLA      r7,r4,r7,r10
        0x0001ca02:    f04f0800    O...    MOV      r8,#0
        0x0001ca06:    fb037808    ...x    MLA      r8,r3,r8,r7
        0x0001ca0a:    ebb00709    ....    SUBS     r7,r0,r9
        0x0001ca0e:    eb610108    a...    SBC      r1,r1,r8
        0x0001ca12:    1dbf        ..      ADDS     r7,r7,#6
        0x0001ca14:    f1410100    A...    ADC      r1,r1,#0
        0x0001ca18:    093f        ?.      LSRS     r7,r7,#4
        0x0001ca1a:    ea477701    G..w    ORR      r7,r7,r1,LSL #28
        0x0001ca1e:    18fb        ..      ADDS     r3,r7,r3
        0x0001ca20:    eb441411    D...    ADC      r4,r4,r1,LSR #4
        0x0001ca24:    e012        ..      B        0x1ca4c ; uint64_to_str + 184
        0x0001ca26:    0843        C.      LSRS     r3,r0,#1
        0x0001ca28:    eb030390    ....    ADD      r3,r3,r0,LSR #2
        0x0001ca2c:    eb031313    ....    ADD      r3,r3,r3,LSR #4
        0x0001ca30:    eb032313    ...#    ADD      r3,r3,r3,LSR #8
        0x0001ca34:    eb034313    ...C    ADD      r3,r3,r3,LSR #16
        0x0001ca38:    08db        ..      LSRS     r3,r3,#3
        0x0001ca3a:    425c        \B      RSBS     r4,r3,#0
        0x0001ca3c:    eb040484    ....    ADD      r4,r4,r4,LSL #2
        0x0001ca40:    eb000144    ..D.    ADD      r1,r0,r4,LSL #1
        0x0001ca44:    1d89        ..      ADDS     r1,r1,#6
        0x0001ca46:    eb031311    ....    ADD      r3,r3,r1,LSR #4
        0x0001ca4a:    4634        4F      MOV      r4,r6
        0x0001ca4c:    4621        !F      MOV      r1,r4
        0x0001ca4e:    240a        .$      MOVS     r4,#0xa
        0x0001ca50:    fba34704    ...G    UMULL    r4,r7,r3,r4
        0x0001ca54:    1b00        ..      SUBS     r0,r0,r4
        0x0001ca56:    f1000030    ..0.    ADD      r0,r0,#0x30
        0x0001ca5a:    f805000c    ....    STRB     r0,[r5,r12]
        0x0001ca5e:    4618        .F      MOV      r0,r3
        0x0001ca60:    f10c0c01    ....    ADD      r12,r12,#1
        0x0001ca64:    430b        .C      ORRS     r3,r3,r1
        0x0001ca66:    d19c        ..      BNE      0x1c9a2 ; uint64_to_str + 14
        0x0001ca68:    4660        `F      MOV      r0,r12
        0x0001ca6a:    2a00        .*      CMP      r2,#0
        0x0001ca6c:    bf02        ..      ITTT     EQ
        0x0001ca6e:    b007        ..      ADDEQ    sp,sp,#0x1c
        0x0001ca70:    e8bd07f0    ....    POPEQ    {r4-r10}
        0x0001ca74:    4770        pG      BXEQ     lr
        0x0001ca76:    1e47        G.      SUBS     r7,r0,#1
        0x0001ca78:    f1b00c00    ....    SUBS     r12,r0,#0
        0x0001ca7c:    dd18        ..      BLE      0x1cab0 ; uint64_to_str + 284
        0x0001ca7e:    19e9        ..      ADDS     r1,r5,r7
        0x0001ca80:    1c4b        K.      ADDS     r3,r1,#1
        0x0001ca82:    1e51        Q.      SUBS     r1,r2,#1
        0x0001ca84:    f0170f01    ....    TST      r7,#1
        0x0001ca88:    d103        ..      BNE      0x1ca92 ; uint64_to_str + 254
        0x0001ca8a:    f8134d01    ...M    LDRB     r4,[r3,#-1]!
        0x0001ca8e:    f8014f01    ...O    STRB     r4,[r1,#1]!
        0x0001ca92:    ea5f046c    _.l.    ASRS     r4,r12,#1
        0x0001ca96:    d009        ..      BEQ      0x1caac ; uint64_to_str + 280
        0x0001ca98:    f813cc01    ....    LDRB     r12,[r3,#-1]
        0x0001ca9c:    f881c001    ....    STRB     r12,[r1,#1]
        0x0001caa0:    f813cd02    ....    LDRB     r12,[r3,#-2]!
        0x0001caa4:    f801cf02    ....    STRB     r12,[r1,#2]!
        0x0001caa8:    1e64        d.      SUBS     r4,r4,#1
        0x0001caaa:    d1f5        ..      BNE      0x1ca98 ; uint64_to_str + 260
        0x0001caac:    19d1        ..      ADDS     r1,r2,r7
        0x0001caae:    1c4a        J.      ADDS     r2,r1,#1
        0x0001cab0:    7016        .p      STRB     r6,[r2,#0]
        0x0001cab2:    b007        ..      ADD      sp,sp,#0x1c
        0x0001cab4:    e8bd07f0    ....    POP      {r4-r10}
        0x0001cab8:    4770        pG      BX       lr
        0x0001caba:    0000        ..      MOVS     r0,r0
    x$fpl$d2f
    $v0
    __aeabi_d2f
    _d2f
        0x0001cabc:    f0214200    !..B    BIC      r2,r1,#0x80000000
        0x0001cac0:    f1a25260    ..`R    SUB      r2,r2,#0x38000000
        0x0001cac4:    f5b21f80    ....    CMP      r2,#0x100000
        0x0001cac8:    f0014300    ...C    AND      r3,r1,#0x80000000
        0x0001cacc:    bf28        (.      IT       CS
        0x0001cace:    f1d26c7f    ...l    RSBSCS   r12,r2,#0xff00000
        0x0001cad2:    d90b        ..      BLS      0x1caec ; __aeabi_d2f + 48
        0x0001cad4:    ea5f1c00    _...    LSLS     r12,r0,#4
        0x0001cad8:    ea4302c2    C...    ORR      r2,r3,r2,LSL #3
        0x0001cadc:    eb427050    B.Pp    ADC      r0,r2,r0,LSR #29
        0x0001cae0:    bf18        ..      IT       NE
        0x0001cae2:    4770        pG      BXNE     lr
        0x0001cae4:    bf28        (.      IT       CS
        0x0001cae6:    f0200001     ...    BICCS    r0,r0,#1
        0x0001caea:    4770        pG      BX       lr
        0x0001caec:    f5b21f80    ....    CMP      r2,#0x100000
        0x0001caf0:    bfbc        ..      ITT      LT
        0x0001caf2:    4618        .F      MOVLT    r0,r3
        0x0001caf4:    4770        pG      BXLT     lr
        0x0001caf6:    ea4f0c41    O.A.    LSL      r12,r1,#1
        0x0001cafa:    f51c1f00    ....    CMN      r12,#0x200000
        0x0001cafe:    d202        ..      BCS      0x1cb06 ; __aeabi_d2f + 74
        0x0001cb00:    4608        .F      MOV      r0,r1
        0x0001cb02:    f000baed    ....    B.W      __fpl_fretinf ; 0x1d0e0
        0x0001cb06:    b570        p.      PUSH     {r4-r6,lr}
        0x0001cb08:    f000f9ea    ....    BL       __fpl_dnaninf ; 0x1cee0
    $d
        0x0001cb0c:    89000000    ....    DCD    2298478592
    $t
        0x0001cb10:    f7ffbff6    ....    B.W      0x1cb00 ; __aeabi_d2f + 68
        0x0001cb14:    f04f4000    O..@    MOV      r0,#0x80000000
        0x0001cb18:    f5a00080    ....    SUB      r0,r0,#0x400000
        0x0001cb1c:    4770        pG      BX       lr
    x$fpl$dcmpinf
    $v0
    __fpl_dcmp_Inf
        0x0001cb1e:    1049        I.      ASRS     r1,r1,#1
        0x0001cb20:    bf58        X.      IT       PL
        0x0001cb22:    f1c14140    ..@A    RSBPL    r1,r1,#0xc0000000
        0x0001cb26:    105b        [.      ASRS     r3,r3,#1
        0x0001cb28:    bf58        X.      IT       PL
        0x0001cb2a:    f1c34340    ..@C    RSBPL    r3,r3,#0xc0000000
        0x0001cb2e:    428b        .B      CMP      r3,r1
        0x0001cb30:    f3ef8000    ....    MRS      r0,APSR ; formerly CPSR
        0x0001cb34:    4770        pG      BX       lr
        0x0001cb36:    0000        ..      MOVS     r0,r0
    x$fpl$ddiv
    $v0
    __aeabi_ddiv
    _ddiv
        0x0001cb38:    e92d41c0    -..A    PUSH     {r6-r8,lr}
        0x0001cb3c:    b430        0.      PUSH     {r4,r5}
    ddiv_entry
        0x0001cb3e:    f8dfc2a0    ....    LDR      r12,[pc,#672] ; [0x1cde0] = 0x7ff0000
        0x0001cb42:    ea3c1411    <...    BICS     r4,r12,r1,LSR #4
        0x0001cb46:    bf18        ..      IT       NE
        0x0001cb48:    ea3c1413    <...    BICSNE   r4,r12,r3,LSR #4
        0x0001cb4c:    f00080ec    ....    BEQ.W    0x1cd28 ; ddiv_entry + 490
        0x0001cb50:    ea810503    ....    EOR      r5,r1,r3
        0x0001cb54:    ea1c1411    ....    ANDS     r4,r12,r1,LSR #4
        0x0001cb58:    ea4474d5    D..t    ORR      r4,r4,r5,LSR #31
        0x0001cb5c:    bf18        ..      IT       NE
        0x0001cb5e:    ea1c1513    ....    ANDSNE   r5,r12,r3,LSR #4
        0x0001cb62:    f00080c7    ....    BEQ.W    0x1ccf4 ; ddiv_entry + 438
        0x0001cb66:    eba40405    ....    SUB      r4,r4,r5
        0x0001cb6a:    f04f4500    O..E    MOV      r5,#0x80000000
        0x0001cb6e:    ea4521c1    E..!    ORR      r1,r5,r1,LSL #11
        0x0001cb72:    ea4523c3    E..#    ORR      r3,r5,r3,LSL #11
        0x0001cb76:    ea415150    A.PQ    ORR      r1,r1,r0,LSR #21
        0x0001cb7a:    ea435352    C.RS    ORR      r3,r3,r2,LSR #21
        0x0001cb7e:    f104747f    ...t    ADD      r4,r4,#0x3fc0000
        0x0001cb82:    4299        .B      CMP      r1,r3
        0x0001cb84:    f5043400    ...4    ADD      r4,r4,#0x20000
        0x0001cb88:    ea4f20c0    O..     LSL      r0,r0,#11
        0x0001cb8c:    ea4f22c2    O.."    LSL      r2,r2,#11
        0x0001cb90:    bf08        ..      IT       EQ
        0x0001cb92:    4290        .B      CMPEQ    r0,r2
        0x0001cb94:    f000809c    ....    BEQ.W    0x1ccd0 ; ddiv_entry + 402
        0x0001cb98:    ea4f6513    O..e    LSR      r5,r3,#24
        0x0001cb9c:    f20f1640    ..@.    ADR.W    r6,{pc}+0x144 ; 0x1cce0
        0x0001cba0:    5d76        v]      LDRB     r6,[r6,r5]
        0x0001cba2:    ea4f4513    O..E    LSR      r5,r3,#16
        0x0001cba6:    fb06f705    ....    MUL      r7,r6,r5
        0x0001cbaa:    f1c77780    ...w    RSB      r7,r7,#0x1000000
        0x0001cbae:    fb06f707    ....    MUL      r7,r6,r7
        0x0001cbb2:    ea4f37d7    O..7    LSR      r7,r7,#15
        0x0001cbb6:    fba76803    ...h    UMULL    r6,r8,r7,r3
        0x0001cbba:    4276        vB      RSBS     r6,r6,#0
        0x0001cbbc:    f5c83880    ...8    RSB      r8,r8,#0x10000
        0x0001cbc0:    fba7ce06    ....    UMULL    r12,lr,r7,r6
        0x0001cbc4:    bf38        8.      IT       CC
        0x0001cbc6:    f1a80801    ....    SUBCC    r8,r8,#1
        0x0001cbca:    fb07e608    ....    MLA      r6,r7,r8,lr
        0x0001cbce:    f04f0e00    O...    MOV      lr,#0
        0x0001cbd2:    fba68c02    ....    UMULL    r8,r12,r6,r2
        0x0001cbd6:    fbe6ce03    ....    UMLAL    r12,lr,r6,r3
        0x0001cbda:    f1dc0c00    ....    RSBS     r12,r12,#0
        0x0001cbde:    f1ce4e00    ...N    RSB      lr,lr,#0x80000000
        0x0001cbe2:    bf38        8.      IT       CC
        0x0001cbe4:    f1ae0e01    ....    SUBCC    lr,lr,#1
        0x0001cbe8:    fba6580c    ...X    UMULL    r5,r8,r6,r12
        0x0001cbec:    f04f0700    O...    MOV      r7,#0
        0x0001cbf0:    f04f0500    O...    MOV      r5,#0
        0x0001cbf4:    fbe6870e    ....    UMLAL    r8,r7,r6,lr
        0x0001cbf8:    fba1c608    ....    UMULL    r12,r6,r1,r8
        0x0001cbfc:    fba0ce07    ....    UMULL    r12,lr,r0,r7
        0x0001cc00:    eb16060e    ....    ADDS     r6,r6,lr
        0x0001cc04:    f1450500    E...    ADC      r5,r5,#0
        0x0001cc08:    fbe16507    ...e    UMLAL    r6,r5,r1,r7
        0x0001cc0c:    f1154ee0    ...N    ADDS     lr,r5,#0x70000000
        0x0001cc10:    bf7e        ~.      ITTT     VC
        0x0001cc12:    f5a43480    ...4    SUBVC    r4,r4,#0x10000
        0x0001cc16:    ea5f0646    _.F.    LSLSVC   r6,r6,#1
        0x0001cc1a:    416d        mA      ADCVC    r5,r5,r5
        0x0001cc1c:    f1160780    ....    ADDS     r7,r6,#0x80
        0x0001cc20:    f1450500    E...    ADC      r5,r5,#0
        0x0001cc24:    ea4f2717    O..'    LSR      r7,r7,#8
        0x0001cc28:    ea4f6606    O..f    LSL      r6,r6,#24
        0x0001cc2c:    ea476705    G..g    ORR      r7,r7,r5,LSL #24
        0x0001cc30:    f1a646de    ...F    SUB      r6,r6,#0x6f000000
        0x0001cc34:    f1b65f80    ..._    CMP      r6,#0x10000000
        0x0001cc38:    ea4f2515    O..%    LSR      r5,r5,#8
        0x0001cc3c:    d91f        ..      BLS      0x1cc7e ; ddiv_entry + 320
        0x0001cc3e:    4638        8F      MOV      r0,r7
        0x0001cc40:    f0240c01    $...    BIC      r12,r4,#1
        0x0001cc44:    eb0571c4    ...q    ADD      r1,r5,r4,LSL #31
        0x0001cc48:    f1bc6ffe    ...o    CMP      r12,#0x7f00000
        0x0001cc4c:    eb01110c    ....    ADD      r1,r1,r12,LSL #4
        0x0001cc50:    d802        ..      BHI      0x1cc58 ; ddiv_entry + 282
        0x0001cc52:    bcf0        ..      POP      {r4-r7}
        0x0001cc54:    e8bd8100    ....    POP      {r8,pc}
        0x0001cc58:    4224        $B      TST      r4,r4
        0x0001cc5a:    bf5c        \.      ITT      PL
        0x0001cc5c:    f5011e80    ....    ADDPL    lr,r1,#0x100000
        0x0001cc60:    ea9e7fc4    ....    TEQPL    lr,r4,LSL #31
        0x0001cc64:    d402        ..      BMI      0x1cc6c ; ddiv_entry + 302
        0x0001cc66:    bcf0        ..      POP      {r4-r7}
        0x0001cc68:    e8bd8100    ....    POP      {r8,pc}
        0x0001cc6c:    4224        $B      TST      r4,r4
        0x0001cc6e:    d438        8.      BMI      0x1cce2 ; ddiv_entry + 420
        0x0001cc70:    bcf0        ..      POP      {r4-r7}
        0x0001cc72:    f1a141c0    ...A    SUB      r1,r1,#0x60000000
        0x0001cc76:    e8bd4100    ...A    POP      {r8,lr}
        0x0001cc7a:    f000b97f    ....    B.W      __fpl_dretinf ; 0x1cf7c
        0x0001cc7e:    ea4f22d2    O.."    LSR      r2,r2,#11
        0x0001cc82:    ea425243    B.CR    ORR      r2,r2,r3,LSL #21
        0x0001cc86:    ea4f23d3    O..#    LSR      r3,r3,#11
        0x0001cc8a:    fba78602    ....    UMULL    r8,r6,r7,r2
        0x0001cc8e:    ea4f20d0    O..     LSR      r0,r0,#11
        0x0001cc92:    ea405041    @.AP    ORR      r0,r0,r1,LSL #21
        0x0001cc96:    fb076603    ...f    MLA      r6,r7,r3,r6
        0x0001cc9a:    ea1e0f0e    ....    TST      lr,lr
        0x0001cc9e:    ea4f21d1    O..!    LSR      r1,r1,#11
        0x0001cca2:    fb056602    ...f    MLA      r6,r5,r2,r6
        0x0001cca6:    bf58        X.      IT       PL
        0x0001cca8:    eba65600    ...V    SUBPL    r6,r6,r0,LSL #20
        0x0001ccac:    ebb65600    ...V    SUBS     r6,r6,r0,LSL #20
        0x0001ccb0:    ea4f0e52    O.R.    LSR      lr,r2,#1
        0x0001ccb4:    ea4e7ec3    N..~    ORR      lr,lr,r3,LSL #31
        0x0001ccb8:    eb180e0e    ....    ADDS     lr,r8,lr
        0x0001ccbc:    eb560e53    V.S.    ADCS     lr,r6,r3,LSR #1
        0x0001ccc0:    d5bd        ..      BPL      0x1cc3e ; ddiv_entry + 256
        0x0001ccc2:    eb180802    ....    ADDS     r8,r8,r2
        0x0001ccc6:    415e        ^A      ADCS     r6,r6,r3
        0x0001ccc8:    1c7f        ..      ADDS     r7,r7,#1
        0x0001ccca:    f1550500    U...    ADCS     r5,r5,#0
        0x0001ccce:    e7b6        ..      B        0x1cc3e ; ddiv_entry + 256
        0x0001ccd0:    f44f1580    O...    MOV      r5,#0x100000
        0x0001ccd4:    f04f0700    O...    MOV      r7,#0
        0x0001ccd8:    f04f0600    O...    MOV      r6,#0
        0x0001ccdc:    f04f0800    O...    MOV      r8,#0
        0x0001cce0:    e7ad        ..      B        0x1cc3e ; ddiv_entry + 256
        0x0001cce2:    bcf0        ..      POP      {r4-r7}
        0x0001cce4:    f04f0000    O...    MOV      r0,#0
        0x0001cce8:    f10141c0    ...A    ADD      r1,r1,#0x60000000
        0x0001ccec:    f0014100    ...A    AND      r1,r1,#0x80000000
        0x0001ccf0:    e8bd8100    ....    POP      {r8,pc}
        0x0001ccf4:    ea111f0c    ....    TST      r1,r12,LSL #4
        0x0001ccf8:    ea0c1513    ....    AND      r5,r12,r3,LSR #4
        0x0001ccfc:    d000        ..      BEQ      0x1cd00 ; ddiv_entry + 450
        0x0001ccfe:    e00c        ..      B        0x1cd1a ; ddiv_entry + 476
        0x0001cd00:    ea131f0c    ....    TST      r3,r12,LSL #4
        0x0001cd04:    f0008025    ..%.    BEQ.W    0x1cd52 ; ddiv_entry + 532
        0x0001cd08:    f04f0000    O...    MOV      r0,#0
        0x0001cd0c:    bcf0        ..      POP      {r4-r7}
        0x0001cd0e:    ea810103    ....    EOR      r1,r1,r3
        0x0001cd12:    f0014100    ...A    AND      r1,r1,#0x80000000
        0x0001cd16:    e8bd8100    ....    POP      {r8,pc}
        0x0001cd1a:    bcf0        ..      POP      {r4-r7}
        0x0001cd1c:    e8bd4100    ...A    POP      {r8,lr}
        0x0001cd20:    ea810103    ....    EOR      r1,r1,r3
        0x0001cd24:    f000b92a    ..*.    B.W      __fpl_dretinf ; 0x1cf7c
        0x0001cd28:    bcf0        ..      POP      {r4-r7}
        0x0001cd2a:    e8bd4100    ...A    POP      {r8,lr}
        0x0001cd2e:    b570        p.      PUSH     {r4-r6,lr}
        0x0001cd30:    f000f8d6    ....    BL       __fpl_dnaninf ; 0x1cee0
    $d
        0x0001cd34:    3efc7e09    .~.>    DCD    1056734729
    $t
        0x0001cd38:    f000b807    ....    B.W      0x1cd4a ; ddiv_entry + 524
        0x0001cd3c:    ea810103    ....    EOR      r1,r1,r3
        0x0001cd40:    f04f0000    O...    MOV      r0,#0
        0x0001cd44:    f0014100    ...A    AND      r1,r1,#0x80000000
        0x0001cd48:    4770        pG      BX       lr
        0x0001cd4a:    ea810103    ....    EOR      r1,r1,r3
        0x0001cd4e:    f000b915    ....    B.W      __fpl_dretinf ; 0x1cf7c
        0x0001cd52:    bcf0        ..      POP      {r4-r7}
        0x0001cd54:    e8bd4100    ...A    POP      {r8,lr}
        0x0001cd58:    f04f0000    O...    MOV      r0,#0
        0x0001cd5c:    4921        !I      LDR      r1,[pc,#132] ; [0x1cde4] = 0x7ff80000
        0x0001cd5e:    4770        pG      BX       lr
    $d
        0x0001cd60:    f9fbfdff    ....    DCD    4194041343
        0x0001cd64:    f2f4f5f7    ....    DCD    4076140023
        0x0001cd68:    ebedeef0    ....    DCD    3958238960
        0x0001cd6c:    e4e6e8e9    ....    DCD    3840338153
        0x0001cd70:    dee0e1e3    ....    DCD    3739279843
        0x0001cd74:    d8dadbdd    ....    DCD    3638221789
        0x0001cd78:    d3d4d5d7    ....    DCD    3553940951
        0x0001cd7c:    cdcfd0d1    ....    DCD    3452948689
        0x0001cd80:    c8cacbcc    ....    DCD    3368733644
        0x0001cd84:    c4c5c6c7    ....    DCD    3301295815
        0x0001cd88:    bfc0c1c2    ....    DCD    3217080770
        0x0001cd8c:    bbbcbdbe    ....    DCD    3149708734
        0x0001cd90:    b7b8b9ba    ....    DCD    3082336698
        0x0001cd94:    b3b4b5b6    ....    DCD    3014964662
        0x0001cd98:    afb0b1b2    ....    DCD    2947592626
        0x0001cd9c:    abacadae    ....    DCD    2880220590
        0x0001cda0:    a8a8a9aa    ....    DCD    2829625770
        0x0001cda4:    a4a5a6a7    ....    DCD    2762319527
        0x0001cda8:    a1a2a3a3    ....    DCD    2711790499
        0x0001cdac:    9e9f9fa0    ....    DCD    2661261216
        0x0001cdb0:    9b9c9c9d    ....    DCD    2610732189
        0x0001cdb4:    9899999a    ....    DCD    2560203162
        0x0001cdb8:    95969797    ....    DCD    2509674391
        0x0001cdbc:    93939495    ....    DCD    2475922581
        0x0001cdc0:    90919192    ....    DCD    2425459090
        0x0001cdc4:    8e8e8f8f    ....    DCD    2391707535
        0x0001cdc8:    8b8c8c8d    ....    DCD    2341244045
        0x0001cdcc:    89898a8b    ....    DCD    2307492491
        0x0001cdd0:    87878888    ....    DCD    2273806472
        0x0001cdd4:    84858586    ....    DCD    2223342982
        0x0001cdd8:    82838384    ....    DCD    2189656964
        0x0001cddc:    80818182    ....    DCD    2155970946
        0x0001cde0:    07ff0000    ....    DCD    134152192
        0x0001cde4:    7ff80000    ....    DCD    2146959360
    $t
    x$fpl$dfixu
    $v0
    __aeabi_d2uiz
    _dfixu
        0x0001cde8:    ea4f5311    O..S    LSR      r3,r1,#20
        0x0001cdec:    f5a36380    ...c    SUB      r3,r3,#0x400
        0x0001cdf0:    f1d3031e    ....    RSBS     r3,r3,#0x1e
        0x0001cdf4:    bfa8        ..      IT       GE
        0x0001cdf6:    f1d30c20    .. .    RSBSGE   r12,r3,#0x20
        0x0001cdfa:    db08        ..      BLT      0x1ce0e ; __aeabi_d2uiz + 38
        0x0001cdfc:    f04f4200    O..B    MOV      r2,#0x80000000
        0x0001ce00:    ea4222c1    B.."    ORR      r2,r2,r1,LSL #11
        0x0001ce04:    ea525250    R.PR    ORRS     r2,r2,r0,LSR #21
        0x0001ce08:    fa32f003    2...    LSRS     r0,r2,r3
        0x0001ce0c:    4770        pG      BX       lr
        0x0001ce0e:    4209        .B      TST      r1,r1
        0x0001ce10:    d40b        ..      BMI      0x1ce2a ; __aeabi_d2uiz + 66
        0x0001ce12:    2b10        .+      CMP      r3,#0x10
        0x0001ce14:    bfc4        ..      ITT      GT
        0x0001ce16:    2000        .       MOVGT    r0,#0
        0x0001ce18:    4770        pG      BXGT     lr
        0x0001ce1a:    f5037c78    ..x|    ADD      r12,r3,#0x3e0
        0x0001ce1e:    f1bc3fff    ...?    CMP      r12,#0xffffffff
        0x0001ce22:    d005        ..      BEQ      0x1ce30 ; __aeabi_d2uiz + 72
        0x0001ce24:    f04f30ff    O..0    MOV      r0,#0xffffffff
        0x0001ce28:    4770        pG      BX       lr
        0x0001ce2a:    f04f0000    O...    MOV      r0,#0
        0x0001ce2e:    4770        pG      BX       lr
        0x0001ce30:    b570        p.      PUSH     {r4-r6,lr}
        0x0001ce32:    f000f855    ..U.    BL       __fpl_dnaninf ; 0x1cee0
        0x0001ce36:    bf00        ..      NOP      
    $d
        0x0001ce38:    80249249    I.$.    DCD    2149880393
    $t
        0x0001ce3c:    2000        .       MOVS     r0,#0
        0x0001ce3e:    4770        pG      BX       lr
        0x0001ce40:    e7f0        ..      B        0x1ce24 ; __aeabi_d2uiz + 60
    x$fpl$dfltu
    $v0
    __aeabi_ui2d
    _dfltu
        0x0001ce42:    fab0f380    ....    CLZ      r3,r0
        0x0001ce46:    fa10f103    ....    LSLS     r1,r0,r3
        0x0001ce4a:    d00a        ..      BEQ      0x1ce62 ; __aeabi_ui2d + 32
        0x0001ce4c:    f1c3031d    ....    RSB      r3,r3,#0x1d
        0x0001ce50:    f5036380    ...c    ADD      r3,r3,#0x400
        0x0001ce54:    ea4f5041    O.AP    LSL      r0,r1,#21
        0x0001ce58:    ea4f5203    O..R    LSL      r2,r3,#20
        0x0001ce5c:    eb0221d1    ...!    ADD      r1,r2,r1,LSR #11
        0x0001ce60:    4770        pG      BX       lr
        0x0001ce62:    f04f0000    O...    MOV      r0,#0
        0x0001ce66:    4770        pG      BX       lr
    x$fpl$dleqf
    $v0
    __aeabi_cdcmple
    _dcmple
        0x0001ce68:    ea510c03    Q...    ORRS     r12,r1,r3
        0x0001ce6c:    d417        ..      BMI      0x1ce9e ; __aeabi_cdcmple + 54
        0x0001ce6e:    f51c1f80    ....    CMN      r12,#0x100000
        0x0001ce72:    bf58        X.      IT       PL
        0x0001ce74:    f5bc1f80    ....    CMPPL    r12,#0x100000
        0x0001ce78:    f1008006    ....    BMI.W    0x1ce88 ; __aeabi_cdcmple + 32
        0x0001ce7c:    4299        .B      CMP      r1,r3
        0x0001ce7e:    bf18        ..      IT       NE
        0x0001ce80:    4770        pG      BXNE     lr
        0x0001ce82:    bf08        ..      IT       EQ
        0x0001ce84:    4290        .B      CMPEQ    r0,r2
        0x0001ce86:    4770        pG      BX       lr
        0x0001ce88:    d707        ..      BVC      0x1ce9a ; __aeabi_cdcmple + 50
        0x0001ce8a:    f5111f80    ....    CMN      r1,#0x100000
        0x0001ce8e:    bf58        X.      IT       PL
        0x0001ce90:    f5131f80    ....    CMNPL    r3,#0x100000
        0x0001ce94:    d419        ..      BMI      __fpl_dcmple_InfNaN ; 0x1ceca
        0x0001ce96:    4299        .B      CMP      r1,r3
        0x0001ce98:    4770        pG      BX       lr
        0x0001ce9a:    4289        .B      CMP      r1,r1
        0x0001ce9c:    4770        pG      BX       lr
        0x0001ce9e:    f51c1f80    ....    CMN      r12,#0x100000
        0x0001cea2:    d508        ..      BPL      0x1ceb6 ; __aeabi_cdcmple + 78
        0x0001cea4:    f5bc1f80    ....    CMP      r12,#0x100000
        0x0001cea8:    d5f7        ..      BPL      0x1ce9a ; __aeabi_cdcmple + 50
        0x0001ceaa:    428b        .B      CMP      r3,r1
        0x0001ceac:    bf18        ..      IT       NE
        0x0001ceae:    4770        pG      BXNE     lr
        0x0001ceb0:    bf08        ..      IT       EQ
        0x0001ceb2:    4282        .B      CMPEQ    r2,r0
        0x0001ceb4:    4770        pG      BX       lr
        0x0001ceb6:    f44f1c00    O...    MOV      r12,#0x200000
        0x0001ceba:    eb1c0f41    ..A.    CMN      r12,r1,LSL #1
        0x0001cebe:    bf38        8.      IT       CC
        0x0001cec0:    eb1c0f43    ..C.    CMNCC    r12,r3,LSL #1
        0x0001cec4:    d201        ..      BCS      __fpl_dcmple_InfNaN ; 0x1ceca
        0x0001cec6:    428b        .B      CMP      r3,r1
        0x0001cec8:    4770        pG      BX       lr
    __fpl_dcmple_InfNaN
        0x0001ceca:    b570        p.      PUSH     {r4-r6,lr}
        0x0001cecc:    f000f808    ....    BL       __fpl_dnaninf ; 0x1cee0
    $d
        0x0001ced0:    00492492    .$I.    DCD    4793490
    $t
        0x0001ced4:    f04f5100    O..Q    MOV      r1,#0x20000000
        0x0001ced8:    f04f5380    O..S    MOV      r3,#0x10000000
        0x0001cedc:    f7ffbe1f    ....    B.W      __fpl_dcmp_Inf ; 0x1cb1e
    x$fpl$dnaninf
    $v0
    __fpl_dnaninf
        0x0001cee0:    f10e0e02    ....    ADD      lr,lr,#2
        0x0001cee4:    f02e0e03    ....    BIC      lr,lr,#3
        0x0001cee8:    f85e6b04    ^..k    LDR      r6,[lr],#4
        0x0001ceec:    4236        6B      TST      r6,r6
        0x0001ceee:    d405        ..      BMI      0x1cefc ; __fpl_dnaninf + 28
        0x0001cef0:    2a01        .*      CMP      r2,#1
        0x0001cef2:    eb430503    C...    ADC      r5,r3,r3
        0x0001cef6:    f5151f00    ....    CMN      r5,#0x200000
        0x0001cefa:    d812        ..      BHI      0x1cf22 ; __fpl_dnaninf + 66
        0x0001cefc:    2801        .(      CMP      r0,#1
        0x0001cefe:    eb410c01    A...    ADC      r12,r1,r1
        0x0001cf02:    f51c1f00    ....    CMN      r12,#0x200000
        0x0001cf06:    d80c        ..      BHI      0x1cf22 ; __fpl_dnaninf + 66
        0x0001cf08:    d10e        ..      BNE      0x1cf28 ; __fpl_dnaninf + 72
        0x0001cf0a:    ea4f7cd1    O..|    LSR      r12,r1,#31
        0x0001cf0e:    f5151f00    ....    CMN      r5,#0x200000
        0x0001cf12:    eb0c0c4c    ..L.    ADD      r12,r12,r12,LSL #1
        0x0001cf16:    f10c0c02    ....    ADD      r12,r12,#2
        0x0001cf1a:    bf08        ..      IT       EQ
        0x0001cf1c:    eb4c7cd3    L..|    ADCEQ    r12,r12,r3,LSR #31
        0x0001cf20:    e004        ..      B        0x1cf2c ; __fpl_dnaninf + 76
        0x0001cf22:    f04f0c08    O...    MOV      r12,#8
        0x0001cf26:    e001        ..      B        0x1cf2c ; __fpl_dnaninf + 76
        0x0001cf28:    ea4f7cd3    O..|    LSR      r12,r3,#31
        0x0001cf2c:    eb0c054c    ..L.    ADD      r5,r12,r12,LSL #1
        0x0001cf30:    fa26f605    &...    LSR      r6,r6,r5
        0x0001cf34:    f0060607    ....    AND      r6,r6,#7
        0x0001cf38:    f1b60c04    ....    SUBS     r12,r6,#4
        0x0001cf3c:    d206        ..      BCS      0x1cf4c ; __fpl_dnaninf + 108
        0x0001cf3e:    eb0e0c86    ....    ADD      r12,lr,r6,LSL #2
        0x0001cf42:    e8bd4070    ..p@    POP      {r4-r6,lr}
        0x0001cf46:    f04c0c01    L...    ORR      r12,r12,#1
        0x0001cf4a:    4760        `G      BX       r12
        0x0001cf4c:    e8dff00c    ....    TBB      [pc,r12]
    $d
        0x0001cf50:    02020b09    ....    DCD    33688329
    $t
        0x0001cf54:    f04f4100    O..A    MOV      r1,#0x80000000
        0x0001cf58:    f04f0000    O...    MOV      r0,#0
        0x0001cf5c:    f5a12100    ...!    SUB      r1,r1,#0x80000
        0x0001cf60:    bd70        p.      POP      {r4-r6,pc}
        0x0001cf62:    4619        .F      MOV      r1,r3
        0x0001cf64:    4610        .F      MOV      r0,r2
        0x0001cf66:    2801        .(      CMP      r0,#1
        0x0001cf68:    eb510401    Q...    ADCS     r4,r1,r1
        0x0001cf6c:    bf18        ..      IT       NE
        0x0001cf6e:    f5d41400    ....    RSBSNE   r4,r4,#0x200000
        0x0001cf72:    bf84        ..      ITT      HI
        0x0001cf74:    2000        .       MOVHI    r0,#0
        0x0001cf76:    f0014100    ...A    ANDHI    r1,r1,#0x80000000
        0x0001cf7a:    bd70        p.      POP      {r4-r6,pc}
    x$fpl$dretinf
    $v0
    __fpl_dretinf
        0x0001cf7c:    0808        ..      LSRS     r0,r1,#32
        0x0001cf7e:    f5a01100    ....    SUB      r1,r0,#0x200000
        0x0001cf82:    ea4f0131    O.1.    RRX      r1,r1
        0x0001cf86:    4770        pG      BX       lr
    x$fpl$drleqf
    $v0
    __aeabi_cdrcmple
    _drcmple
        0x0001cf88:    ea530c01    S...    ORRS     r12,r3,r1
        0x0001cf8c:    d417        ..      BMI      0x1cfbe ; __aeabi_cdrcmple + 54
        0x0001cf8e:    f51c1f80    ....    CMN      r12,#0x100000
        0x0001cf92:    bf58        X.      IT       PL
        0x0001cf94:    f5bc1f80    ....    CMPPL    r12,#0x100000
        0x0001cf98:    f1008006    ....    BMI.W    0x1cfa8 ; __aeabi_cdrcmple + 32
        0x0001cf9c:    428b        .B      CMP      r3,r1
        0x0001cf9e:    bf18        ..      IT       NE
        0x0001cfa0:    4770        pG      BXNE     lr
        0x0001cfa2:    bf08        ..      IT       EQ
        0x0001cfa4:    4282        .B      CMPEQ    r2,r0
        0x0001cfa6:    4770        pG      BX       lr
        0x0001cfa8:    d707        ..      BVC      0x1cfba ; __aeabi_cdrcmple + 50
        0x0001cfaa:    f5131f80    ....    CMN      r3,#0x100000
        0x0001cfae:    bf58        X.      IT       PL
        0x0001cfb0:    f5111f80    ....    CMNPL    r1,#0x100000
        0x0001cfb4:    d419        ..      BMI      0x1cfea ; __aeabi_cdrcmple + 98
        0x0001cfb6:    428b        .B      CMP      r3,r1
        0x0001cfb8:    4770        pG      BX       lr
        0x0001cfba:    429b        .B      CMP      r3,r3
        0x0001cfbc:    4770        pG      BX       lr
        0x0001cfbe:    f51c1f80    ....    CMN      r12,#0x100000
        0x0001cfc2:    d508        ..      BPL      0x1cfd6 ; __aeabi_cdrcmple + 78
        0x0001cfc4:    f5bc1f80    ....    CMP      r12,#0x100000
        0x0001cfc8:    d5f7        ..      BPL      0x1cfba ; __aeabi_cdrcmple + 50
        0x0001cfca:    4299        .B      CMP      r1,r3
        0x0001cfcc:    bf18        ..      IT       NE
        0x0001cfce:    4770        pG      BXNE     lr
        0x0001cfd0:    bf08        ..      IT       EQ
        0x0001cfd2:    4290        .B      CMPEQ    r0,r2
        0x0001cfd4:    4770        pG      BX       lr
        0x0001cfd6:    f44f1c00    O...    MOV      r12,#0x200000
        0x0001cfda:    eb1c0f43    ..C.    CMN      r12,r3,LSL #1
        0x0001cfde:    bf38        8.      IT       CC
        0x0001cfe0:    eb1c0f41    ..A.    CMNCC    r12,r1,LSL #1
        0x0001cfe4:    d201        ..      BCS      0x1cfea ; __aeabi_cdrcmple + 98
        0x0001cfe6:    4299        .B      CMP      r1,r3
        0x0001cfe8:    4770        pG      BX       lr
        0x0001cfea:    b40f        ..      PUSH     {r0-r3}
        0x0001cfec:    bc0c        ..      POP      {r2,r3}
        0x0001cfee:    bc03        ..      POP      {r0,r1}
        0x0001cff0:    f7ffbf6b    ..k.    B.W      __fpl_dcmple_InfNaN ; 0x1ceca
    x$fpl$f2d
    $v0
    __aeabi_f2d
    _f2d
        0x0001cff4:    0043        C.      LSLS     r3,r0,#1
        0x0001cff6:    ea4f0cd3    O...    LSR      r12,r3,#3
        0x0001cffa:    ea4f0c3c    O.<.    RRX      r12,r12
        0x0001cffe:    4043        C@      EORS     r3,r3,r0
        0x0001d000:    bf1f        ..      ITTTT    NE
        0x0001d002:    0740        @.      LSLNE    r0,r0,#29
        0x0001d004:    f10c5160    ..`Q    ADDNE    r1,r12,#0x38000000
        0x0001d008:    f0134ffe    ...O    TSTNE    r3,#0x7f000000
        0x0001d00c:    4770        pG      BXNE     lr
        0x0001d00e:    f01c6f00    ...o    TST      r12,#0x8000000
        0x0001d012:    d103        ..      BNE      0x1d01c ; __aeabi_f2d + 40
        0x0001d014:    2000        .       MOVS     r0,#0
        0x0001d016:    f00c4100    ...A    AND      r1,r12,#0x80000000
        0x0001d01a:    4770        pG      BX       lr
        0x0001d01c:    f00c4300    ...C    AND      r3,r12,#0x80000000
        0x0001d020:    ea437050    C.Pp    ORR      r0,r3,r0,LSR #29
        0x0001d024:    b510        ..      PUSH     {r4,lr}
        0x0001d026:    ea4000cc    @...    ORR      r0,r0,r12,LSL #3
        0x0001d02a:    f000f80e    ....    BL       __fpl_fnaninf ; 0x1d04a
        0x0001d02e:    bf00        ..      NOP      
    $d
        0x0001d030:    92000000    ....    DCD    2449473536
    $t
        0x0001d034:    ea4f0100    O...    MOV.W    r1,r0
        0x0001d038:    f7ffbfa0    ....    B.W      __fpl_dretinf ; 0x1cf7c
        0x0001d03c:    f04f4100    O..A    MOV      r1,#0x80000000
        0x0001d040:    f04f0000    O...    MOV      r0,#0
        0x0001d044:    f5a12100    ...!    SUB      r1,r1,#0x80000
        0x0001d048:    4770        pG      BX       lr
    x$fpl$fnaninf
    $v0
    __fpl_fnaninf
        0x0001d04a:    f10e0e02    ....    ADD      lr,lr,#2
        0x0001d04e:    f02e0e03    ....    BIC      lr,lr,#3
        0x0001d052:    f85e4b04    ^..K    LDR      r4,[lr],#4
        0x0001d056:    4224        $B      TST      r4,r4
        0x0001d058:    d404        ..      BMI      0x1d064 ; __fpl_fnaninf + 26
        0x0001d05a:    ea4f0241    O.A.    LSL      r2,r1,#1
        0x0001d05e:    f1b24f7f    ...O    CMP      r2,#0xff000000
        0x0001d062:    d811        ..      BHI      0x1d088 ; __fpl_fnaninf + 62
        0x0001d064:    ea4f0340    O.@.    LSL      r3,r0,#1
        0x0001d068:    f1b34f7f    ...O    CMP      r3,#0xff000000
        0x0001d06c:    d80c        ..      BHI      0x1d088 ; __fpl_fnaninf + 62
        0x0001d06e:    d10e        ..      BNE      0x1d08e ; __fpl_fnaninf + 68
        0x0001d070:    ea4f7cd0    O..|    LSR      r12,r0,#31
        0x0001d074:    f1b24f7f    ...O    CMP      r2,#0xff000000
        0x0001d078:    eb0c0c4c    ..L.    ADD      r12,r12,r12,LSL #1
        0x0001d07c:    f10c0c02    ....    ADD      r12,r12,#2
        0x0001d080:    bf08        ..      IT       EQ
        0x0001d082:    eb4c7cd1    L..|    ADCEQ    r12,r12,r1,LSR #31
        0x0001d086:    e004        ..      B        0x1d092 ; __fpl_fnaninf + 72
        0x0001d088:    f04f0c08    O...    MOV      r12,#8
        0x0001d08c:    e001        ..      B        0x1d092 ; __fpl_fnaninf + 72
        0x0001d08e:    ea4f7cd1    O..|    LSR      r12,r1,#31
        0x0001d092:    eb0c034c    ..L.    ADD      r3,r12,r12,LSL #1
        0x0001d096:    fa24f403    $...    LSR      r4,r4,r3
        0x0001d09a:    f0040407    ....    AND      r4,r4,#7
        0x0001d09e:    f1b40c04    ....    SUBS     r12,r4,#4
        0x0001d0a2:    d206        ..      BCS      0x1d0b2 ; __fpl_fnaninf + 104
        0x0001d0a4:    eb0e0c84    ....    ADD      r12,lr,r4,LSL #2
        0x0001d0a8:    e8bd4010    ...@    POP      {r4,lr}
        0x0001d0ac:    f04c0c01    L...    ORR      r12,r12,#1
        0x0001d0b0:    4760        `G      BX       r12
        0x0001d0b2:    e8dff00c    ....    TBB      [pc,r12]
    $d
        0x0001d0b6:    0807        ..      DCW    2055
        0x0001d0b8:    0202        ..      DCW    514
    $t
        0x0001d0ba:    f04f4000    O..@    MOV      r0,#0x80000000
        0x0001d0be:    f5a00080    ....    SUB      r0,r0,#0x400000
        0x0001d0c2:    bd10        ..      POP      {r4,pc}
        0x0001d0c4:    4608        .F      MOV      r0,r1
        0x0001d0c6:    0042        B.      LSLS     r2,r0,#1
        0x0001d0c8:    bf18        ..      IT       NE
        0x0001d0ca:    f1d27280    ...r    RSBSNE   r2,r2,#0x1000000
        0x0001d0ce:    bf88        ..      IT       HI
        0x0001d0d0:    f0004000    ...@    ANDHI    r0,r0,#0x80000000
        0x0001d0d4:    bd10        ..      POP      {r4,pc}
    x$fpl$fpinit
    $v0
    _fp_init
        0x0001d0d6:    f04f7040    O.@p    MOV      r0,#0x3000000
        0x0001d0da:    eee10a10    ....    VMSR     FPSCR,r0
    __fplib_config_fpu_vfp
    __fplib_config_pureend_doubles
        0x0001d0de:    4770        pG      BX       lr
    x$fpl$fretinf
    $v0
    __fpl_fretinf
        0x0001d0e0:    21ff        .!      MOVS     r1,#0xff
        0x0001d0e2:    ea4150d0    A..P    ORR      r0,r1,r0,LSR #23
        0x0001d0e6:    05c0        ..      LSLS     r0,r0,#23
        0x0001d0e8:    4770        pG      BX       lr
    x$fpl$usenofp
    __I$use$fp
        0x0001d0ea:    0000        ..      MOVS     r0,r0
    $d.realdata
    .constdata
    __tagsym$$used
    ui32MCUAllowed
        0x0001d0ec:    00000000    ....    DCD    0
        0x0001d0f0:    00000000    ....    DCD    0
        0x0001d0f4:    00000000    ....    DCD    0
        0x0001d0f8:    00000000    ....    DCD    0
        0x0001d0fc:    00000000    ....    DCD    0
    __tagsym$$used
    ui32DSP0Allowed
        0x0001d100:    00000000    ....    DCD    0
        0x0001d104:    00000000    ....    DCD    0
        0x0001d108:    00000000    ....    DCD    0
        0x0001d10c:    00000000    ....    DCD    0
        0x0001d110:    00000000    ....    DCD    0
    __tagsym$$used
    ui32DSP1Allowed
        0x0001d114:    00000000    ....    DCD    0
        0x0001d118:    00000000    ....    DCD    0
        0x0001d11c:    00000000    ....    DCD    0
        0x0001d120:    00000000    ....    DCD    0
        0x0001d124:    00000000    ....    DCD    0
    __tagsym$$used
    ui32SharedAccess
        0x0001d128:    00000000    ....    DCD    0
        0x0001d12c:    00000000    ....    DCD    0
        0x0001d130:    00000000    ....    DCD    0
        0x0001d134:    00000000    ....    DCD    0
        0x0001d138:    00000000    ....    DCD    0
    __tagsym$$used
    sGlobalAccess
        0x0001d13c:    0001d128    (...    DCD    119080
        0x0001d140:    0001d0ec    ....    DCD    119020
        0x0001d144:    0001d100    ....    DCD    119040
        0x0001d148:    0001d114    ....    DCD    119060
        0x0001d14c:    10060004    ....    DCD    268828676
        0x0001d150:    10060018    ....    DCD    268828696
        0x0001d154:    1006002c    ,...    DCD    268828716
    .constdata
        0x0001d158:    01010002    ....    DCD    16842754
        0x0001d15c:    00000101    ....    DCD    257
    .constdata
    am_hal_gpio_pincfg_output
        0x0001d160:    00000183    ....    DCD    387
    .constdata
    am_hal_gpio_pincfg_tristate
        0x0001d164:    00000383    ....    DCD    899
    .constdata
    am_hal_gpio_pincfg_disabled
        0x0001d168:    00000003    ....    DCD    3
    .constdata
    g_ui32DSpintbl
        0x0001d16c:    8fc007e0    ....    DCD    2411726816
        0x0001d170:    e3fbffff    ....    DCD    3824943103
        0x0001d174:    01ffffff    ....    DCD    33554431
        0x0001d178:    00000000    ....    DCD    0
    .constdata
    g_DefaultSRAMCfg
        0x0001d17c:    03000003    ....    DCD    50331651
    g_DefaultMcuMemCfg
        0x0001d180:    07070102    ....    DCD    117899522
        0x0001d184:    00000001    ....    DCD    1
    am_hal_pwrctrl_peripheral_control
        0x0001d188:    40021004    ...@    DCD    1073876996
        0x0001d18c:    00000001    ....    DCD    1
        0x0001d190:    40021008    ...@    DCD    1073877000
        0x0001d194:    00000001    ....    DCD    1
        0x0001d198:    40021004    ...@    DCD    1073876996
        0x0001d19c:    00000002    ....    DCD    2
        0x0001d1a0:    40021008    ...@    DCD    1073877000
        0x0001d1a4:    00000002    ....    DCD    2
        0x0001d1a8:    40021004    ...@    DCD    1073876996
        0x0001d1ac:    00000004    ....    DCD    4
        0x0001d1b0:    40021008    ...@    DCD    1073877000
        0x0001d1b4:    00000004    ....    DCD    4
        0x0001d1b8:    40021004    ...@    DCD    1073876996
        0x0001d1bc:    00000008    ....    DCD    8
        0x0001d1c0:    40021008    ...@    DCD    1073877000
        0x0001d1c4:    00000008    ....    DCD    8
        0x0001d1c8:    40021004    ...@    DCD    1073876996
        0x0001d1cc:    00000010    ....    DCD    16
        0x0001d1d0:    40021008    ...@    DCD    1073877000
        0x0001d1d4:    00000010    ....    DCD    16
        0x0001d1d8:    40021004    ...@    DCD    1073876996
        0x0001d1dc:    00000020     ...    DCD    32
        0x0001d1e0:    40021008    ...@    DCD    1073877000
        0x0001d1e4:    00000020     ...    DCD    32
        0x0001d1e8:    40021004    ...@    DCD    1073876996
        0x0001d1ec:    00000040    @...    DCD    64
        0x0001d1f0:    40021008    ...@    DCD    1073877000
        0x0001d1f4:    00000040    @...    DCD    64
        0x0001d1f8:    40021004    ...@    DCD    1073876996
        0x0001d1fc:    00000080    ....    DCD    128
        0x0001d200:    40021008    ...@    DCD    1073877000
        0x0001d204:    00000080    ....    DCD    128
        0x0001d208:    40021004    ...@    DCD    1073876996
        0x0001d20c:    00000100    ....    DCD    256
        0x0001d210:    40021008    ...@    DCD    1073877000
        0x0001d214:    00000100    ....    DCD    256
        0x0001d218:    40021004    ...@    DCD    1073876996
        0x0001d21c:    00000200    ....    DCD    512
        0x0001d220:    40021008    ...@    DCD    1073877000
        0x0001d224:    00000200    ....    DCD    512
        0x0001d228:    40021004    ...@    DCD    1073876996
        0x0001d22c:    00000400    ....    DCD    1024
        0x0001d230:    40021008    ...@    DCD    1073877000
        0x0001d234:    00000400    ....    DCD    1024
        0x0001d238:    40021004    ...@    DCD    1073876996
        0x0001d23c:    00000800    ....    DCD    2048
        0x0001d240:    40021008    ...@    DCD    1073877000
        0x0001d244:    00000800    ....    DCD    2048
        0x0001d248:    40021004    ...@    DCD    1073876996
        0x0001d24c:    00001000    ....    DCD    4096
        0x0001d250:    40021008    ...@    DCD    1073877000
        0x0001d254:    00001000    ....    DCD    4096
        0x0001d258:    40021004    ...@    DCD    1073876996
        0x0001d25c:    00002000    . ..    DCD    8192
        0x0001d260:    40021008    ...@    DCD    1073877000
        0x0001d264:    00002000    . ..    DCD    8192
        0x0001d268:    40021004    ...@    DCD    1073876996
        0x0001d26c:    00004000    .@..    DCD    16384
        0x0001d270:    40021008    ...@    DCD    1073877000
        0x0001d274:    00004000    .@..    DCD    16384
        0x0001d278:    40021004    ...@    DCD    1073876996
        0x0001d27c:    00008000    ....    DCD    32768
        0x0001d280:    40021008    ...@    DCD    1073877000
        0x0001d284:    00008000    ....    DCD    32768
        0x0001d288:    40021004    ...@    DCD    1073876996
        0x0001d28c:    00010000    ....    DCD    65536
        0x0001d290:    40021008    ...@    DCD    1073877000
        0x0001d294:    00010000    ....    DCD    65536
        0x0001d298:    40021004    ...@    DCD    1073876996
        0x0001d29c:    00020000    ....    DCD    131072
        0x0001d2a0:    40021008    ...@    DCD    1073877000
        0x0001d2a4:    00020000    ....    DCD    131072
        0x0001d2a8:    40021004    ...@    DCD    1073876996
        0x0001d2ac:    00040000    ....    DCD    262144
        0x0001d2b0:    40021008    ...@    DCD    1073877000
        0x0001d2b4:    00040000    ....    DCD    262144
        0x0001d2b8:    40021004    ...@    DCD    1073876996
        0x0001d2bc:    00080000    ....    DCD    524288
        0x0001d2c0:    40021008    ...@    DCD    1073877000
        0x0001d2c4:    00080000    ....    DCD    524288
        0x0001d2c8:    40021004    ...@    DCD    1073876996
        0x0001d2cc:    00100000    ....    DCD    1048576
        0x0001d2d0:    40021008    ...@    DCD    1073877000
        0x0001d2d4:    00100000    ....    DCD    1048576
        0x0001d2d8:    40021004    ...@    DCD    1073876996
        0x0001d2dc:    00200000    .. .    DCD    2097152
        0x0001d2e0:    40021008    ...@    DCD    1073877000
        0x0001d2e4:    00200000    .. .    DCD    2097152
        0x0001d2e8:    40021004    ...@    DCD    1073876996
        0x0001d2ec:    00400000    ..@.    DCD    4194304
        0x0001d2f0:    40021008    ...@    DCD    1073877000
        0x0001d2f4:    00400000    ..@.    DCD    4194304
        0x0001d2f8:    40021004    ...@    DCD    1073876996
        0x0001d2fc:    00800000    ....    DCD    8388608
        0x0001d300:    40021008    ...@    DCD    1073877000
        0x0001d304:    00800000    ....    DCD    8388608
        0x0001d308:    40021004    ...@    DCD    1073876996
        0x0001d30c:    01000000    ....    DCD    16777216
        0x0001d310:    40021008    ...@    DCD    1073877000
        0x0001d314:    01000000    ....    DCD    16777216
        0x0001d318:    4002100c    ...@    DCD    1073877004
        0x0001d31c:    00000001    ....    DCD    1
        0x0001d320:    40021010    ...@    DCD    1073877008
        0x0001d324:    00000001    ....    DCD    1
        0x0001d328:    4002100c    ...@    DCD    1073877004
        0x0001d32c:    00000002    ....    DCD    2
        0x0001d330:    40021010    ...@    DCD    1073877008
        0x0001d334:    00000002    ....    DCD    2
        0x0001d338:    4002100c    ...@    DCD    1073877004
        0x0001d33c:    00000004    ....    DCD    4
        0x0001d340:    40021010    ...@    DCD    1073877008
        0x0001d344:    00000004    ....    DCD    4
        0x0001d348:    4002100c    ...@    DCD    1073877004
        0x0001d34c:    00000008    ....    DCD    8
        0x0001d350:    40021010    ...@    DCD    1073877008
        0x0001d354:    00000008    ....    DCD    8
        0x0001d358:    4002100c    ...@    DCD    1073877004
        0x0001d35c:    00000010    ....    DCD    16
        0x0001d360:    40021010    ...@    DCD    1073877008
        0x0001d364:    00000010    ....    DCD    16
        0x0001d368:    4002100c    ...@    DCD    1073877004
        0x0001d36c:    00000020     ...    DCD    32
        0x0001d370:    40021010    ...@    DCD    1073877008
        0x0001d374:    00000020     ...    DCD    32
        0x0001d378:    4002100c    ...@    DCD    1073877004
        0x0001d37c:    00000040    @...    DCD    64
        0x0001d380:    40021010    ...@    DCD    1073877008
        0x0001d384:    00000040    @...    DCD    64
        0x0001d388:    4002100c    ...@    DCD    1073877004
        0x0001d38c:    00000080    ....    DCD    128
        0x0001d390:    40021010    ...@    DCD    1073877008
        0x0001d394:    00000080    ....    DCD    128
        0x0001d398:    4002100c    ...@    DCD    1073877004
        0x0001d39c:    00000400    ....    DCD    1024
        0x0001d3a0:    40021010    ...@    DCD    1073877008
        0x0001d3a4:    00000400    ....    DCD    1024
    .constdata
    g_sBspUartConfig
        0x0001d3a8:    0001c200    ....    DCD    115200
        0x0001d3ac:    00000203    ....    DCD    515
        0x0001d3b0:    02020000    ....    DCD    33685504
        0x0001d3b4:    00000000    ....    DCD    0
        0x0001d3b8:    00000000    ....    DCD    0
        0x0001d3bc:    00000000    ....    DCD    0
        0x0001d3c0:    00000000    ....    DCD    0
        0x0001d3c4:    ffffffff    ....    DCD    4294967295
        0x0001d3c8:    00000000    ....    DCD    0
        0x0001d3cc:    00000000    ....    DCD    0
        0x0001d3d0:    00000000    ....    DCD    0
    .constdata
    g_am_hal_bootrom_helper
        0x0001d3d4:    0800004d    M...    DCD    134217805
        0x0001d3d8:    08000051    Q...    DCD    134217809
        0x0001d3dc:    08000055    U...    DCD    134217813
        0x0001d3e0:    08000059    Y...    DCD    134217817
        0x0001d3e4:    0800006d    m...    DCD    134217837
        0x0001d3e8:    08000075    u...    DCD    134217845
        0x0001d3ec:    08000079    y...    DCD    134217849
        0x0001d3f0:    08000081    ....    DCD    134217857
        0x0001d3f4:    08000099    ....    DCD    134217881
        0x0001d3f8:    0800009d    ....    DCD    134217885
    .constdata
    am_hal_daxi_defaults
        0x0001d3fc:    00000002    ....    DCD    2
    .conststring
        0x0001d400:    6e6e6143    Cann    DCD    1852727619
        0x0001d404:    7620746f    ot v    DCD    1981838447
        0x0001d408:    64696c61    alid    DCD    1684630625
        0x0001d40c:    20657461    ate     DCD    543519841
        0x0001d410:    7265706f    oper    DCD    1919250543
        0x0001d414:    6f697461    atio    DCD    1869182049
        0x0001d418:    6f66206e    n fo    DCD    1868963950
        0x0001d41c:    68742072    r th    DCD    1752440946
        0x0001d420:    20657365    ese     DCD    543519589
        0x0001d424:    64656573    seed    DCD    1684366707
        0x0001d428:    6c617620     val    DCD    1818326560
        0x0001d42c:    2c736575    ues,    DCD    745760117
        0x0001d430:    656c7020     ple    DCD    1701605408
        0x0001d434:    20657361    ase     DCD    543519585
        0x0001d438:    706d6f63    comp    DCD    1886220131
        0x0001d43c:    20657261    are     DCD    543519329
        0x0001d440:    68746977    with    DCD    1752459639
        0x0001d444:    73657220     res    DCD    1936028192
        0x0001d448:    73746c75    ults    DCD    1937009781
        0x0001d44c:    206e6f20     on     DCD    544108320
        0x0001d450:    6e6b2061    a kn    DCD    1852514401
        0x0001d454:    206e776f    own     DCD    544110447
        0x0001d458:    74616c70    plat    DCD    1952541808
        0x0001d45c:    6d726f66    form    DCD    1836216166
        0x0001d460:    00000a2e    ....    DCD    2606
        0x0001d464:    72726f43    Corr    DCD    1920102211
        0x0001d468:    20746365    ect     DCD    544498533
        0x0001d46c:    7265706f    oper    DCD    1919250543
        0x0001d470:    6f697461    atio    DCD    1869182049
        0x0001d474:    6176206e    n va    DCD    1635131502
        0x0001d478:    6164696c    lida    DCD    1633970540
        0x0001d47c:    2e646574    ted.    DCD    778331508
        0x0001d480:    65655320     See    DCD    1701139232
        0x0001d484:    61657220     rea    DCD    1634038304
        0x0001d488:    2e656d64    dme.    DCD    778399076
        0x0001d48c:    20747874    txt     DCD    544503924
        0x0001d490:    20726f66    for     DCD    544370534
        0x0001d494:    206e7572    run     DCD    544109938
        0x0001d498:    20646e61    and     DCD    543452769
        0x0001d49c:    6f706572    repo    DCD    1869636978
        0x0001d4a0:    6e697472    rtin    DCD    1852404850
        0x0001d4a4:    75722067    g ru    DCD    1970413671
        0x0001d4a8:    2e73656c    les.    DCD    779314540
        0x0001d4ac:    0000000a    ....    DCD    10
    .conststring
        0x0001d4b0:    352e3533    35.5    DCD    892220723
        0x0001d4b4:    30303434    4400    DCD    808465460
        0x0001d4b8:    00000000    ....    DCD    0
        0x0001d4bc:    362e302b    +0.6    DCD    908996651
        0x0001d4c0:    30303434    4400    DCD    808465460
        0x0001d4c4:    00000000    ....    DCD    0
        0x0001d4c8:    3332312e    .123    DCD    858927406
        0x0001d4cc:    30303534    4500    DCD    808465716
        0x0001d4d0:    00000000    ....    DCD    0
        0x0001d4d4:    3031312d    -110    DCD    808530221
        0x0001d4d8:    3030372e    .700    DCD    808466222
        0x0001d4dc:    00000000    ....    DCD    0
        0x0001d4e0:    32312e2d    -.12    DCD    842083885
        0x0001d4e4:    322d6533    3e-2    DCD    841835827
        0x0001d4e8:    00000000    ....    DCD    0
        0x0001d4ec:    362e302b    +0.6    DCD    908996651
        0x0001d4f0:    32312d65    e-12    DCD    842083685
        0x0001d4f4:    00000000    ....    DCD    0
        0x0001d4f8:    32313035    5012    DCD    842084405
        0x0001d4fc:    00000000    ....    DCD    0
        0x0001d500:    3232312b    +122    DCD    842150187
        0x0001d504:    00000000    ....    DCD    0
        0x0001d508:    6537382d    -87e    DCD    1698117677
        0x0001d50c:    3233382b    +832    DCD    842217515
        0x0001d510:    00000000    ....    DCD    0
        0x0001d514:    30352e35    5.50    DCD    808791605
        0x0001d518:    332b6530    0e+3    DCD    858481968
        0x0001d51c:    00000000    ....    DCD    0
        0x0001d520:    34333231    1234    DCD    875770417
        0x0001d524:    00000000    ....    DCD    0
        0x0001d528:    3437382d    -874    DCD    876034093
        0x0001d52c:    00000000    ....    DCD    0
        0x0001d530:    332e3054    T0.3    DCD    858665044
        0x0001d534:    46312d65    e-1F    DCD    1177628005
        0x0001d538:    00000000    ....    DCD    0
        0x0001d53c:    302e3433    34.0    DCD    808334387
        0x0001d540:    5e542d65    e-T^    DCD    1582574949
        0x0001d544:    00000000    ....    DCD    0
        0x0001d548:    542e542d    -T.T    DCD    1412322349
        0x0001d54c:    71542b2b    ++Tq    DCD    1901341483
        0x0001d550:    00000000    ....    DCD    0
        0x0001d554:    2e335431    1T3.    DCD    775115825
        0x0001d558:    7a346534    4e4z    DCD    2050254132
        0x0001d55c:    00000000    ....    DCD    0
    Region$$Table$$Base
        0x0001d560:    0001d590    ....    DCD    120208
        0x0001d564:    10000000    ....    DCD    268435456
        0x0001d568:    000002f8    ....    DCD    760
        0x0001d56c:    00018274    t...    DCD    98932
        0x0001d570:    0001d734    4...    DCD    120628
        0x0001d574:    10060000    ....    DCD    268828672
        0x0001d578:    00000040    @...    DCD    64
        0x0001d57c:    000182d0    ....    DCD    99024
        0x0001d580:    0001d734    4...    DCD    120628
        0x0001d584:    100002f8    ....    DCD    268436216
        0x0001d588:    000013a8    ....    DCD    5032
        0x0001d58c:    000182ec    ....    DCD    99052
    Region$$Table$$Limit

** Section #2 'MCU_TCM' (SHT_PROGBITS) [SHF_ALLOC + SHF_WRITE]
    Size   : 420 bytes (alignment 16)
    Address: 0x10000000

    Data section was compressed (Original size: 760 bytes)

    0x10000000:   00 00 00 00 b0 d4 40 33 79 6a 14 e7 c1 e3 52 be    ......@3yj....R.
    0x10000010:   99 11 08 56 d7 1f 47 07 47 5e bf 39 a4 e5 3a 8e    ...V..G.G^.9..:.
    0x10000020:   84 8d 00 00 00 00 00 00 00 00 00 00 66 00 00 00    ............f...
    0x10000030:   d0 07 00 00 00 00 00 00 00 00 00 00 00 00 00 00    ................
    0x10000040:   00 00 00 00 00 00 00 00 00 00 00 00 00 00 00 00    ................
    0x10000050:   01 00 00 00 f8 d4 01 00 20 d5 01 00 28 d5 01 00    ........ ...(...
    0x10000060:   00 d5 01 00 b0 d4 01 00 c8 d4 01 00 d4 d4 01 00    ................
    0x10000070:   bc d4 01 00 14 d5 01 00 e0 d4 01 00 08 d5 01 00    ................
    0x10000080:   ec d4 01 00 30 d5 01 00 48 d5 01 00 54 d5 01 00    ....0...H...T...
    0x10000090:   3c d5 01 00 00 00 00 00 00 00 00 00 00 00 00 00    <...............
    0x100000a0:   00 00 00 00 01 00 00 00 ff ff ff ff ff ff ff ff    ................
    0x100000b0:   ff ff ff ff ff ff ff ff ff ff ff ff c1 00 00 10    ................
    0x100000c0:   08 60 bf f3 4f 8f 30 bf bf f3 6f 8f 70 47 00 bf    .`..O.0...o.pG..
    0x100000d0:   00 00 00 00 00 00 00 00 00 00 00 00 00 00 00 00    ................
    0x100000e0:   5a 00 00 00 02 00 00 00 1e 00 00 00 02 00 00 00    Z...............
    0x100000f0:   5b 00 00 00 02 00 00 00 00 00 00 00 00 00 00 00    [...............
    0x10000100:   00 00 00 00 00 00 00 00 00 00 00 00 00 00 06 10    ................
    0x10000110:   00 00 08 00 28 10 02 40 01 00 00 00 00 00 0e 10    ....(..@........
    0x10000120:   00 00 08 00 28 10 02 40 02 00 00 00 00 00 16 10    ....(..@........
    0x10000130:   00 00 02 00 5c 10 02 40 02 00 00 00 00 00 18 10    ....\..@........
    0x10000140:   00 00 04 00 5c 10 02 40 01 00 00 00 00 00 1d 10    ....\..@........
    0x10000150:   00 80 00 00 7c 10 02 40 02 00 00 00 00 00 1c 10    ....|..@........
    0x10000160:   00 00 01 00 7c 10 02 40 01 00 00 00 44 f2 04 01    ....|..@....D...
    0x10000170:   c4 f2 01 01 c3 22 4a 60 05 22 cb 6c 43 f0 10 03    ....."J`.".lC...
    0x10000180:   cb 64 0a 65 01 23 cb 60 00 22 0a 61 4a 61 8a 61    .d.e.#.`.".aJa.a
    0x10000190:   00 f0 0f 00 0b 68 43 f0 08 03 0b 60 0a 68 22 f0    .....hC....`.h".
    0x100001a0:   08 02 0a 60 09 22 0b 6d 62 f3 95 23 0b 65 06 22    ...`.".mb..#.e."
    0x100001b0:   0b 6d 62 f3 04 03 0b 65 0a 68 42 f0 08 02 0a 60    .mb....e.hB....`
    0x100001c0:   0b 68 23 f0 08 03 0b 60 ca 6e 0b 68 23 f0 08 03    .h#....`.n.h#...
    0x100001d0:   12 09 0b 60 40 ea 02 10 c8 60 05 20 0a 6d 60 f3    ...`@....`. .m`.
    0x100001e0:   04 02 0a 65 08 68 40 f0 08 00 08 60 0a 68 22 f0    ...e.h@....`.h".
    0x100001f0:   08 02 0a 60 00 22 08 6d 6f f3 95 20 08 65 ca 60    ...`.".mo.. .e.`
    0x10000200:   05 20 0a 6d 60 f3 04 02 0a 65 08 68 40 f0 08 00    . .m`....e.h@...
    0x10000210:   08 60 0a 68 22 f0 08 02 0a 60 00 22 c8 6c 20 f0    .`.h"....`.".l .
    0x10000220:   10 00 c8 64 4a 60 70 47 44 f2 04 01 c4 f2 01 01    ...dJ`pGD.......
    0x10000230:   c3 20 48 60 05 20 ca 6c 42 f0 10 02 ca 64 08 65    . H`. .lB....d.e
    0x10000240:   01 22 ca 60 00 20 08 61 48 61 88 61 0a 68 42 f0    .".`. .aHa.a.hB.
    0x10000250:   08 02 0a 60 08 68 20 f0 08 00 08 60 09 20 0a 6d    ...`.h ....`. .m
    0x10000260:   60 f3 95 22 0a 65 06 20 0a 6d 60 f3 04 02 0a 65    `..".e. .m`....e
    0x10000270:   08 68 40 f0 08 00 08 60 45 f6 a0 00 0a 68 22 f0    .h@....`E....h".
    0x10000280:   08 02 0a 60 c0 f2 10 00 ca 6e 02 f0 0f 02 02 43    ...`.....n.....C
    0x10000290:   ca 60 05 20 0a 6d 60 f3 04 02 0a 65 08 68 40 f0    .`. .m`....e.h@.
    0x100002a0:   08 00 08 60 0a 68 22 f0 08 02 0a 60 00 22 08 6d    ...`.h"....`.".m
    0x100002b0:   6f f3 95 20 08 65 ca 60 05 20 0a 6d 60 f3 04 02    o.. .e.`. .m`...
    0x100002c0:   0a 65 08 68 40 f0 08 00 08 60 0a 68 22 f0 08 02    .e.h@....`.h"...
    0x100002d0:   0a 60 00 22 c8 6c 20 f0 10 00 c8 64 4a 60 00 20    .`.".l ....dJ`. 
    0x100002e0:   70 47 00 00 6d 01 00 10 29 02 00 10 04 00 00 00    pG..m...).......
    0x100002f0:   04 00 00 00 00 00 00 00                            ........


** Section #3 'MCU_TCM' (SHT_NOBITS) [SHF_ALLOC + SHF_WRITE]
    Size   : 5032 bytes (alignment 8)
    Address: 0x100002f8


** Section #4 'SHARED_SRAM' (SHT_PROGBITS) [SHF_ALLOC + SHF_WRITE]
    Size   : 64 bytes (alignment 4)
    Address: 0x10060000

    0x10060000:   3c d1 01 00 00 00 00 00 00 00 00 00 00 00 00 00    <...............
    0x10060010:   00 00 00 00 00 00 00 00 00 00 00 00 00 00 00 00    ................
    0x10060020:   00 00 00 00 00 00 00 00 00 00 00 00 00 00 00 00    ................
    0x10060030:   00 00 00 00 00 00 00 00 00 00 00 00 00 00 00 00    ................


** Section #5 '.debug_abbrev' (SHT_PROGBITS)
    Size   : 1476 bytes


** Section #6 '.debug_frame' (SHT_PROGBITS)
    Size   : 5000 bytes


** Section #7 '.debug_info' (SHT_PROGBITS)
    Size   : 41524 bytes


** Section #8 '.debug_line' (SHT_PROGBITS)
    Size   : 13816 bytes


** Section #9 '.debug_loc' (SHT_PROGBITS)
    Size   : 9344 bytes


** Section #10 '.debug_macinfo' (SHT_PROGBITS)
    Size   : 7320 bytes


** Section #11 '.debug_pubnames' (SHT_PROGBITS)
    Size   : 2726 bytes


** Section #12 '.symtab' (SHT_SYMTAB)
    Size   : 14368 bytes (alignment 4)
    String table #13 '.strtab'
    Last local symbol no. 576

    Symbol table .symtab (897 symbols, 576 local)

      #  Symbol Name                Value      Bind  Sec  Type  Vis  Size
    ========================================================================

      1  $d                         0x00018000   Lc    1   --   De 
      2  $t                         0x00018200   Lc    1   --   De 
      3  $d                         0x00018232   Lc    1   --   De 
      4  $t                         0x00018238   Lc    1   --   De 
      5  $d                         0x0001826c   Lc    1   --   De 
      6  $t                         0x00018274   Lc    1   --   De 
      7  $d                         0x00018396   Lc    1   --   De 
      8  $t                         0x000183a4   Lc    1   --   De 
      9  $d                         0x0001849c   Lc    1   --   De 
     10  $t                         0x000184a0   Lc    1   --   De 
     11  $d                         0x000184a8   Lc    1   --   De 
     12  $t                         0x000184ac   Lc    1   --   De 
     13  $d                         0x000184ba   Lc    1   --   De 
     14  $t                         0x000184c0   Lc    1   --   De 
     15  $d                         0x0001858c   Lc    1   --   De 
     16  $t                         0x00018598   Lc    1   --   De 
     17  $d                         0x000185f4   Lc    1   --   De 
     18  $t                         0x000185fc   Lc    1   --   De 
     19  $d                         0x00018650   Lc    1   --   De 
     20  $t                         0x00018668   Lc    1   --   De 
     21  $d                         0x000186aa   Lc    1   --   De 
     22  $t                         0x000186b4   Lc    1   --   De 
     23  $d                         0x00018738   Lc    1   --   De 
     24  $t                         0x00018740   Lc    1   --   De 
     25  $d                         0x00018802   Lc    1   --   De 
     26  $t                         0x0001880c   Lc    1   --   De 
     27  $d                         0x00018944   Lc    1   --   De 
     28  $t                         0x0001895c   Lc    1   --   De 
     29  $d                         0x0001897e   Lc    1   --   De 
     30  $t                         0x00018988   Lc    1   --   De 
     31  $d                         0x000189d8   Lc    1   --   De 
     32  $t                         0x000189e0   Lc    1   --   De 
     33  $d                         0x00018a3c   Lc    1   --   De 
     34  $t                         0x00018a44   Lc    1   --   De 
     35  $d                         0x00018ad0   Lc    1   --   De 
     36  $t                         0x00018ad8   Lc    1   --   De 
     37  $d                         0x00018afa   Lc    1   --   De 
     38  $t                         0x00018b00   Lc    1   --   De 
     39  $d                         0x00018b52   Lc    1   --   De 
     40  $t                         0x00018b58   Lc    1   --   De 
     41  $d                         0x00018b64   Lc    1   --   De 
     42  $t                         0x00018b68   Lc    1   --   De 
     43  $d                         0x00018bf4   Lc    1   --   De 
     44  $t                         0x00018bfc   Lc    1   --   De 
     45  $d                         0x00019008   Lc    1   --   De 
     46  $t                         0x00019024   Lc    1   --   De 
     47  $d                         0x00019054   Lc    1   --   De 
     48  $t                         0x00019058   Lc    1   --   De 
     49  $d                         0x000191ec   Lc    1   --   De 
     50  $t                         0x00019210   Lc    1   --   De 
     51  $d                         0x00019324   Lc    1   --   De 
     52  $t                         0x0001932c   Lc    1   --   De 
     53  $d                         0x00019392   Lc    1   --   De 
     54  $t                         0x0001939c   Lc    1   --   De 
     55  $d                         0x000193fa   Lc    1   --   De 
     56  $t                         0x00019404   Lc    1   --   De 
     57  $d                         0x00019490   Lc    1   --   De 
     58  $t                         0x00019498   Lc    1   --   De 
     59  $d                         0x000195e2   Lc    1   --   De 
     60  $t                         0x000195e8   Lc    1   --   De 
     61  $d                         0x000195f2   Lc    1   --   De 
     62  $t                         0x000195f8   Lc    1   --   De 
     63  $d                         0x00019624   Lc    1   --   De 
     64  $t                         0x00019628   Lc    1   --   De 
     65  $d                         0x000196c2   Lc    1   --   De 
     66  $t                         0x000196c8   Lc    1   --   De 
     67  $d                         0x0001971a   Lc    1   --   De 
     68  $t                         0x00019720   Lc    1   --   De 
     69  $d                         0x00019744   Lc    1   --   De 
     70  $t                         0x00019748   Lc    1   --   De 
     71  $d                         0x0001979c   Lc    1   --   De 
     72  $t                         0x000197a8   Lc    1   --   De 
     73  $d                         0x000197ba   Lc    1   --   De 
     74  $t                         0x000197c0   Lc    1   --   De 
     75  $d                         0x000197e0   Lc    1   --   De 
     76  $t                         0x000197e4   Lc    1   --   De 
     77  $d                         0x000198c6   Lc    1   --   De 
     78  $t                         0x000198d0   Lc    1   --   De 
     79  $d                         0x0001990e   Lc    1   --   De 
     80  $t                         0x00019914   Lc    1   --   De 
     81  $d                         0x0001994e   Lc    1   --   De 
     82  $t                         0x00019954   Lc    1   --   De 
     83  $d                         0x00019aba   Lc    1   --   De 
     84  $t                         0x00019ad8   Lc    1   --   De 
     85  $d                         0x00019b02   Lc    1   --   De 
     86  $t                         0x00019b08   Lc    1   --   De 
     87  $d                         0x00019b70   Lc    1   --   De 
     88  $t                         0x00019b78   Lc    1   --   De 
     89  $d                         0x00019c4e   Lc    1   --   De 
     90  $t                         0x00019c54   Lc    1   --   De 
     91  $d                         0x00019fde   Lc    1   --   De 
     92  $t                         0x00019fe8   Lc    1   --   De 
     93  $d                         0x0001a054   Lc    1   --   De 
     94  $t                         0x0001a058   Lc    1   --   De 
     95  $d                         0x0001a15a   Lc    1   --   De 
     96  $t                         0x0001a178   Lc    1   --   De 
     97  $d                         0x0001a1de   Lc    1   --   De 
     98  $t                         0x0001a210   Lc    1   --   De 
     99  $d                         0x0001a2c4   Lc    1   --   De 
    100  $t                         0x0001a2cc   Lc    1   --   De 
    101  $d                         0x0001a2f8   Lc    1   --   De 
    102  $t                         0x0001a300   Lc    1   --   De 
    103  $d                         0x0001a306   Lc    1   --   De 
    104  $t                         0x0001a30c   Lc    1   --   De 
    105  $d                         0x0001a340   Lc    1   --   De 
    106  $t                         0x0001a35c   Lc    1   --   De 
    107  $d                         0x0001a77c   Lc    1   --   De 
    108  $t                         0x0001a780   Lc    1   --   De 
    109  $d                         0x0001aa90   Lc    1   --   De 
    110  $t                         0x0001aa9c   Lc    1   --   De 
    111  $d                         0x0001abea   Lc    1   --   De 
    112  $t                         0x0001abf8   Lc    1   --   De 
    113  $d                         0x0001ae58   Lc    1   --   De 
    114  $t                         0x0001ae60   Lc    1   --   De 
    115  $d                         0x0001b08a   Lc    1   --   De 
    116  $t                         0x0001b092   Lc    1   --   De 
    117  $d                         0x0001b11c   Lc    1   --   De 
    118  $t                         0x0001b124   Lc    1   --   De 
    119  $d                         0x0001b22c   Lc    1   --   De 
    120  $t                         0x0001b234   Lc    1   --   De 
    121  $d                         0x0001b540   Lc    1   --   De 
    122  $t                         0x0001b546   Lc    1   --   De 
    123  $d                         0x0001b562   Lc    1   --   De 
    124  $t                         0x0001b578   Lc    1   --   De 
    125  $d                         0x0001b582   Lc    1   --   De 
    126  $t                         0x0001b588   Lc    1   --   De 
    127  $d                         0x0001b664   Lc    1   --   De 
    128  $t                         0x0001b668   Lc    1   --   De 
    129  $d                         0x0001bbfc   Lc    1   --   De 
    130  $t                         0x0001bf60   Lc    1   --   De 
    131  $d                         0x0001bfd4   Lc    1   --   De 
    132  $t                         0x0001c018   Lc    1   --   De 
    133  $d                         0x0001c52a   Lc    1   --   De 
    134  $t                         0x0001c534   Lc    1   --   De 
    135  $d                         0x0001c5f0   Lc    1   --   De 
    136  $t                         0x0001c624   Lc    1   --   De 
    137  $d                         0x0001c720   Lc    1   --   De 
    138  $t                         0x0001c758   Lc    1   --   De 
    139  $d                         0x0001c77e   Lc    1   --   De 
    140  $t                         0x0001c788   Lc    1   --   De 
    141  $d                         0x0001c7ba   Lc    1   --   De 
    142  $t                         0x0001c7c8   Lc    1   --   De 
    143  $d                         0x0001c7e0   Lc    1   --   De 
    144  $t                         0x0001c7e8   Lc    1   --   De 
    145  $d                         0x0001c80e   Lc    1   --   De 
    146  $t                         0x0001c81e   Lc    1   --   De 
    147  $d                         0x0001c98c   Lc    1   --   De 
    148  $t                         0x0001c994   Lc    1   --   De 
    149  $d                         0x0001cb0c   Lc    1   --   De 
    150  $t                         0x0001cb10   Lc    1   --   De 
    151  $d                         0x0001cd34   Lc    1   --   De 
    152  $t                         0x0001cd38   Lc    1   --   De 
    153  $d                         0x0001cd60   Lc    1   --   De 
    154  $t                         0x0001cde8   Lc    1   --   De 
    155  $d                         0x0001ce38   Lc    1   --   De 
    156  $t                         0x0001ce3c   Lc    1   --   De 
    157  $d                         0x0001ced0   Lc    1   --   De 
    158  $t                         0x0001ced4   Lc    1   --   De 
    159  $d                         0x0001cf50   Lc    1   --   De 
    160  $t                         0x0001cf54   Lc    1   --   De 
    161  $d                         0x0001d030   Lc    1   --   De 
    162  $t                         0x0001d034   Lc    1   --   De 
    163  $d                         0x0001d0b6   Lc    1   --   De 
    164  $t                         0x0001d0ba   Lc    1   --   De 
    165  $d.realdata                0x0001d0ec   Lc    1   --   De 
    166  $d.realdata                0x10000000   Lc    2   --   De 
    167  $d.realdata                0x10060000   Lc    4   --   De 
    168  ..\src\am_resources.c      0x00000000   Lc  Abs  File  De 
    169  ../src/am_resources.c      0x00000000   Lc  Abs  File  De 
    170  .constdata                 0x0001d0ec   Lc    1  Sect  De   0x6c
    171  __tagsym$$used             0x0001d0ec   Lc    1   --   De 
    172  __tagsym$$used             0x0001d100   Lc    1   --   De 
    173  __tagsym$$used             0x0001d114   Lc    1   --   De 
    174  __tagsym$$used             0x0001d128   Lc    1   --   De 
    175  __tagsym$$used             0x0001d13c   Lc    1   --   De 
    176  RESOURCE_TABLE             0x10060000   Lc    4  Sect  De   0x4
    177  __tagsym$$used             0x10060000   Lc    4   --   De 
    178  SHARED_RW                  0x10060004   Lc    4  Sect  De   0x3c
    179  __tagsym$$used             0x10060004   Lc    4   --   De 
    180  __tagsym$$used             0x10060018   Lc    4   --   De 
    181  __tagsym$$used             0x1006002c   Lc    4   --   De 
    182  ..\src\am_time.c           0x00000000   Lc  Abs  File  De 
    183  ../src/am_time.c           0x00000000   Lc  Abs  File  De 
    184  i.SysTick_Handler          0x000184b0   Lc    1  Sect  De 
    185  .data                      0x10000000   Lc    2  Sect  De   0x4
    186  ../src/coremark.c          0x00000000   Lc  Abs  File  De 
    187  ..\src\core_list_join.c    0x00000000   Lc  Abs  File  De 
    188  ../src/core_list_join.c    0x00000000   Lc  Abs  File  De 
    189  i.calc_func                0x0001abf8   Lc    1  Sect  De 
    190  i.cmp_complex              0x0001ac8a   Lc    1  Sect  De 
    191  i.cmp_idx                  0x0001aca4   Lc    1  Sect  De 
    192  i.core_bench_list          0x0001acd0   Lc    1  Sect  De 
    193  i.core_list_init           0x0001b124   Lc    1  Sect  De 
    194  i.core_list_mergesort      0x0001b234   Lc    1  Sect  De 
    195  ..\src\core_main.c         0x00000000   Lc  Abs  File  De 
    196  ../src/core_main.c         0x00000000   Lc  Abs  File  De 
    197  i.main                     0x0001b668   Lc    1  Sect  De 
    198  .conststring               0x0001d400   Lc    1  Sect  De   0xae
    199  .data                      0x10000004   Lc    2  Sect  De   0x1e
    200  list_known_crc             0x10000004   Lc    2  Data  De   0xa
    201  matrix_known_crc           0x1000000e   Lc    2  Data  De   0xa
    202  state_known_crc            0x10000018   Lc    2  Data  De   0xa
    203  ..\src\core_matrix.c       0x00000000   Lc  Abs  File  De 
    204  ../src/core_matrix.c       0x00000000   Lc  Abs  File  De 
    205  i.core_bench_matrix        0x0001ae60   Lc    1  Sect  De 
    206  i.core_init_matrix         0x0001af70   Lc    1  Sect  De 
    207  i.matrix_sum               0x0001c018   Lc    1  Sect  De 
    208  i.matrix_test              0x0001c074   Lc    1  Sect  De 
    209  ..\src\core_portme.c       0x00000000   Lc  Abs  File  De 
    210  ../src/core_portme.c       0x00000000   Lc  Abs  File  De 
    211  i.am_sprintf               0x0001a178   Lc    1  Sect  De 
    212  i.get_time                 0x0001b578   Lc    1  Sect  De 
    213  i.portable_fini            0x0001c534   Lc    1  Sect  De 
    214  i.portable_init            0x0001c624   Lc    1  Sect  De 
    215  i.start_time               0x0001c758   Lc    1  Sect  De 
    216  i.stop_time                0x0001c788   Lc    1  Sect  De 
    217  i.time_in_secs             0x0001c7c8   Lc    1  Sect  De 
    218  .bss                       0x100002f8   Lc    3  Sect  De   0x300
    219  .constdata                 0x0001d158   Lc    1  Sect  De   0x6
    220  .data                      0x10000024   Lc    2  Sect  De   0x4
    221  .data                      0x10000028   Lc    2  Sect  De   0x4
    222  .data                      0x1000002c   Lc    2  Sect  De   0x4
    223  .data                      0x10000030   Lc    2  Sect  De   0x4
    224  .data                      0x10000034   Lc    2  Sect  De   0x4
    225  .data                      0x10000038   Lc    2  Sect  De   0x18
    226  start_time_val             0x10000040   Lc    2  Data  De   0x8
    227  stop_time_val              0x10000048   Lc    2  Data  De   0x8
    228  .data                      0x10000050   Lc    2  Sect  De   0x4
    229  ..\src\core_state.c        0x00000000   Lc  Abs  File  De 
    230  ../src/core_state.c        0x00000000   Lc  Abs  File  De 
    231  i.core_bench_state         0x0001ae82   Lc    1  Sect  De 
    232  i.core_init_state          0x0001b018   Lc    1  Sect  De 
    233  i.core_state_transition    0x0001b2da   Lc    1  Sect  De 
    234  .conststring               0x0001d4b0   Lc    1  Sect  De   0xad
    235  .data                      0x10000054   Lc    2  Sect  De   0x40
    236  intpat                     0x10000054   Lc    2  Data  De   0x10
    237  floatpat                   0x10000064   Lc    2  Data  De   0x10
    238  scipat                     0x10000074   Lc    2  Data  De   0x10
    239  errpat                     0x10000084   Lc    2  Data  De   0x10
    240  ..\src\core_util.c         0x00000000   Lc  Abs  File  De 
    241  ../src/core_util.c         0x00000000   Lc  Abs  File  De 
    242  i.check_data_types         0x0001ac86   Lc    1  Sect  De 
    243  i.crc16                    0x0001b484   Lc    1  Sect  De 
    244  i.crcu16                   0x0001b4d4   Lc    1  Sect  De 
    245  i.crcu32                   0x0001b51e   Lc    1  Sect  De 
    246  i.get_seed_32              0x0001b538   Lc    1  Sect  De 
    247  ..\..\..\..\..\..\utils\am_util_delay.c
                                    0x00000000   Lc  Abs  File  De 
    248  ../../../../../../utils/am_util_delay.c
                                    0x00000000   Lc  Abs  File  De 
    249  i.am_util_delay_ms         0x0001a210   Lc    1  Sect  De 
    250  ..\..\..\..\..\..\utils\am_util_faultisr.c
                                    0x00000000   Lc  Abs  File  De 
    251  .emb_text                  0x00018334   Lc    1  Sect  De   0x22
    252  $v0                        0x00018334   Lc    1   --   De 
    253  ../../../../../../utils/am_util_faultisr.c
                                    0x00000000   Lc  Abs  File  De 
    254  i.am_util_faultisr_collect_data
                                    0x0001a21c   Lc    1  Sect  De 
    255  ../../../../../../utils/am_util_stdio.c
                                    0x00000000   Lc  Abs  File  De 
    256  i.am_util_stdio_printf     0x0001a2cc   Lc    1  Sect  De 
    257  i.am_util_stdio_printf_init
                                    0x0001a300   Lc    1  Sect  De 
    258  i.am_util_stdio_sprintf    0x0001a30c   Lc    1  Sect  De 
    259  i.am_util_stdio_terminal_clear
                                    0x0001a320   Lc    1  Sect  De 
    260  i.am_util_stdio_vsprintf   0x0001a35c   Lc    1  Sect  De 
    261  i.ndigits_in_u64           0x0001c33e   Lc    1  Sect  De 
    262  ndigits_in_u64             0x0001c33f   Lc    1  Code  De   0xc6
    263  i.uint64_to_str            0x0001c994   Lc    1  Sect  De 
    264  uint64_to_str              0x0001c995   Lc    1  Code  De   0x126
    265  .bss                       0x100005f8   Lc    3  Sect  De   0x100
    266  g_prfbuf                   0x100005f8   Lc    3  Data  De   0x100
    267  .data                      0x10000094   Lc    2  Sect  De   0x8
    268  g_bTxtXlate                0x10000094   Lc    2  Data  De   0x1
    269  ..\..\..\..\..\..\devices\am_devices_led.c
                                    0x00000000   Lc  Abs  File  De 
    270  ../../../../../../devices/am_devices_led.c
                                    0x00000000   Lc  Abs  File  De 
    271  i.am_devices_led_array_init
                                    0x000186b4   Lc    1  Sect  De 
    272  i.am_devices_led_array_out 0x00018740   Lc    1  Sect  De 
    273  ../keil/startup_keil.s     0x00000000   Lc  Abs  File  De 
    274  STACK                      0x10000aa0   Lc    3  Sect  De   0xc00
    275  StackMem                   0x10000aa0   Lc    3  Data  De 
    276  HEAP                       0x10000aa0   Lc    3  Sect  De 
    277  HeapMem                    0x10000aa0   Lc    3  Data  De 
    278  RESET                      0x00018000   Lc    1  Sect  De   0x238
    279  $v0                        0x00018200   Lc    1   --   De 
    280  am_cryptosec_isr           0x00018231   Lc    1  Code  De 
    281  am_default_isr             0x00018231   Lc    1  Code  De   0x2
    282  .text                      0x0001838c   Lc    1  Sect  De   0x18
    283  $v0                        0x0001838c   Lc    1   --   De 
    284  ..\..\..\..\..\mcu\apollo4b\hal\am_hal_global.c
                                    0x00000000   Lc  Abs  File  De 
    285  .emb_text                  0x00018358   Lc    1  Sect  De   0x1c
    286  $v0                        0x00018358   Lc    1   --   De 
    287  ../../../../../mcu/apollo4b/hal/am_hal_global.c
                                    0x00000000   Lc  Abs  File  De 
    288  .data                      0x1000009c   Lc    2  Sect  De   0x4
    289  ..\..\..\..\..\mcu\apollo4b\hal\mcu\am_hal_fault.c
                                    0x00000000   Lc  Abs  File  De 
    290  ../../../../../mcu/apollo4b/hal/mcu/am_hal_fault.c
                                    0x00000000   Lc  Abs  File  De 
    291  i.am_hal_fault_status_get  0x00018a44   Lc    1  Sect  De 
    292  ..\..\..\..\..\mcu\apollo4b\hal\mcu\am_hal_interrupt.c
                                    0x00000000   Lc  Abs  File  De 
    293  .emb_text                  0x00018374   Lc    1  Sect  De   0x16
    294  $v0                        0x00018374   Lc    1   --   De 
    295  ../../../../../mcu/apollo4b/hal/mcu/am_hal_interrupt.c
                                    0x00000000   Lc  Abs  File  De 
    296  ..\..\..\..\..\mcu\apollo4b\hal\mcu\am_hal_sysctrl.c
                                    0x00000000   Lc  Abs  File  De 
    297  ../../../../../mcu/apollo4b/hal/mcu/am_hal_sysctrl.c
                                    0x00000000   Lc  Abs  File  De 
    298  i.am_hal_sysctrl_fpu_enable
                                    0x000195e8   Lc    1  Sect  De 
    299  i.am_hal_sysctrl_fpu_stacking_enable
                                    0x000195f8   Lc    1  Sect  De 
    300  .data                      0x100000a0   Lc    2  Sect  De   0x4
    301  ..\..\..\..\..\mcu\apollo4b\hal\mcu\am_hal_systick.c
                                    0x00000000   Lc  Abs  File  De 
    302  ../../../../../mcu/apollo4b/hal/mcu/am_hal_systick.c
                                    0x00000000   Lc  Abs  File  De 
    303  i.am_hal_systick_count     0x00019628   Lc    1  Sect  De 
    304  i.am_hal_systick_int_enable
                                    0x00019630   Lc    1  Sect  De 
    305  i.am_hal_systick_load      0x0001963e   Lc    1  Sect  De 
    306  i.am_hal_systick_start     0x0001964a   Lc    1  Sect  De 
    307  i.am_hal_systick_stop      0x00019658   Lc    1  Sect  De 
    308  ..\..\..\..\..\mcu\apollo4b\hal\mcu\am_hal_utils.c
                                    0x00000000   Lc  Abs  File  De 
    309  ../../../../../mcu/apollo4b/hal/mcu/am_hal_utils.c
                                    0x00000000   Lc  Abs  File  De 
    310  i.am_hal_delay_us          0x0001895c   Lc    1  Sect  De 
    311  i.am_hal_delay_us_status_change
                                    0x00018988   Lc    1  Sect  De 
    312  i.am_hal_delay_us_status_check
                                    0x000189e0   Lc    1  Sect  De 
    313  i.am_hal_load_ui32         0x00018b4c   Lc    1  Sect  De 
    314  ..\..\..\..\..\mcu\apollo4b\hal\am_hal_gpio.c
                                    0x00000000   Lc  Abs  File  De 
    315  ../../../../../mcu/apollo4b/hal/am_hal_gpio.c
                                    0x00000000   Lc  Abs  File  De 
    316  i.am_hal_gpio_pinconfig    0x00018a84   Lc    1  Sect  De 
    317  i.am_hal_gpio_state_write  0x00018ad8   Lc    1  Sect  De 
    318  .constdata                 0x0001d160   Lc    1  Sect  De   0x4
    319  .constdata                 0x0001d164   Lc    1  Sect  De   0x4
    320  .constdata                 0x0001d168   Lc    1  Sect  De   0x4
    321  .constdata                 0x0001d16c   Lc    1  Sect  De   0x10
    322  g_ui32DSpintbl             0x0001d16c   Lc    1  Data  De   0x10
    323  ..\..\..\..\..\mcu\apollo4b\hal\am_hal_pwrctrl.c
                                    0x00000000   Lc  Abs  File  De 
    324  ../../../../../mcu/apollo4b/hal/am_hal_pwrctrl.c
                                    0x00000000   Lc  Abs  File  De 
    325  i.VDDF_simobuck_boost      0x000184c0   Lc    1  Sect  De 
    326  VDDF_simobuck_boost        0x000184c1   Lc    1  Code  De   0xcc
    327  i.am_hal_pwrctrl_control   0x00018bfc   Lc    1  Sect  De 
    328  i.am_hal_pwrctrl_low_power_init
                                    0x00019058   Lc    1  Sect  De 
    329  i.am_hal_pwrctrl_mcu_memory_config
                                    0x00019210   Lc    1  Sect  De 
    330  i.am_hal_pwrctrl_periph_disable
                                    0x0001932c   Lc    1  Sect  De 
    331  i.am_hal_pwrctrl_periph_enable
                                    0x0001939c   Lc    1  Sect  De 
    332  i.am_hal_pwrctrl_sram_config
                                    0x00019404   Lc    1  Sect  De 
    333  i.am_hal_util_write_and_wait
                                    0x0001a058   Lc    1  Sect  De 
    334  i.buck_interval_check      0x0001aa9c   Lc    1  Sect  De 
    335  buck_interval_check        0x0001aa9d   Lc    1  Code  De   0x14e
    336  .bss                       0x100006f8   Lc    3  Sect  De   0x54
    337  .constdata                 0x0001d17c   Lc    1  Sect  De   0x22c
    338  .data                      0x100000a4   Lc    2  Sect  De   0x1c
    339  .data                      0x100000c0   Lc    2  Sect  De   0x20
    340  storeAndWFIRAM             0x100000c0   Lc    2  Data  De   0x20
    341  ..\am_bsp.c                0x00000000   Lc  Abs  File  De 
    342  ../am_bsp.c                0x00000000   Lc  Abs  File  De 
    343  i.am_bsp_low_power_init    0x00018598   Lc    1  Sect  De 
    344  i.am_bsp_uart_printf_disable
                                    0x000185b0   Lc    1  Sect  De 
    345  i.am_bsp_uart_printf_enable
                                    0x000185fc   Lc    1  Sect  De 
    346  i.am_bsp_uart_string_print 0x00018668   Lc    1  Sect  De 
    347  .constdata                 0x0001d3a8   Lc    1  Sect  De   0x2c
    348  g_sBspUartConfig           0x0001d3a8   Lc    1  Data  De   0xc
    349  .data                      0x100000e0   Lc    2  Sect  De   0x18
    350  .data                      0x100000f8   Lc    2  Sect  De   0x8
    351  g_ePrintInterface          0x100000f8   Lc    2  Data  De   0x1
    352  g_sCOMUART                 0x100000fc   Lc    2  Data  De   0x4
    353  ..\..\..\..\..\mcu\apollo4b\hal\mcu\am_hal_bootrom_helper.c
                                    0x00000000   Lc  Abs  File  De 
    354  ../../../../../mcu/apollo4b/hal/mcu/am_hal_bootrom_helper.c
                                    0x00000000   Lc  Abs  File  De 
    355  .constdata                 0x0001d3d4   Lc    1  Sect  De   0x28
    356  ..\..\..\..\..\mcu\apollo4b\hal\mcu\am_hal_cachectrl.c
                                    0x00000000   Lc  Abs  File  De 
    357  ../../../../../mcu/apollo4b/hal/mcu/am_hal_cachectrl.c
                                    0x00000000   Lc  Abs  File  De 
    358  i.am_hal_daxi_config       0x000187b8   Lc    1  Sect  De 
    359  i.am_hal_daxi_control      0x0001880c   Lc    1  Sect  De 
    360  .constdata                 0x0001d3fc   Lc    1  Sect  De   0x3
    361  .data                      0x10000100   Lc    2  Sect  De   0x6c
    362  p64BAxiMem                 0x10000100   Lc    2  Data  De   0x4
    363  ui32AxiBufPwrStatMask      0x10000104   Lc    2  Data  De   0x4
    364  ui32AxiBufPwrStatReg       0x10000108   Lc    2  Data  De   0x4
    365  gAxiMemRange               0x1000010c   Lc    2  Data  De   0x60
    366  ..\..\..\..\..\mcu\apollo4b\hal\mcu\am_hal_itm.c
                                    0x00000000   Lc  Abs  File  De 
    367  ../../../../../mcu/apollo4b/hal/mcu/am_hal_itm.c
                                    0x00000000   Lc  Abs  File  De 
    368  ..\..\..\..\..\mcu\apollo4b\hal\mcu\am_hal_mram.c
                                    0x00000000   Lc  Abs  File  De 
    369  ../../../../../mcu/apollo4b/hal/mcu/am_hal_mram.c
                                    0x00000000   Lc  Abs  File  De 
    370  i.am_hal_mram_ds_init      0x00018b58   Lc    1  Sect  De 
    371  i.am_hal_mram_info_read    0x00018b68   Lc    1  Sect  De 
    372  .data                      0x1000016c   Lc    2  Sect  De   0xbc
    373  g_program_mram_tmc_tcycrd  0x1000016c   Lc    2  Data  De   0xbc
    374  .data                      0x10000228   Lc    2  Sect  De   0xbc
    375  g_recover_broken_mram_tmc_r_timer1
                                    0x10000228   Lc    2  Data  De   0xbc
    376  .data                      0x100002e4   Lc    2  Sect  De   0x8
    377  ..\..\..\..\..\mcu\apollo4b\hal\mcu\am_hal_rtc.c
                                    0x00000000   Lc  Abs  File  De 
    378  ../../../../../mcu/apollo4b/hal/mcu/am_hal_rtc.c
                                    0x00000000   Lc  Abs  File  De 
    379  i.am_hal_rtc_osc_disable   0x000195d4   Lc    1  Sect  De 
    380  ..\..\..\..\..\mcu\apollo4b\hal\mcu\am_hal_tpiu.c
                                    0x00000000   Lc  Abs  File  De 
    381  ../../../../../mcu/apollo4b/hal/mcu/am_hal_tpiu.c
                                    0x00000000   Lc  Abs  File  De 
    382  ..\..\..\..\..\mcu\apollo4b\hal\mcu\am_hal_uart.c
                                    0x00000000   Lc  Abs  File  De 
    383  ../../../../../mcu/apollo4b/hal/mcu/am_hal_uart.c
                                    0x00000000   Lc  Abs  File  De 
    384  i.am_hal_uart_configure    0x00019954   Lc    1  Sect  De 
    385  i.am_hal_uart_deinitialize 0x00019ad8   Lc    1  Sect  De 
    386  i.am_hal_uart_initialize   0x00019b08   Lc    1  Sect  De 
    387  i.am_hal_uart_power_control
                                    0x00019b78   Lc    1  Sect  De 
    388  i.am_hal_uart_transfer     0x00019c54   Lc    1  Sect  De 
    389  i.am_hal_uart_tx_flush     0x00019fe8   Lc    1  Sect  De 
    390  i.nonblocking_read         0x0001c404   Lc    1  Sect  De 
    391  nonblocking_read           0x0001c405   Lc    1  Code  De   0x126
    392  .bss                       0x1000074c   Lc    3  Sect  De   0x2b0
    393  ..\..\..\..\..\mcu\apollo4b\hal\am_hal_dcu.c
                                    0x00000000   Lc  Abs  File  De 
    394  ../../../../../mcu/apollo4b/hal/am_hal_dcu.c
                                    0x00000000   Lc  Abs  File  De 
    395  ..\..\..\..\..\mcu\apollo4b\hal\am_hal_pin.c
                                    0x00000000   Lc  Abs  File  De 
    396  ../../../../../mcu/apollo4b/hal/am_hal_pin.c
                                    0x00000000   Lc  Abs  File  De 
    397  ..\..\..\..\..\mcu\apollo4b\hal\am_hal_timer.c
                                    0x00000000   Lc  Abs  File  De 
    398  ../../../../../mcu/apollo4b/hal/am_hal_timer.c
                                    0x00000000   Lc  Abs  File  De 
    399  i.am_hal_timer_clear       0x00019668   Lc    1  Sect  De 
    400  i.am_hal_timer_clear_stop  0x000196c8   Lc    1  Sect  De 
    401  i.am_hal_timer_default_config_set
                                    0x00019720   Lc    1  Sect  De 
    402  i.am_hal_timer_interrupt_clear
                                    0x0001973c   Lc    1  Sect  De 
    403  i.am_hal_timer_interrupt_enable
                                    0x00019748   Lc    1  Sect  De 
    404  i.am_hal_timer_interrupt_status_get
                                    0x000197a8   Lc    1  Sect  De 
    405  i.am_hal_timer_read        0x000197c0   Lc    1  Sect  De 
    406  i.am_hal_timer_reset_config
                                    0x000197e4   Lc    1  Sect  De 
    407  i.am_hal_timer_start       0x000198d0   Lc    1  Sect  De 
    408  i.am_hal_timer_stop        0x00019914   Lc    1  Sect  De 
    409  i.internal_timer_config    0x0001b588   Lc    1  Sect  De 
    410  i.timer_config_b1          0x0001c7e8   Lc    1  Sect  De 
    411  .bss                       0x100009fc   Lc    3  Sect  De   0x40
    412  TimerFlags                 0x100009fc   Lc    3  Data  De   0x40
    413  ..\am_bsp_pins.c           0x00000000   Lc  Abs  File  De 
    414  ../am_bsp_pins.c           0x00000000   Lc  Abs  File  De 
    415  .data                      0x100002ec   Lc    2  Sect  De   0x4
    416  .data                      0x100002f0   Lc    2  Sect  De   0x4
    417  ..\..\..\..\..\mcu\apollo4b\hal\mcu\am_hal_mspi.c
                                    0x00000000   Lc  Abs  File  De 
    418  ../../../../../mcu/apollo4b/hal/mcu/am_hal_mspi.c
                                    0x00000000   Lc  Abs  File  De 
    419  .data                      0x100002f4   Lc    2  Sect  De   0x4
    420  ..\..\..\..\..\mcu\apollo4b\hal\am_hal_queue.c
                                    0x00000000   Lc  Abs  File  De 
    421  ../../../../../mcu/apollo4b/hal/am_hal_queue.c
                                    0x00000000   Lc  Abs  File  De 
    422  i.am_hal_queue_item_add    0x00019498   Lc    1  Sect  De 
    423  i.am_hal_queue_item_get    0x0001953c   Lc    1  Sect  De 
    424  ..\..\..\..\..\mcu\apollo4b\hal\mcu\am_hal_cmdq.c
                                    0x00000000   Lc  Abs  File  De 
    425  ../../../../../mcu/apollo4b/hal/mcu/am_hal_cmdq.c
                                    0x00000000   Lc  Abs  File  De 
    426  dc.s                       0x00000000   Lc  Abs  File  De 
    427  ../clib/longlong.s         0x00000000   Lc  Abs  File  De 
    428  ../clib/longlong.s         0x00000000   Lc  Abs  File  De 
    429  ../clib/memcpset.s         0x00000000   Lc  Abs  File  De 
    430  .text                      0x000183a4   Lc    1  Sect  De   0x44
    431  ../clib/heapaux.c          0x00000000   Lc  Abs  File  De 
    432  .text                      0x000183e8   Lc    1  Sect  De 
    433  ../clib/angel/startup.s    0x00000000   Lc  Abs  File  De 
    434  !!!main                    0x00018238   Lc    1  Sect  De   0x8
    435  ../clib/angel/handlers.s   0x00000000   Lc  Abs  File  De 
    436  !!handler_copy             0x000182d0   Lc    1  Sect  De   0x1a
    437  ../fplib/d2f.s             0x00000000   Lc  Abs  File  De 
    438  x$fpl$d2f                  0x0001cabc   Lc    1  Sect  De   0x62
    439  $v0                        0x0001cabc   Lc    1   --   De 
    440  ../fplib/ddiv.s            0x00000000   Lc  Abs  File  De 
    441  x$fpl$ddiv                 0x0001cb38   Lc    1  Sect  De   0x2b0
    442  $v0                        0x0001cb38   Lc    1   --   De 
    443  ddiv_entry                 0x0001cb3f   Lc    1  Code  De 
    444  ../fplib/dfixu.s           0x00000000   Lc  Abs  File  De 
    445  x$fpl$dfixu                0x0001cde8   Lc    1  Sect  De   0x5a
    446  $v0                        0x0001cde8   Lc    1   --   De 
    447  ../fplib/dflt.s            0x00000000   Lc  Abs  File  De 
    448  x$fpl$dfltu                0x0001ce42   Lc    1  Sect  De   0x26
    449  $v0                        0x0001ce42   Lc    1   --   De 
    450  ../fplib/dleqf.s           0x00000000   Lc  Abs  File  De 
    451  x$fpl$dleqf                0x0001ce68   Lc    1  Sect  De   0x78
    452  $v0                        0x0001ce68   Lc    1   --   De 
    453  ../fplib/drleqf.s          0x00000000   Lc  Abs  File  De 
    454  x$fpl$drleqf               0x0001cf88   Lc    1  Sect  De   0x6c
    455  $v0                        0x0001cf88   Lc    1   --   De 
    456  ../fplib/f2d.s             0x00000000   Lc  Abs  File  De 
    457  x$fpl$f2d                  0x0001cff4   Lc    1  Sect  De   0x56
    458  $v0                        0x0001cff4   Lc    1   --   De 
    459  ../clib/angel/kernel.s     0x00000000   Lc  Abs  File  De 
    460  .ARM.Collect$$rtentry$$00000000
                                    0x00018314   Lc    1  Sect  De 
    461  ../clib/memcpset.s         0x00000000   Lc  Abs  File  De 
    462  .text                      0x000183ee   Lc    1  Sect  De   0x4e
    463  ../fplib/dcmpi.s           0x00000000   Lc  Abs  File  De 
    464  x$fpl$dcmpinf              0x0001cb1e   Lc    1  Sect  De   0x18
    465  $v0                        0x0001cb1e   Lc    1   --   De 
    466  ../fplib/dnaninf.s         0x00000000   Lc  Abs  File  De 
    467  x$fpl$dnaninf              0x0001cee0   Lc    1  Sect  De   0x9c
    468  $v0                        0x0001cee0   Lc    1   --   De 
    469  ../fplib/dretinf.s         0x00000000   Lc  Abs  File  De 
    470  x$fpl$dretinf              0x0001cf7c   Lc    1  Sect  De   0xc
    471  $v0                        0x0001cf7c   Lc    1   --   De 
    472  ../fplib/fnaninf.s         0x00000000   Lc  Abs  File  De 
    473  x$fpl$fnaninf              0x0001d04a   Lc    1  Sect  De   0x8c
    474  $v0                        0x0001d04a   Lc    1   --   De 
    475  ../fplib/fretinf.s         0x00000000   Lc  Abs  File  De 
    476  x$fpl$fretinf              0x0001d0e0   Lc    1  Sect  De   0xa
    477  $v0                        0x0001d0e0   Lc    1   --   De 
    478  ../fplib/usenofp.s         0x00000000   Lc  Abs  File  De 
    479  x$fpl$usenofp              0x0001d0ea   Lc    1  Sect  De 
    480  ../clib/angel/kernel.s     0x00000000   Lc  Abs  File  De 
    481  .ARM.Collect$$rtentry$$00000002
                                    0x00018314   Lc    1  Sect  De 
    482  .ARM.Collect$$rtentry$$00000009
                                    0x0001831a   Lc    1  Sect  De 
    483  .ARM.Collect$$rtentry$$0000000A
                                    0x0001831a   Lc    1  Sect  De   0x4
    484  .ARM.Collect$$rtentry$$0000000C
                                    0x0001831e   Lc    1  Sect  De 
    485  .ARM.Collect$$rtentry$$0000000D
                                    0x0001831e   Lc    1  Sect  De   0x8
    486  ../clib/angel/kernel.s     0x00000000   Lc  Abs  File  De 
    487  .ARM.Collect$$rtentry$$00000004
                                    0x00018314   Lc    1  Sect  De   0x6
    488  ../clib/angel/sys.s        0x00000000   Lc  Abs  File  De 
    489  .text                      0x0001843c   Lc    1  Sect  De   0x4a
    490  ../clib/stdlib.c           0x00000000   Lc  Abs  File  De 
    491  .text                      0x00018486   Lc    1  Sect  De 
    492  ../clib/angel/boardlib.s   0x00000000   Lc  Abs  File  De 
    493  ../clib/angel/boardlib.s   0x00000000   Lc  Abs  File  De 
    494  ../clib/angel/boardlib.s   0x00000000   Lc  Abs  File  De 
    495  ../clib/libinit.s          0x00000000   Lc  Abs  File  De 
    496  .ARM.Collect$$libinit$$00000000
                                    0x00018308   Lc    1  Sect  De   0x2
    497  ../clib/angel/sys.s        0x00000000   Lc  Abs  File  De 
    498  .text                      0x00018498   Lc    1  Sect  De   0x8
    499  .bss                       0x10000a3c   Lc    3  Sect  De   0x60
    500  ../clib/angel/kernel.s     0x00000000   Lc  Abs  File  De 
    501  .ARM.Collect$$rtexit$$00000000
                                    0x00018326   Lc    1  Sect  De   0x2
    502  ../clib/libinit.s          0x00000000   Lc  Abs  File  De 
    503  .ARM.Collect$$libinit$$00000001
                                    0x0001830a   Lc    1  Sect  De   0x4
    504  .ARM.Collect$$libinit$$00000004
                                    0x0001830e   Lc    1  Sect  De 
    505  .ARM.Collect$$libinit$$0000000A
                                    0x0001830e   Lc    1  Sect  De 
    506  .ARM.Collect$$libinit$$0000000C
                                    0x0001830e   Lc    1  Sect  De 
    507  .ARM.Collect$$libinit$$0000000E
                                    0x0001830e   Lc    1  Sect  De 
    508  .ARM.Collect$$libinit$$00000011
                                    0x0001830e   Lc    1  Sect  De 
    509  .ARM.Collect$$libinit$$00000013
                                    0x0001830e   Lc    1  Sect  De 
    510  .ARM.Collect$$libinit$$00000015
                                    0x0001830e   Lc    1  Sect  De 
    511  .ARM.Collect$$libinit$$00000017
                                    0x0001830e   Lc    1  Sect  De 
    512  .ARM.Collect$$libinit$$00000019
                                    0x0001830e   Lc    1  Sect  De 
    513  .ARM.Collect$$libinit$$0000001B
                                    0x0001830e   Lc    1  Sect  De 
    514  .ARM.Collect$$libinit$$0000001D
                                    0x0001830e   Lc    1  Sect  De 
    515  .ARM.Collect$$libinit$$0000001F
                                    0x0001830e   Lc    1  Sect  De 
    516  .ARM.Collect$$libinit$$00000021
                                    0x0001830e   Lc    1  Sect  De 
    517  .ARM.Collect$$libinit$$00000023
                                    0x0001830e   Lc    1  Sect  De 
    518  .ARM.Collect$$libinit$$00000025
                                    0x0001830e   Lc    1  Sect  De 
    519  .ARM.Collect$$libinit$$0000002C
                                    0x0001830e   Lc    1  Sect  De 
    520  .ARM.Collect$$libinit$$0000002E
                                    0x0001830e   Lc    1  Sect  De 
    521  .ARM.Collect$$libinit$$00000030
                                    0x0001830e   Lc    1  Sect  De 
    522  .ARM.Collect$$libinit$$00000032
                                    0x0001830e   Lc    1  Sect  De 
    523  .ARM.Collect$$libinit$$00000033
                                    0x0001830e   Lc    1  Sect  De   0x2
    524  ../clib/angel/kernel.s     0x00000000   Lc  Abs  File  De 
    525  .ARM.Collect$$rtexit$$00000002
                                    0x00018328   Lc    1  Sect  De 
    526  .ARM.Collect$$rtexit$$00000003
                                    0x00018328   Lc    1  Sect  De   0x4
    527  .ARM.Collect$$rtexit$$00000004
                                    0x0001832c   Lc    1  Sect  De   0x6
    528  ../clib/armsys.c           0x00000000   Lc  Abs  File  De 
    529  ../clib/armsys.c           0x00000000   Lc  Abs  File  De 
    530  ../fplib/fpinit.s          0x00000000   Lc  Abs  File  De 
    531  x$fpl$fpinit               0x0001d0d6   Lc    1  Sect  De   0xa
    532  $v0                        0x0001d0d6   Lc    1   --   De 
    533  ../clib/angel/sysapp.c     0x00000000   Lc  Abs  File  De 
    534  .text                      0x000184a0   Lc    1  Sect  De 
    535  ../clib/angel/boardlib.s   0x00000000   Lc  Abs  File  De 
    536  ../clib/armsys.c           0x00000000   Lc  Abs  File  De 
    537  ../clib/armsys.c           0x00000000   Lc  Abs  File  De 
    538  ../clib/libinit.s          0x00000000   Lc  Abs  File  De 
    539  .ARM.Collect$$libshutdown$$00000000
                                    0x00018310   Lc    1  Sect  De   0x2
    540  ../clib/angel/sysapp.c     0x00000000   Lc  Abs  File  De 
    541  ../clib/angel/sys.s        0x00000000   Lc  Abs  File  De 
    542  .text                      0x000184ac   Lc    1  Sect  De   0x2
    543  ../clib/angel/sys.s        0x00000000   Lc  Abs  File  De 
    544  .text                      0x000184ae   Lc    1  Sect  De 
    545  ../clib/heapalloc.c        0x00000000   Lc  Abs  File  De 
    546  ../clib/signal.c           0x00000000   Lc  Abs  File  De 
    547  ../clib/signal.c           0x00000000   Lc  Abs  File  De 
    548  ../clib/libinit.s          0x00000000   Lc  Abs  File  De 
    549  .ARM.Collect$$libshutdown$$00000002
                                    0x00018312   Lc    1  Sect  De 
    550  .ARM.Collect$$libshutdown$$00000004
                                    0x00018312   Lc    1  Sect  De 
    551  .ARM.Collect$$libshutdown$$00000007
                                    0x00018312   Lc    1  Sect  De 
    552  .ARM.Collect$$libshutdown$$0000000A
                                    0x00018312   Lc    1  Sect  De 
    553  .ARM.Collect$$libshutdown$$0000000C
                                    0x00018312   Lc    1  Sect  De 
    554  .ARM.Collect$$libshutdown$$0000000F
                                    0x00018312   Lc    1  Sect  De 
    555  .ARM.Collect$$libshutdown$$00000010
                                    0x00018312   Lc    1  Sect  De   0x2
    556  ../clib/angel/rt.s         0x00000000   Lc  Abs  File  De 
    557  ../clib/signal.c           0x00000000   Lc  Abs  File  De 
    558  ../clib/signal.c           0x00000000   Lc  Abs  File  De 
    559  ../clib/signal.c           0x00000000   Lc  Abs  File  De 
    560  ../clib/signal.c           0x00000000   Lc  Abs  File  De 
    561  ../clib/angel/sysapp.c     0x00000000   Lc  Abs  File  De 
    562  ../clib/signal.s           0x00000000   Lc  Abs  File  De 
    563  ../clib/signal.c           0x00000000   Lc  Abs  File  De 
    564  ../clib/signal.c           0x00000000   Lc  Abs  File  De 
    565  ../clib/signal.c           0x00000000   Lc  Abs  File  De 
    566  ../clib/signal.c           0x00000000   Lc  Abs  File  De 
    567  ../clib/signal.c           0x00000000   Lc  Abs  File  De 
    568  ../clib/signal.c           0x00000000   Lc  Abs  File  De 
    569  ../clib/signal.c           0x00000000   Lc  Abs  File  De 
    570  ../clib/signal.c           0x00000000   Lc  Abs  File  De 
    571  ../clib/angel/dczerorl2.s  0x00000000   Lc  Abs  File  De 
    572  !!dczerorl2                0x00018274   Lc    1  Sect  De   0x5a
    573  ../clib/angel/scatter.s    0x00000000   Lc  Abs  File  De 
    574  !!!scatter                 0x00018240   Lc    1  Sect  De   0x34
    575  ../clib/angel/handlers.s   0x00000000   Lc  Abs  File  De 
    576  !!handler_zi               0x000182ec   Lc    1  Sect  De   0x1c
    577  BuildAttributes$$THM_ISAv4$E$P$D$K$B$S$7EM$VFPi3$EXTD16$VFPS$VFMA$PE$A:L22UL41UL21$X:L11$S22US41US21$IEEE1$IW$USESV6$~STKCKD$USESV7$~SHL$OTIME$ROPI$EBA8$UX$STANDARDLIB$REQ8$PRES8$EABIv2
                                    0x00000000   Gb  Abs   --   Hi 
    578  __ARM_use_no_argv          0x00000000   Gb  Abs   --   Hi 
    579  __Vectors                  0x00018000   Gb    1  Data  Hi 
    580  __Patchable                0x00018190   Gb    1  Data  Hi 
    581  Reset_Handler              0x00018201   Wk    1  Code  Hi   0x1c
    582  NMI_Handler                0x0001821f   Wk    1  Code  Hi   0x2
    583  MemManage_Handler          0x00018221   Wk    1  Code  Hi   0x2
    584  BusFault_Handler           0x00018223   Wk    1  Code  Hi   0x2
    585  UsageFault_Handler         0x00018225   Wk    1  Code  Hi   0x2
    586  SecureFault_Handler        0x00018227   Wk    1  Code  Hi   0x2
    587  SVC_Handler                0x00018229   Wk    1  Code  Hi   0x2
    588  DebugMon_Handler           0x0001822b   Wk    1  Code  Hi   0x2
    589  PendSV_Handler             0x0001822d   Wk    1  Code  Hi   0x2
    590  am_adc_isr                 0x00018231   Wk    1  Code  Hi 
    591  am_audadc0_isr             0x00018231   Wk    1  Code  Hi 
    592  am_brownout_isr            0x00018231   Wk    1  Code  Hi 
    593  am_cachecpu_isr            0x00018231   Wk    1  Code  Hi 
    594  am_clkgen_isr              0x00018231   Wk    1  Code  Hi 
    595  am_ctimer_isr              0x00018231   Wk    1  Code  Hi 
    596  am_disp_isr                0x00018231   Wk    1  Code  Hi 
    597  am_dsi_isr                 0x00018231   Wk    1  Code  Hi 
    598  am_dspi2s0_isr             0x00018231   Wk    1  Code  Hi 
    599  am_dspi2s1_isr             0x00018231   Wk    1  Code  Hi 
    600  am_dspi2s2_isr             0x00018231   Wk    1  Code  Hi 
    601  am_dspi2s3_isr             0x00018231   Wk    1  Code  Hi 
    602  am_gpio0_001f_isr          0x00018231   Wk    1  Code  Hi 
    603  am_gpio0_203f_isr          0x00018231   Wk    1  Code  Hi 
    604  am_gpio0_405f_isr          0x00018231   Wk    1  Code  Hi 
    605  am_gpio0_607f_isr          0x00018231   Wk    1  Code  Hi 
    606  am_gpio1_001f_isr          0x00018231   Wk    1  Code  Hi 
    607  am_gpio1_203f_isr          0x00018231   Wk    1  Code  Hi 
    608  am_gpio1_405f_isr          0x00018231   Wk    1  Code  Hi 
    609  am_gpio1_607f_isr          0x00018231   Wk    1  Code  Hi 
    610  am_gpu_isr                 0x00018231   Wk    1  Code  Hi 
    611  am_iomaster0_isr           0x00018231   Wk    1  Code  Hi 
    612  am_iomaster1_isr           0x00018231   Wk    1  Code  Hi 
    613  am_iomaster2_isr           0x00018231   Wk    1  Code  Hi 
    614  am_iomaster3_isr           0x00018231   Wk    1  Code  Hi 
    615  am_iomaster4_isr           0x00018231   Wk    1  Code  Hi 
    616  am_iomaster5_isr           0x00018231   Wk    1  Code  Hi 
    617  am_iomaster6_isr           0x00018231   Wk    1  Code  Hi 
    618  am_iomaster7_isr           0x00018231   Wk    1  Code  Hi 
    619  am_ioslave_acc_isr         0x00018231   Wk    1  Code  Hi 
    620  am_ioslave_ios_isr         0x00018231   Wk    1  Code  Hi 
    621  am_mspi0_isr               0x00018231   Wk    1  Code  Hi 
    622  am_mspi1_isr               0x00018231   Wk    1  Code  Hi 
    623  am_mspi2_isr               0x00018231   Wk    1  Code  Hi 
    624  am_pdm0_isr                0x00018231   Wk    1  Code  Hi 
    625  am_pdm1_isr                0x00018231   Wk    1  Code  Hi 
    626  am_pdm2_isr                0x00018231   Wk    1  Code  Hi 
    627  am_pdm3_isr                0x00018231   Wk    1  Code  Hi 
    628  am_rtc_isr                 0x00018231   Wk    1  Code  Hi 
    629  am_sdio_isr                0x00018231   Wk    1  Code  Hi 
    630  am_stimer_cmpr0_isr        0x00018231   Wk    1  Code  Hi 
    631  am_stimer_cmpr1_isr        0x00018231   Wk    1  Code  Hi 
    632  am_stimer_cmpr2_isr        0x00018231   Wk    1  Code  Hi 
    633  am_stimer_cmpr3_isr        0x00018231   Wk    1  Code  Hi 
    634  am_stimer_cmpr4_isr        0x00018231   Wk    1  Code  Hi 
    635  am_stimer_cmpr5_isr        0x00018231   Wk    1  Code  Hi 
    636  am_stimer_cmpr6_isr        0x00018231   Wk    1  Code  Hi 
    637  am_stimer_cmpr7_isr        0x00018231   Wk    1  Code  Hi 
    638  am_stimerof_isr            0x00018231   Wk    1  Code  Hi 
    639  am_timer00_isr             0x00018231   Wk    1  Code  Hi 
    640  am_timer01_isr             0x00018231   Wk    1  Code  Hi 
    641  am_timer02_isr             0x00018231   Wk    1  Code  Hi 
    642  am_timer03_isr             0x00018231   Wk    1  Code  Hi 
    643  am_timer04_isr             0x00018231   Wk    1  Code  Hi 
    644  am_timer05_isr             0x00018231   Wk    1  Code  Hi 
    645  am_timer06_isr             0x00018231   Wk    1  Code  Hi 
    646  am_timer07_isr             0x00018231   Wk    1  Code  Hi 
    647  am_timer08_isr             0x00018231   Wk    1  Code  Hi 
    648  am_timer09_isr             0x00018231   Wk    1  Code  Hi 
    649  am_timer10_isr             0x00018231   Wk    1  Code  Hi 
    650  am_timer11_isr             0x00018231   Wk    1  Code  Hi 
    651  am_timer12_isr             0x00018231   Wk    1  Code  Hi 
    652  am_timer13_isr             0x00018231   Wk    1  Code  Hi 
    653  am_timer14_isr             0x00018231   Wk    1  Code  Hi 
    654  am_timer15_isr             0x00018231   Wk    1  Code  Hi 
    655  am_uart1_isr               0x00018231   Wk    1  Code  Hi 
    656  am_uart2_isr               0x00018231   Wk    1  Code  Hi 
    657  am_uart3_isr               0x00018231   Wk    1  Code  Hi 
    658  am_uart_isr                0x00018231   Wk    1  Code  Hi 
    659  am_usb_isr                 0x00018231   Wk    1  Code  Hi 
    660  am_vcomp_isr               0x00018231   Wk    1  Code  Hi 
    661  am_watchdog_isr            0x00018231   Wk    1  Code  Hi 
    662  __main                     0x00018239   Gb    1  Code  Hi   0x8
    663  __scatterload              0x00018241   Gb    1  Code  Hi 
    664  __scatterload_rt2          0x00018241   Gb    1  Code  Hi   0x2c
    665  __scatterload_rt2_thumb_only
                                    0x00018241   Gb    1  Code  Hi 
    666  __scatterload_null         0x0001824f   Gb    1  Code  Hi 
    667  __decompress               0x00018275   Gb    1  Code  Hi   0x5a
    668  __decompress1              0x00018275   Gb    1  Code  Hi 
    669  __scatterload_copy         0x000182d1   Gb    1  Code  Hi   0x1a
    670  __scatterload_zeroinit     0x000182ed   Gb    1  Code  Hi   0x1c
    671  __rt_lib_init              0x00018309   Gb    1  Code  De 
    672  __rt_lib_init_fp_1         0x0001830b   Gb    1  Code  Hi 
    673  __rt_lib_init_alloca_1     0x0001830f   Gb    1  Code  Hi 
    674  __rt_lib_init_argv_1       0x0001830f   Gb    1  Code  Hi 
    675  __rt_lib_init_atexit_1     0x0001830f   Gb    1  Code  Hi 
    676  __rt_lib_init_clock_1      0x0001830f   Gb    1  Code  Hi 
    677  __rt_lib_init_cpp_1        0x0001830f   Gb    1  Code  Hi 
    678  __rt_lib_init_exceptions_1 0x0001830f   Gb    1  Code  Hi 
    679  __rt_lib_init_fp_trap_1    0x0001830f   Gb    1  Code  Hi 
    680  __rt_lib_init_getenv_1     0x0001830f   Gb    1  Code  Hi 
    681  __rt_lib_init_heap_1       0x0001830f   Gb    1  Code  Hi 
    682  __rt_lib_init_lc_collate_1 0x0001830f   Gb    1  Code  Hi 
    683  __rt_lib_init_lc_ctype_1   0x0001830f   Gb    1  Code  Hi 
    684  __rt_lib_init_lc_monetary_1
                                    0x0001830f   Gb    1  Code  Hi 
    685  __rt_lib_init_lc_numeric_1 0x0001830f   Gb    1  Code  Hi 
    686  __rt_lib_init_lc_time_1    0x0001830f   Gb    1  Code  Hi 
    687  __rt_lib_init_preinit_1    0x0001830f   Gb    1  Code  Hi 
    688  __rt_lib_init_rand_1       0x0001830f   Gb    1  Code  Hi 
    689  __rt_lib_init_return       0x0001830f   Gb    1  Code  Hi 
    690  __rt_lib_init_signal_1     0x0001830f   Gb    1  Code  Hi 
    691  __rt_lib_init_stdio_1      0x0001830f   Gb    1  Code  Hi 
    692  __rt_lib_init_user_alloc_1 0x0001830f   Gb    1  Code  Hi 
    693  __rt_lib_shutdown          0x00018311   Gb    1  Code  De 
    694  __rt_lib_shutdown_cpp_1    0x00018313   Gb    1  Code  Hi 
    695  __rt_lib_shutdown_fp_trap_1
                                    0x00018313   Gb    1  Code  Hi 
    696  __rt_lib_shutdown_heap_1   0x00018313   Gb    1  Code  Hi 
    697  __rt_lib_shutdown_return   0x00018313   Gb    1  Code  Hi 
    698  __rt_lib_shutdown_signal_1 0x00018313   Gb    1  Code  Hi 
    699  __rt_lib_shutdown_stdio_1  0x00018313   Gb    1  Code  Hi 
    700  __rt_lib_shutdown_user_alloc_1
                                    0x00018313   Gb    1  Code  Hi 
    701  __rt_entry                 0x00018315   Gb    1  Code  Hi 
    702  __rt_entry_presh_1         0x00018315   Gb    1  Code  Hi 
    703  __rt_entry_sh              0x00018315   Gb    1  Code  Hi 
    704  __rt_entry_li              0x0001831b   Gb    1  Code  Hi 
    705  __rt_entry_postsh_1        0x0001831b   Gb    1  Code  Hi 
    706  __rt_entry_main            0x0001831f   Gb    1  Code  Hi 
    707  __rt_entry_postli_1        0x0001831f   Gb    1  Code  Hi 
    708  __rt_exit                  0x00018327   Gb    1  Code  De 
    709  __rt_exit_ls               0x00018329   Gb    1  Code  Hi 
    710  __rt_exit_prels_1          0x00018329   Gb    1  Code  Hi 
    711  __rt_exit_exit             0x0001832d   Gb    1  Code  Hi 
    712  HardFault_Handler          0x00018335   Gb    1  Code  Hi   0x1a
    713  getStackedReg              0x0001834f   Gb    1  Code  Hi   0x8
    714  am_hal_triple_read         0x00018359   Gb    1  Code  Hi   0x1c
    715  am_hal_interrupt_master_enable
                                    0x00018375   Gb    1  Code  Hi   0x8
    716  am_hal_interrupt_master_disable
                                    0x0001837d   Gb    1  Code  Hi   0x8
    717  am_hal_interrupt_master_set
                                    0x00018385   Gb    1  Code  Hi   0x6
    718  __user_initial_stackheap   0x0001838d   Gb    1  Code  Hi   0xa
    719  __aeabi_memclr             0x000183a5   Gb    1  Code  Hi 
    720  __rt_memclr                0x000183a5   Gb    1  Code  De   0x44
    721  _memset                    0x000183a9   Gb    1  Code  De 
    722  __use_two_region_memory    0x000183e9   Gb    1  Code  Hi   0x2
    723  __rt_heap_escrow$2region   0x000183eb   Gb    1  Code  De   0x2
    724  __rt_heap_expand$2region   0x000183ed   Gb    1  Code  De   0x2
    725  __aeabi_memclr4            0x000183ef   Gb    1  Code  De 
    726  __aeabi_memclr8            0x000183ef   Gb    1  Code  De 
    727  __rt_memclr_w              0x000183ef   Gb    1  Code  De   0x4e
    728  _memset_w                  0x000183f3   Gb    1  Code  De 
    729  __user_setup_stackheap     0x0001843d   Gb    1  Code  De   0x4a
    730  exit                       0x00018487   Gb    1  Code  De   0x12
    731  __user_libspace            0x00018499   Wk    1  Code  De   0x8
    732  __user_perproc_libspace    0x00018499   Wk    1  Code  De 
    733  __user_perthread_libspace  0x00018499   Wk    1  Code  De 
    734  _sys_exit                  0x000184a1   Gb    1  Code  De   0x8
    735  __I$use$semihosting        0x000184ad   Gb    1  Code  Hi 
    736  __use_no_semihosting_swi   0x000184ad   Gb    1  Code  Hi   0x2
    737  __semihosting_library_function
                                    0x000184af   Gb    1  Code  Hi 
    738  SysTick_Handler            0x000184b1   Gb    1  Code  Hi   0xa
    739  am_bsp_low_power_init      0x00018599   Gb    1  Code  Hi   0x16
    740  am_bsp_uart_printf_disable 0x000185b1   Gb    1  Code  Hi   0x44
    741  am_bsp_uart_printf_enable  0x000185fd   Gb    1  Code  Hi   0x54
    742  am_bsp_uart_string_print   0x00018669   Gb    1  Code  Hi   0x42
    743  am_devices_led_array_init  0x000186b5   Gb    1  Code  Hi   0x84
    744  am_devices_led_array_out   0x00018741   Gb    1  Code  Hi   0x78
    745  am_hal_daxi_config         0x000187b9   Gb    1  Code  Hi   0x4a
    746  am_hal_daxi_control        0x0001880d   Gb    1  Code  Hi   0x138
    747  am_hal_delay_us            0x0001895d   Gb    1  Code  Hi   0x22
    748  am_hal_delay_us_status_change
                                    0x00018989   Gb    1  Code  Hi   0x50
    749  am_hal_delay_us_status_check
                                    0x000189e1   Gb    1  Code  Hi   0x5c
    750  am_hal_fault_status_get    0x00018a45   Gb    1  Code  Hi   0x3e
    751  am_hal_gpio_pinconfig      0x00018a85   Gb    1  Code  Hi   0x4c
    752  am_hal_gpio_state_write    0x00018ad9   Gb    1  Code  Hi   0x72
    753  am_hal_load_ui32           0x00018b4d   Gb    1  Code  Hi   0x6
    754  am_hal_mram_ds_init        0x00018b59   Gb    1  Code  Hi   0xc
    755  am_hal_mram_info_read      0x00018b69   Gb    1  Code  Hi   0x8c
    756  am_hal_pwrctrl_control     0x00018bfd   Gb    1  Code  Hi   0x458
    757  am_hal_pwrctrl_low_power_init
                                    0x00019059   Gb    1  Code  Hi   0x194
    758  am_hal_pwrctrl_mcu_memory_config
                                    0x00019211   Gb    1  Code  Hi   0x114
    759  am_hal_pwrctrl_periph_disable
                                    0x0001932d   Gb    1  Code  Hi   0x66
    760  am_hal_pwrctrl_periph_enable
                                    0x0001939d   Gb    1  Code  Hi   0x5e
    761  am_hal_pwrctrl_sram_config 0x00019405   Gb    1  Code  Hi   0x8c
    762  am_hal_queue_item_add      0x00019499   Gb    1  Code  Hi   0xa4
    763  am_hal_queue_item_get      0x0001953d   Gb    1  Code  Hi   0x98
    764  am_hal_rtc_osc_disable     0x000195d5   Gb    1  Code  Hi   0xe
    765  am_hal_sysctrl_fpu_enable  0x000195e9   Gb    1  Code  Hi   0xa
    766  am_hal_sysctrl_fpu_stacking_enable
                                    0x000195f9   Gb    1  Code  Hi   0x2c
    767  am_hal_systick_count       0x00019629   Gb    1  Code  Hi   0x8
    768  am_hal_systick_int_enable  0x00019631   Gb    1  Code  Hi   0xe
    769  am_hal_systick_load        0x0001963f   Gb    1  Code  Hi   0xc
    770  am_hal_systick_start       0x0001964b   Gb    1  Code  Hi   0xe
    771  am_hal_systick_stop        0x00019659   Gb    1  Code  Hi   0xe
    772  am_hal_timer_clear         0x00019669   Gb    1  Code  Hi   0x5a
    773  am_hal_timer_clear_stop    0x000196c9   Gb    1  Code  Hi   0x52
    774  am_hal_timer_default_config_set
                                    0x00019721   Gb    1  Code  Hi   0x1c
    775  am_hal_timer_interrupt_clear
                                    0x0001973d   Gb    1  Code  Hi   0x8
    776  am_hal_timer_interrupt_enable
                                    0x00019749   Gb    1  Code  Hi   0x54
    777  am_hal_timer_interrupt_status_get
                                    0x000197a9   Gb    1  Code  Hi   0x12
    778  am_hal_timer_read          0x000197c1   Gb    1  Code  Hi   0x20
    779  am_hal_timer_reset_config  0x000197e5   Gb    1  Code  Hi   0xe2
    780  am_hal_timer_start         0x000198d1   Gb    1  Code  Hi   0x3e
    781  am_hal_timer_stop          0x00019915   Gb    1  Code  Hi   0x3a
    782  am_hal_uart_configure      0x00019955   Gb    1  Code  Hi   0x166
    783  am_hal_uart_deinitialize   0x00019ad9   Gb    1  Code  Hi   0x2a
    784  am_hal_uart_initialize     0x00019b09   Gb    1  Code  Hi   0x68
    785  am_hal_uart_power_control  0x00019b79   Gb    1  Code  Hi   0xd6
    786  am_hal_uart_transfer       0x00019c55   Gb    1  Code  Hi   0x38a
    787  am_hal_uart_tx_flush       0x00019fe9   Gb    1  Code  Hi   0x6c
    788  am_hal_util_write_and_wait 0x0001a059   Gb    1  Code  Hi   0x102
    789  am_sprintf                 0x0001a179   Gb    1  Code  Hi   0x66
    790  am_util_delay_ms           0x0001a211   Gb    1  Code  Hi   0xa
    791  am_util_faultisr_collect_data
                                    0x0001a21d   Gb    1  Code  Hi   0xa8
    792  am_util_stdio_printf       0x0001a2cd   Gb    1  Code  Hi   0x2c
    793  am_util_stdio_printf_init  0x0001a301   Gb    1  Code  Hi   0x6
    794  am_util_stdio_sprintf      0x0001a30d   Gb    1  Code  Hi   0x12
    795  am_util_stdio_terminal_clear
                                    0x0001a321   Gb    1  Code  Hi   0x20
    796  am_util_stdio_vsprintf     0x0001a35d   Gb    1  Code  Hi   0x734
    797  calc_func                  0x0001abf9   Gb    1  Code  Hi   0x8e
    798  check_data_types           0x0001ac87   Gb    1  Code  Hi   0x4
    799  cmp_complex                0x0001ac8b   Gb    1  Code  Hi   0x1a
    800  cmp_idx                    0x0001aca5   Gb    1  Code  Hi   0x2a
    801  core_bench_list            0x0001acd1   Gb    1  Code  Hi   0x188
    802  core_bench_matrix          0x0001ae61   Gb    1  Code  Hi   0x22
    803  core_bench_state           0x0001ae83   Gb    1  Code  Hi   0xec
    804  core_init_matrix           0x0001af71   Gb    1  Code  Hi   0xa6
    805  core_init_state            0x0001b019   Gb    1  Code  Hi   0x104
    806  core_list_init             0x0001b125   Gb    1  Code  Hi   0x108
    807  core_list_mergesort        0x0001b235   Gb    1  Code  Hi   0xa6
    808  core_state_transition      0x0001b2db   Gb    1  Code  Hi   0x1a8
    809  crc16                      0x0001b485   Gb    1  Code  Hi   0x4e
    810  crcu16                     0x0001b4d5   Gb    1  Code  Hi   0x4a
    811  crcu32                     0x0001b51f   Gb    1  Code  Hi   0x18
    812  get_seed_32                0x0001b539   Gb    1  Code  Hi   0x2a
    813  get_time                   0x0001b579   Gb    1  Code  Hi   0xa
    814  internal_timer_config      0x0001b589   Gb    1  Code  Hi   0xdc
    815  main                       0x0001b669   Gb    1  Code  Hi   0x96c
    816  matrix_sum                 0x0001c019   Gb    1  Code  Hi   0x5c
    817  matrix_test                0x0001c075   Gb    1  Code  Hi   0x2ca
    818  portable_fini              0x0001c535   Gb    1  Code  Hi   0xbc
    819  portable_init              0x0001c625   Gb    1  Code  Hi   0xfc
    820  start_time                 0x0001c759   Gb    1  Code  Hi   0x26
    821  stop_time                  0x0001c789   Gb    1  Code  Hi   0x32
    822  time_in_secs               0x0001c7c9   Gb    1  Code  Hi   0x18
    823  timer_config_b1            0x0001c7e9   Gb    1  Code  Hi   0x1a4
    824  __aeabi_d2f                0x0001cabd   Gb    1  Code  Hi 
    825  _d2f                       0x0001cabd   Gb    1  Code  De   0x62
    826  __fpl_dcmp_Inf             0x0001cb1f   Gb    1  Code  De   0x18
    827  __aeabi_ddiv               0x0001cb39   Gb    1  Code  Hi 
    828  _ddiv                      0x0001cb39   Gb    1  Code  De   0x228
    829  __aeabi_d2uiz              0x0001cde9   Gb    1  Code  Hi 
    830  _dfixu                     0x0001cde9   Gb    1  Code  De   0x5a
    831  __aeabi_ui2d               0x0001ce43   Gb    1  Code  Hi 
    832  _dfltu                     0x0001ce43   Gb    1  Code  De   0x26
    833  __aeabi_cdcmple            0x0001ce69   Gb    1  Code  Hi 
    834  _dcmple                    0x0001ce69   Gb    1  Code  De   0x78
    835  __fpl_dcmple_InfNaN        0x0001cecb   Gb    1  Code  Pr 
    836  __fpl_dnaninf              0x0001cee1   Gb    1  Code  De   0x9c
    837  __fpl_dretinf              0x0001cf7d   Gb    1  Code  De   0xc
    838  __aeabi_cdrcmple           0x0001cf89   Gb    1  Code  Hi 
    839  _drcmple                   0x0001cf89   Gb    1  Code  De   0x6c
    840  __aeabi_f2d                0x0001cff5   Gb    1  Code  Hi 
    841  _f2d                       0x0001cff5   Gb    1  Code  De   0x56
    842  __fpl_fnaninf              0x0001d04b   Gb    1  Code  De   0x8c
    843  _fp_init                   0x0001d0d7   Gb    1  Code  De   0xa
    844  __fplib_config_fpu_vfp     0x0001d0df   Gb    1  Code  De 
    845  __fplib_config_pureend_doubles
                                    0x0001d0df   Gb    1  Code  De 
    846  __fpl_fretinf              0x0001d0e1   Gb    1  Code  De   0xa
    847  __I$use$fp                 0x0001d0ea   Gb    1   --   De 
    848  ui32MCUAllowed             0x0001d0ec   Gb    1  Data  Hi   0x14
    849  ui32DSP0Allowed            0x0001d100   Gb    1  Data  Hi   0x14
    850  ui32DSP1Allowed            0x0001d114   Gb    1  Data  Hi   0x14
    851  ui32SharedAccess           0x0001d128   Gb    1  Data  Hi   0x14
    852  sGlobalAccess              0x0001d13c   Gb    1  Data  Hi   0x1c
    853  am_hal_gpio_pincfg_output  0x0001d160   Gb    1  Data  Hi   0x4
    854  am_hal_gpio_pincfg_tristate
                                    0x0001d164   Gb    1  Data  Hi   0x4
    855  am_hal_gpio_pincfg_disabled
                                    0x0001d168   Gb    1  Data  Hi   0x4
    856  g_DefaultSRAMCfg           0x0001d17c   Gb    1  Data  Hi   0x4
    857  g_DefaultMcuMemCfg         0x0001d180   Gb    1  Data  Hi   0x6
    858  am_hal_pwrctrl_peripheral_control
                                    0x0001d188   Gb    1  Data  Hi   0x220
    859  g_am_hal_bootrom_helper    0x0001d3d4   Gb    1  Data  Hi   0x28
    860  am_hal_daxi_defaults       0x0001d3fc   Gb    1  Data  Hi   0x3
    861  Region$$Table$$Base        0x0001d560   Gb    1   --   Hi 
    862  Region$$Table$$Limit       0x0001d590   Gb    1   --   Hi 
    863  g_ui32SysTickWrappedTime   0x10000000   Gb    2  Data  Hi   0x4
    864  seed1_volatile             0x10000024   Gb    2  Data  Hi   0x4
    865  seed2_volatile             0x10000028   Gb    2  Data  Hi   0x4
    866  seed3_volatile             0x1000002c   Gb    2  Data  Hi   0x4
    867  seed4_volatile             0x10000030   Gb    2  Data  Hi   0x4
    868  seed5_volatile             0x10000034   Gb    2  Data  Hi   0x4
    869  am_bufcnt                  0x10000038   Gb    2  Data  Hi   0x4
    870  am_pcBuf                   0x1000003c   Gb    2  Data  Hi   0x4
    871  default_num_contexts       0x10000050   Gb    2  Data  Hi   0x4
    872  g_pfnCharPrint             0x10000098   Gb    2  Data  Hi   0x4
    873  g_ui32HALflags             0x1000009c   Gb    2  Data  Hi   0x4
    874  g_ui32BusWriteFlush        0x100000a0   Gb    2  Data  Hi   0x4
    875  g_eCurrPwrMode             0x100000a4   Gb    2  Data  Hi   0x1
    876  g_bVDDCbuckboosted         0x100000a5   Gb    2  Data  Hi   0x1
    877  g_ui32TrimVer              0x100000a8   Gb    2  Data  Hi   0x4
    878  g_ui32origSimobuckVDDFtrim 0x100000ac   Gb    2  Data  Hi   0x4
    879  g_ui32origSimobuckVDDCtrim 0x100000b0   Gb    2  Data  Hi   0x4
    880  g_ui32origMEMLDOActiveTrim 0x100000b4   Gb    2  Data  Hi   0x4
    881  g_ui32origSimobuckVDDStrim 0x100000b8   Gb    2  Data  Hi   0x4
    882  storeAndWFIfuncRAM         0x100000bc   Gb    2  Data  Hi   0x4
    883  am_bsp_psLEDs              0x100000e0   Gb    2  Data  Hi   0x18
    884  program_mram_tmc_tcycrd    0x100002e4   Gb    2  Data  Hi   0x4
    885  recover_broken_mram_tmc_r_timer1
                                    0x100002e8   Gb    2  Data  Hi   0x4
    886  g_AM_BSP_GPIO_COM_UART_TX  0x100002ec   Gb    2  Data  Hi   0x4
    887  g_AM_BSP_GPIO_COM_UART_RX  0x100002f0   Gb    2  Data  Hi   0x4
    888  gMspiXipState              0x100002f4   Gb    2  Data  Hi   0x4
    889  am_prtbuf                  0x100002f8   Gb    3  Data  Hi   0x300
    890  g_trim_reg_origvals        0x100006f8   Gb    3  Data  Hi   0x54
    891  g_am_hal_uart_states       0x1000074c   Gb    3  Data  Hi   0x2b0
    892  __libspace_start           0x10000a3c   Gb    3  Data  De   0x60
    893  __temporary_stack_top$libspace
                                    0x10000a9c   Gb    3  Data  De 
    894  psGlobalAccessPtr          0x10060000   Gb    4  Data  Hi   0x4
    895  ui32MCUClaimed             0x10060004   Gb    4  Data  Hi   0x14
    896  ui32DSP0Claimed            0x10060018   Gb    4  Data  Hi   0x14
    897  ui32DSP1Claimed            0x1006002c   Gb    4  Data  Hi   0x14


** Section #13 '.strtab' (SHT_STRTAB)
    Size   : 13768 bytes

            #  Offset String
        ====================================

            1      1: $d
            2      4: $t
            3      7: $d.realdata
            4     19: ..\src\am_resources.c
            5     41: ../src/am_resources.c
            6     63: .constdata
            7     74: __tagsym$$used
            8     89: RESOURCE_TABLE
            9    104: SHARED_RW
           10    114: ..\src\am_time.c
           11    131: ../src/am_time.c
           12    148: i.SysTick_Handler
           13    166: .data
           14    172: ../src/coremark.c
           15    190: ..\src\core_list_join.c
           16    214: ../src/core_list_join.c
           17    238: i.calc_func
           18    250: i.cmp_complex
           19    264: i.cmp_idx
           20    274: i.core_bench_list
           21    292: i.core_list_init
           22    309: i.core_list_mergesort
           23    331: ..\src\core_main.c
           24    350: ../src/core_main.c
           25    369: i.main
           26    376: .conststring
           27    389: list_known_crc
           28    404: matrix_known_crc
           29    421: state_known_crc
           30    437: ..\src\core_matrix.c
           31    458: ../src/core_matrix.c
           32    479: i.core_bench_matrix
           33    499: i.core_init_matrix
           34    518: i.matrix_sum
           35    531: i.matrix_test
           36    545: ..\src\core_portme.c
           37    566: ../src/core_portme.c
           38    587: i.am_sprintf
           39    600: i.get_time
           40    611: i.portable_fini
           41    627: i.portable_init
           42    643: i.start_time
           43    656: i.stop_time
           44    668: i.time_in_secs
           45    683: .bss
           46    688: start_time_val
           47    703: stop_time_val
           48    717: ..\src\core_state.c
           49    737: ../src/core_state.c
           50    757: i.core_bench_state
           51    776: i.core_init_state
           52    794: i.core_state_transition
           53    818: intpat
           54    825: floatpat
           55    834: scipat
           56    841: errpat
           57    848: ..\src\core_util.c
           58    867: ../src/core_util.c
           59    886: i.check_data_types
           60    905: i.crc16
           61    913: i.crcu16
           62    922: i.crcu32
           63    931: i.get_seed_32
           64    945: ..\..\..\..\..\..\utils\am_util_delay.c
           65    985: ../../../../../../utils/am_util_delay.c
           66   1025: i.am_util_delay_ms
           67   1044: ..\..\..\..\..\..\utils\am_util_faultisr.c
           68   1087: .emb_text
           69   1097: $v0
           70   1101: ../../../../../../utils/am_util_faultisr.c
           71   1144: i.am_util_faultisr_collect_data
           72   1176: ../../../../../../utils/am_util_stdio.c
           73   1216: i.am_util_stdio_printf
           74   1239: i.am_util_stdio_printf_init
           75   1267: i.am_util_stdio_sprintf
           76   1291: i.am_util_stdio_terminal_clear
           77   1322: i.am_util_stdio_vsprintf
           78   1347: i.ndigits_in_u64
           79   1364: ndigits_in_u64
           80   1379: i.uint64_to_str
           81   1395: uint64_to_str
           82   1409: g_prfbuf
           83   1418: g_bTxtXlate
           84   1430: ..\..\..\..\..\..\devices\am_devices_led.c
           85   1473: ../../../../../../devices/am_devices_led.c
           86   1516: i.am_devices_led_array_init
           87   1544: i.am_devices_led_array_out
           88   1571: ../keil/startup_keil.s
           89   1594: STACK
           90   1600: StackMem
           91   1609: HEAP
           92   1614: HeapMem
           93   1622: RESET
           94   1628: am_cryptosec_isr
           95   1645: am_default_isr
           96   1660: .text
           97   1666: ..\..\..\..\..\mcu\apollo4b\hal\am_hal_global.c
           98   1714: ../../../../../mcu/apollo4b/hal/am_hal_global.c
           99   1762: ..\..\..\..\..\mcu\apollo4b\hal\mcu\am_hal_fault.c
          100   1813: ../../../../../mcu/apollo4b/hal/mcu/am_hal_fault.c
          101   1864: i.am_hal_fault_status_get
          102   1890: ..\..\..\..\..\mcu\apollo4b\hal\mcu\am_hal_interrupt.c
          103   1945: ../../../../../mcu/apollo4b/hal/mcu/am_hal_interrupt.c
          104   2000: ..\..\..\..\..\mcu\apollo4b\hal\mcu\am_hal_sysctrl.c
          105   2053: ../../../../../mcu/apollo4b/hal/mcu/am_hal_sysctrl.c
          106   2106: i.am_hal_sysctrl_fpu_enable
          107   2134: i.am_hal_sysctrl_fpu_stacking_enable
          108   2171: ..\..\..\..\..\mcu\apollo4b\hal\mcu\am_hal_systick.c
          109   2224: ../../../../../mcu/apollo4b/hal/mcu/am_hal_systick.c
          110   2277: i.am_hal_systick_count
          111   2300: i.am_hal_systick_int_enable
          112   2328: i.am_hal_systick_load
          113   2350: i.am_hal_systick_start
          114   2373: i.am_hal_systick_stop
          115   2395: ..\..\..\..\..\mcu\apollo4b\hal\mcu\am_hal_utils.c
          116   2446: ../../../../../mcu/apollo4b/hal/mcu/am_hal_utils.c
          117   2497: i.am_hal_delay_us
          118   2515: i.am_hal_delay_us_status_change
          119   2547: i.am_hal_delay_us_status_check
          120   2578: i.am_hal_load_ui32
          121   2597: ..\..\..\..\..\mcu\apollo4b\hal\am_hal_gpio.c
          122   2643: ../../../../../mcu/apollo4b/hal/am_hal_gpio.c
          123   2689: i.am_hal_gpio_pinconfig
          124   2713: i.am_hal_gpio_state_write
          125   2739: g_ui32DSpintbl
          126   2754: ..\..\..\..\..\mcu\apollo4b\hal\am_hal_pwrctrl.c
          127   2803: ../../../../../mcu/apollo4b/hal/am_hal_pwrctrl.c
          128   2852: i.VDDF_simobuck_boost
          129   2874: VDDF_simobuck_boost
          130   2894: i.am_hal_pwrctrl_control
          131   2919: i.am_hal_pwrctrl_low_power_init
          132   2951: i.am_hal_pwrctrl_mcu_memory_config
          133   2986: i.am_hal_pwrctrl_periph_disable
          134   3018: i.am_hal_pwrctrl_periph_enable
          135   3049: i.am_hal_pwrctrl_sram_config
          136   3078: i.am_hal_util_write_and_wait
          137   3107: i.buck_interval_check
          138   3129: buck_interval_check
          139   3149: storeAndWFIRAM
          140   3164: ..\am_bsp.c
          141   3176: ../am_bsp.c
          142   3188: i.am_bsp_low_power_init
          143   3212: i.am_bsp_uart_printf_disable
          144   3241: i.am_bsp_uart_printf_enable
          145   3269: i.am_bsp_uart_string_print
          146   3296: g_sBspUartConfig
          147   3313: g_ePrintInterface
          148   3331: g_sCOMUART
          149   3342: ..\..\..\..\..\mcu\apollo4b\hal\mcu\am_hal_bootrom_helper.c
          150   3402: ../../../../../mcu/apollo4b/hal/mcu/am_hal_bootrom_helper.c
          151   3462: ..\..\..\..\..\mcu\apollo4b\hal\mcu\am_hal_cachectrl.c
          152   3517: ../../../../../mcu/apollo4b/hal/mcu/am_hal_cachectrl.c
          153   3572: i.am_hal_daxi_config
          154   3593: i.am_hal_daxi_control
          155   3615: p64BAxiMem
          156   3626: ui32AxiBufPwrStatMask
          157   3648: ui32AxiBufPwrStatReg
          158   3669: gAxiMemRange
          159   3682: ..\..\..\..\..\mcu\apollo4b\hal\mcu\am_hal_itm.c
          160   3731: ../../../../../mcu/apollo4b/hal/mcu/am_hal_itm.c
          161   3780: ..\..\..\..\..\mcu\apollo4b\hal\mcu\am_hal_mram.c
          162   3830: ../../../../../mcu/apollo4b/hal/mcu/am_hal_mram.c
          163   3880: i.am_hal_mram_ds_init
          164   3902: i.am_hal_mram_info_read
          165   3926: g_program_mram_tmc_tcycrd
          166   3952: g_recover_broken_mram_tmc_r_timer1
          167   3987: ..\..\..\..\..\mcu\apollo4b\hal\mcu\am_hal_rtc.c
          168   4036: ../../../../../mcu/apollo4b/hal/mcu/am_hal_rtc.c
          169   4085: i.am_hal_rtc_osc_disable
          170   4110: ..\..\..\..\..\mcu\apollo4b\hal\mcu\am_hal_tpiu.c
          171   4160: ../../../../../mcu/apollo4b/hal/mcu/am_hal_tpiu.c
          172   4210: ..\..\..\..\..\mcu\apollo4b\hal\mcu\am_hal_uart.c
          173   4260: ../../../../../mcu/apollo4b/hal/mcu/am_hal_uart.c
          174   4310: i.am_hal_uart_configure
          175   4334: i.am_hal_uart_deinitialize
          176   4361: i.am_hal_uart_initialize
          177   4386: i.am_hal_uart_power_control
          178   4414: i.am_hal_uart_transfer
          179   4437: i.am_hal_uart_tx_flush
          180   4460: i.nonblocking_read
          181   4479: nonblocking_read
          182   4496: ..\..\..\..\..\mcu\apollo4b\hal\am_hal_dcu.c
          183   4541: ../../../../../mcu/apollo4b/hal/am_hal_dcu.c
          184   4586: ..\..\..\..\..\mcu\apollo4b\hal\am_hal_pin.c
          185   4631: ../../../../../mcu/apollo4b/hal/am_hal_pin.c
          186   4676: ..\..\..\..\..\mcu\apollo4b\hal\am_hal_timer.c
          187   4723: ../../../../../mcu/apollo4b/hal/am_hal_timer.c
          188   4770: i.am_hal_timer_clear
          189   4791: i.am_hal_timer_clear_stop
          190   4817: i.am_hal_timer_default_config_set
          191   4851: i.am_hal_timer_interrupt_clear
          192   4882: i.am_hal_timer_interrupt_enable
          193   4914: i.am_hal_timer_interrupt_status_get
          194   4950: i.am_hal_timer_read
          195   4970: i.am_hal_timer_reset_config
          196   4998: i.am_hal_timer_start
          197   5019: i.am_hal_timer_stop
          198   5039: i.internal_timer_config
          199   5063: i.timer_config_b1
          200   5081: TimerFlags
          201   5092: ..\am_bsp_pins.c
          202   5109: ../am_bsp_pins.c
          203   5126: ..\..\..\..\..\mcu\apollo4b\hal\mcu\am_hal_mspi.c
          204   5176: ../../../../../mcu/apollo4b/hal/mcu/am_hal_mspi.c
          205   5226: ..\..\..\..\..\mcu\apollo4b\hal\am_hal_queue.c
          206   5273: ../../../../../mcu/apollo4b/hal/am_hal_queue.c
          207   5320: i.am_hal_queue_item_add
          208   5344: i.am_hal_queue_item_get
          209   5368: ..\..\..\..\..\mcu\apollo4b\hal\mcu\am_hal_cmdq.c
          210   5418: ../../../../../mcu/apollo4b/hal/mcu/am_hal_cmdq.c
          211   5468: dc.s
          212   5473: ../clib/longlong.s
          213   5492: ../clib/memcpset.s
          214   5511: ../clib/heapaux.c
          215   5529: ../clib/angel/startup.s
          216   5553: !!!main
          217   5561: ../clib/angel/handlers.s
          218   5586: !!handler_copy
          219   5601: ../fplib/d2f.s
          220   5616: x$fpl$d2f
          221   5626: ../fplib/ddiv.s
          222   5642: x$fpl$ddiv
          223   5653: ddiv_entry
          224   5664: ../fplib/dfixu.s
          225   5681: x$fpl$dfixu
          226   5693: ../fplib/dflt.s
          227   5709: x$fpl$dfltu
          228   5721: ../fplib/dleqf.s
          229   5738: x$fpl$dleqf
          230   5750: ../fplib/drleqf.s
          231   5768: x$fpl$drleqf
          232   5781: ../fplib/f2d.s
          233   5796: x$fpl$f2d
          234   5806: ../clib/angel/kernel.s
          235   5829: .ARM.Collect$$rtentry$$00000000
          236   5861: ../fplib/dcmpi.s
          237   5878: x$fpl$dcmpinf
          238   5892: ../fplib/dnaninf.s
          239   5911: x$fpl$dnaninf
          240   5925: ../fplib/dretinf.s
          241   5944: x$fpl$dretinf
          242   5958: ../fplib/fnaninf.s
          243   5977: x$fpl$fnaninf
          244   5991: ../fplib/fretinf.s
          245   6010: x$fpl$fretinf
          246   6024: ../fplib/usenofp.s
          247   6043: x$fpl$usenofp
          248   6057: .ARM.Collect$$rtentry$$00000002
          249   6089: .ARM.Collect$$rtentry$$00000009
          250   6121: .ARM.Collect$$rtentry$$0000000A
          251   6153: .ARM.Collect$$rtentry$$0000000C
          252   6185: .ARM.Collect$$rtentry$$0000000D
          253   6217: .ARM.Collect$$rtentry$$00000004
          254   6249: ../clib/angel/sys.s
          255   6269: ../clib/stdlib.c
          256   6286: ../clib/angel/boardlib.s
          257   6311: ../clib/libinit.s
          258   6329: .ARM.Collect$$libinit$$00000000
          259   6361: .ARM.Collect$$rtexit$$00000000
          260   6392: .ARM.Collect$$libinit$$00000001
          261   6424: .ARM.Collect$$libinit$$00000004
          262   6456: .ARM.Collect$$libinit$$0000000A
          263   6488: .ARM.Collect$$libinit$$0000000C
          264   6520: .ARM.Collect$$libinit$$0000000E
          265   6552: .ARM.Collect$$libinit$$00000011
          266   6584: .ARM.Collect$$libinit$$00000013
          267   6616: .ARM.Collect$$libinit$$00000015
          268   6648: .ARM.Collect$$libinit$$00000017
          269   6680: .ARM.Collect$$libinit$$00000019
          270   6712: .ARM.Collect$$libinit$$0000001B
          271   6744: .ARM.Collect$$libinit$$0000001D
          272   6776: .ARM.Collect$$libinit$$0000001F
          273   6808: .ARM.Collect$$libinit$$00000021
          274   6840: .ARM.Collect$$libinit$$00000023
          275   6872: .ARM.Collect$$libinit$$00000025
          276   6904: .ARM.Collect$$libinit$$0000002C
          277   6936: .ARM.Collect$$libinit$$0000002E
          278   6968: .ARM.Collect$$libinit$$00000030
          279   7000: .ARM.Collect$$libinit$$00000032
          280   7032: .ARM.Collect$$libinit$$00000033
          281   7064: .ARM.Collect$$rtexit$$00000002
          282   7095: .ARM.Collect$$rtexit$$00000003
          283   7126: .ARM.Collect$$rtexit$$00000004
          284   7157: ../clib/armsys.c
          285   7174: ../fplib/fpinit.s
          286   7192: x$fpl$fpinit
          287   7205: ../clib/angel/sysapp.c
          288   7228: .ARM.Collect$$libshutdown$$00000000
          289   7264: ../clib/heapalloc.c
          290   7284: ../clib/signal.c
          291   7301: .ARM.Collect$$libshutdown$$00000002
          292   7337: .ARM.Collect$$libshutdown$$00000004
          293   7373: .ARM.Collect$$libshutdown$$00000007
          294   7409: .ARM.Collect$$libshutdown$$0000000A
          295   7445: .ARM.Collect$$libshutdown$$0000000C
          296   7481: .ARM.Collect$$libshutdown$$0000000F
          297   7517: .ARM.Collect$$libshutdown$$00000010
          298   7553: ../clib/angel/rt.s
          299   7572: ../clib/signal.s
          300   7589: ../clib/angel/dczerorl2.s
          301   7615: !!dczerorl2
          302   7627: ../clib/angel/scatter.s
          303   7651: !!!scatter
          304   7662: !!handler_zi
          305   7675: BuildAttributes$$THM_ISAv4$E$P$D$K$B$S$7EM$VFPi3$EXTD16$VFPS$VFMA$PE$A:L22UL41UL21$X:L11$S22US41US21$IEEE1$IW$USESV6$~STKCKD$USESV7$~SHL$OTIME$ROPI$EBA8$UX$STANDARDLIB$REQ8$PRES8$EABIv2
          306   7861: __ARM_use_no_argv
          307   7879: __Vectors
          308   7889: __Patchable
          309   7901: Reset_Handler
          310   7915: NMI_Handler
          311   7927: MemManage_Handler
          312   7945: BusFault_Handler
          313   7962: UsageFault_Handler
          314   7981: SecureFault_Handler
          315   8001: SVC_Handler
          316   8013: DebugMon_Handler
          317   8030: PendSV_Handler
          318   8045: am_adc_isr
          319   8056: am_audadc0_isr
          320   8071: am_brownout_isr
          321   8087: am_cachecpu_isr
          322   8103: am_clkgen_isr
          323   8117: am_ctimer_isr
          324   8131: am_disp_isr
          325   8143: am_dsi_isr
          326   8154: am_dspi2s0_isr
          327   8169: am_dspi2s1_isr
          328   8184: am_dspi2s2_isr
          329   8199: am_dspi2s3_isr
          330   8214: am_gpio0_001f_isr
          331   8232: am_gpio0_203f_isr
          332   8250: am_gpio0_405f_isr
          333   8268: am_gpio0_607f_isr
          334   8286: am_gpio1_001f_isr
          335   8304: am_gpio1_203f_isr
          336   8322: am_gpio1_405f_isr
          337   8340: am_gpio1_607f_isr
          338   8358: am_gpu_isr
          339   8369: am_iomaster0_isr
          340   8386: am_iomaster1_isr
          341   8403: am_iomaster2_isr
          342   8420: am_iomaster3_isr
          343   8437: am_iomaster4_isr
          344   8454: am_iomaster5_isr
          345   8471: am_iomaster6_isr
          346   8488: am_iomaster7_isr
          347   8505: am_ioslave_acc_isr
          348   8524: am_ioslave_ios_isr
          349   8543: am_mspi0_isr
          350   8556: am_mspi1_isr
          351   8569: am_mspi2_isr
          352   8582: am_pdm0_isr
          353   8594: am_pdm1_isr
          354   8606: am_pdm2_isr
          355   8618: am_pdm3_isr
          356   8630: am_rtc_isr
          357   8641: am_sdio_isr
          358   8653: am_stimer_cmpr0_isr
          359   8673: am_stimer_cmpr1_isr
          360   8693: am_stimer_cmpr2_isr
          361   8713: am_stimer_cmpr3_isr
          362   8733: am_stimer_cmpr4_isr
          363   8753: am_stimer_cmpr5_isr
          364   8773: am_stimer_cmpr6_isr
          365   8793: am_stimer_cmpr7_isr
          366   8813: am_stimerof_isr
          367   8829: am_timer00_isr
          368   8844: am_timer01_isr
          369   8859: am_timer02_isr
          370   8874: am_timer03_isr
          371   8889: am_timer04_isr
          372   8904: am_timer05_isr
          373   8919: am_timer06_isr
          374   8934: am_timer07_isr
          375   8949: am_timer08_isr
          376   8964: am_timer09_isr
          377   8979: am_timer10_isr
          378   8994: am_timer11_isr
          379   9009: am_timer12_isr
          380   9024: am_timer13_isr
          381   9039: am_timer14_isr
          382   9054: am_timer15_isr
          383   9069: am_uart1_isr
          384   9082: am_uart2_isr
          385   9095: am_uart3_isr
          386   9108: am_uart_isr
          387   9120: am_usb_isr
          388   9131: am_vcomp_isr
          389   9144: am_watchdog_isr
          390   9160: __main
          391   9167: __scatterload
          392   9181: __scatterload_rt2
          393   9199: __scatterload_rt2_thumb_only
          394   9228: __scatterload_null
          395   9247: __decompress
          396   9260: __decompress1
          397   9274: __scatterload_copy
          398   9293: __scatterload_zeroinit
          399   9316: __rt_lib_init
          400   9330: __rt_lib_init_fp_1
          401   9349: __rt_lib_init_alloca_1
          402   9372: __rt_lib_init_argv_1
          403   9393: __rt_lib_init_atexit_1
          404   9416: __rt_lib_init_clock_1
          405   9438: __rt_lib_init_cpp_1
          406   9458: __rt_lib_init_exceptions_1
          407   9485: __rt_lib_init_fp_trap_1
          408   9509: __rt_lib_init_getenv_1
          409   9532: __rt_lib_init_heap_1
          410   9553: __rt_lib_init_lc_collate_1
          411   9580: __rt_lib_init_lc_ctype_1
          412   9605: __rt_lib_init_lc_monetary_1
          413   9633: __rt_lib_init_lc_numeric_1
          414   9660: __rt_lib_init_lc_time_1
          415   9684: __rt_lib_init_preinit_1
          416   9708: __rt_lib_init_rand_1
          417   9729: __rt_lib_init_return
          418   9750: __rt_lib_init_signal_1
          419   9773: __rt_lib_init_stdio_1
          420   9795: __rt_lib_init_user_alloc_1
          421   9822: __rt_lib_shutdown
          422   9840: __rt_lib_shutdown_cpp_1
          423   9864: __rt_lib_shutdown_fp_trap_1
          424   9892: __rt_lib_shutdown_heap_1
          425   9917: __rt_lib_shutdown_return
          426   9942: __rt_lib_shutdown_signal_1
          427   9969: __rt_lib_shutdown_stdio_1
          428   9995: __rt_lib_shutdown_user_alloc_1
          429  10026: __rt_entry
          430  10037: __rt_entry_presh_1
          431  10056: __rt_entry_sh
          432  10070: __rt_entry_li
          433  10084: __rt_entry_postsh_1
          434  10104: __rt_entry_main
          435  10120: __rt_entry_postli_1
          436  10140: __rt_exit
          437  10150: __rt_exit_ls
          438  10163: __rt_exit_prels_1
          439  10181: __rt_exit_exit
          440  10196: HardFault_Handler
          441  10214: getStackedReg
          442  10228: am_hal_triple_read
          443  10247: am_hal_interrupt_master_enable
          444  10278: am_hal_interrupt_master_disable
          445  10310: am_hal_interrupt_master_set
          446  10338: __user_initial_stackheap
          447  10363: __aeabi_memclr
          448  10378: __rt_memclr
          449  10390: _memset
          450  10398: __use_two_region_memory
          451  10422: __rt_heap_escrow$2region
          452  10447: __rt_heap_expand$2region
          453  10472: __aeabi_memclr4
          454  10488: __aeabi_memclr8
          455  10504: __rt_memclr_w
          456  10518: _memset_w
          457  10528: __user_setup_stackheap
          458  10551: exit
          459  10556: __user_libspace
          460  10572: __user_perproc_libspace
          461  10596: __user_perthread_libspace
          462  10622: _sys_exit
          463  10632: __I$use$semihosting
          464  10652: __use_no_semihosting_swi
          465  10677: __semihosting_library_function
          466  10708: SysTick_Handler
          467  10724: am_bsp_low_power_init
          468  10746: am_bsp_uart_printf_disable
          469  10773: am_bsp_uart_printf_enable
          470  10799: am_bsp_uart_string_print
          471  10824: am_devices_led_array_init
          472  10850: am_devices_led_array_out
          473  10875: am_hal_daxi_config
          474  10894: am_hal_daxi_control
          475  10914: am_hal_delay_us
          476  10930: am_hal_delay_us_status_change
          477  10960: am_hal_delay_us_status_check
          478  10989: am_hal_fault_status_get
          479  11013: am_hal_gpio_pinconfig
          480  11035: am_hal_gpio_state_write
          481  11059: am_hal_load_ui32
          482  11076: am_hal_mram_ds_init
          483  11096: am_hal_mram_info_read
          484  11118: am_hal_pwrctrl_control
          485  11141: am_hal_pwrctrl_low_power_init
          486  11171: am_hal_pwrctrl_mcu_memory_config
          487  11204: am_hal_pwrctrl_periph_disable
          488  11234: am_hal_pwrctrl_periph_enable
          489  11263: am_hal_pwrctrl_sram_config
          490  11290: am_hal_queue_item_add
          491  11312: am_hal_queue_item_get
          492  11334: am_hal_rtc_osc_disable
          493  11357: am_hal_sysctrl_fpu_enable
          494  11383: am_hal_sysctrl_fpu_stacking_enable
          495  11418: am_hal_systick_count
          496  11439: am_hal_systick_int_enable
          497  11465: am_hal_systick_load
          498  11485: am_hal_systick_start
          499  11506: am_hal_systick_stop
          500  11526: am_hal_timer_clear
          501  11545: am_hal_timer_clear_stop
          502  11569: am_hal_timer_default_config_set
          503  11601: am_hal_timer_interrupt_clear
          504  11630: am_hal_timer_interrupt_enable
          505  11660: am_hal_timer_interrupt_status_get
          506  11694: am_hal_timer_read
          507  11712: am_hal_timer_reset_config
          508  11738: am_hal_timer_start
          509  11757: am_hal_timer_stop
          510  11775: am_hal_uart_configure
          511  11797: am_hal_uart_deinitialize
          512  11822: am_hal_uart_initialize
          513  11845: am_hal_uart_power_control
          514  11871: am_hal_uart_transfer
          515  11892: am_hal_uart_tx_flush
          516  11913: am_hal_util_write_and_wait
          517  11940: am_sprintf
          518  11951: am_util_delay_ms
          519  11968: am_util_faultisr_collect_data
          520  11998: am_util_stdio_printf
          521  12019: am_util_stdio_printf_init
          522  12045: am_util_stdio_sprintf
          523  12067: am_util_stdio_terminal_clear
          524  12096: am_util_stdio_vsprintf
          525  12119: calc_func
          526  12129: check_data_types
          527  12146: cmp_complex
          528  12158: cmp_idx
          529  12166: core_bench_list
          530  12182: core_bench_matrix
          531  12200: core_bench_state
          532  12217: core_init_matrix
          533  12234: core_init_state
          534  12250: core_list_init
          535  12265: core_list_mergesort
          536  12285: core_state_transition
          537  12307: crc16
          538  12313: crcu16
          539  12320: crcu32
          540  12327: get_seed_32
          541  12339: get_time
          542  12348: internal_timer_config
          543  12370: main
          544  12375: matrix_sum
          545  12386: matrix_test
          546  12398: portable_fini
          547  12412: portable_init
          548  12426: start_time
          549  12437: stop_time
          550  12447: time_in_secs
          551  12460: timer_config_b1
          552  12476: __aeabi_d2f
          553  12488: _d2f
          554  12493: __fpl_dcmp_Inf
          555  12508: __aeabi_ddiv
          556  12521: _ddiv
          557  12527: __aeabi_d2uiz
          558  12541: _dfixu
          559  12548: __aeabi_ui2d
          560  12561: _dfltu
          561  12568: __aeabi_cdcmple
          562  12584: _dcmple
          563  12592: __fpl_dcmple_InfNaN
          564  12612: __fpl_dnaninf
          565  12626: __fpl_dretinf
          566  12640: __aeabi_cdrcmple
          567  12657: _drcmple
          568  12666: __aeabi_f2d
          569  12678: _f2d
          570  12683: __fpl_fnaninf
          571  12697: _fp_init
          572  12706: __fplib_config_fpu_vfp
          573  12729: __fplib_config_pureend_doubles
          574  12760: __fpl_fretinf
          575  12774: __I$use$fp
          576  12785: ui32MCUAllowed
          577  12800: ui32DSP0Allowed
          578  12816: ui32DSP1Allowed
          579  12832: ui32SharedAccess
          580  12849: sGlobalAccess
          581  12863: am_hal_gpio_pincfg_output
          582  12889: am_hal_gpio_pincfg_tristate
          583  12917: am_hal_gpio_pincfg_disabled
          584  12945: g_DefaultSRAMCfg
          585  12962: g_DefaultMcuMemCfg
          586  12981: am_hal_pwrctrl_peripheral_control
          587  13015: g_am_hal_bootrom_helper
          588  13039: am_hal_daxi_defaults
          589  13060: Region$$Table$$Base
          590  13080: Region$$Table$$Limit
          591  13101: g_ui32SysTickWrappedTime
          592  13126: seed1_volatile
          593  13141: seed2_volatile
          594  13156: seed3_volatile
          595  13171: seed4_volatile
          596  13186: seed5_volatile
          597  13201: am_bufcnt
          598  13211: am_pcBuf
          599  13220: default_num_contexts
          600  13241: g_pfnCharPrint
          601  13256: g_ui32HALflags
          602  13271: g_ui32BusWriteFlush
          603  13291: g_eCurrPwrMode
          604  13306: g_bVDDCbuckboosted
          605  13325: g_ui32TrimVer
          606  13339: g_ui32origSimobuckVDDFtrim
          607  13366: g_ui32origSimobuckVDDCtrim
          608  13393: g_ui32origMEMLDOActiveTrim
          609  13420: g_ui32origSimobuckVDDStrim
          610  13447: storeAndWFIfuncRAM
          611  13466: am_bsp_psLEDs
          612  13480: program_mram_tmc_tcycrd
          613  13504: recover_broken_mram_tmc_r_timer1
          614  13537: g_AM_BSP_GPIO_COM_UART_TX
          615  13563: g_AM_BSP_GPIO_COM_UART_RX
          616  13589: gMspiXipState
          617  13603: am_prtbuf
          618  13613: g_trim_reg_origvals
          619  13633: g_am_hal_uart_states
          620  13654: __libspace_start
          621  13671: __temporary_stack_top$libspace
          622  13702: psGlobalAccessPtr
          623  13720: ui32MCUClaimed
          624  13735: ui32DSP0Claimed
          625  13751: ui32DSP1Claimed
          626  13767: 


** Section #14 '.note' (SHT_NOTE)
    Size   : 32 bytes (alignment 4)


** Section #15 '.comment' (SHT_PROGBITS)
    Size   : 41600 bytes


** Section #16 '.shstrtab' (SHT_STRTAB)
    Size   : 164 bytes

            #  Offset String
        ====================================

            1      1: MCU_MRAM
            2     10: MCU_TCM
            3     18: SHARED_SRAM
            4     30: .debug_abbrev
            5     44: .debug_frame
            6     57: .debug_info
            7     69: .debug_line
            8     81: .debug_loc
            9     92: .debug_macinfo
           10    107: .debug_pubnames
           11    123: .symtab
           12    131: .strtab
           13    139: .note
           14    145: .comment
           15    154: .shstrtab


