
========================================================================

** ELF Header Information

    File Name: bin\prime.axf

    Machine class: ELFCLASS32 (32-bit)
    Data encoding: ELFDATA2LSB (Little endian)
    Header version: EV_CURRENT (Current version)
    Operating System ABI: none
    ABI Version: 0
    File Type: ET_EXEC (Executable) (2)
    Machine: EM_ARM (ARM)

    Image Entry point: 0x00018239
    Flags: EF_ARM_HASENTRY + EF_ARM_ABI_FLOAT_HARD (0x05000402)

    ARM ELF revision: 5 (ABI version 2)

    Conforms to Hard float procedure-call standard

    Built with
    Component: ARM Compiler 5.06 update 6 (build 750) Tool: armasm [4d35ec]
    Component: ARM Compiler 5.06 update 6 (build 750) Tool: armlink [4d35ed]

    Header size: 52 bytes (0x34)
    Program header entry size: 32 bytes (0x20)
    Section header entry size: 40 bytes (0x28)

    Program header entries: 1
    Section header entries: 17

    Program header offset: 103220 (0x00019334)
    Section header offset: 103252 (0x00019354)

    Section header string table index: 16

========================================================================

** Program header #0 (PT_LOAD) [PF_X + PF_W + PF_R + PF_ARM_ENTRY]
    Size : 16632 bytes (14140 bytes in file)
    Virtual address: 0x00018000 (Alignment 16)


========================================================================

** Section #1 'MCU_MRAM' (SHT_PROGBITS) [SHF_ALLOC + SHF_EXECINSTR]
    Size   : 13760 bytes (alignment 4)
    Address: 0x00018000

    $d
    RESET
    __Vectors
        0x00018000:    10000af8    ....    DCD    268438264
        0x00018004:    00018201    ....    DCD    98817
        0x00018008:    0001821f    ....    DCD    98847
        0x0001800c:    00018335    5...    DCD    99125
        0x00018010:    00018221    !...    DCD    98849
        0x00018014:    00018223    #...    DCD    98851
        0x00018018:    00018225    %...    DCD    98853
        0x0001801c:    00018227    '...    DCD    98855
        0x00018020:    00000000    ....    DCD    0
        0x00018024:    00000000    ....    DCD    0
        0x00018028:    00000000    ....    DCD    0
        0x0001802c:    00018229    )...    DCD    98857
        0x00018030:    0001822b    +...    DCD    98859
        0x00018034:    00000000    ....    DCD    0
        0x00018038:    0001822d    -...    DCD    98861
        0x0001803c:    0001822f    /...    DCD    98863
        0x00018040:    00018231    1...    DCD    98865
        0x00018044:    00018231    1...    DCD    98865
        0x00018048:    00018231    1...    DCD    98865
        0x0001804c:    00018231    1...    DCD    98865
        0x00018050:    00018231    1...    DCD    98865
        0x00018054:    00018231    1...    DCD    98865
        0x00018058:    00018231    1...    DCD    98865
        0x0001805c:    00018231    1...    DCD    98865
        0x00018060:    00018231    1...    DCD    98865
        0x00018064:    00018231    1...    DCD    98865
        0x00018068:    00018231    1...    DCD    98865
        0x0001806c:    00018231    1...    DCD    98865
        0x00018070:    00018231    1...    DCD    98865
        0x00018074:    00018231    1...    DCD    98865
        0x00018078:    00018231    1...    DCD    98865
        0x0001807c:    00018231    1...    DCD    98865
        0x00018080:    00018231    1...    DCD    98865
        0x00018084:    00018231    1...    DCD    98865
        0x00018088:    00018231    1...    DCD    98865
        0x0001808c:    00018231    1...    DCD    98865
        0x00018090:    00018231    1...    DCD    98865
        0x00018094:    00018231    1...    DCD    98865
        0x00018098:    00018231    1...    DCD    98865
        0x0001809c:    00018231    1...    DCD    98865
        0x000180a0:    00018231    1...    DCD    98865
        0x000180a4:    00018231    1...    DCD    98865
        0x000180a8:    00018231    1...    DCD    98865
        0x000180ac:    00018231    1...    DCD    98865
        0x000180b0:    00018231    1...    DCD    98865
        0x000180b4:    00018231    1...    DCD    98865
        0x000180b8:    00018231    1...    DCD    98865
        0x000180bc:    00018231    1...    DCD    98865
        0x000180c0:    00018231    1...    DCD    98865
        0x000180c4:    00018231    1...    DCD    98865
        0x000180c8:    00018231    1...    DCD    98865
        0x000180cc:    00018231    1...    DCD    98865
        0x000180d0:    00018231    1...    DCD    98865
        0x000180d4:    00018231    1...    DCD    98865
        0x000180d8:    00018231    1...    DCD    98865
        0x000180dc:    00018231    1...    DCD    98865
        0x000180e0:    00018231    1...    DCD    98865
        0x000180e4:    00018231    1...    DCD    98865
        0x000180e8:    00018231    1...    DCD    98865
        0x000180ec:    00018231    1...    DCD    98865
        0x000180f0:    00018231    1...    DCD    98865
        0x000180f4:    00018231    1...    DCD    98865
        0x000180f8:    00018231    1...    DCD    98865
        0x000180fc:    00018231    1...    DCD    98865
        0x00018100:    00018231    1...    DCD    98865
        0x00018104:    00018231    1...    DCD    98865
        0x00018108:    00018231    1...    DCD    98865
        0x0001810c:    00018231    1...    DCD    98865
        0x00018110:    00018231    1...    DCD    98865
        0x00018114:    00018231    1...    DCD    98865
        0x00018118:    00018231    1...    DCD    98865
        0x0001811c:    00018231    1...    DCD    98865
        0x00018120:    00018231    1...    DCD    98865
        0x00018124:    00018231    1...    DCD    98865
        0x00018128:    00018231    1...    DCD    98865
        0x0001812c:    00018231    1...    DCD    98865
        0x00018130:    00018231    1...    DCD    98865
        0x00018134:    00018231    1...    DCD    98865
        0x00018138:    00018231    1...    DCD    98865
        0x0001813c:    00018231    1...    DCD    98865
        0x00018140:    00018231    1...    DCD    98865
        0x00018144:    00018231    1...    DCD    98865
        0x00018148:    00018231    1...    DCD    98865
        0x0001814c:    00018231    1...    DCD    98865
        0x00018150:    00018231    1...    DCD    98865
        0x00018154:    00018231    1...    DCD    98865
        0x00018158:    00018231    1...    DCD    98865
        0x0001815c:    00018231    1...    DCD    98865
        0x00018160:    00018231    1...    DCD    98865
        0x00018164:    00018231    1...    DCD    98865
        0x00018168:    00018231    1...    DCD    98865
        0x0001816c:    00018231    1...    DCD    98865
        0x00018170:    00018231    1...    DCD    98865
        0x00018174:    00018231    1...    DCD    98865
        0x00018178:    00018231    1...    DCD    98865
        0x0001817c:    00018231    1...    DCD    98865
        0x00018180:    00018231    1...    DCD    98865
        0x00018184:    00018231    1...    DCD    98865
        0x00018188:    00018231    1...    DCD    98865
        0x0001818c:    00018231    1...    DCD    98865
    __Patchable
        0x00018190:    00000000    ....    DCD    0
        0x00018194:    00000000    ....    DCD    0
        0x00018198:    00000000    ....    DCD    0
        0x0001819c:    00000000    ....    DCD    0
        0x000181a0:    00000000    ....    DCD    0
        0x000181a4:    00000000    ....    DCD    0
        0x000181a8:    00000000    ....    DCD    0
        0x000181ac:    00000000    ....    DCD    0
        0x000181b0:    00000000    ....    DCD    0
        0x000181b4:    00000000    ....    DCD    0
        0x000181b8:    00000000    ....    DCD    0
        0x000181bc:    00000000    ....    DCD    0
        0x000181c0:    00000000    ....    DCD    0
        0x000181c4:    00000000    ....    DCD    0
        0x000181c8:    00000000    ....    DCD    0
        0x000181cc:    00000000    ....    DCD    0
        0x000181d0:    00000000    ....    DCD    0
        0x000181d4:    00000000    ....    DCD    0
        0x000181d8:    00000000    ....    DCD    0
        0x000181dc:    00000000    ....    DCD    0
        0x000181e0:    00000000    ....    DCD    0
        0x000181e4:    00000000    ....    DCD    0
        0x000181e8:    00000000    ....    DCD    0
        0x000181ec:    00000000    ....    DCD    0
        0x000181f0:    00000000    ....    DCD    0
        0x000181f4:    00000000    ....    DCD    0
        0x000181f8:    00000000    ....    DCD    0
        0x000181fc:    00000000    ....    DCD    0
    $t
    $v0
    Reset_Handler
        0x00018200:    f64e5088    N..P    MOV      r0,#0xed88
        0x00018204:    f2ce0000    ....    MOVT     r0,#0xe000
        0x00018208:    6801        .h      LDR      r1,[r0,#0]
        0x0001820a:    f4410170    A.p.    ORR      r1,r1,#0xf00000
        0x0001820e:    6001        .`      STR      r1,[r0,#0]
        0x00018210:    f3bf8f4f    ..O.    DSB      
        0x00018214:    f3bf8f6f    ..o.    ISB      
        0x00018218:    4806        .H      LDR      r0,[pc,#24] ; [0x18234] = 0x18239
        0x0001821a:    4700        .G      BX       r0
        0x0001821c:    e7fe        ..      B        0x1821c ; Reset_Handler + 28
    NMI_Handler
        0x0001821e:    e7fe        ..      B        NMI_Handler ; 0x1821e
    MemManage_Handler
        0x00018220:    e7fe        ..      B        MemManage_Handler ; 0x18220
    BusFault_Handler
        0x00018222:    e7fe        ..      B        BusFault_Handler ; 0x18222
    UsageFault_Handler
        0x00018224:    e7fe        ..      B        UsageFault_Handler ; 0x18224
    SecureFault_Handler
        0x00018226:    e7fe        ..      B        SecureFault_Handler ; 0x18226
    SVC_Handler
        0x00018228:    e7fe        ..      B        SVC_Handler ; 0x18228
    DebugMon_Handler
        0x0001822a:    e7fe        ..      B        DebugMon_Handler ; 0x1822a
    PendSV_Handler
        0x0001822c:    e7fe        ..      B        PendSV_Handler ; 0x1822c
    SysTick_Handler
        0x0001822e:    e7fe        ..      B        SysTick_Handler ; 0x1822e
    am_cryptosec_isr
    am_default_isr
    am_adc_isr
    am_audadc0_isr
    am_brownout_isr
    am_cachecpu_isr
    am_clkgen_isr
    am_ctimer_isr
    am_disp_isr
    am_dsi_isr
    am_dspi2s0_isr
    am_dspi2s1_isr
    am_dspi2s2_isr
    am_dspi2s3_isr
    am_gpio0_001f_isr
    am_gpio0_203f_isr
    am_gpio0_405f_isr
    am_gpio0_607f_isr
    am_gpio1_001f_isr
    am_gpio1_203f_isr
    am_gpio1_405f_isr
    am_gpio1_607f_isr
    am_gpu_isr
    am_iomaster0_isr
    am_iomaster1_isr
    am_iomaster2_isr
    am_iomaster3_isr
    am_iomaster4_isr
    am_iomaster5_isr
    am_iomaster6_isr
    am_iomaster7_isr
    am_ioslave_acc_isr
    am_ioslave_ios_isr
    am_mspi0_isr
    am_mspi1_isr
    am_mspi2_isr
    am_pdm0_isr
    am_pdm1_isr
    am_pdm2_isr
    am_pdm3_isr
    am_rtc_isr
    am_sdio_isr
    am_stimer_cmpr0_isr
    am_stimer_cmpr1_isr
    am_stimer_cmpr2_isr
    am_stimer_cmpr3_isr
    am_stimer_cmpr4_isr
    am_stimer_cmpr5_isr
    am_stimer_cmpr6_isr
    am_stimer_cmpr7_isr
    am_stimerof_isr
    am_timer00_isr
    am_timer01_isr
    am_timer02_isr
    am_timer03_isr
    am_timer04_isr
    am_timer05_isr
    am_timer06_isr
    am_timer07_isr
    am_timer08_isr
    am_timer09_isr
    am_timer10_isr
    am_timer11_isr
    am_timer12_isr
    am_timer13_isr
    am_timer14_isr
    am_timer15_isr
    am_uart1_isr
    am_uart2_isr
    am_uart3_isr
    am_uart_isr
    am_usb_isr
    am_vcomp_isr
    am_watchdog_isr
        0x00018230:    e7fe        ..      B        am_cryptosec_isr ; 0x18230
    $d
        0x00018232:    0000        ..      DCW    0
        0x00018234:    00018239    9...    DCD    98873
    $t
    !!!main
    __main
        0x00018238:    f000f802    ....    BL       __scatterload ; 0x18240
        0x0001823c:    f000f86a    ..j.    BL       __rt_entry ; 0x18314
    !!!scatter
    __scatterload
    __scatterload_rt2
    __scatterload_rt2_thumb_only
        0x00018240:    a00a        ..      ADR      r0,{pc}+0x2c ; 0x1826c
        0x00018242:    e8900c00    ....    LDM      r0,{r10,r11}
        0x00018246:    4482        .D      ADD      r10,r10,r0
        0x00018248:    4483        .D      ADD      r11,r11,r0
        0x0001824a:    f1aa0701    ....    SUB      r7,r10,#1
    __scatterload_null
        0x0001824e:    45da        .E      CMP      r10,r11
        0x00018250:    d101        ..      BNE      0x18256 ; __scatterload_null + 8
        0x00018252:    f000f85f    .._.    BL       __rt_entry ; 0x18314
        0x00018256:    f2af0e09    ....    ADR      lr,{pc}-7 ; 0x1824f
        0x0001825a:    e8ba000f    ....    LDM      r10!,{r0-r3}
        0x0001825e:    f0130f01    ....    TST      r3,#1
        0x00018262:    bf18        ..      IT       NE
        0x00018264:    1afb        ..      SUBNE    r3,r7,r3
        0x00018266:    f0430301    C...    ORR      r3,r3,#1
        0x0001826a:    4718        .G      BX       r3
    $d
        0x0001826c:    00003324    $3..    DCD    13092
        0x00018270:    00003354    T3..    DCD    13140
    $t
    !!dczerorl2
    __decompress
    __decompress1
        0x00018274:    440a        .D      ADD      r2,r2,r1
        0x00018276:    f04f0c00    O...    MOV      r12,#0
        0x0001827a:    f8103b01    ...;    LDRB     r3,[r0],#1
        0x0001827e:    f0130407    ....    ANDS     r4,r3,#7
        0x00018282:    bf08        ..      IT       EQ
        0x00018284:    f8104b01    ...K    LDRBEQ   r4,[r0],#1
        0x00018288:    111d        ..      ASRS     r5,r3,#4
        0x0001828a:    bf08        ..      IT       EQ
        0x0001828c:    f8105b01    ...[    LDRBEQ   r5,[r0],#1
        0x00018290:    1e64        d.      SUBS     r4,r4,#1
        0x00018292:    d005        ..      BEQ      0x182a0 ; __decompress + 44
        0x00018294:    f8106b01    ...k    LDRB     r6,[r0],#1
        0x00018298:    1e64        d.      SUBS     r4,r4,#1
        0x0001829a:    f8016b01    ...k    STRB     r6,[r1],#1
        0x0001829e:    d1f9        ..      BNE      0x18294 ; __decompress + 32
        0x000182a0:    f0130f08    ....    TST      r3,#8
        0x000182a4:    bf1e        ..      ITTT     NE
        0x000182a6:    f8104b01    ...K    LDRBNE   r4,[r0],#1
        0x000182aa:    1cad        ..      ADDNE    r5,r5,#2
        0x000182ac:    1b0c        ..      SUBNE    r4,r1,r4
        0x000182ae:    d109        ..      BNE      0x182c4 ; __decompress + 80
        0x000182b0:    1e6d        m.      SUBS     r5,r5,#1
        0x000182b2:    bf58        X.      IT       PL
        0x000182b4:    f801cb01    ....    STRBPL   r12,[r1],#1
        0x000182b8:    d5fa        ..      BPL      0x182b0 ; __decompress + 60
        0x000182ba:    e005        ..      B        0x182c8 ; __decompress + 84
        0x000182bc:    f8146b01    ...k    LDRB     r6,[r4],#1
        0x000182c0:    f8016b01    ...k    STRB     r6,[r1],#1
        0x000182c4:    1e6d        m.      SUBS     r5,r5,#1
        0x000182c6:    d5f9        ..      BPL      0x182bc ; __decompress + 72
        0x000182c8:    4291        .B      CMP      r1,r2
        0x000182ca:    d3d6        ..      BCC      0x1827a ; __decompress + 6
        0x000182cc:    4770        pG      BX       lr
        0x000182ce:    0000        ..      MOVS     r0,r0
    !!handler_copy
    __scatterload_copy
        0x000182d0:    3a10        .:      SUBS     r2,r2,#0x10
        0x000182d2:    bf24        $.      ITT      CS
        0x000182d4:    c878        x.      LDMCS    r0!,{r3-r6}
        0x000182d6:    c178        x.      STMCS    r1!,{r3-r6}
        0x000182d8:    d8fa        ..      BHI      __scatterload_copy ; 0x182d0
        0x000182da:    0752        R.      LSLS     r2,r2,#29
        0x000182dc:    bf24        $.      ITT      CS
        0x000182de:    c830        0.      LDMCS    r0!,{r4,r5}
        0x000182e0:    c130        0.      STMCS    r1!,{r4,r5}
        0x000182e2:    bf44        D.      ITT      MI
        0x000182e4:    6804        .h      LDRMI    r4,[r0,#0]
        0x000182e6:    600c        .`      STRMI    r4,[r1,#0]
        0x000182e8:    4770        pG      BX       lr
        0x000182ea:    0000        ..      MOVS     r0,r0
    !!handler_zi
    __scatterload_zeroinit
        0x000182ec:    2300        .#      MOVS     r3,#0
        0x000182ee:    2400        .$      MOVS     r4,#0
        0x000182f0:    2500        .%      MOVS     r5,#0
        0x000182f2:    2600        .&      MOVS     r6,#0
        0x000182f4:    3a10        .:      SUBS     r2,r2,#0x10
        0x000182f6:    bf28        (.      IT       CS
        0x000182f8:    c178        x.      STMCS    r1!,{r3-r6}
        0x000182fa:    d8fb        ..      BHI      0x182f4 ; __scatterload_zeroinit + 8
        0x000182fc:    0752        R.      LSLS     r2,r2,#29
        0x000182fe:    bf28        (.      IT       CS
        0x00018300:    c130        0.      STMCS    r1!,{r4,r5}
        0x00018302:    bf48        H.      IT       MI
        0x00018304:    600b        .`      STRMI    r3,[r1,#0]
        0x00018306:    4770        pG      BX       lr
    .ARM.Collect$$libinit$$00000000
    __rt_lib_init
        0x00018308:    b51f        ..      PUSH     {r0-r4,lr}
    .ARM.Collect$$libinit$$00000001
    __rt_lib_init_fp_1
        0x0001830a:    f002ffa8    ....    BL       _fp_init ; 0x1b25e
    .ARM.Collect$$libinit$$00000004
    .ARM.Collect$$libinit$$0000000A
    .ARM.Collect$$libinit$$0000000C
    .ARM.Collect$$libinit$$0000000E
    .ARM.Collect$$libinit$$00000011
    .ARM.Collect$$libinit$$00000013
    .ARM.Collect$$libinit$$00000015
    .ARM.Collect$$libinit$$00000017
    .ARM.Collect$$libinit$$00000019
    .ARM.Collect$$libinit$$0000001B
    .ARM.Collect$$libinit$$0000001D
    .ARM.Collect$$libinit$$0000001F
    .ARM.Collect$$libinit$$00000021
    .ARM.Collect$$libinit$$00000023
    .ARM.Collect$$libinit$$00000025
    .ARM.Collect$$libinit$$0000002C
    .ARM.Collect$$libinit$$0000002E
    .ARM.Collect$$libinit$$00000030
    .ARM.Collect$$libinit$$00000032
    .ARM.Collect$$libinit$$00000033
    __rt_lib_init_alloca_1
    __rt_lib_init_argv_1
    __rt_lib_init_atexit_1
    __rt_lib_init_clock_1
    __rt_lib_init_cpp_1
    __rt_lib_init_exceptions_1
    __rt_lib_init_fp_trap_1
    __rt_lib_init_getenv_1
    __rt_lib_init_heap_1
    __rt_lib_init_lc_collate_1
    __rt_lib_init_lc_ctype_1
    __rt_lib_init_lc_monetary_1
    __rt_lib_init_lc_numeric_1
    __rt_lib_init_lc_time_1
    __rt_lib_init_preinit_1
    __rt_lib_init_rand_1
    __rt_lib_init_return
    __rt_lib_init_signal_1
    __rt_lib_init_stdio_1
    __rt_lib_init_user_alloc_1
        0x0001830e:    bd1f        ..      POP      {r0-r4,pc}
    .ARM.Collect$$libshutdown$$00000000
    __rt_lib_shutdown
        0x00018310:    b510        ..      PUSH     {r4,lr}
    .ARM.Collect$$libshutdown$$00000002
    .ARM.Collect$$libshutdown$$00000004
    .ARM.Collect$$libshutdown$$00000007
    .ARM.Collect$$libshutdown$$0000000A
    .ARM.Collect$$libshutdown$$0000000C
    .ARM.Collect$$libshutdown$$0000000F
    .ARM.Collect$$libshutdown$$00000010
    __rt_lib_shutdown_cpp_1
    __rt_lib_shutdown_fp_trap_1
    __rt_lib_shutdown_heap_1
    __rt_lib_shutdown_return
    __rt_lib_shutdown_signal_1
    __rt_lib_shutdown_stdio_1
    __rt_lib_shutdown_user_alloc_1
        0x00018312:    bd10        ..      POP      {r4,pc}
    .ARM.Collect$$rtentry$$00000000
    .ARM.Collect$$rtentry$$00000002
    .ARM.Collect$$rtentry$$00000004
    __rt_entry
    __rt_entry_presh_1
    __rt_entry_sh
        0x00018314:    f000f849    ..I.    BL       __user_setup_stackheap ; 0x183aa
        0x00018318:    4611        .F      MOV      r1,r2
    .ARM.Collect$$rtentry$$00000009
    .ARM.Collect$$rtentry$$0000000A
    __rt_entry_li
    __rt_entry_postsh_1
        0x0001831a:    f7fffff5    ....    BL       __rt_lib_init ; 0x18308
    .ARM.Collect$$rtentry$$0000000C
    .ARM.Collect$$rtentry$$0000000D
    __rt_entry_main
    __rt_entry_postli_1
        0x0001831e:    f002fb33    ..3.    BL       main ; 0x1a988
        0x00018322:    f000f867    ..g.    BL       exit ; 0x183f4
    .ARM.Collect$$rtexit$$00000000
    __rt_exit
        0x00018326:    b403        ..      PUSH     {r0,r1}
    .ARM.Collect$$rtexit$$00000002
    .ARM.Collect$$rtexit$$00000003
    __rt_exit_ls
    __rt_exit_prels_1
        0x00018328:    f7fffff2    ....    BL       __rt_lib_shutdown ; 0x18310
    .ARM.Collect$$rtexit$$00000004
    __rt_exit_exit
        0x0001832c:    bc03        ..      POP      {r0,r1}
        0x0001832e:    f000f86f    ..o.    BL       _sys_exit ; 0x18410
        0x00018332:    0000        ..      MOVS     r0,r0
    .emb_text
    $v0
    HardFault_Handler
        0x00018334:    b501        ..      PUSH     {r0,lr}
        0x00018336:    f01e0f04    ....    TST      lr,#4
        0x0001833a:    bf0a        ..      ITET     EQ
        0x0001833c:    f3ef8008    ....    MRSEQ    r0,MSP
        0x00018340:    f3ef8009    ....    MRSNE    r0,PSP
        0x00018344:    f1100008    ....    ADDSEQ   r0,r0,#8
        0x00018348:    f001fdca    ....    BL       am_util_faultisr_collect_data ; 0x19ee0
        0x0001834c:    bd01        ..      POP      {r0,pc}
    getStackedReg
        0x0001834e:    0080        ..      LSLS     r0,r0,#2
        0x00018350:    1840        @.      ADDS     r0,r0,r1
        0x00018352:    6800        .h      LDR      r0,[r0,#0]
        0x00018354:    4770        pG      BX       lr
        0x00018356:    0000        ..      MOVS     r0,r0
    .emb_text
    $v0
    am_hal_triple_read
        0x00018358:    b412        ..      PUSH     {r1,r4}
        0x0001835a:    f3ef8410    ....    MRS      r4,PRIMASK
        0x0001835e:    b672        r.      CPSID    i
        0x00018360:    6801        .h      LDR      r1,[r0,#0]
        0x00018362:    6802        .h      LDR      r2,[r0,#0]
        0x00018364:    6803        .h      LDR      r3,[r0,#0]
        0x00018366:    f3848810    ....    MSR      PRIMASK,r4
        0x0001836a:    bc11        ..      POP      {r0,r4}
        0x0001836c:    6001        .`      STR      r1,[r0,#0]
        0x0001836e:    6042        B`      STR      r2,[r0,#4]
        0x00018370:    6083        .`      STR      r3,[r0,#8]
        0x00018372:    4770        pG      BX       lr
    .emb_text
    $v0
    am_hal_interrupt_master_enable
        0x00018374:    f3ef8010    ....    MRS      r0,PRIMASK
        0x00018378:    b662        b.      CPSIE    i
        0x0001837a:    4770        pG      BX       lr
    am_hal_interrupt_master_disable
        0x0001837c:    f3ef8010    ....    MRS      r0,PRIMASK
        0x00018380:    b672        r.      CPSID    i
        0x00018382:    4770        pG      BX       lr
    am_hal_interrupt_master_set
        0x00018384:    f3808810    ....    MSR      PRIMASK,r0
        0x00018388:    4770        pG      BX       lr
        0x0001838a:    0000        ..      MOVS     r0,r0
    .text
    $v0
    __user_initial_stackheap
        0x0001838c:    4802        .H      LDR      r0,[pc,#8] ; [0x18398] = 0x100006f8
        0x0001838e:    4903        .I      LDR      r1,[pc,#12] ; [0x1839c] = 0x10000af8
        0x00018390:    4a01        .J      LDR      r2,[pc,#4] ; [0x18398] = 0x100006f8
        0x00018392:    4b03        .K      LDR      r3,[pc,#12] ; [0x183a0] = 0x100006f8
        0x00018394:    4770        pG      BX       lr
    $d
        0x00018396:    0000        ..      DCW    0
        0x00018398:    100006f8    ....    DCD    268437240
        0x0001839c:    10000af8    ....    DCD    268438264
        0x000183a0:    100006f8    ....    DCD    268437240
    $t
    .text
    __use_two_region_memory
        0x000183a4:    4770        pG      BX       lr
    __rt_heap_escrow$2region
        0x000183a6:    4770        pG      BX       lr
    __rt_heap_expand$2region
        0x000183a8:    4770        pG      BX       lr
    .text
    __user_setup_stackheap
        0x000183aa:    4675        uF      MOV      r5,lr
        0x000183ac:    f000f82c    ..,.    BL       __user_libspace ; 0x18408
        0x000183b0:    46ae        .F      MOV      lr,r5
        0x000183b2:    0005        ..      MOVS     r5,r0
        0x000183b4:    4669        iF      MOV      r1,sp
        0x000183b6:    4653        SF      MOV      r3,r10
        0x000183b8:    f0200007     ...    BIC      r0,r0,#7
        0x000183bc:    4685        .F      MOV      sp,r0
        0x000183be:    b018        ..      ADD      sp,sp,#0x60
        0x000183c0:    b520         .      PUSH     {r5,lr}
        0x000183c2:    f7ffffe3    ....    BL       __user_initial_stackheap ; 0x1838c
        0x000183c6:    e8bd4020    .. @    POP      {r5,lr}
        0x000183ca:    f04f0600    O...    MOV      r6,#0
        0x000183ce:    f04f0700    O...    MOV      r7,#0
        0x000183d2:    f04f0800    O...    MOV      r8,#0
        0x000183d6:    f04f0b00    O...    MOV      r11,#0
        0x000183da:    f0210107    !...    BIC      r1,r1,#7
        0x000183de:    46ac        .F      MOV      r12,r5
        0x000183e0:    e8ac09c0    ....    STM      r12!,{r6-r8,r11}
        0x000183e4:    e8ac09c0    ....    STM      r12!,{r6-r8,r11}
        0x000183e8:    e8ac09c0    ....    STM      r12!,{r6-r8,r11}
        0x000183ec:    e8ac09c0    ....    STM      r12!,{r6-r8,r11}
        0x000183f0:    468d        .F      MOV      sp,r1
        0x000183f2:    4770        pG      BX       lr
    .text
    exit
        0x000183f4:    b510        ..      PUSH     {r4,lr}
        0x000183f6:    4604        .F      MOV      r4,r0
        0x000183f8:    f3af8000    ....    NOP.W    
        0x000183fc:    4620         F      MOV      r0,r4
        0x000183fe:    e8bd4010    ...@    POP      {r4,lr}
        0x00018402:    f7ffbf90    ....    B.W      __rt_exit ; 0x18326
        0x00018406:    0000        ..      MOVS     r0,r0
    .text
    __user_libspace
    __user_perproc_libspace
    __user_perthread_libspace
        0x00018408:    4800        .H      LDR      r0,[pc,#0] ; [0x1840c] = 0x10000698
        0x0001840a:    4770        pG      BX       lr
    $d
        0x0001840c:    10000698    ....    DCD    268437144
    $t
    .text
    _sys_exit
        0x00018410:    4901        .I      LDR      r1,[pc,#4] ; [0x18418] = 0x20026
        0x00018412:    2018        .       MOVS     r0,#0x18
        0x00018414:    beab        ..      BKPT     #0xab
        0x00018416:    e7fe        ..      B        0x18416 ; _sys_exit + 6
    $d
        0x00018418:    00020026    &...    DCD    131110
    $t
    .text
    __I$use$semihosting
    __use_no_semihosting_swi
        0x0001841c:    4770        pG      BX       lr
    .text
    __semihosting_library_function
        0x0001841e:    0000        ..      MOVS     r0,r0
    i.VDDF_simobuck_boost
    VDDF_simobuck_boost
        0x00018420:    e92d43f8    -..C    PUSH     {r3-r9,lr}
        0x00018424:    4d31        1M      LDR      r5,[pc,#196] ; [0x184ec] = 0x1000000c
        0x00018426:    4681        .F      MOV      r9,r0
        0x00018428:    4c31        1L      LDR      r4,[pc,#196] ; [0x184f0] = 0x40020000
        0x0001842a:    68a8        .h      LDR      r0,[r5,#8]
        0x0001842c:    4616        .F      MOV      r6,r2
        0x0001842e:    4688        .F      MOV      r8,r1
        0x00018430:    f1b03fff    ...?    CMP      r0,#0xffffffff
        0x00018434:    d104        ..      BNE      0x18440 ; VDDF_simobuck_boost + 32
        0x00018436:    f8d4036c    ..l.    LDR      r0,[r4,#0x36c]
        0x0001843a:    f3c05005    ...P    UBFX     r0,r0,#20,#6
        0x0001843e:    60a8        .`      STR      r0,[r5,#8]
        0x00018440:    e9d50701    ....    LDRD     r0,r7,[r5,#4]
        0x00018444:    f1b03fff    ...?    CMP      r0,#0xffffffff
        0x00018448:    d10d        ..      BNE      0x18466 ; VDDF_simobuck_boost + 70
        0x0001844a:    2201        ."      MOVS     r2,#1
        0x0001844c:    4b29        )K      LDR      r3,[pc,#164] ; [0x184f4] = 0x10000010
        0x0001844e:    f24041c4    @..A    MOV      r1,#0x4c4
        0x00018452:    4610        .F      MOV      r0,r2
        0x00018454:    f000fa7c    ..|.    BL       am_hal_mram_info_read ; 0x18950
        0x00018458:    b918        ..      CBNZ     r0,0x18462 ; VDDF_simobuck_boost + 66
        0x0001845a:    6868        hh      LDR      r0,[r5,#4]
        0x0001845c:    f1b03fff    ...?    CMP      r0,#0xffffffff
        0x00018460:    d101        ..      BNE      0x18466 ; VDDF_simobuck_boost + 70
        0x00018462:    2000        .       MOVS     r0,#0
        0x00018464:    6068        h`      STR      r0,[r5,#4]
        0x00018466:    6868        hh      LDR      r0,[r5,#4]
        0x00018468:    f1b90f00    ....    CMP      r9,#0
        0x0001846c:    d02c        ,.      BEQ      0x184c8 ; VDDF_simobuck_boost + 168
        0x0001846e:    68e1        .h      LDR      r1,[r4,#0xc]
        0x00018470:    b2c9        ..      UXTB     r1,r1
        0x00018472:    2922        ")      CMP      r1,#0x22
        0x00018474:    d325        %.      BCC      0x184c2 ; VDDF_simobuck_boost + 162
        0x00018476:    f1080103    ....    ADD      r1,r8,#3
        0x0001847a:    2806        .(      CMP      r0,#6
        0x0001847c:    bf28        (.      IT       CS
        0x0001847e:    460e        .F      MOVCS    r6,r1
        0x00018480:    f8d40378    ..x.    LDR      r0,[r4,#0x378]
        0x00018484:    f0404000    @..@    ORR      r0,r0,#0x80000000
        0x00018488:    f8c40378    ..x.    STR      r0,[r4,#0x378]
        0x0001848c:    f1c6003f    ..?.    RSB      r0,r6,#0x3f
        0x00018490:    42b8        .B      CMP      r0,r7
        0x00018492:    bf2c        ,.      ITE      CS
        0x00018494:    19bd        ..      ADDCS    r5,r7,r6
        0x00018496:    253f        ?%      MOVCC    r5,#0x3f
        0x00018498:    f8d4036c    ..l.    LDR      r0,[r4,#0x36c]
        0x0001849c:    f3c05005    ...P    UBFX     r0,r0,#20,#6
        0x000184a0:    42a8        .B      CMP      r0,r5
        0x000184a2:    d00e        ..      BEQ      0x184c2 ; VDDF_simobuck_boost + 162
        0x000184a4:    f7ffff6a    ..j.    BL       am_hal_interrupt_master_disable ; 0x1837c
        0x000184a8:    9000        ..      STR      r0,[sp,#0]
        0x000184aa:    f8d4036c    ..l.    LDR      r0,[r4,#0x36c]
        0x000184ae:    f3655019    e..P    BFI      r0,r5,#20,#6
        0x000184b2:    f8c4036c    ..l.    STR      r0,[r4,#0x36c]
        0x000184b6:    2014        .       MOVS     r0,#0x14
        0x000184b8:    f000f97e    ..~.    BL       am_hal_delay_us ; 0x187b8
        0x000184bc:    9800        ..      LDR      r0,[sp,#0]
        0x000184be:    f7ffff61    ..a.    BL       am_hal_interrupt_master_set ; 0x18384
        0x000184c2:    2000        .       MOVS     r0,#0
        0x000184c4:    e8bd83f8    ....    POP      {r3-r9,pc}
        0x000184c8:    2806        .(      CMP      r0,#6
        0x000184ca:    bf2c        ,.      ITE      CS
        0x000184cc:    2003        .       MOVCS    r0,#3
        0x000184ce:    2000        .       MOVCC    r0,#0
        0x000184d0:    19c5        ..      ADDS     r5,r0,r7
        0x000184d2:    f8d40378    ..x.    LDR      r0,[r4,#0x378]
        0x000184d6:    f0404000    @..@    ORR      r0,r0,#0x80000000
        0x000184da:    f8c40378    ..x.    STR      r0,[r4,#0x378]
        0x000184de:    f8d4036c    ..l.    LDR      r0,[r4,#0x36c]
        0x000184e2:    f3c05005    ...P    UBFX     r0,r0,#20,#6
        0x000184e6:    42a8        .B      CMP      r0,r5
        0x000184e8:    d0eb        ..      BEQ      0x184c2 ; VDDF_simobuck_boost + 162
        0x000184ea:    e7db        ..      B        0x184a4 ; VDDF_simobuck_boost + 132
    $d
        0x000184ec:    1000000c    ....    DCD    268435468
        0x000184f0:    40020000    ...@    DCD    1073872896
        0x000184f4:    10000010    ....    DCD    268435472
    $t
    i.am_bsp_low_power_init
    am_bsp_low_power_init
        0x000184f8:    b510        ..      PUSH     {r4,lr}
        0x000184fa:    f000fca1    ....    BL       am_hal_pwrctrl_low_power_init ; 0x18e40
        0x000184fe:    2100        .!      MOVS     r1,#0
        0x00018500:    4608        .F      MOV      r0,r1
        0x00018502:    f000fa6f    ..o.    BL       am_hal_pwrctrl_control ; 0x189e4
        0x00018506:    e8bd4010    ...@    POP      {r4,lr}
        0x0001850a:    f000bf57    ..W.    B.W      am_hal_rtc_osc_disable ; 0x193bc
        0x0001850e:    0000        ..      MOVS     r0,r0
    i.am_bsp_uart_printf_disable
    am_bsp_uart_printf_disable
        0x00018510:    b538        8.      PUSH     {r3-r5,lr}
        0x00018512:    4c10        .L      LDR      r4,[pc,#64] ; [0x18554] = 0x10000050
        0x00018514:    7820         x      LDRB     r0,[r4,#0]
        0x00018516:    2802        .(      CMP      r0,#2
        0x00018518:    bf18        ..      IT       NE
        0x0001851a:    bd38        8.      POPNE    {r3-r5,pc}
        0x0001851c:    6860        `h      LDR      r0,[r4,#4]
        0x0001851e:    f001fc17    ....    BL       am_hal_uart_tx_flush ; 0x19d50
        0x00018522:    2000        .       MOVS     r0,#0
        0x00018524:    f001fd4e    ..N.    BL       am_util_stdio_printf_init ; 0x19fc4
        0x00018528:    2200        ."      MOVS     r2,#0
        0x0001852a:    2102        .!      MOVS     r1,#2
        0x0001852c:    6860        `h      LDR      r0,[r4,#4]
        0x0001852e:    f001f9d7    ....    BL       am_hal_uart_power_control ; 0x198e0
        0x00018532:    6860        `h      LDR      r0,[r4,#4]
        0x00018534:    f001f984    ....    BL       am_hal_uart_deinitialize ; 0x19840
        0x00018538:    4d07        .M      LDR      r5,[pc,#28] ; [0x18558] = 0x1b2f8
        0x0001853a:    6829        )h      LDR      r1,[r5,#0]
        0x0001853c:    9100        ..      STR      r1,[sp,#0]
        0x0001853e:    203c        <       MOVS     r0,#0x3c
        0x00018540:    f000f9ce    ....    BL       am_hal_gpio_pinconfig ; 0x188e0
        0x00018544:    6829        )h      LDR      r1,[r5,#0]
        0x00018546:    9100        ..      STR      r1,[sp,#0]
        0x00018548:    202f        /       MOVS     r0,#0x2f
        0x0001854a:    f000f9c9    ....    BL       am_hal_gpio_pinconfig ; 0x188e0
        0x0001854e:    2000        .       MOVS     r0,#0
        0x00018550:    7020         p      STRB     r0,[r4,#0]
        0x00018552:    bd38        8.      POP      {r3-r5,pc}
    $d
        0x00018554:    10000050    P...    DCD    268435536
        0x00018558:    0001b2f8    ....    DCD    111352
    $t
    i.am_bsp_uart_printf_enable
    am_bsp_uart_printf_enable
        0x0001855c:    b538        8.      PUSH     {r3-r5,lr}
        0x0001855e:    4914        .I      LDR      r1,[pc,#80] ; [0x185b0] = 0x10000054
        0x00018560:    2000        .       MOVS     r0,#0
        0x00018562:    f001f985    ....    BL       am_hal_uart_initialize ; 0x19870
        0x00018566:    b9c8        ..      CBNZ     r0,0x1859c ; am_bsp_uart_printf_enable + 64
        0x00018568:    4c12        .L      LDR      r4,[pc,#72] ; [0x185b4] = 0x10000050
        0x0001856a:    2200        ."      MOVS     r2,#0
        0x0001856c:    4611        .F      MOV      r1,r2
        0x0001856e:    6860        `h      LDR      r0,[r4,#4]
        0x00018570:    f001f9b6    ....    BL       am_hal_uart_power_control ; 0x198e0
        0x00018574:    b990        ..      CBNZ     r0,0x1859c ; am_bsp_uart_printf_enable + 64
        0x00018576:    4910        .I      LDR      r1,[pc,#64] ; [0x185b8] = 0x1b538
        0x00018578:    6860        `h      LDR      r0,[r4,#4]
        0x0001857a:    f001f89f    ....    BL       am_hal_uart_configure ; 0x196bc
        0x0001857e:    b968        h.      CBNZ     r0,0x1859c ; am_bsp_uart_printf_enable + 64
        0x00018580:    480e        .H      LDR      r0,[pc,#56] ; [0x185bc] = 0x10000244
        0x00018582:    6801        .h      LDR      r1,[r0,#0]
        0x00018584:    9100        ..      STR      r1,[sp,#0]
        0x00018586:    203c        <       MOVS     r0,#0x3c
        0x00018588:    f000f9aa    ....    BL       am_hal_gpio_pinconfig ; 0x188e0
        0x0001858c:    b930        0.      CBNZ     r0,0x1859c ; am_bsp_uart_printf_enable + 64
        0x0001858e:    480c        .H      LDR      r0,[pc,#48] ; [0x185c0] = 0x10000248
        0x00018590:    6801        .h      LDR      r1,[r0,#0]
        0x00018592:    9100        ..      STR      r1,[sp,#0]
        0x00018594:    202f        /       MOVS     r0,#0x2f
        0x00018596:    f000f9a3    ....    BL       am_hal_gpio_pinconfig ; 0x188e0
        0x0001859a:    b110        ..      CBZ      r0,0x185a2 ; am_bsp_uart_printf_enable + 70
        0x0001859c:    f04f30ff    O..0    MOV      r0,#0xffffffff
        0x000185a0:    bd38        8.      POP      {r3-r5,pc}
        0x000185a2:    2002        .       MOVS     r0,#2
        0x000185a4:    7020         p      STRB     r0,[r4,#0]
        0x000185a6:    4807        .H      LDR      r0,[pc,#28] ; [0x185c4] = 0x185c9
        0x000185a8:    f001fd0c    ....    BL       am_util_stdio_printf_init ; 0x19fc4
        0x000185ac:    2000        .       MOVS     r0,#0
        0x000185ae:    bd38        8.      POP      {r3-r5,pc}
    $d
        0x000185b0:    10000054    T...    DCD    268435540
        0x000185b4:    10000050    P...    DCD    268435536
        0x000185b8:    0001b538    8...    DCD    111928
        0x000185bc:    10000244    D...    DCD    268436036
        0x000185c0:    10000248    H...    DCD    268436040
        0x000185c4:    000185c9    ....    DCD    99785
    $t
    i.am_bsp_uart_string_print
    am_bsp_uart_string_print
        0x000185c8:    b530        0.      PUSH     {r4,r5,lr}
        0x000185ca:    b08b        ..      SUB      sp,sp,#0x2c
        0x000185cc:    2400        .$      MOVS     r4,#0
        0x000185ce:    9401        ..      STR      r4,[sp,#4]
        0x000185d0:    7801        .x      LDRB     r1,[r0,#0]
        0x000185d2:    b119        ..      CBZ      r1,0x185dc ; am_bsp_uart_string_print + 20
        0x000185d4:    1c64        d.      ADDS     r4,r4,#1
        0x000185d6:    5d01        .]      LDRB     r1,[r0,r4]
        0x000185d8:    2900        .)      CMP      r1,#0
        0x000185da:    d1fb        ..      BNE      0x185d4 ; am_bsp_uart_string_print + 12
        0x000185dc:    490b        .I      LDR      r1,[pc,#44] ; [0x1860c] = 0x1b538
        0x000185de:    68ca        .h      LDR      r2,[r1,#0xc]
        0x000185e0:    311c        .1      ADDS     r1,r1,#0x1c
        0x000185e2:    e891102a    ..*.    LDM      r1,{r1,r3,r5,r12}
        0x000185e6:    e9cd2002    ...     STRD     r2,r0,[sp,#8]
        0x000185ea:    aa05        ..      ADD      r2,sp,#0x14
        0x000185ec:    9404        ..      STR      r4,[sp,#0x10]
        0x000185ee:    a801        ..      ADD      r0,sp,#4
        0x000185f0:    e882102b    ..+.    STM      r2,{r0,r1,r3,r5,r12}
        0x000185f4:    4806        .H      LDR      r0,[pc,#24] ; [0x18610] = 0x10000050
        0x000185f6:    a902        ..      ADD      r1,sp,#8
        0x000185f8:    6840        @h      LDR      r0,[r0,#4]
        0x000185fa:    f001f9df    ....    BL       am_hal_uart_transfer ; 0x199bc
        0x000185fe:    9801        ..      LDR      r0,[sp,#4]
        0x00018600:    42a0        .B      CMP      r0,r4
        0x00018602:    bf04        ..      ITT      EQ
        0x00018604:    b00b        ..      ADDEQ    sp,sp,#0x2c
        0x00018606:    bd30        0.      POPEQ    {r4,r5,pc}
        0x00018608:    e7fe        ..      B        0x18608 ; am_bsp_uart_string_print + 64
    $d
        0x0001860a:    0000        ..      DCW    0
        0x0001860c:    0001b538    8...    DCD    111928
        0x00018610:    10000050    P...    DCD    268435536
    $t
    i.am_hal_daxi_config
    am_hal_daxi_config
        0x00018614:    2800        .(      CMP      r0,#0
        0x00018616:    bf04        ..      ITT      EQ
        0x00018618:    2006        .       MOVEQ    r0,#6
        0x0001861a:    4770        pG      BXEQ     lr
        0x0001861c:    b538        8.      PUSH     {r3-r5,lr}
        0x0001861e:    4604        .F      MOV      r4,r0
        0x00018620:    f7fffeac    ....    BL       am_hal_interrupt_master_disable ; 0x1837c
        0x00018624:    9000        ..      STR      r0,[sp,#0]
        0x00018626:    2100        .!      MOVS     r1,#0
        0x00018628:    2002        .       MOVS     r0,#2
        0x0001862a:    f000f81d    ....    BL       am_hal_daxi_control ; 0x18668
        0x0001862e:    78a0        .x      LDRB     r0,[r4,#2]
        0x00018630:    7861        ax      LDRB     r1,[r4,#1]
        0x00018632:    f44f7240    O.@r    MOV      r2,#0x300
        0x00018636:    f0000001    ....    AND      r0,r0,#1
        0x0001863a:    ea022101    ...!    AND      r1,r2,r1,LSL #8
        0x0001863e:    4308        .C      ORRS     r0,r0,r1
        0x00018640:    7821        !x      LDRB     r1,[r4,#0]
        0x00018642:    ea404001    @..@    ORR      r0,r0,r1,LSL #16
        0x00018646:    f04f4190    O..A    MOV      r1,#0x48000000
        0x0001864a:    6508        .e      STR      r0,[r1,#0x50]
        0x0001864c:    4804        .H      LDR      r0,[pc,#16] ; [0x18660] = 0x47ff0000
        0x0001864e:    4905        .I      LDR      r1,[pc,#20] ; [0x18664] = 0x10000250
        0x00018650:    6800        .h      LDR      r0,[r0,#0]
        0x00018652:    6008        .`      STR      r0,[r1,#0]
        0x00018654:    9800        ..      LDR      r0,[sp,#0]
        0x00018656:    f7fffe95    ....    BL       am_hal_interrupt_master_set ; 0x18384
        0x0001865a:    2000        .       MOVS     r0,#0
        0x0001865c:    bd38        8.      POP      {r3-r5,pc}
    $d
        0x0001865e:    0000        ..      DCW    0
        0x00018660:    47ff0000    ...G    DCD    1207894016
        0x00018664:    10000250    P...    DCD    268436048
    $t
    i.am_hal_daxi_control
    am_hal_daxi_control
        0x00018668:    e92d43f0    -..C    PUSH     {r4-r9,lr}
        0x0001866c:    4e4c        LN      LDR      r6,[pc,#304] ; [0x187a0] = 0x47ff0000
        0x0001866e:    4f4d        MO      LDR      r7,[pc,#308] ; [0x187a4] = 0x10000250
        0x00018670:    b083        ..      SUB      sp,sp,#0xc
        0x00018672:    f04f4590    O..E    MOV      r5,#0x48000000
        0x00018676:    2801        .(      CMP      r0,#1
        0x00018678:    d059        Y.      BEQ      0x1872e ; am_hal_daxi_control + 198
        0x0001867a:    4c4b        KL      LDR      r4,[pc,#300] ; [0x187a8] = 0x10000058
        0x0001867c:    2802        .(      CMP      r0,#2
        0x0001867e:    d002        ..      BEQ      0x18686 ; am_hal_daxi_control + 30
        0x00018680:    2803        .(      CMP      r0,#3
        0x00018682:    d05d        ].      BEQ      0x18740 ; am_hal_daxi_control + 216
        0x00018684:    e060        `.      B        0x18748 ; am_hal_daxi_control + 224
        0x00018686:    4849        IH      LDR      r0,[pc,#292] ; [0x187ac] = 0xf0000004
        0x00018688:    4468        hD      ADD      r0,sp,r0
        0x0001868a:    f5b02fc0    .../    CMP      r0,#0x60000
        0x0001868e:    d300        ..      BCC      0x18692 ; am_hal_daxi_control + 42
        0x00018690:    e7fe        ..      B        0x18690 ; am_hal_daxi_control + 40
        0x00018692:    f7fffe73    ..s.    BL       am_hal_interrupt_master_disable ; 0x1837c
        0x00018696:    9000        ..      STR      r0,[sp,#0]
        0x00018698:    f3bf8f4f    ..O.    DSB      
        0x0001869c:    6d68        hm      LDR      r0,[r5,#0x54]
        0x0001869e:    f0400001    @...    ORR      r0,r0,#1
        0x000186a2:    6568        he      STR      r0,[r5,#0x54]
        0x000186a4:    6831        1h      LDR      r1,[r6,#0]
        0x000186a6:    6039        9`      STR      r1,[r7,#0]
        0x000186a8:    6d68        hm      LDR      r0,[r5,#0x54]
        0x000186aa:    f0400002    @...    ORR      r0,r0,#2
        0x000186ae:    6568        he      STR      r0,[r5,#0x54]
        0x000186b0:    6039        9`      STR      r1,[r7,#0]
        0x000186b2:    6821        !h      LDR      r1,[r4,#0]
        0x000186b4:    2900        .)      CMP      r1,#0
        0x000186b6:    d036        6.      BEQ      0x18726 ; am_hal_daxi_control + 190
        0x000186b8:    68a0        .h      LDR      r0,[r4,#8]
        0x000186ba:    6800        .h      LDR      r0,[r0,#0]
        0x000186bc:    6862        bh      LDR      r2,[r4,#4]
        0x000186be:    ea320000    2...    BICS     r0,r2,r0
        0x000186c2:    d130        0.      BNE      0x18726 ; am_hal_daxi_control + 190
        0x000186c4:    483a        :H      LDR      r0,[pc,#232] ; [0x187b0] = 0x1000024c
        0x000186c6:    6800        .h      LDR      r0,[r0,#0]
        0x000186c8:    b1d0        ..      CBZ      r0,0x18700 ; am_hal_daxi_control + 152
        0x000186ca:    2000        .       MOVS     r0,#0
        0x000186cc:    6008        .`      STR      r0,[r1,#0]
        0x000186ce:    6108        .a      STR      r0,[r1,#0x10]
        0x000186d0:    6208        .b      STR      r0,[r1,#0x20]
        0x000186d2:    6308        .c      STR      r0,[r1,#0x30]
        0x000186d4:    f3bf8f4f    ..O.    DSB      
        0x000186d8:    6d68        hm      LDR      r0,[r5,#0x54]
        0x000186da:    f0400001    @...    ORR      r0,r0,#1
        0x000186de:    6568        he      STR      r0,[r5,#0x54]
        0x000186e0:    6830        0h      LDR      r0,[r6,#0]
        0x000186e2:    6038        8`      STR      r0,[r7,#0]
        0x000186e4:    6d69        im      LDR      r1,[r5,#0x54]
        0x000186e6:    f0410102    A...    ORR      r1,r1,#2
        0x000186ea:    6569        ie      STR      r1,[r5,#0x54]
        0x000186ec:    6038        8`      STR      r0,[r7,#0]
        0x000186ee:    f8d41000    ....    LDR.W    r1,[r4,#0]
        0x000186f2:    2000        .       MOVS     r0,#0
        0x000186f4:    eb011200    ....    ADD      r2,r1,r0,LSL #4
        0x000186f8:    6812        .h      LDR      r2,[r2,#0]
        0x000186fa:    1c40        @.      ADDS     r0,r0,#1
        0x000186fc:    2804        .(      CMP      r0,#4
        0x000186fe:    d3f9        ..      BCC      0x186f4 ; am_hal_daxi_control + 140
        0x00018700:    6820         h      LDR      r0,[r4,#0]
        0x00018702:    2100        .!      MOVS     r1,#0
        0x00018704:    6802        .h      LDR      r2,[r0,#0]
        0x00018706:    6802        .h      LDR      r2,[r0,#0]
        0x00018708:    6802        .h      LDR      r2,[r0,#0]
        0x0001870a:    6802        .h      LDR      r2,[r0,#0]
        0x0001870c:    6802        .h      LDR      r2,[r0,#0]
        0x0001870e:    6802        .h      LDR      r2,[r0,#0]
        0x00018710:    1c49        I.      ADDS     r1,r1,#1
        0x00018712:    291e        .)      CMP      r1,#0x1e
        0x00018714:    d3f6        ..      BCC      0x18704 ; am_hal_daxi_control + 156
        0x00018716:    f3bf8f4f    ..O.    DSB      
        0x0001871a:    6d68        hm      LDR      r0,[r5,#0x54]
        0x0001871c:    f0400002    @...    ORR      r0,r0,#2
        0x00018720:    6568        he      STR      r0,[r5,#0x54]
        0x00018722:    6830        0h      LDR      r0,[r6,#0]
        0x00018724:    6038        8`      STR      r0,[r7,#0]
        0x00018726:    9800        ..      LDR      r0,[sp,#0]
        0x00018728:    f7fffe2c    ..,.    BL       am_hal_interrupt_master_set ; 0x18384
        0x0001872c:    e034        4.      B        0x18798 ; am_hal_daxi_control + 304
        0x0001872e:    f3bf8f4f    ..O.    DSB      
        0x00018732:    6d68        hm      LDR      r0,[r5,#0x54]
        0x00018734:    f0400002    @...    ORR      r0,r0,#2
        0x00018738:    6568        he      STR      r0,[r5,#0x54]
        0x0001873a:    6830        0h      LDR      r0,[r6,#0]
        0x0001873c:    6038        8`      STR      r0,[r7,#0]
        0x0001873e:    e02b        +.      B        0x18798 ; am_hal_daxi_control + 304
        0x00018740:    b111        ..      CBZ      r1,0x18748 ; am_hal_daxi_control + 224
        0x00018742:    f0110f0f    ....    TST      r1,#0xf
        0x00018746:    d003        ..      BEQ      0x18750 ; am_hal_daxi_control + 232
        0x00018748:    b003        ..      ADD      sp,sp,#0xc
        0x0001874a:    2006        .       MOVS     r0,#6
        0x0001874c:    e8bd83f0    ....    POP      {r4-r9,pc}
        0x00018750:    e9d45701    ...W    LDRD     r5,r7,[r4,#4]
        0x00018754:    4a17        .J      LDR      r2,[pc,#92] ; [0x187b4] = 0x10000064
        0x00018756:    f8d4c000    ....    LDR      r12,[r4,#0]
        0x0001875a:    2000        .       MOVS     r0,#0
        0x0001875c:    f1010840    ..@.    ADD      r8,r1,#0x40
        0x00018760:    eb021300    ....    ADD      r3,r2,r0,LSL #4
        0x00018764:    681e        .h      LDR      r6,[r3,#0]
        0x00018766:    428e        .B      CMP      r6,r1
        0x00018768:    d80a        ..      BHI      0x18780 ; am_hal_daxi_control + 280
        0x0001876a:    f8d39004    ....    LDR      r9,[r3,#4]
        0x0001876e:    444e        ND      ADD      r6,r6,r9
        0x00018770:    45b0        .E      CMP      r8,r6
        0x00018772:    d205        ..      BCS      0x18780 ; am_hal_daxi_control + 280
        0x00018774:    eb021200    ....    ADD      r2,r2,r0,LSL #4
        0x00018778:    468c        .F      MOV      r12,r1
        0x0001877a:    6897        .h      LDR      r7,[r2,#8]
        0x0001877c:    68dd        .h      LDR      r5,[r3,#0xc]
        0x0001877e:    e002        ..      B        0x18786 ; am_hal_daxi_control + 286
        0x00018780:    1c40        @.      ADDS     r0,r0,#1
        0x00018782:    2806        .(      CMP      r0,#6
        0x00018784:    d3ec        ..      BCC      0x18760 ; am_hal_daxi_control + 248
        0x00018786:    f8c4c000    ....    STR      r12,[r4,#0]
        0x0001878a:    e9c45701    ...W    STRD     r5,r7,[r4,#4]
        0x0001878e:    2806        .(      CMP      r0,#6
        0x00018790:    bf04        ..      ITT      EQ
        0x00018792:    b003        ..      ADDEQ    sp,sp,#0xc
        0x00018794:    e8bd83f0    ....    POPEQ    {r4-r9,pc}
        0x00018798:    2000        .       MOVS     r0,#0
        0x0001879a:    b003        ..      ADD      sp,sp,#0xc
        0x0001879c:    e8bd83f0    ....    POP      {r4-r9,pc}
    $d
        0x000187a0:    47ff0000    ...G    DCD    1207894016
        0x000187a4:    10000250    P...    DCD    268436048
        0x000187a8:    10000058    X...    DCD    268435544
        0x000187ac:    f0000004    ....    DCD    4026531844
        0x000187b0:    1000024c    L...    DCD    268436044
        0x000187b4:    10000064    d...    DCD    268435556
    $t
    i.am_hal_delay_us
    am_hal_delay_us
        0x000187b8:    4908        .I      LDR      r1,[pc,#32] ; [0x187dc] = 0x40021000
        0x000187ba:    0140        @.      LSLS     r0,r0,#5
        0x000187bc:    6809        .h      LDR      r1,[r1,#0]
        0x000187be:    f3c101c1    ....    UBFX     r1,r1,#3,#2
        0x000187c2:    2902        .)      CMP      r1,#2
        0x000187c4:    bf06        ..      ITTE     EQ
        0x000187c6:    0040        @.      LSLEQ    r0,r0,#1
        0x000187c8:    2115        .!      MOVEQ    r1,#0x15
        0x000187ca:    210f        .!      MOVNE    r1,#0xf
        0x000187cc:    4288        .B      CMP      r0,r1
        0x000187ce:    bf98        ..      IT       LS
        0x000187d0:    4770        pG      BXLS     lr
        0x000187d2:    1a40        @.      SUBS     r0,r0,r1
        0x000187d4:    4902        .I      LDR      r1,[pc,#8] ; [0x187e0] = 0x1b564
        0x000187d6:    6a49        Ij      LDR      r1,[r1,#0x24]
        0x000187d8:    4708        .G      BX       r1
    $d
        0x000187da:    0000        ..      DCW    0
        0x000187dc:    40021000    ...@    DCD    1073876992
        0x000187e0:    0001b564    d...    DCD    111972
    $t
    i.am_hal_delay_us_status_change
    am_hal_delay_us_status_change
        0x000187e4:    e92d47f0    -..G    PUSH     {r4-r10,lr}
        0x000187e8:    f8df8048    ..H.    LDR      r8,[pc,#72] ; [0x18834] = 0x40021000
        0x000187ec:    f8df9048    ..H.    LDR      r9,[pc,#72] ; [0x18838] = 0x1b564
        0x000187f0:    461d        .F      MOV      r5,r3
        0x000187f2:    4616        .F      MOV      r6,r2
        0x000187f4:    460f        .F      MOV      r7,r1
        0x000187f6:    4604        .F      MOV      r4,r0
        0x000187f8:    6838        8h      LDR      r0,[r7,#0]
        0x000187fa:    4030        0@      ANDS     r0,r0,r6
        0x000187fc:    42a8        .B      CMP      r0,r5
        0x000187fe:    d102        ..      BNE      0x18806 ; am_hal_delay_us_status_change + 34
        0x00018800:    2000        .       MOVS     r0,#0
        0x00018802:    e8bd87f0    ....    POP      {r4-r10,pc}
        0x00018806:    1e64        d.      SUBS     r4,r4,#1
        0x00018808:    d311        ..      BCC      0x1882e ; am_hal_delay_us_status_change + 74
        0x0001880a:    f8d81000    ....    LDR      r1,[r8,#0]
        0x0001880e:    2020                MOVS     r0,#0x20
        0x00018810:    f3c101c1    ....    UBFX     r1,r1,#3,#2
        0x00018814:    2902        .)      CMP      r1,#2
        0x00018816:    bf06        ..      ITTE     EQ
        0x00018818:    2040        @       MOVEQ    r0,#0x40
        0x0001881a:    f04f0c15    O...    MOVEQ    r12,#0x15
        0x0001881e:    f04f0c0f    O...    MOVNE    r12,#0xf
        0x00018822:    eba0000c    ....    SUB      r0,r0,r12
        0x00018826:    f8d91024    ..$.    LDR      r1,[r9,#0x24]
        0x0001882a:    4788        .G      BLX      r1
        0x0001882c:    e7e4        ..      B        0x187f8 ; am_hal_delay_us_status_change + 20
        0x0001882e:    2004        .       MOVS     r0,#4
        0x00018830:    e8bd87f0    ....    POP      {r4-r10,pc}
    $d
        0x00018834:    40021000    ...@    DCD    1073876992
        0x00018838:    0001b564    d...    DCD    111972
    $t
    i.am_hal_delay_us_status_check
    am_hal_delay_us_status_check
        0x0001883c:    e92d47f0    -..G    PUSH     {r4-r10,lr}
        0x00018840:    f8df9054    ..T.    LDR      r9,[pc,#84] ; [0x18898] = 0x40021000
        0x00018844:    f8dfa054    ..T.    LDR      r10,[pc,#84] ; [0x1889c] = 0x1b564
        0x00018848:    f8dd8020    .. .    LDR      r8,[sp,#0x20]
        0x0001884c:    461c        .F      MOV      r4,r3
        0x0001884e:    4615        .F      MOV      r5,r2
        0x00018850:    460e        .F      MOV      r6,r1
        0x00018852:    4607        .F      MOV      r7,r0
        0x00018854:    6830        0h      LDR      r0,[r6,#0]
        0x00018856:    f1b80f00    ....    CMP      r8,#0
        0x0001885a:    ea000005    ....    AND      r0,r0,r5
        0x0001885e:    d002        ..      BEQ      0x18866 ; am_hal_delay_us_status_check + 42
        0x00018860:    42a0        .B      CMP      r0,r4
        0x00018862:    d002        ..      BEQ      0x1886a ; am_hal_delay_us_status_check + 46
        0x00018864:    e004        ..      B        0x18870 ; am_hal_delay_us_status_check + 52
        0x00018866:    42a0        .B      CMP      r0,r4
        0x00018868:    d002        ..      BEQ      0x18870 ; am_hal_delay_us_status_check + 52
        0x0001886a:    2000        .       MOVS     r0,#0
        0x0001886c:    e8bd87f0    ....    POP      {r4-r10,pc}
        0x00018870:    1e7f        ..      SUBS     r7,r7,#1
        0x00018872:    d30e        ..      BCC      0x18892 ; am_hal_delay_us_status_check + 86
        0x00018874:    f8d91000    ....    LDR      r1,[r9,#0]
        0x00018878:    2020                MOVS     r0,#0x20
        0x0001887a:    f3c101c1    ....    UBFX     r1,r1,#3,#2
        0x0001887e:    2902        .)      CMP      r1,#2
        0x00018880:    bf06        ..      ITTE     EQ
        0x00018882:    2040        @       MOVEQ    r0,#0x40
        0x00018884:    2115        .!      MOVEQ    r1,#0x15
        0x00018886:    210f        .!      MOVNE    r1,#0xf
        0x00018888:    1a40        @.      SUBS     r0,r0,r1
        0x0001888a:    f8da1024    ..$.    LDR      r1,[r10,#0x24]
        0x0001888e:    4788        .G      BLX      r1
        0x00018890:    e7e0        ..      B        0x18854 ; am_hal_delay_us_status_check + 24
        0x00018892:    2004        .       MOVS     r0,#4
        0x00018894:    e8bd87f0    ....    POP      {r4-r10,pc}
    $d
        0x00018898:    40021000    ...@    DCD    1073876992
        0x0001889c:    0001b564    d...    DCD    111972
    $t
    i.am_hal_fault_status_get
    am_hal_fault_status_get
        0x000188a0:    2800        .(      CMP      r0,#0
        0x000188a2:    bf04        ..      ITT      EQ
        0x000188a4:    2006        .       MOVEQ    r0,#6
        0x000188a6:    4770        pG      BXEQ     lr
        0x000188a8:    f04f4190    O..A    MOV      r1,#0x48000000
        0x000188ac:    f8d1208c    ...     LDR      r2,[r1,#0x8c]
        0x000188b0:    f0020301    ....    AND      r3,r2,#1
        0x000188b4:    7003        .p      STRB     r3,[r0,#0]
        0x000188b6:    f3c20340    ..@.    UBFX     r3,r2,#1,#1
        0x000188ba:    7203        .r      STRB     r3,[r0,#8]
        0x000188bc:    f3c20280    ....    UBFX     r2,r2,#2,#1
        0x000188c0:    7402        .t      STRB     r2,[r0,#0x10]
        0x000188c2:    f8d12084    ...     LDR      r2,[r1,#0x84]
        0x000188c6:    60c2        .`      STR      r2,[r0,#0xc]
        0x000188c8:    6842        Bh      LDR      r2,[r0,#4]
        0x000188ca:    f8513f80    Q..?    LDR      r3,[r1,#0x80]!
        0x000188ce:    431a        .C      ORRS     r2,r2,r3
        0x000188d0:    6042        B`      STR      r2,[r0,#4]
        0x000188d2:    6942        Bi      LDR      r2,[r0,#0x14]
        0x000188d4:    6889        .h      LDR      r1,[r1,#8]
        0x000188d6:    4311        .C      ORRS     r1,r1,r2
        0x000188d8:    6141        Aa      STR      r1,[r0,#0x14]
        0x000188da:    2000        .       MOVS     r0,#0
        0x000188dc:    4770        pG      BX       lr
        0x000188de:    0000        ..      MOVS     r0,r0
    i.am_hal_gpio_pinconfig
    am_hal_gpio_pinconfig
        0x000188e0:    b403        ..      PUSH     {r0,r1}
        0x000188e2:    4912        .I      LDR      r1,[pc,#72] ; [0x1892c] = 0x40010000
        0x000188e4:    2880        .(      CMP      r0,#0x80
        0x000188e6:    bf82        ..      ITTT     HI
        0x000188e8:    2005        .       MOVHI    r0,#5
        0x000188ea:    b002        ..      ADDHI    sp,sp,#8
        0x000188ec:    4770        pG      BXHI     lr
        0x000188ee:    9a01        ..      LDR      r2,[sp,#4]
        0x000188f0:    f3c22281    ..."    UBFX     r2,r2,#10,#2
        0x000188f4:    2a01        .*      CMP      r2,#1
        0x000188f6:    d90e        ..      BLS      0x18916 ; am_hal_gpio_pinconfig + 54
        0x000188f8:    4b0d        .K      LDR      r3,[pc,#52] ; [0x18930] = 0x1b2fc
        0x000188fa:    0942        B.      LSRS     r2,r0,#5
        0x000188fc:    f04f0c01    O...    MOV      r12,#1
        0x00018900:    f8532022    S."     LDR      r2,[r3,r2,LSL #2]
        0x00018904:    f000031f    ....    AND      r3,r0,#0x1f
        0x00018908:    fa0cf303    ....    LSL      r3,r12,r3
        0x0001890c:    421a        .B      TST      r2,r3
        0x0001890e:    bf02        ..      ITTT     EQ
        0x00018910:    2007        .       MOVEQ    r0,#7
        0x00018912:    b002        ..      ADDEQ    sp,sp,#8
        0x00018914:    4770        pG      BXEQ     lr
        0x00018916:    2273        s"      MOVS     r2,#0x73
        0x00018918:    f8c12200    ..."    STR      r2,[r1,#0x200]
        0x0001891c:    9a01        ..      LDR      r2,[sp,#4]
        0x0001891e:    f8412020    A.      STR      r2,[r1,r0,LSL #2]
        0x00018922:    2000        .       MOVS     r0,#0
        0x00018924:    f8c10200    ....    STR      r0,[r1,#0x200]
        0x00018928:    b002        ..      ADD      sp,sp,#8
        0x0001892a:    4770        pG      BX       lr
    $d
        0x0001892c:    40010000    ...@    DCD    1073807360
        0x00018930:    0001b2fc    ....    DCD    111356
    $t
    i.am_hal_load_ui32
    am_hal_load_ui32
        0x00018934:    4901        .I      LDR      r1,[pc,#4] ; [0x1893c] = 0x1b564
        0x00018936:    6949        Ii      LDR      r1,[r1,#0x14]
        0x00018938:    4708        .G      BX       r1
    $d
        0x0001893a:    0000        ..      DCW    0
        0x0001893c:    0001b564    d...    DCD    111972
    $t
    i.am_hal_mram_ds_init
    am_hal_mram_ds_init
        0x00018940:    4802        .H      LDR      r0,[pc,#8] ; [0x1894c] = 0x1000023c
        0x00018942:    b510        ..      PUSH     {r4,lr}
        0x00018944:    6840        @h      LDR      r0,[r0,#4]
        0x00018946:    4780        .G      BLX      r0
        0x00018948:    2000        .       MOVS     r0,#0
        0x0001894a:    bd10        ..      POP      {r4,pc}
    $d
        0x0001894c:    1000023c    <...    DCD    268436028
    $t
    i.am_hal_mram_info_read
    am_hal_mram_info_read
        0x00018950:    e92d43f8    -..C    PUSH     {r3-r9,lr}
        0x00018954:    4617        .F      MOV      r7,r2
        0x00018956:    0002        ..      MOVS     r2,r0
        0x00018958:    461d        .F      MOV      r5,r3
        0x0001895a:    f04f0800    O...    MOV      r8,#0
        0x0001895e:    eb010007    ....    ADD      r0,r1,r7
        0x00018962:    d011        ..      BEQ      0x18988 ; am_hal_mram_info_read + 56
        0x00018964:    2a01        .*      CMP      r2,#1
        0x00018966:    bf1c        ..      ITT      NE
        0x00018968:    2001        .       MOVNE    r0,#1
        0x0001896a:    e8bd83f8    ....    POPNE    {r3-r9,pc}
        0x0001896e:    f5a16290    ...b    SUB      r2,r1,#0x480
        0x00018972:    f5b27fc0    ....    CMP      r2,#0x180
        0x00018976:    d204        ..      BCS      0x18982 ; am_hal_mram_info_read + 50
        0x00018978:    f5b06fc0    ...o    CMP      r0,#0x600
        0x0001897c:    bf98        ..      IT       LS
        0x0001897e:    4817        .H      LDRLS    r0,[pc,#92] ; [0x189dc] = 0x42002000
        0x00018980:    d90b        ..      BLS      0x1899a ; am_hal_mram_info_read + 74
        0x00018982:    2002        .       MOVS     r0,#2
        0x00018984:    e8bd83f8    ....    POP      {r3-r9,pc}
        0x00018988:    f5b17f00    ....    CMP      r1,#0x200
        0x0001898c:    d2f9        ..      BCS      0x18982 ; am_hal_mram_info_read + 50
        0x0001898e:    f5b07f00    ....    CMP      r0,#0x200
        0x00018992:    bf98        ..      IT       LS
        0x00018994:    f04f4084    O..@    MOVLS    r0,#0x42000000
        0x00018998:    d8f3        ..      BHI      0x18982 ; am_hal_mram_info_read + 50
        0x0001899a:    f8df9044    ..D.    LDR      r9,[pc,#68] ; [0x189e0] = 0x1000023c
        0x0001899e:    eb000481    ....    ADD      r4,r0,r1,LSL #2
        0x000189a2:    2001        .       MOVS     r0,#1
        0x000189a4:    f8d91000    ....    LDR      r1,[r9,#0]
        0x000189a8:    4788        .G      BLX      r1
        0x000189aa:    f7fffce7    ....    BL       am_hal_interrupt_master_disable ; 0x1837c
        0x000189ae:    2600        .&      MOVS     r6,#0
        0x000189b0:    9000        ..      STR      r0,[sp,#0]
        0x000189b2:    2f00        ./      CMP      r7,#0
        0x000189b4:    d908        ..      BLS      0x189c8 ; am_hal_mram_info_read + 120
        0x000189b6:    4620         F      MOV      r0,r4
        0x000189b8:    1d24        $.      ADDS     r4,r4,#4
        0x000189ba:    f7ffffbb    ....    BL       am_hal_load_ui32 ; 0x18934
        0x000189be:    1c76        v.      ADDS     r6,r6,#1
        0x000189c0:    f8450b04    E...    STR      r0,[r5],#4
        0x000189c4:    42b7        .B      CMP      r7,r6
        0x000189c6:    d8f6        ..      BHI      0x189b6 ; am_hal_mram_info_read + 102
        0x000189c8:    9800        ..      LDR      r0,[sp,#0]
        0x000189ca:    f7fffcdb    ....    BL       am_hal_interrupt_master_set ; 0x18384
        0x000189ce:    f8d91000    ....    LDR      r1,[r9,#0]
        0x000189d2:    2000        .       MOVS     r0,#0
        0x000189d4:    4788        .G      BLX      r1
        0x000189d6:    4640        @F      MOV      r0,r8
        0x000189d8:    e8bd83f8    ....    POP      {r3-r9,pc}
    $d
        0x000189dc:    42002000    . .B    DCD    1107304448
        0x000189e0:    1000023c    <...    DCD    268436028
    $t
    i.am_hal_pwrctrl_control
    am_hal_pwrctrl_control
        0x000189e4:    e92d4ff0    -..O    PUSH     {r4-r11,lr}
        0x000189e8:    b08f        ..      SUB      sp,sp,#0x3c
        0x000189ea:    f04f0800    O...    MOV      r8,#0
        0x000189ee:    46c1        .F      MOV      r9,r8
        0x000189f0:    f8cd8018    ....    STR      r8,[sp,#0x18]
        0x000189f4:    2601        .&      MOVS     r6,#1
        0x000189f6:    4ffe        .O      LDR      r7,[pc,#1016] ; [0x18df0] = 0x40021000
        0x000189f8:    4cfe        .L      LDR      r4,[pc,#1016] ; [0x18df4] = 0x40020000
        0x000189fa:    f8cd8020    .. .    STR      r8,[sp,#0x20]
        0x000189fe:    b178        x.      CBZ      r0,0x18a20 ; am_hal_pwrctrl_control + 60
        0x00018a00:    2801        .(      CMP      r0,#1
        0x00018a02:    f00081c8    ....    BEQ.W    0x18d96 ; am_hal_pwrctrl_control + 946
        0x00018a06:    2802        .(      CMP      r0,#2
        0x00018a08:    f000820e    ....    BEQ.W    0x18e28 ; am_hal_pwrctrl_control + 1092
        0x00018a0c:    2803        .(      CMP      r0,#3
        0x00018a0e:    bf0c        ..      ITE      EQ
        0x00018a10:    f8c79004    ....    STREQ    r9,[r7,#4]
        0x00018a14:    f04f0806    O...    MOVNE    r8,#6
        0x00018a18:    4640        @F      MOV      r0,r8
        0x00018a1a:    b00f        ..      ADD      sp,sp,#0x3c
        0x00018a1c:    e8bd8ff0    ....    POP      {r4-r11,pc}
        0x00018a20:    f8d40378    ..x.    LDR      r0,[r4,#0x378]
        0x00018a24:    f02050f8     ..P    BIC      r0,r0,#0x1f000000
        0x00018a28:    f8c40378    ..x.    STR      r0,[r4,#0x378]
        0x00018a2c:    f8d40358    ..X.    LDR      r0,[r4,#0x358]
        0x00018a30:    f42000f8     ...    BIC      r0,r0,#0x7c0000
        0x00018a34:    f8c40358    ..X.    STR      r0,[r4,#0x358]
        0x00018a38:    f8d40344    ..D.    LDR      r0,[r4,#0x344]
        0x00018a3c:    f0206070     .p`    BIC      r0,r0,#0xf000000
        0x00018a40:    f1006020    .. `    ADD      r0,r0,#0xa000000
        0x00018a44:    f8c40344    ..D.    STR      r0,[r4,#0x344]
        0x00018a48:    f8d40344    ..D.    LDR      r0,[r4,#0x344]
        0x00018a4c:    f42040f0     ..@    BIC      r0,r0,#0x7800
        0x00018a50:    f50040a0    ...@    ADD      r0,r0,#0x5000
        0x00018a54:    f8c40344    ..D.    STR      r0,[r4,#0x344]
        0x00018a58:    f8d40358    ..X.    LDR      r0,[r4,#0x358]
        0x00018a5c:    f44050f0    @..P    ORR      r0,r0,#0x1e00
        0x00018a60:    f8c40358    ..X.    STR      r0,[r4,#0x358]
        0x00018a64:    f8d40354    ..T.    LDR      r0,[r4,#0x354]
        0x00018a68:    f44010f0    @...    ORR      r0,r0,#0x1e0000
        0x00018a6c:    f8c40354    ..T.    STR      r0,[r4,#0x354]
        0x00018a70:    f8d40360    ..`.    LDR      r0,[r4,#0x360]
        0x00018a74:    f0407070    @.pp    ORR      r0,r0,#0x3c00000
        0x00018a78:    f8c40360    ..`.    STR      r0,[r4,#0x360]
        0x00018a7c:    f8d40360    ..`.    LDR      r0,[r4,#0x360]
        0x00018a80:    f44010f0    @...    ORR      r0,r0,#0x1e0000
        0x00018a84:    f8c40360    ..`.    STR      r0,[r4,#0x360]
        0x00018a88:    f8d4036c    ..l.    LDR      r0,[r4,#0x36c]
        0x00018a8c:    0e81        ..      LSRS     r1,r0,#26
        0x00018a8e:    f8d40370    ..p.    LDR      r0,[r4,#0x370]
        0x00018a92:    f361609f    a..`    BFI      r0,r1,#26,#6
        0x00018a96:    f8c40370    ..p.    STR      r0,[r4,#0x370]
        0x00018a9a:    f8d40380    ....    LDR      r0,[r4,#0x380]
        0x00018a9e:    f0404000    @..@    ORR      r0,r0,#0x80000000
        0x00018aa2:    f8c40380    ....    STR      r0,[r4,#0x380]
        0x00018aa6:    f8d40380    ....    LDR      r0,[r4,#0x380]
        0x00018aaa:    f0404080    @..@    ORR      r0,r0,#0x40000000
        0x00018aae:    f8c40380    ....    STR      r0,[r4,#0x380]
        0x00018ab2:    f8d40370    ..p.    LDR      r0,[r4,#0x370]
        0x00018ab6:    4dd0        .M      LDR      r5,[pc,#832] ; [0x18df8] = 0x1000000c
        0x00018ab8:    f3c05005    ...P    UBFX     r0,r0,#20,#6
        0x00018abc:    6168        ha      STR      r0,[r5,#0x14]
        0x00018abe:    f8d40370    ..p.    LDR      r0,[r4,#0x370]
        0x00018ac2:    f020707c     .|p    BIC      r0,r0,#0x3f00000
        0x00018ac6:    f8c40370    ..p.    STR      r0,[r4,#0x370]
        0x00018aca:    2007        .       MOVS     r0,#7
        0x00018acc:    f8c4033c    ..<.    STR      r0,[r4,#0x33c]
        0x00018ad0:    f8d40340    ..@.    LDR      r0,[r4,#0x340]
        0x00018ad4:    f0207070     .pp    BIC      r0,r0,#0x3c00000
        0x00018ad8:    f8c40340    ..@.    STR      r0,[r4,#0x340]
        0x00018adc:    f8d40340    ..@.    LDR      r0,[r4,#0x340]
        0x00018ae0:    f42060f8     ..`    BIC      r0,r0,#0x7c0
        0x00018ae4:    3040        @0      ADDS     r0,r0,#0x40
        0x00018ae6:    f8c40340    ..@.    STR      r0,[r4,#0x340]
        0x00018aea:    6868        hh      LDR      r0,[r5,#4]
        0x00018aec:    f1b03fff    ...?    CMP      r0,#0xffffffff
        0x00018af0:    d10d        ..      BNE      0x18b0e ; am_hal_pwrctrl_control + 298
        0x00018af2:    2201        ."      MOVS     r2,#1
        0x00018af4:    1d2b        +.      ADDS     r3,r5,#4
        0x00018af6:    f24041c4    @..A    MOV      r1,#0x4c4
        0x00018afa:    4610        .F      MOV      r0,r2
        0x00018afc:    f7ffff28    ..(.    BL       am_hal_mram_info_read ; 0x18950
        0x00018b00:    b918        ..      CBNZ     r0,0x18b0a ; am_hal_pwrctrl_control + 294
        0x00018b02:    6868        hh      LDR      r0,[r5,#4]
        0x00018b04:    f1b03fff    ...?    CMP      r0,#0xffffffff
        0x00018b08:    d101        ..      BNE      0x18b0e ; am_hal_pwrctrl_control + 298
        0x00018b0a:    f8c59004    ....    STR      r9,[r5,#4]
        0x00018b0e:    6868        hh      LDR      r0,[r5,#4]
        0x00018b10:    2806        .(      CMP      r0,#6
        0x00018b12:    bf24        $.      ITT      CS
        0x00018b14:    68e8        .h      LDRCS    r0,[r5,#0xc]
        0x00018b16:    f1b03fff    ...?    CMPCS    r0,#0xffffffff
        0x00018b1a:    d124        $.      BNE      0x18b66 ; am_hal_pwrctrl_control + 386
        0x00018b1c:    7868        hx      LDRB     r0,[r5,#1]
        0x00018b1e:    2800        .(      CMP      r0,#0
        0x00018b20:    bf08        ..      IT       EQ
        0x00018b22:    706e        np      STRBEQ   r6,[r5,#1]
        0x00018b24:    6c60        `l      LDR      r0,[r4,#0x44]
        0x00018b26:    f3c010c6    ....    UBFX     r0,r0,#7,#7
        0x00018b2a:    60e8        .`      STR      r0,[r5,#0xc]
        0x00018b2c:    f8d41378    ..x.    LDR      r1,[r4,#0x378]
        0x00018b30:    f0414100    A..A    ORR      r1,r1,#0x80000000
        0x00018b34:    f8c41378    ..x.    STR      r1,[r4,#0x378]
        0x00018b38:    2869        i(      CMP      r0,#0x69
        0x00018b3a:    bf94        ..      ITE      LS
        0x00018b3c:    f1000616    ....    ADDLS    r6,r0,#0x16
        0x00018b40:    267f        .&      MOVHI    r6,#0x7f
        0x00018b42:    6c60        `l      LDR      r0,[r4,#0x44]
        0x00018b44:    f3c010c6    ....    UBFX     r0,r0,#7,#7
        0x00018b48:    42b0        .B      CMP      r0,r6
        0x00018b4a:    d00c        ..      BEQ      0x18b66 ; am_hal_pwrctrl_control + 386
        0x00018b4c:    f7fffc16    ....    BL       am_hal_interrupt_master_disable ; 0x1837c
        0x00018b50:    9001        ..      STR      r0,[sp,#4]
        0x00018b52:    6c60        `l      LDR      r0,[r4,#0x44]
        0x00018b54:    f36610cd    f...    BFI      r0,r6,#7,#7
        0x00018b58:    6460        `d      STR      r0,[r4,#0x44]
        0x00018b5a:    2014        .       MOVS     r0,#0x14
        0x00018b5c:    f7fffe2c    ..,.    BL       am_hal_delay_us ; 0x187b8
        0x00018b60:    9801        ..      LDR      r0,[sp,#4]
        0x00018b62:    f7fffc0f    ....    BL       am_hal_interrupt_master_set ; 0x18384
        0x00018b66:    2100        .!      MOVS     r1,#0
        0x00018b68:    460a        .F      MOV      r2,r1
        0x00018b6a:    2001        .       MOVS     r0,#1
        0x00018b6c:    f7fffc58    ..X.    BL       VDDF_simobuck_boost ; 0x18420
        0x00018b70:    f8d70100    ....    LDR      r0,[r7,#0x100]
        0x00018b74:    f0400001    @...    ORR      r0,r0,#1
        0x00018b78:    f8c70100    ....    STR      r0,[r7,#0x100]
        0x00018b7c:    f2413088    A..0    MOV      r0,#0x1388
        0x00018b80:    f7fffe1a    ....    BL       am_hal_delay_us ; 0x187b8
        0x00018b84:    2100        .!      MOVS     r1,#0
        0x00018b86:    a806        ..      ADD      r0,sp,#0x18
        0x00018b88:    f001fde0    ....    BL       buck_interval_check ; 0x1a74c
        0x00018b8c:    2800        .(      CMP      r0,#0
        0x00018b8e:    f47faf43    ..C.    BNE      0x18a18 ; am_hal_pwrctrl_control + 52
        0x00018b92:    2101        .!      MOVS     r1,#1
        0x00018b94:    a808        ..      ADD      r0,sp,#0x20
        0x00018b96:    f001fdd9    ....    BL       buck_interval_check ; 0x1a74c
        0x00018b9a:    2800        .(      CMP      r0,#0
        0x00018b9c:    f47faf3c    ..<.    BNE      0x18a18 ; am_hal_pwrctrl_control + 52
        0x00018ba0:    f8d40080    ....    LDR      r0,[r4,#0x80]
        0x00018ba4:    f4205070     .pP    BIC      r0,r0,#0x3c00
        0x00018ba8:    f5005080    ...P    ADD      r0,r0,#0x1000
        0x00018bac:    f8c40080    ....    STR      r0,[r4,#0x80]
        0x00018bb0:    6e20         n      LDR      r0,[r4,#0x60]
        0x00018bb2:    f0200010     ...    BIC      r0,r0,#0x10
        0x00018bb6:    6620         f      STR      r0,[r4,#0x60]
        0x00018bb8:    6e20         n      LDR      r0,[r4,#0x60]
        0x00018bba:    f040000e    @...    ORR      r0,r0,#0xe
        0x00018bbe:    6620         f      STR      r0,[r4,#0x60]
        0x00018bc0:    6e20         n      LDR      r0,[r4,#0x60]
        0x00018bc2:    f0400001    @...    ORR      r0,r0,#1
        0x00018bc6:    6620         f      STR      r0,[r4,#0x60]
        0x00018bc8:    6e20         n      LDR      r0,[r4,#0x60]
        0x00018bca:    f4207000     ..p    BIC      r0,r0,#0x200
        0x00018bce:    6620         f      STR      r0,[r4,#0x60]
        0x00018bd0:    6e20         n      LDR      r0,[r4,#0x60]
        0x00018bd2:    f44070e0    @..p    ORR      r0,r0,#0x1c0
        0x00018bd6:    6620         f      STR      r0,[r4,#0x60]
        0x00018bd8:    6e20         n      LDR      r0,[r4,#0x60]
        0x00018bda:    f0400020    @. .    ORR      r0,r0,#0x20
        0x00018bde:    6620         f      STR      r0,[r4,#0x60]
        0x00018be0:    f64010c4    @...    MOV      r0,#0x9c4
        0x00018be4:    f7fffde8    ....    BL       am_hal_delay_us ; 0x187b8
        0x00018be8:    a809        ..      ADD      r0,sp,#0x24
        0x00018bea:    f8dda018    ....    LDR      r10,[sp,#0x18]
        0x00018bee:    f000fc4b    ..K.    BL       am_hal_timer_default_config_set ; 0x19488
        0x00018bf2:    201c        .       MOVS     r0,#0x1c
        0x00018bf4:    f88d0024    ..$.    STRB     r0,[sp,#0x24]
        0x00018bf8:    2702        .'      MOVS     r7,#2
        0x00018bfa:    f88d7025    ..%p    STRB     r7,[sp,#0x25]
        0x00018bfe:    a909        ..      ADD      r1,sp,#0x24
        0x00018c00:    200d        .       MOVS     r0,#0xd
        0x00018c02:    f002f943    ..C.    BL       timer_config_b1 ; 0x1ae8c
        0x00018c06:    200d        .       MOVS     r0,#0xd
        0x00018c08:    f000fd16    ....    BL       am_hal_timer_start ; 0x19638
        0x00018c0c:    200d        .       MOVS     r0,#0xd
        0x00018c0e:    f000fc8b    ....    BL       am_hal_timer_read ; 0x19528
        0x00018c12:    4681        .F      MOV      r9,r0
        0x00018c14:    4650        PF      MOV      r0,r10
        0x00018c16:    f7fffdcf    ....    BL       am_hal_delay_us ; 0x187b8
        0x00018c1a:    200d        .       MOVS     r0,#0xd
        0x00018c1c:    f000fc84    ....    BL       am_hal_timer_read ; 0x19528
        0x00018c20:    4601        .F      MOV      r1,r0
        0x00018c22:    4589        .E      CMP      r9,r1
        0x00018c24:    bf14        ..      ITE      NE
        0x00018c26:    2601        .&      MOVNE    r6,#1
        0x00018c28:    f04f36ff    O..6    MOVEQ    r6,#0xffffffff
        0x00018c2c:    f8d40080    ....    LDR      r0,[r4,#0x80]
        0x00018c30:    f3c00009    ....    UBFX     r0,r0,#0,#10
        0x00018c34:    d00e        ..      BEQ      0x18c54 ; am_hal_pwrctrl_control + 624
        0x00018c36:    bf00        ..      NOP      
        0x00018c38:    f24032ff    @..2    MOV      r2,#0x3ff
        0x00018c3c:    4290        .B      CMP      r0,r2
        0x00018c3e:    d030        0.      BEQ      0x18ca2 ; am_hal_pwrctrl_control + 702
        0x00018c40:    4589        .E      CMP      r9,r1
        0x00018c42:    d02a        *.      BEQ      0x18c9a ; am_hal_pwrctrl_control + 694
        0x00018c44:    1b92        ..      SUBS     r2,r2,r6
        0x00018c46:    4282        .B      CMP      r2,r0
        0x00018c48:    bf2c        ,.      ITE      CS
        0x00018c4a:    4430        0D      ADDCS    r0,r6
        0x00018c4c:    f24030ff    @..0    MOVCC    r0,#0x3ff
        0x00018c50:    2e00        ..      CMP      r6,#0
        0x00018c52:    da09        ..      BGE      0x18c68 ; am_hal_pwrctrl_control + 644
        0x00018c54:    2801        .(      CMP      r0,#1
        0x00018c56:    d920         .      BLS      0x18c9a ; am_hal_pwrctrl_control + 694
        0x00018c58:    4589        .E      CMP      r9,r1
        0x00018c5a:    d11e        ..      BNE      0x18c9a ; am_hal_pwrctrl_control + 694
        0x00018c5c:    f1c60101    ....    RSB      r1,r6,#1
        0x00018c60:    4281        .B      CMP      r1,r0
        0x00018c62:    bf94        ..      ITE      LS
        0x00018c64:    4430        0D      ADDLS    r0,r6
        0x00018c66:    2001        .       MOVHI    r0,#1
        0x00018c68:    b1be        ..      CBZ      r6,0x18c9a ; am_hal_pwrctrl_control + 694
        0x00018c6a:    f8d41080    ....    LDR      r1,[r4,#0x80]
        0x00018c6e:    f3600109    `...    BFI      r1,r0,#0,#10
        0x00018c72:    f8c41080    ....    STR      r1,[r4,#0x80]
        0x00018c76:    200d        .       MOVS     r0,#0xd
        0x00018c78:    f000fc56    ..V.    BL       am_hal_timer_read ; 0x19528
        0x00018c7c:    4681        .F      MOV      r9,r0
        0x00018c7e:    4650        PF      MOV      r0,r10
        0x00018c80:    f7fffd9a    ....    BL       am_hal_delay_us ; 0x187b8
        0x00018c84:    200d        .       MOVS     r0,#0xd
        0x00018c86:    f000fc4f    ..O.    BL       am_hal_timer_read ; 0x19528
        0x00018c8a:    4601        .F      MOV      r1,r0
        0x00018c8c:    f8d40080    ....    LDR      r0,[r4,#0x80]
        0x00018c90:    2e00        ..      CMP      r6,#0
        0x00018c92:    f3c00009    ....    UBFX     r0,r0,#0,#10
        0x00018c96:    dddb        ..      BLE      0x18c50 ; am_hal_pwrctrl_control + 620
        0x00018c98:    e7ce        ..      B        0x18c38 ; am_hal_pwrctrl_control + 596
        0x00018c9a:    280d        .(      CMP      r0,#0xd
        0x00018c9c:    bf98        ..      IT       LS
        0x00018c9e:    2001        .       MOVLS    r0,#1
        0x00018ca0:    d900        ..      BLS      0x18ca4 ; am_hal_pwrctrl_control + 704
        0x00018ca2:    380c        .8      SUBS     r0,r0,#0xc
        0x00018ca4:    f8d41080    ....    LDR      r1,[r4,#0x80]
        0x00018ca8:    f3600109    `...    BFI      r1,r0,#0,#10
        0x00018cac:    f8c41080    ....    STR      r1,[r4,#0x80]
        0x00018cb0:    200d        .       MOVS     r0,#0xd
        0x00018cb2:    f000fbbd    ....    BL       am_hal_timer_clear_stop ; 0x19430
        0x00018cb6:    200d        .       MOVS     r0,#0xd
        0x00018cb8:    f000fce0    ....    BL       am_hal_timer_stop ; 0x1967c
        0x00018cbc:    200d        .       MOVS     r0,#0xd
        0x00018cbe:    f000fc45    ..E.    BL       am_hal_timer_reset_config ; 0x1954c
        0x00018cc2:    a809        ..      ADD      r0,sp,#0x24
        0x00018cc4:    f8ddb020    .. .    LDR      r11,[sp,#0x20]
        0x00018cc8:    f000fbde    ....    BL       am_hal_timer_default_config_set ; 0x19488
        0x00018ccc:    201d        .       MOVS     r0,#0x1d
        0x00018cce:    f88d0024    ..$.    STRB     r0,[sp,#0x24]
        0x00018cd2:    f88d7025    ..%p    STRB     r7,[sp,#0x25]
        0x00018cd6:    a909        ..      ADD      r1,sp,#0x24
        0x00018cd8:    200d        .       MOVS     r0,#0xd
        0x00018cda:    f002f8d7    ....    BL       timer_config_b1 ; 0x1ae8c
        0x00018cde:    200d        .       MOVS     r0,#0xd
        0x00018ce0:    f000fcaa    ....    BL       am_hal_timer_start ; 0x19638
        0x00018ce4:    200d        .       MOVS     r0,#0xd
        0x00018ce6:    f000fc1f    ....    BL       am_hal_timer_read ; 0x19528
        0x00018cea:    4607        .F      MOV      r7,r0
        0x00018cec:    4658        XF      MOV      r0,r11
        0x00018cee:    f7fffd63    ..c.    BL       am_hal_delay_us ; 0x187b8
        0x00018cf2:    200d        .       MOVS     r0,#0xd
        0x00018cf4:    f000fc18    ....    BL       am_hal_timer_read ; 0x19528
        0x00018cf8:    4601        .F      MOV      r1,r0
        0x00018cfa:    428f        .B      CMP      r7,r1
        0x00018cfc:    bf0c        ..      ITE      EQ
        0x00018cfe:    f04f36ff    O..6    MOVEQ    r6,#0xffffffff
        0x00018d02:    2601        .&      MOVNE    r6,#1
        0x00018d04:    f1c6093f    ..?.    RSB      r9,r6,#0x3f
        0x00018d08:    f1c60a01    ....    RSB      r10,r6,#1
        0x00018d0c:    f8d40088    ....    LDR      r0,[r4,#0x88]
        0x00018d10:    692a        *i      LDR      r2,[r5,#0x10]
        0x00018d12:    f000003f    ..?.    AND      r0,r0,#0x3f
        0x00018d16:    f1b23fff    ...?    CMP      r2,#0xffffffff
        0x00018d1a:    bf08        ..      IT       EQ
        0x00018d1c:    6128        (a      STREQ    r0,[r5,#0x10]
        0x00018d1e:    2e00        ..      CMP      r6,#0
        0x00018d20:    dd08        ..      BLE      0x18d34 ; am_hal_pwrctrl_control + 848
        0x00018d22:    283f        ?(      CMP      r0,#0x3f
        0x00018d24:    d026        &.      BEQ      0x18d74 ; am_hal_pwrctrl_control + 912
        0x00018d26:    428f        .B      CMP      r7,r1
        0x00018d28:    d020         .      BEQ      0x18d6c ; am_hal_pwrctrl_control + 904
        0x00018d2a:    4581        .E      CMP      r9,r0
        0x00018d2c:    bf38        8.      IT       CC
        0x00018d2e:    203f        ?       MOVCC    r0,#0x3f
        0x00018d30:    d209        ..      BCS      0x18d46 ; am_hal_pwrctrl_control + 866
        0x00018d32:    e009        ..      B        0x18d48 ; am_hal_pwrctrl_control + 868
        0x00018d34:    da08        ..      BGE      0x18d48 ; am_hal_pwrctrl_control + 868
        0x00018d36:    2801        .(      CMP      r0,#1
        0x00018d38:    d918        ..      BLS      0x18d6c ; am_hal_pwrctrl_control + 904
        0x00018d3a:    428f        .B      CMP      r7,r1
        0x00018d3c:    d116        ..      BNE      0x18d6c ; am_hal_pwrctrl_control + 904
        0x00018d3e:    4582        .E      CMP      r10,r0
        0x00018d40:    bf88        ..      IT       HI
        0x00018d42:    2001        .       MOVHI    r0,#1
        0x00018d44:    d800        ..      BHI      0x18d48 ; am_hal_pwrctrl_control + 868
        0x00018d46:    4430        0D      ADD      r0,r0,r6
        0x00018d48:    f8d41088    ....    LDR      r1,[r4,#0x88]
        0x00018d4c:    f3600105    `...    BFI      r1,r0,#0,#6
        0x00018d50:    f8c41088    ....    STR      r1,[r4,#0x88]
        0x00018d54:    200d        .       MOVS     r0,#0xd
        0x00018d56:    f000fbe7    ....    BL       am_hal_timer_read ; 0x19528
        0x00018d5a:    4607        .F      MOV      r7,r0
        0x00018d5c:    4658        XF      MOV      r0,r11
        0x00018d5e:    f7fffd2b    ..+.    BL       am_hal_delay_us ; 0x187b8
        0x00018d62:    200d        .       MOVS     r0,#0xd
        0x00018d64:    f000fbe0    ....    BL       am_hal_timer_read ; 0x19528
        0x00018d68:    4601        .F      MOV      r1,r0
        0x00018d6a:    e7cf        ..      B        0x18d0c ; am_hal_pwrctrl_control + 808
        0x00018d6c:    2804        .(      CMP      r0,#4
        0x00018d6e:    bf98        ..      IT       LS
        0x00018d70:    2001        .       MOVLS    r0,#1
        0x00018d72:    d900        ..      BLS      0x18d76 ; am_hal_pwrctrl_control + 914
        0x00018d74:    1ec0        ..      SUBS     r0,r0,#3
        0x00018d76:    f8d41088    ....    LDR      r1,[r4,#0x88]
        0x00018d7a:    f3600105    `...    BFI      r1,r0,#0,#6
        0x00018d7e:    f8c41088    ....    STR      r1,[r4,#0x88]
        0x00018d82:    200d        .       MOVS     r0,#0xd
        0x00018d84:    f000fb54    ..T.    BL       am_hal_timer_clear_stop ; 0x19430
        0x00018d88:    200d        .       MOVS     r0,#0xd
        0x00018d8a:    f000fc77    ..w.    BL       am_hal_timer_stop ; 0x1967c
        0x00018d8e:    200d        .       MOVS     r0,#0xd
        0x00018d90:    f000fbdc    ....    BL       am_hal_timer_reset_config ; 0x1954c
        0x00018d94:    e640        @.      B        0x18a18 ; am_hal_pwrctrl_control + 52
        0x00018d96:    4819        .H      LDR      r0,[pc,#100] ; [0x18dfc] = 0x1b318
        0x00018d98:    e9d01052    ..R.    LDRD     r1,r0,[r0,#0x148]
        0x00018d9c:    6809        .h      LDR      r1,[r1,#0]
        0x00018d9e:    4008        .@      ANDS     r0,r0,r1
        0x00018da0:    bf18        ..      IT       NE
        0x00018da2:    2001        .       MOVNE    r0,#1
        0x00018da4:    2800        .(      CMP      r0,#0
        0x00018da6:    f43fae37    ?.7.    BEQ      0x18a18 ; am_hal_pwrctrl_control + 52
        0x00018daa:    2301        .#      MOVS     r3,#1
        0x00018dac:    461a        .F      MOV      r2,r3
        0x00018dae:    4914        .I      LDR      r1,[pc,#80] ; [0x18e00] = 0x400c0a7c
        0x00018db0:    2064        d       MOVS     r0,#0x64
        0x00018db2:    f7fffd17    ....    BL       am_hal_delay_us_status_change ; 0x187e4
        0x00018db6:    2800        .(      CMP      r0,#0
        0x00018db8:    bf1c        ..      ITT      NE
        0x00018dba:    b00f        ..      ADDNE    sp,sp,#0x3c
        0x00018dbc:    e8bd8ff0    ....    POPNE    {r4-r11,pc}
        0x00018dc0:    2301        .#      MOVS     r3,#1
        0x00018dc2:    461a        .F      MOV      r2,r3
        0x00018dc4:    490f        .I      LDR      r1,[pc,#60] ; [0x18e04] = 0x400c1f10
        0x00018dc6:    2064        d       MOVS     r0,#0x64
        0x00018dc8:    f7fffd0c    ....    BL       am_hal_delay_us_status_change ; 0x187e4
        0x00018dcc:    2800        .(      CMP      r0,#0
        0x00018dce:    bf1c        ..      ITT      NE
        0x00018dd0:    b00f        ..      ADDNE    sp,sp,#0x3c
        0x00018dd2:    e8bd8ff0    ....    POPNE    {r4-r11,pc}
        0x00018dd6:    480c        .H      LDR      r0,[pc,#48] ; [0x18e08] = 0x400c0a80
        0x00018dd8:    6801        .h      LDR      r1,[r0,#0]
        0x00018dda:    f0410101    A...    ORR      r1,r1,#1
        0x00018dde:    6001        .`      STR      r1,[r0,#0]
        0x00018de0:    200f        .       MOVS     r0,#0xf
        0x00018de2:    f7fffce9    ....    BL       am_hal_delay_us ; 0x187b8
        0x00018de6:    2310        .#      MOVS     r3,#0x10
        0x00018de8:    2200        ."      MOVS     r2,#0
        0x00018dea:    4804        .H      LDR      r0,[pc,#16] ; [0x18dfc] = 0x1b318
        0x00018dec:    0419        ..      LSLS     r1,r3,#16
        0x00018dee:    e00d        ..      B        0x18e0c ; am_hal_pwrctrl_control + 1064
    $d
        0x00018df0:    40021000    ...@    DCD    1073876992
        0x00018df4:    40020000    ...@    DCD    1073872896
        0x00018df8:    1000000c    ....    DCD    268435468
        0x00018dfc:    0001b318    ....    DCD    111384
        0x00018e00:    400c0a7c    |..@    DCD    1074530940
        0x00018e04:    400c1f10    ...@    DCD    1074536208
        0x00018e08:    400c0a80    ...@    DCD    1074530944
    $t
        0x00018e0c:    e9d04552    ..RE    LDRD     r4,r5,[r0,#0x148]
        0x00018e10:    480a        .H      LDR      r0,[pc,#40] ; [0x18e3c] = 0x40021004
        0x00018e12:    f000ffd5    ....    BL       am_hal_util_write_and_wait ; 0x19dc0
        0x00018e16:    6820         h      LDR      r0,[r4,#0]
        0x00018e18:    4228        (B      TST      r0,r5
        0x00018e1a:    bf1e        ..      ITTT     NE
        0x00018e1c:    4630        0F      MOVNE    r0,r6
        0x00018e1e:    b00f        ..      ADDNE    sp,sp,#0x3c
        0x00018e20:    e8bd8ff0    ....    POPNE    {r4-r11,pc}
        0x00018e24:    e5f8        ..      B        0x18a18 ; am_hal_pwrctrl_control + 52
        0x00018e26:    bf00        ..      NOP      
        0x00018e28:    f8d40124    ..$.    LDR      r0,[r4,#0x124]
        0x00018e2c:    f02000fc     ...    BIC      r0,r0,#0xfc
        0x00018e30:    3080        .0      ADDS     r0,r0,#0x80
        0x00018e32:    f8c40124    ..$.    STR      r0,[r4,#0x124]
        0x00018e36:    f8c46120    .. a    STR      r6,[r4,#0x120]
        0x00018e3a:    e5ed        ..      B        0x18a18 ; am_hal_pwrctrl_control + 52
    $d
        0x00018e3c:    40021004    ...@    DCD    1073876996
    $t
    i.am_hal_pwrctrl_low_power_init
    am_hal_pwrctrl_low_power_init
        0x00018e40:    b5f8        ..      PUSH     {r3-r7,lr}
        0x00018e42:    f7fffd7d    ..}.    BL       am_hal_mram_ds_init ; 0x18940
        0x00018e46:    4863        cH      LDR      r0,[pc,#396] ; [0x18fd4] = 0x1b310
        0x00018e48:    f000f8d6    ....    BL       am_hal_pwrctrl_mcu_memory_config ; 0x18ff8
        0x00018e4c:    4d62        bM      LDR      r5,[pc,#392] ; [0x18fd8] = 0x1b30c
        0x00018e4e:    4c63        cL      LDR      r4,[pc,#396] ; [0x18fdc] = 0x40021000
        0x00018e50:    7829        )x      LDRB     r1,[r5,#0]
        0x00018e52:    6a60        `j      LDR      r0,[r4,#0x24]
        0x00018e54:    f3610001    a...    BFI      r0,r1,#0,#2
        0x00018e58:    6260        `b      STR      r0,[r4,#0x24]
        0x00018e5a:    2001        .       MOVS     r0,#1
        0x00018e5c:    9000        ..      STR      r0,[sp,#0]
        0x00018e5e:    6a63        cj      LDR      r3,[r4,#0x24]
        0x00018e60:    2203        ."      MOVS     r2,#3
        0x00018e62:    495f        _I      LDR      r1,[pc,#380] ; [0x18fe0] = 0x40021028
        0x00018e64:    2005        .       MOVS     r0,#5
        0x00018e66:    f7fffce9    ....    BL       am_hal_delay_us_status_check ; 0x1883c
        0x00018e6a:    2800        .(      CMP      r0,#0
        0x00018e6c:    d12f        /.      BNE      0x18ece ; am_hal_pwrctrl_low_power_init + 142
        0x00018e6e:    6aa0        .j      LDR      r0,[r4,#0x28]
        0x00018e70:    6a61        aj      LDR      r1,[r4,#0x24]
        0x00018e72:    f0000003    ....    AND      r0,r0,#3
        0x00018e76:    f0010103    ....    AND      r1,r1,#3
        0x00018e7a:    4288        .B      CMP      r0,r1
        0x00018e7c:    d127        '.      BNE      0x18ece ; am_hal_pwrctrl_low_power_init + 142
        0x00018e7e:    7869        ix      LDRB     r1,[r5,#1]
        0x00018e80:    6ae0        .j      LDR      r0,[r4,#0x2c]
        0x00018e82:    f3610083    a...    BFI      r0,r1,#2,#2
        0x00018e86:    62e0        .b      STR      r0,[r4,#0x2c]
        0x00018e88:    78a9        .x      LDRB     r1,[r5,#2]
        0x00018e8a:    6ae0        .j      LDR      r0,[r4,#0x2c]
        0x00018e8c:    f3611005    a...    BFI      r0,r1,#4,#2
        0x00018e90:    62e0        .b      STR      r0,[r4,#0x2c]
        0x00018e92:    6ae0        .j      LDR      r0,[r4,#0x2c]
        0x00018e94:    f02000c0     ...    BIC      r0,r0,#0xc0
        0x00018e98:    62e0        .b      STR      r0,[r4,#0x2c]
        0x00018e9a:    6ae0        .j      LDR      r0,[r4,#0x2c]
        0x00018e9c:    f4207040     .@p    BIC      r0,r0,#0x300
        0x00018ea0:    62e0        .b      STR      r0,[r4,#0x2c]
        0x00018ea2:    78e8        .x      LDRB     r0,[r5,#3]
        0x00018ea4:    2800        .(      CMP      r0,#0
        0x00018ea6:    bf04        ..      ITT      EQ
        0x00018ea8:    6ae0        .j      LDREQ    r0,[r4,#0x2c]
        0x00018eaa:    f0400003    @...    ORREQ    r0,r0,#3
        0x00018eae:    d008        ..      BEQ      0x18ec2 ; am_hal_pwrctrl_low_power_init + 130
        0x00018eb0:    2801        .(      CMP      r0,#1
        0x00018eb2:    d002        ..      BEQ      0x18eba ; am_hal_pwrctrl_low_power_init + 122
        0x00018eb4:    2803        .(      CMP      r0,#3
        0x00018eb6:    d006        ..      BEQ      0x18ec6 ; am_hal_pwrctrl_low_power_init + 134
        0x00018eb8:    e009        ..      B        0x18ece ; am_hal_pwrctrl_low_power_init + 142
        0x00018eba:    6ae0        .j      LDR      r0,[r4,#0x2c]
        0x00018ebc:    f0200003     ...    BIC      r0,r0,#3
        0x00018ec0:    1c80        ..      ADDS     r0,r0,#2
        0x00018ec2:    62e0        .b      STR      r0,[r4,#0x2c]
        0x00018ec4:    e003        ..      B        0x18ece ; am_hal_pwrctrl_low_power_init + 142
        0x00018ec6:    6ae0        .j      LDR      r0,[r4,#0x2c]
        0x00018ec8:    f0200003     ...    BIC      r0,r0,#3
        0x00018ecc:    62e0        .b      STR      r0,[r4,#0x2c]
        0x00018ece:    4845        EH      LDR      r0,[pc,#276] ; [0x18fe4] = 0x10000354
        0x00018ed0:    4945        EI      LDR      r1,[pc,#276] ; [0x18fe8] = 0xcd735a03
        0x00018ed2:    4d46        FM      LDR      r5,[pc,#280] ; [0x18fec] = 0x40020000
        0x00018ed4:    6802        .h      LDR      r2,[r0,#0]
        0x00018ed6:    428a        .B      CMP      r2,r1
        0x00018ed8:    d039        9.      BEQ      0x18f4e ; am_hal_pwrctrl_low_power_init + 270
        0x00018eda:    f8d5233c    ..<#    LDR      r2,[r5,#0x33c]
        0x00018ede:    6042        B`      STR      r2,[r0,#4]
        0x00018ee0:    f8d52340    ..@#    LDR      r2,[r5,#0x340]
        0x00018ee4:    6082        .`      STR      r2,[r0,#8]
        0x00018ee6:    f8d52344    ..D#    LDR      r2,[r5,#0x344]
        0x00018eea:    60c2        .`      STR      r2,[r0,#0xc]
        0x00018eec:    f8d5234c    ..L#    LDR      r2,[r5,#0x34c]
        0x00018ef0:    6102        .a      STR      r2,[r0,#0x10]
        0x00018ef2:    f8d52354    ..T#    LDR      r2,[r5,#0x354]
        0x00018ef6:    6142        Ba      STR      r2,[r0,#0x14]
        0x00018ef8:    f8d52358    ..X#    LDR      r2,[r5,#0x358]
        0x00018efc:    6182        .a      STR      r2,[r0,#0x18]
        0x00018efe:    f8d52360    ..`#    LDR      r2,[r5,#0x360]
        0x00018f02:    61c2        .a      STR      r2,[r0,#0x1c]
        0x00018f04:    f8d5236c    ..l#    LDR      r2,[r5,#0x36c]
        0x00018f08:    6202        .b      STR      r2,[r0,#0x20]
        0x00018f0a:    f8d52370    ..p#    LDR      r2,[r5,#0x370]
        0x00018f0e:    6242        Bb      STR      r2,[r0,#0x24]
        0x00018f10:    f8d52378    ..x#    LDR      r2,[r5,#0x378]
        0x00018f14:    6282        .b      STR      r2,[r0,#0x28]
        0x00018f16:    f8d52080    ...     LDR      r2,[r5,#0x80]
        0x00018f1a:    62c2        .b      STR      r2,[r0,#0x2c]
        0x00018f1c:    f8d52088    ...     LDR      r2,[r5,#0x88]
        0x00018f20:    6302        .c      STR      r2,[r0,#0x30]
        0x00018f22:    6c6a        jl      LDR      r2,[r5,#0x44]
        0x00018f24:    6342        Bc      STR      r2,[r0,#0x34]
        0x00018f26:    f8d5237c    ..|#    LDR      r2,[r5,#0x37c]
        0x00018f2a:    6382        .c      STR      r2,[r0,#0x38]
        0x00018f2c:    f8d52380    ...#    LDR      r2,[r5,#0x380]
        0x00018f30:    63c2        .c      STR      r2,[r0,#0x3c]
        0x00018f32:    6e2a        *n      LDR      r2,[r5,#0x60]
        0x00018f34:    6402        .d      STR      r2,[r0,#0x40]
        0x00018f36:    6aaa        .j      LDR      r2,[r5,#0x28]
        0x00018f38:    6442        Bd      STR      r2,[r0,#0x44]
        0x00018f3a:    f8d52124    ..$!    LDR      r2,[r5,#0x124]
        0x00018f3e:    6482        .d      STR      r2,[r0,#0x48]
        0x00018f40:    f8d52108    ...!    LDR      r2,[r5,#0x108]
        0x00018f44:    64c2        .d      STR      r2,[r0,#0x4c]
        0x00018f46:    4a2a        *J      LDR      r2,[pc,#168] ; [0x18ff0] = 0x4002042c
        0x00018f48:    6812        .h      LDR      r2,[r2,#0]
        0x00018f4a:    6502        .e      STR      r2,[r0,#0x50]
        0x00018f4c:    6001        .`      STR      r1,[r0,#0]
        0x00018f4e:    f04f2640    O.@&    MOV      r6,#0x40004000
        0x00018f52:    6c70        pl      LDR      r0,[r6,#0x44]
        0x00018f54:    f020707f     ..p    BIC      r0,r0,#0x3fc0000
        0x00018f58:    f5000078    ..x.    ADD      r0,r0,#0xf80000
        0x00018f5c:    6470        pd      STR      r0,[r6,#0x44]
        0x00018f5e:    2000        .       MOVS     r0,#0
        0x00018f60:    f8c40140    ..@.    STR      r0,[r4,#0x140]
        0x00018f64:    f8c40144    ..D.    STR      r0,[r4,#0x144]
        0x00018f68:    f8c40148    ..H.    STR      r0,[r4,#0x148]
        0x00018f6c:    f8c4014c    ..L.    STR      r0,[r4,#0x14c]
        0x00018f70:    f8c40150    ..P.    STR      r0,[r4,#0x150]
        0x00018f74:    f8c40154    ..T.    STR      r0,[r4,#0x154]
        0x00018f78:    f8c40158    ..X.    STR      r0,[r4,#0x158]
        0x00018f7c:    f8c4015c    ..\.    STR      r0,[r4,#0x15c]
        0x00018f80:    f8c40160    ..`.    STR      r0,[r4,#0x160]
        0x00018f84:    f8c40164    ..d.    STR      r0,[r4,#0x164]
        0x00018f88:    f8c40168    ..h.    STR      r0,[r4,#0x168]
        0x00018f8c:    f8c4016c    ..l.    STR      r0,[r4,#0x16c]
        0x00018f90:    f8c40170    ..p.    STR      r0,[r4,#0x170]
        0x00018f94:    f8c40174    ..t.    STR      r0,[r4,#0x174]
        0x00018f98:    f8c40178    ..x.    STR      r0,[r4,#0x178]
        0x00018f9c:    f8c4017c    ..|.    STR      r0,[r4,#0x17c]
        0x00018fa0:    f8c40180    ....    STR      r0,[r4,#0x180]
        0x00018fa4:    f8c40184    ....    STR      r0,[r4,#0x184]
        0x00018fa8:    f8c40188    ....    STR      r0,[r4,#0x188]
        0x00018fac:    4811        .H      LDR      r0,[pc,#68] ; [0x18ff4] = 0x1b58c
        0x00018fae:    f7fffb31    ..1.    BL       am_hal_daxi_config ; 0x18614
        0x00018fb2:    2064        d       MOVS     r0,#0x64
        0x00018fb4:    f7fffc00    ....    BL       am_hal_delay_us ; 0x187b8
        0x00018fb8:    6c70        pl      LDR      r0,[r6,#0x44]
        0x00018fba:    f0400040    @.@.    ORR      r0,r0,#0x40
        0x00018fbe:    6470        pd      STR      r0,[r6,#0x44]
        0x00018fc0:    f8d5037c    ..|.    LDR      r0,[r5,#0x37c]
        0x00018fc4:    f44000fd    @...    ORR      r0,r0,#0x7e8000
        0x00018fc8:    f04060b0    @..`    ORR      r0,r0,#0x5800000
        0x00018fcc:    f8c5037c    ..|.    STR      r0,[r5,#0x37c]
        0x00018fd0:    2000        .       MOVS     r0,#0
        0x00018fd2:    bdf8        ..      POP      {r3-r7,pc}
    $d
        0x00018fd4:    0001b310    ....    DCD    111376
        0x00018fd8:    0001b30c    ....    DCD    111372
        0x00018fdc:    40021000    ...@    DCD    1073876992
        0x00018fe0:    40021028    (..@    DCD    1073877032
        0x00018fe4:    10000354    T...    DCD    268436308
        0x00018fe8:    cd735a03    .Zs.    DCD    3446888963
        0x00018fec:    40020000    ...@    DCD    1073872896
        0x00018ff0:    4002042c    ,..@    DCD    1073873964
        0x00018ff4:    0001b58c    ....    DCD    112012
    $t
    i.am_hal_pwrctrl_mcu_memory_config
    am_hal_pwrctrl_mcu_memory_config
        0x00018ff8:    b538        8.      PUSH     {r3-r5,lr}
        0x00018ffa:    4605        .F      MOV      r5,r0
        0x00018ffc:    7800        .x      LDRB     r0,[r0,#0]
        0x00018ffe:    4c43        CL      LDR      r4,[pc,#268] ; [0x1910c] = 0x40021000
        0x00019000:    b120         .      CBZ      r0,0x1900c ; am_hal_pwrctrl_mcu_memory_config + 20
        0x00019002:    2801        .(      CMP      r0,#1
        0x00019004:    d00a        ..      BEQ      0x1901c ; am_hal_pwrctrl_mcu_memory_config + 36
        0x00019006:    2802        .(      CMP      r0,#2
        0x00019008:    d011        ..      BEQ      0x1902e ; am_hal_pwrctrl_mcu_memory_config + 54
        0x0001900a:    e018        ..      B        0x1903e ; am_hal_pwrctrl_mcu_memory_config + 70
        0x0001900c:    6960        `i      LDR      r0,[r4,#0x14]
        0x0001900e:    f0200010     ...    BIC      r0,r0,#0x10
        0x00019012:    6160        `a      STR      r0,[r4,#0x14]
        0x00019014:    6960        `i      LDR      r0,[r4,#0x14]
        0x00019016:    f0200020     . .    BIC      r0,r0,#0x20
        0x0001901a:    e00f        ..      B        0x1903c ; am_hal_pwrctrl_mcu_memory_config + 68
        0x0001901c:    6960        `i      LDR      r0,[r4,#0x14]
        0x0001901e:    f0400010    @...    ORR      r0,r0,#0x10
        0x00019022:    6160        `a      STR      r0,[r4,#0x14]
        0x00019024:    6960        `i      LDR      r0,[r4,#0x14]
        0x00019026:    f0200020     . .    BIC      r0,r0,#0x20
        0x0001902a:    6160        `a      STR      r0,[r4,#0x14]
        0x0001902c:    e007        ..      B        0x1903e ; am_hal_pwrctrl_mcu_memory_config + 70
        0x0001902e:    6960        `i      LDR      r0,[r4,#0x14]
        0x00019030:    f0400010    @...    ORR      r0,r0,#0x10
        0x00019034:    6160        `a      STR      r0,[r4,#0x14]
        0x00019036:    6960        `i      LDR      r0,[r4,#0x14]
        0x00019038:    f0400020    @. .    ORR      r0,r0,#0x20
        0x0001903c:    6160        `a      STR      r0,[r4,#0x14]
        0x0001903e:    78a9        .x      LDRB     r1,[r5,#2]
        0x00019040:    6960        `i      LDR      r0,[r4,#0x14]
        0x00019042:    f3610002    a...    BFI      r0,r1,#0,#3
        0x00019046:    6160        `a      STR      r0,[r4,#0x14]
        0x00019048:    7929        )y      LDRB     r1,[r5,#4]
        0x0001904a:    6960        `i      LDR      r0,[r4,#0x14]
        0x0001904c:    f36100c3    a...    BFI      r0,r1,#3,#1
        0x00019050:    6160        `a      STR      r0,[r4,#0x14]
        0x00019052:    2001        .       MOVS     r0,#1
        0x00019054:    9000        ..      STR      r0,[sp,#0]
        0x00019056:    6963        ci      LDR      r3,[r4,#0x14]
        0x00019058:    223f        ?"      MOVS     r2,#0x3f
        0x0001905a:    492d        -I      LDR      r1,[pc,#180] ; [0x19110] = 0x40021018
        0x0001905c:    2005        .       MOVS     r0,#5
        0x0001905e:    f7fffbed    ....    BL       am_hal_delay_us_status_check ; 0x1883c
        0x00019062:    2800        .(      CMP      r0,#0
        0x00019064:    bf18        ..      IT       NE
        0x00019066:    bd38        8.      POPNE    {r3-r5,pc}
        0x00019068:    69a0        .i      LDR      r0,[r4,#0x18]
        0x0001906a:    6961        ai      LDR      r1,[r4,#0x14]
        0x0001906c:    f3c01000    ....    UBFX     r0,r0,#4,#1
        0x00019070:    f3c11100    ....    UBFX     r1,r1,#4,#1
        0x00019074:    4288        .B      CMP      r0,r1
        0x00019076:    d117        ..      BNE      0x190a8 ; am_hal_pwrctrl_mcu_memory_config + 176
        0x00019078:    69a0        .i      LDR      r0,[r4,#0x18]
        0x0001907a:    6961        ai      LDR      r1,[r4,#0x14]
        0x0001907c:    f3c01040    ..@.    UBFX     r0,r0,#5,#1
        0x00019080:    f3c11140    ..@.    UBFX     r1,r1,#5,#1
        0x00019084:    4288        .B      CMP      r0,r1
        0x00019086:    d10f        ..      BNE      0x190a8 ; am_hal_pwrctrl_mcu_memory_config + 176
        0x00019088:    69a0        .i      LDR      r0,[r4,#0x18]
        0x0001908a:    6961        ai      LDR      r1,[r4,#0x14]
        0x0001908c:    f0000007    ....    AND      r0,r0,#7
        0x00019090:    f0010107    ....    AND      r1,r1,#7
        0x00019094:    4288        .B      CMP      r0,r1
        0x00019096:    d107        ..      BNE      0x190a8 ; am_hal_pwrctrl_mcu_memory_config + 176
        0x00019098:    69a0        .i      LDR      r0,[r4,#0x18]
        0x0001909a:    6961        ai      LDR      r1,[r4,#0x14]
        0x0001909c:    f3c000c0    ....    UBFX     r0,r0,#3,#1
        0x000190a0:    f3c101c0    ....    UBFX     r1,r1,#3,#1
        0x000190a4:    4288        .B      CMP      r0,r1
        0x000190a6:    d001        ..      BEQ      0x190ac ; am_hal_pwrctrl_mcu_memory_config + 180
        0x000190a8:    2001        .       MOVS     r0,#1
        0x000190aa:    bd38        8.      POP      {r3-r5,pc}
        0x000190ac:    7868        hx      LDRB     r0,[r5,#1]
        0x000190ae:    2800        .(      CMP      r0,#0
        0x000190b0:    69e0        .i      LDR      r0,[r4,#0x1c]
        0x000190b2:    bf14        ..      ITE      NE
        0x000190b4:    f0200010     ...    BICNE    r0,r0,#0x10
        0x000190b8:    f0400010    @...    ORREQ    r0,r0,#0x10
        0x000190bc:    61e0        .a      STR      r0,[r4,#0x1c]
        0x000190be:    7968        hy      LDRB     r0,[r5,#5]
        0x000190c0:    2800        .(      CMP      r0,#0
        0x000190c2:    69e0        .i      LDR      r0,[r4,#0x1c]
        0x000190c4:    bf14        ..      ITE      NE
        0x000190c6:    f0200008     ...    BICNE    r0,r0,#8
        0x000190ca:    f0400008    @...    ORREQ    r0,r0,#8
        0x000190ce:    61e0        .a      STR      r0,[r4,#0x1c]
        0x000190d0:    78e8        .x      LDRB     r0,[r5,#3]
        0x000190d2:    2800        .(      CMP      r0,#0
        0x000190d4:    bf04        ..      ITT      EQ
        0x000190d6:    69e0        .i      LDREQ    r0,[r4,#0x1c]
        0x000190d8:    f0400007    @...    ORREQ    r0,r0,#7
        0x000190dc:    d013        ..      BEQ      0x19106 ; am_hal_pwrctrl_mcu_memory_config + 270
        0x000190de:    2801        .(      CMP      r0,#1
        0x000190e0:    d008        ..      BEQ      0x190f4 ; am_hal_pwrctrl_mcu_memory_config + 252
        0x000190e2:    2803        .(      CMP      r0,#3
        0x000190e4:    d00b        ..      BEQ      0x190fe ; am_hal_pwrctrl_mcu_memory_config + 262
        0x000190e6:    2807        .(      CMP      r0,#7
        0x000190e8:    bf04        ..      ITT      EQ
        0x000190ea:    69e0        .i      LDREQ    r0,[r4,#0x1c]
        0x000190ec:    f0200007     ...    BICEQ    r0,r0,#7
        0x000190f0:    d009        ..      BEQ      0x19106 ; am_hal_pwrctrl_mcu_memory_config + 270
        0x000190f2:    e009        ..      B        0x19108 ; am_hal_pwrctrl_mcu_memory_config + 272
        0x000190f4:    69e0        .i      LDR      r0,[r4,#0x1c]
        0x000190f6:    f0200007     ...    BIC      r0,r0,#7
        0x000190fa:    1d80        ..      ADDS     r0,r0,#6
        0x000190fc:    e003        ..      B        0x19106 ; am_hal_pwrctrl_mcu_memory_config + 270
        0x000190fe:    69e0        .i      LDR      r0,[r4,#0x1c]
        0x00019100:    f0200007     ...    BIC      r0,r0,#7
        0x00019104:    1d00        ..      ADDS     r0,r0,#4
        0x00019106:    61e0        .a      STR      r0,[r4,#0x1c]
        0x00019108:    2000        .       MOVS     r0,#0
        0x0001910a:    bd38        8.      POP      {r3-r5,pc}
    $d
        0x0001910c:    40021000    ...@    DCD    1073876992
        0x00019110:    40021018    ...@    DCD    1073877016
    $t
    i.am_hal_pwrctrl_periph_disable
    am_hal_pwrctrl_periph_disable
        0x00019114:    2822        "(      CMP      r0,#0x22
        0x00019116:    bf24        $.      ITT      CS
        0x00019118:    2006        .       MOVCS    r0,#6
        0x0001911a:    4770        pG      BXCS     lr
        0x0001911c:    e92d43f8    -..C    PUSH     {r3-r9,lr}
        0x00019120:    4a16        .J      LDR      r2,[pc,#88] ; [0x1917c] = 0x1b318
        0x00019122:    f04f0800    O...    MOV      r8,#0
        0x00019126:    eb021100    ....    ADD      r1,r2,r0,LSL #4
        0x0001912a:    2814        .(      CMP      r0,#0x14
        0x0001912c:    e9d15402    ...T    LDRD     r5,r4,[r1,#8]
        0x00019130:    e9d16700    ...g    LDRD     r6,r7,[r1,#0]
        0x00019134:    d01a        ..      BEQ      0x1916c ; am_hal_pwrctrl_periph_disable + 88
        0x00019136:    f7fff921    ..!.    BL       am_hal_interrupt_master_disable ; 0x1837c
        0x0001913a:    9000        ..      STR      r0,[sp,#0]
        0x0001913c:    6830        0h      LDR      r0,[r6,#0]
        0x0001913e:    43b8        .C      BICS     r0,r0,r7
        0x00019140:    6030        0`      STR      r0,[r6,#0]
        0x00019142:    9800        ..      LDR      r0,[sp,#0]
        0x00019144:    f7fff91e    ....    BL       am_hal_interrupt_master_set ; 0x18384
        0x00019148:    4623        #F      MOV      r3,r4
        0x0001914a:    461a        .F      MOV      r2,r3
        0x0001914c:    4629        )F      MOV      r1,r5
        0x0001914e:    2005        .       MOVS     r0,#5
        0x00019150:    f8cd8000    ....    STR      r8,[sp,#0]
        0x00019154:    f7fffb72    ..r.    BL       am_hal_delay_us_status_check ; 0x1883c
        0x00019158:    2800        .(      CMP      r0,#0
        0x0001915a:    bf18        ..      IT       NE
        0x0001915c:    e8bd83f8    ....    POPNE    {r3-r9,pc}
        0x00019160:    6828        (h      LDR      r0,[r5,#0]
        0x00019162:    4020         @      ANDS     r0,r0,r4
        0x00019164:    bf18        ..      IT       NE
        0x00019166:    2001        .       MOVNE    r0,#1
        0x00019168:    e8bd83f8    ....    POP      {r3-r9,pc}
        0x0001916c:    2310        .#      MOVS     r3,#0x10
        0x0001916e:    2200        ."      MOVS     r2,#0
        0x00019170:    0419        ..      LSLS     r1,r3,#16
        0x00019172:    4803        .H      LDR      r0,[pc,#12] ; [0x19180] = 0x40021004
        0x00019174:    f000fe24    ..$.    BL       am_hal_util_write_and_wait ; 0x19dc0
        0x00019178:    e7f2        ..      B        0x19160 ; am_hal_pwrctrl_periph_disable + 76
    $d
        0x0001917a:    0000        ..      DCW    0
        0x0001917c:    0001b318    ....    DCD    111384
        0x00019180:    40021004    ...@    DCD    1073876996
    $t
    i.am_hal_pwrctrl_periph_enable
    am_hal_pwrctrl_periph_enable
        0x00019184:    2822        "(      CMP      r0,#0x22
        0x00019186:    bf24        $.      ITT      CS
        0x00019188:    2006        .       MOVCS    r0,#6
        0x0001918a:    4770        pG      BXCS     lr
        0x0001918c:    b5f8        ..      PUSH     {r3-r7,lr}
        0x0001918e:    4a15        .J      LDR      r2,[pc,#84] ; [0x191e4] = 0x1b318
        0x00019190:    2814        .(      CMP      r0,#0x14
        0x00019192:    eb021100    ....    ADD      r1,r2,r0,LSL #4
        0x00019196:    e9d15402    ...T    LDRD     r5,r4,[r1,#8]
        0x0001919a:    e9d16700    ...g    LDRD     r6,r7,[r1,#0]
        0x0001919e:    d019        ..      BEQ      0x191d4 ; am_hal_pwrctrl_periph_enable + 80
        0x000191a0:    f7fff8ec    ....    BL       am_hal_interrupt_master_disable ; 0x1837c
        0x000191a4:    9000        ..      STR      r0,[sp,#0]
        0x000191a6:    6830        0h      LDR      r0,[r6,#0]
        0x000191a8:    4338        8C      ORRS     r0,r0,r7
        0x000191aa:    6030        0`      STR      r0,[r6,#0]
        0x000191ac:    9800        ..      LDR      r0,[sp,#0]
        0x000191ae:    f7fff8e9    ....    BL       am_hal_interrupt_master_set ; 0x18384
        0x000191b2:    2001        .       MOVS     r0,#1
        0x000191b4:    4623        #F      MOV      r3,r4
        0x000191b6:    9000        ..      STR      r0,[sp,#0]
        0x000191b8:    461a        .F      MOV      r2,r3
        0x000191ba:    4629        )F      MOV      r1,r5
        0x000191bc:    2005        .       MOVS     r0,#5
        0x000191be:    f7fffb3d    ..=.    BL       am_hal_delay_us_status_check ; 0x1883c
        0x000191c2:    2800        .(      CMP      r0,#0
        0x000191c4:    bf18        ..      IT       NE
        0x000191c6:    bdf8        ..      POPNE    {r3-r7,pc}
        0x000191c8:    6828        (h      LDR      r0,[r5,#0]
        0x000191ca:    4220         B      TST      r0,r4
        0x000191cc:    bf14        ..      ITE      NE
        0x000191ce:    2000        .       MOVNE    r0,#0
        0x000191d0:    2001        .       MOVEQ    r0,#1
        0x000191d2:    bdf8        ..      POP      {r3-r7,pc}
        0x000191d4:    2310        .#      MOVS     r3,#0x10
        0x000191d6:    041a        ..      LSLS     r2,r3,#16
        0x000191d8:    4611        .F      MOV      r1,r2
        0x000191da:    4803        .H      LDR      r0,[pc,#12] ; [0x191e8] = 0x40021004
        0x000191dc:    f000fdf0    ....    BL       am_hal_util_write_and_wait ; 0x19dc0
        0x000191e0:    e7f2        ..      B        0x191c8 ; am_hal_pwrctrl_periph_enable + 68
    $d
        0x000191e2:    0000        ..      DCW    0
        0x000191e4:    0001b318    ....    DCD    111384
        0x000191e8:    40021004    ...@    DCD    1073876996
    $t
    i.am_hal_pwrctrl_sram_config
    am_hal_pwrctrl_sram_config
        0x000191ec:    b538        8.      PUSH     {r3-r5,lr}
        0x000191ee:    4c22        "L      LDR      r4,[pc,#136] ; [0x19278] = 0x40021000
        0x000191f0:    4605        .F      MOV      r5,r0
        0x000191f2:    7801        .x      LDRB     r1,[r0,#0]
        0x000191f4:    6a60        `j      LDR      r0,[r4,#0x24]
        0x000191f6:    f3610001    a...    BFI      r0,r1,#0,#2
        0x000191fa:    6260        `b      STR      r0,[r4,#0x24]
        0x000191fc:    2001        .       MOVS     r0,#1
        0x000191fe:    9000        ..      STR      r0,[sp,#0]
        0x00019200:    6a63        cj      LDR      r3,[r4,#0x24]
        0x00019202:    2203        ."      MOVS     r2,#3
        0x00019204:    491d        .I      LDR      r1,[pc,#116] ; [0x1927c] = 0x40021028
        0x00019206:    2005        .       MOVS     r0,#5
        0x00019208:    f7fffb18    ....    BL       am_hal_delay_us_status_check ; 0x1883c
        0x0001920c:    2800        .(      CMP      r0,#0
        0x0001920e:    bf18        ..      IT       NE
        0x00019210:    bd38        8.      POPNE    {r3-r5,pc}
        0x00019212:    6aa0        .j      LDR      r0,[r4,#0x28]
        0x00019214:    6a61        aj      LDR      r1,[r4,#0x24]
        0x00019216:    f0000003    ....    AND      r0,r0,#3
        0x0001921a:    f0010103    ....    AND      r1,r1,#3
        0x0001921e:    4288        .B      CMP      r0,r1
        0x00019220:    bf1c        ..      ITT      NE
        0x00019222:    2001        .       MOVNE    r0,#1
        0x00019224:    bd38        8.      POPNE    {r3-r5,pc}
        0x00019226:    7869        ix      LDRB     r1,[r5,#1]
        0x00019228:    6ae0        .j      LDR      r0,[r4,#0x2c]
        0x0001922a:    f3610083    a...    BFI      r0,r1,#2,#2
        0x0001922e:    62e0        .b      STR      r0,[r4,#0x2c]
        0x00019230:    78a9        .x      LDRB     r1,[r5,#2]
        0x00019232:    6ae0        .j      LDR      r0,[r4,#0x2c]
        0x00019234:    f3611005    a...    BFI      r0,r1,#4,#2
        0x00019238:    62e0        .b      STR      r0,[r4,#0x2c]
        0x0001923a:    6ae0        .j      LDR      r0,[r4,#0x2c]
        0x0001923c:    f02000c0     ...    BIC      r0,r0,#0xc0
        0x00019240:    62e0        .b      STR      r0,[r4,#0x2c]
        0x00019242:    6ae0        .j      LDR      r0,[r4,#0x2c]
        0x00019244:    f4207040     .@p    BIC      r0,r0,#0x300
        0x00019248:    62e0        .b      STR      r0,[r4,#0x2c]
        0x0001924a:    78e8        .x      LDRB     r0,[r5,#3]
        0x0001924c:    b140        @.      CBZ      r0,0x19260 ; am_hal_pwrctrl_sram_config + 116
        0x0001924e:    2801        .(      CMP      r0,#1
        0x00019250:    d00b        ..      BEQ      0x1926a ; am_hal_pwrctrl_sram_config + 126
        0x00019252:    2803        .(      CMP      r0,#3
        0x00019254:    bf04        ..      ITT      EQ
        0x00019256:    6ae0        .j      LDREQ    r0,[r4,#0x2c]
        0x00019258:    f0200003     ...    BICEQ    r0,r0,#3
        0x0001925c:    d009        ..      BEQ      0x19272 ; am_hal_pwrctrl_sram_config + 134
        0x0001925e:    e009        ..      B        0x19274 ; am_hal_pwrctrl_sram_config + 136
        0x00019260:    6ae0        .j      LDR      r0,[r4,#0x2c]
        0x00019262:    f0400003    @...    ORR      r0,r0,#3
        0x00019266:    62e0        .b      STR      r0,[r4,#0x2c]
        0x00019268:    e004        ..      B        0x19274 ; am_hal_pwrctrl_sram_config + 136
        0x0001926a:    6ae0        .j      LDR      r0,[r4,#0x2c]
        0x0001926c:    f0200003     ...    BIC      r0,r0,#3
        0x00019270:    1c80        ..      ADDS     r0,r0,#2
        0x00019272:    62e0        .b      STR      r0,[r4,#0x2c]
        0x00019274:    2000        .       MOVS     r0,#0
        0x00019276:    bd38        8.      POP      {r3-r5,pc}
    $d
        0x00019278:    40021000    ...@    DCD    1073876992
        0x0001927c:    40021028    (..@    DCD    1073877032
    $t
    i.am_hal_queue_item_add
    am_hal_queue_item_add
        0x00019280:    b5f8        ..      PUSH     {r3-r7,lr}
        0x00019282:    4604        .F      MOV      r4,r0
        0x00019284:    6900        .i      LDR      r0,[r0,#0x10]
        0x00019286:    460d        .F      MOV      r5,r1
        0x00019288:    fb00f602    ....    MUL      r6,r0,r2
        0x0001928c:    2700        .'      MOVS     r7,#0
        0x0001928e:    f7fff875    ..u.    BL       am_hal_interrupt_master_disable ; 0x1837c
        0x00019292:    9000        ..      STR      r0,[sp,#0]
        0x00019294:    e9d41002    ....    LDRD     r1,r0,[r4,#8]
        0x00019298:    1a40        @.      SUBS     r0,r0,r1
        0x0001929a:    42b0        .B      CMP      r0,r6
        0x0001929c:    d33d        =.      BCC      0x1931a ; am_hal_queue_item_add + 154
        0x0001929e:    2e00        ..      CMP      r6,#0
        0x000192a0:    d037        7.      BEQ      0x19312 ; am_hal_queue_item_add + 146
        0x000192a2:    1e68        h.      SUBS     r0,r5,#1
        0x000192a4:    f0160f01    ....    TST      r6,#1
        0x000192a8:    d00d        ..      BEQ      0x192c6 ; am_hal_queue_item_add + 70
        0x000192aa:    b11d        ..      CBZ      r5,0x192b4 ; am_hal_queue_item_add + 52
        0x000192ac:    6823        #h      LDR      r3,[r4,#0]
        0x000192ae:    6962        bi      LDR      r2,[r4,#0x14]
        0x000192b0:    7841        Ax      LDRB     r1,[r0,#1]
        0x000192b2:    54d1        .T      STRB     r1,[r2,r3]
        0x000192b4:    6821        !h      LDR      r1,[r4,#0]
        0x000192b6:    68e2        .h      LDR      r2,[r4,#0xc]
        0x000192b8:    1c49        I.      ADDS     r1,r1,#1
        0x000192ba:    fbb1f3f2    ....    UDIV     r3,r1,r2
        0x000192be:    fb021113    ....    MLS      r1,r2,r3,r1
        0x000192c2:    1c40        @.      ADDS     r0,r0,#1
        0x000192c4:    6021        !`      STR      r1,[r4,#0]
        0x000192c6:    0871        q.      LSRS     r1,r6,#1
        0x000192c8:    d023        #.      BEQ      0x19312 ; am_hal_queue_item_add + 146
        0x000192ca:    2d00        .-      CMP      r5,#0
        0x000192cc:    d005        ..      BEQ      0x192da ; am_hal_queue_item_add + 90
        0x000192ce:    f8d4c000    ....    LDR      r12,[r4,#0]
        0x000192d2:    6963        ci      LDR      r3,[r4,#0x14]
        0x000192d4:    7842        Bx      LDRB     r2,[r0,#1]
        0x000192d6:    f803200c    ...     STRB     r2,[r3,r12]
        0x000192da:    6822        "h      LDR      r2,[r4,#0]
        0x000192dc:    68e3        .h      LDR      r3,[r4,#0xc]
        0x000192de:    f1020201    ....    ADD      r2,r2,#1
        0x000192e2:    fbb2fcf3    ....    UDIV     r12,r2,r3
        0x000192e6:    fb03221c    ..."    MLS      r2,r3,r12,r2
        0x000192ea:    6022        "`      STR      r2,[r4,#0]
        0x000192ec:    d005        ..      BEQ      0x192fa ; am_hal_queue_item_add + 122
        0x000192ee:    f8d4c014    ....    LDR      r12,[r4,#0x14]
        0x000192f2:    7883        .x      LDRB     r3,[r0,#2]
        0x000192f4:    f80c3002    ...0    STRB     r3,[r12,r2]
        0x000192f8:    6822        "h      LDR      r2,[r4,#0]
        0x000192fa:    f1000002    ....    ADD      r0,r0,#2
        0x000192fe:    f1020301    ....    ADD      r3,r2,#1
        0x00019302:    68e2        .h      LDR      r2,[r4,#0xc]
        0x00019304:    1e49        I.      SUBS     r1,r1,#1
        0x00019306:    fbb3fcf2    ....    UDIV     r12,r3,r2
        0x0001930a:    fb02321c    ...2    MLS      r2,r2,r12,r3
        0x0001930e:    6022        "`      STR      r2,[r4,#0]
        0x00019310:    d1db        ..      BNE      0x192ca ; am_hal_queue_item_add + 74
        0x00019312:    68a0        .h      LDR      r0,[r4,#8]
        0x00019314:    2701        .'      MOVS     r7,#1
        0x00019316:    4430        0D      ADD      r0,r0,r6
        0x00019318:    60a0        .`      STR      r0,[r4,#8]
        0x0001931a:    9800        ..      LDR      r0,[sp,#0]
        0x0001931c:    f7fff832    ..2.    BL       am_hal_interrupt_master_set ; 0x18384
        0x00019320:    4638        8F      MOV      r0,r7
        0x00019322:    bdf8        ..      POP      {r3-r7,pc}
    i.am_hal_queue_item_get
    am_hal_queue_item_get
        0x00019324:    b5f8        ..      PUSH     {r3-r7,lr}
        0x00019326:    4604        .F      MOV      r4,r0
        0x00019328:    6900        .i      LDR      r0,[r0,#0x10]
        0x0001932a:    460d        .F      MOV      r5,r1
        0x0001932c:    fb00f602    ....    MUL      r6,r0,r2
        0x00019330:    2700        .'      MOVS     r7,#0
        0x00019332:    f7fff823    ..#.    BL       am_hal_interrupt_master_disable ; 0x1837c
        0x00019336:    9000        ..      STR      r0,[sp,#0]
        0x00019338:    68a0        .h      LDR      r0,[r4,#8]
        0x0001933a:    42b0        .B      CMP      r0,r6
        0x0001933c:    d339        9.      BCC      0x193b2 ; am_hal_queue_item_get + 142
        0x0001933e:    2e00        ..      CMP      r6,#0
        0x00019340:    d033        3.      BEQ      0x193aa ; am_hal_queue_item_get + 134
        0x00019342:    1e68        h.      SUBS     r0,r5,#1
        0x00019344:    f0160f01    ....    TST      r6,#1
        0x00019348:    d00d        ..      BEQ      0x19366 ; am_hal_queue_item_get + 66
        0x0001934a:    b11d        ..      CBZ      r5,0x19354 ; am_hal_queue_item_get + 48
        0x0001934c:    6862        bh      LDR      r2,[r4,#4]
        0x0001934e:    6961        ai      LDR      r1,[r4,#0x14]
        0x00019350:    5c89        .\      LDRB     r1,[r1,r2]
        0x00019352:    7041        Ap      STRB     r1,[r0,#1]
        0x00019354:    6861        ah      LDR      r1,[r4,#4]
        0x00019356:    68e2        .h      LDR      r2,[r4,#0xc]
        0x00019358:    1c49        I.      ADDS     r1,r1,#1
        0x0001935a:    fbb1f3f2    ....    UDIV     r3,r1,r2
        0x0001935e:    fb021113    ....    MLS      r1,r2,r3,r1
        0x00019362:    1c40        @.      ADDS     r0,r0,#1
        0x00019364:    6061        a`      STR      r1,[r4,#4]
        0x00019366:    0871        q.      LSRS     r1,r6,#1
        0x00019368:    d01f        ..      BEQ      0x193aa ; am_hal_queue_item_get + 134
        0x0001936a:    2d00        .-      CMP      r5,#0
        0x0001936c:    d003        ..      BEQ      0x19376 ; am_hal_queue_item_get + 82
        0x0001936e:    6863        ch      LDR      r3,[r4,#4]
        0x00019370:    6962        bi      LDR      r2,[r4,#0x14]
        0x00019372:    5cd2        .\      LDRB     r2,[r2,r3]
        0x00019374:    7042        Bp      STRB     r2,[r0,#1]
        0x00019376:    6862        bh      LDR      r2,[r4,#4]
        0x00019378:    68e3        .h      LDR      r3,[r4,#0xc]
        0x0001937a:    f1020201    ....    ADD      r2,r2,#1
        0x0001937e:    fbb2fcf3    ....    UDIV     r12,r2,r3
        0x00019382:    fb03221c    ..."    MLS      r2,r3,r12,r2
        0x00019386:    6062        b`      STR      r2,[r4,#4]
        0x00019388:    d003        ..      BEQ      0x19392 ; am_hal_queue_item_get + 110
        0x0001938a:    6963        ci      LDR      r3,[r4,#0x14]
        0x0001938c:    5c9a        .\      LDRB     r2,[r3,r2]
        0x0001938e:    7082        .p      STRB     r2,[r0,#2]
        0x00019390:    6862        bh      LDR      r2,[r4,#4]
        0x00019392:    68e3        .h      LDR      r3,[r4,#0xc]
        0x00019394:    f1020201    ....    ADD      r2,r2,#1
        0x00019398:    fbb2fcf3    ....    UDIV     r12,r2,r3
        0x0001939c:    fb03221c    ..."    MLS      r2,r3,r12,r2
        0x000193a0:    f1000002    ....    ADD      r0,r0,#2
        0x000193a4:    6062        b`      STR      r2,[r4,#4]
        0x000193a6:    1e49        I.      SUBS     r1,r1,#1
        0x000193a8:    d1df        ..      BNE      0x1936a ; am_hal_queue_item_get + 70
        0x000193aa:    68a0        .h      LDR      r0,[r4,#8]
        0x000193ac:    1b80        ..      SUBS     r0,r0,r6
        0x000193ae:    2701        .'      MOVS     r7,#1
        0x000193b0:    60a0        .`      STR      r0,[r4,#8]
        0x000193b2:    9800        ..      LDR      r0,[sp,#0]
        0x000193b4:    f7feffe6    ....    BL       am_hal_interrupt_master_set ; 0x18384
        0x000193b8:    4638        8F      MOV      r0,r7
        0x000193ba:    bdf8        ..      POP      {r3-r7,pc}
    i.am_hal_rtc_osc_disable
    am_hal_rtc_osc_disable
        0x000193bc:    4803        .H      LDR      r0,[pc,#12] ; [0x193cc] = 0x40004800
        0x000193be:    6801        .h      LDR      r1,[r0,#0]
        0x000193c0:    f0410110    A...    ORR      r1,r1,#0x10
        0x000193c4:    6001        .`      STR      r1,[r0,#0]
        0x000193c6:    2000        .       MOVS     r0,#0
        0x000193c8:    4770        pG      BX       lr
    $d
        0x000193ca:    0000        ..      DCW    0
        0x000193cc:    40004800    .H.@    DCD    1073760256
    $t
    i.am_hal_timer_clear
    am_hal_timer_clear
        0x000193d0:    b538        8.      PUSH     {r3-r5,lr}
        0x000193d2:    4604        .F      MOV      r4,r0
        0x000193d4:    f7feffd2    ....    BL       am_hal_interrupt_master_disable ; 0x1837c
        0x000193d8:    4914        .I      LDR      r1,[pc,#80] ; [0x1942c] = 0x40008000
        0x000193da:    9000        ..      STR      r0,[sp,#0]
        0x000193dc:    f8d13104    ...1    LDR      r3,[r1,#0x104]
        0x000193e0:    2001        .       MOVS     r0,#1
        0x000193e2:    fa00f204    ....    LSL      r2,r0,r4
        0x000193e6:    ea230002    #...    BIC      r0,r3,r2
        0x000193ea:    f8c10104    ....    STR      r0,[r1,#0x104]
        0x000193ee:    0160        `.      LSLS     r0,r4,#5
        0x000193f0:    4408        .D      ADD      r0,r0,r1
        0x000193f2:    f8d03200    ...2    LDR      r3,[r0,#0x200]
        0x000193f6:    f0230301    #...    BIC      r3,r3,#1
        0x000193fa:    f8c03200    ...2    STR      r3,[r0,#0x200]
        0x000193fe:    f8d03200    ...2    LDR      r3,[r0,#0x200]
        0x00019402:    f0430302    C...    ORR      r3,r3,#2
        0x00019406:    f8c03200    ...2    STR      r3,[r0,#0x200]
        0x0001940a:    f8d03200    ...2    LDR      r3,[r0,#0x200]
        0x0001940e:    f0430301    C...    ORR      r3,r3,#1
        0x00019412:    f8c03200    ...2    STR      r3,[r0,#0x200]
        0x00019416:    f8d10104    ....    LDR      r0,[r1,#0x104]
        0x0001941a:    4310        .C      ORRS     r0,r0,r2
        0x0001941c:    f8c10104    ....    STR      r0,[r1,#0x104]
        0x00019420:    9800        ..      LDR      r0,[sp,#0]
        0x00019422:    f7feffaf    ....    BL       am_hal_interrupt_master_set ; 0x18384
        0x00019426:    2000        .       MOVS     r0,#0
        0x00019428:    bd38        8.      POP      {r3-r5,pc}
    $d
        0x0001942a:    0000        ..      DCW    0
        0x0001942c:    40008000    ...@    DCD    1073774592
    $t
    i.am_hal_timer_clear_stop
    am_hal_timer_clear_stop
        0x00019430:    b538        8.      PUSH     {r3-r5,lr}
        0x00019432:    4604        .F      MOV      r4,r0
        0x00019434:    f7feffa2    ....    BL       am_hal_interrupt_master_disable ; 0x1837c
        0x00019438:    9000        ..      STR      r0,[sp,#0]
        0x0001943a:    4812        .H      LDR      r0,[pc,#72] ; [0x19484] = 0x40008000
        0x0001943c:    f8d01104    ....    LDR      r1,[r0,#0x104]
        0x00019440:    2201        ."      MOVS     r2,#1
        0x00019442:    40a2        .@      LSLS     r2,r2,r4
        0x00019444:    4391        .C      BICS     r1,r1,r2
        0x00019446:    f8c01104    ....    STR      r1,[r0,#0x104]
        0x0001944a:    0160        `.      LSLS     r0,r4,#5
        0x0001944c:    f1004080    ...@    ADD      r0,r0,#0x40000000
        0x00019450:    f5004000    ...@    ADD      r0,r0,#0x8000
        0x00019454:    f8d01200    ....    LDR      r1,[r0,#0x200]
        0x00019458:    f0210101    !...    BIC      r1,r1,#1
        0x0001945c:    f8c01200    ....    STR      r1,[r0,#0x200]
        0x00019460:    f8d01200    ....    LDR      r1,[r0,#0x200]
        0x00019464:    f0410102    A...    ORR      r1,r1,#2
        0x00019468:    f8c01200    ....    STR      r1,[r0,#0x200]
        0x0001946c:    f8d01200    ....    LDR      r1,[r0,#0x200]
        0x00019470:    f0410101    A...    ORR      r1,r1,#1
        0x00019474:    f8c01200    ....    STR      r1,[r0,#0x200]
        0x00019478:    9800        ..      LDR      r0,[sp,#0]
        0x0001947a:    f7feff83    ....    BL       am_hal_interrupt_master_set ; 0x18384
        0x0001947e:    2000        .       MOVS     r0,#0
        0x00019480:    bd38        8.      POP      {r3-r5,pc}
    $d
        0x00019482:    0000        ..      DCW    0
        0x00019484:    40008000    ...@    DCD    1073774592
    $t
    i.am_hal_timer_default_config_set
    am_hal_timer_default_config_set
        0x00019488:    2201        ."      MOVS     r2,#1
        0x0001948a:    7002        .p      STRB     r2,[r0,#0]
        0x0001948c:    7042        Bp      STRB     r2,[r0,#1]
        0x0001948e:    1e91        ..      SUBS     r1,r2,#2
        0x00019490:    60c1        .`      STR      r1,[r0,#0xc]
        0x00019492:    6101        .a      STR      r1,[r0,#0x10]
        0x00019494:    2100        .!      MOVS     r1,#0
        0x00019496:    7081        .p      STRB     r1,[r0,#2]
        0x00019498:    70c1        .p      STRB     r1,[r0,#3]
        0x0001949a:    7101        .q      STRB     r1,[r0,#4]
        0x0001949c:    7142        Bq      STRB     r2,[r0,#5]
        0x0001949e:    6081        .`      STR      r1,[r0,#8]
        0x000194a0:    4608        .F      MOV      r0,r1
        0x000194a2:    4770        pG      BX       lr
    i.am_hal_timer_interrupt_clear
    am_hal_timer_interrupt_clear
        0x000194a4:    4901        .I      LDR      r1,[pc,#4] ; [0x194ac] = 0x40008000
        0x000194a6:    6688        .f      STR      r0,[r1,#0x68]
        0x000194a8:    2000        .       MOVS     r0,#0
        0x000194aa:    4770        pG      BX       lr
    $d
        0x000194ac:    40008000    ...@    DCD    1073774592
    $t
    i.am_hal_timer_interrupt_enable
    am_hal_timer_interrupt_enable
        0x000194b0:    4a14        .J      LDR      r2,[pc,#80] ; [0x19504] = 0x40020000
        0x000194b2:    4601        .F      MOV      r1,r0
        0x000194b4:    68d2        .h      LDR      r2,[r2,#0xc]
        0x000194b6:    b2d2        ..      UXTB     r2,r2
        0x000194b8:    2a22        "*      CMP      r2,#0x22
        0x000194ba:    bf24        $.      ITT      CS
        0x000194bc:    2200        ."      MOVCS    r2,#0
        0x000194be:    4b12        .K      LDRCS    r3,[pc,#72] ; [0x19508] = 0x10000658
        0x000194c0:    d318        ..      BCC      0x194f4 ; am_hal_timer_interrupt_enable + 68
        0x000194c2:    bf00        ..      NOP      
        0x000194c4:    f0110f01    ....    TST      r1,#1
        0x000194c8:    d006        ..      BEQ      0x194d8 ; am_hal_timer_interrupt_enable + 40
        0x000194ca:    eb030c82    ....    ADD      r12,r3,r2,LSL #2
        0x000194ce:    f89cc001    ....    LDRB     r12,[r12,#1]
        0x000194d2:    f1bc0f00    ....    CMP      r12,#0
        0x000194d6:    d013        ..      BEQ      0x19500 ; am_hal_timer_interrupt_enable + 80
        0x000194d8:    f0110f02    ....    TST      r1,#2
        0x000194dc:    d006        ..      BEQ      0x194ec ; am_hal_timer_interrupt_enable + 60
        0x000194de:    eb030c82    ....    ADD      r12,r3,r2,LSL #2
        0x000194e2:    f89cc003    ....    LDRB     r12,[r12,#3]
        0x000194e6:    f1bc0f00    ....    CMP      r12,#0
        0x000194ea:    d009        ..      BEQ      0x19500 ; am_hal_timer_interrupt_enable + 80
        0x000194ec:    0889        ..      LSRS     r1,r1,#2
        0x000194ee:    1c52        R.      ADDS     r2,r2,#1
        0x000194f0:    2a10        .*      CMP      r2,#0x10
        0x000194f2:    d3e7        ..      BCC      0x194c4 ; am_hal_timer_interrupt_enable + 20
        0x000194f4:    4905        .I      LDR      r1,[pc,#20] ; [0x1950c] = 0x40008000
        0x000194f6:    6e0a        .n      LDR      r2,[r1,#0x60]
        0x000194f8:    4310        .C      ORRS     r0,r0,r2
        0x000194fa:    6608        .f      STR      r0,[r1,#0x60]
        0x000194fc:    2000        .       MOVS     r0,#0
        0x000194fe:    4770        pG      BX       lr
        0x00019500:    2006        .       MOVS     r0,#6
        0x00019502:    4770        pG      BX       lr
    $d
        0x00019504:    40020000    ...@    DCD    1073872896
        0x00019508:    10000658    X...    DCD    268437080
        0x0001950c:    40008000    ...@    DCD    1073774592
    $t
    i.am_hal_timer_interrupt_status_get
    am_hal_timer_interrupt_status_get
        0x00019510:    4a04        .J      LDR      r2,[pc,#16] ; [0x19524] = 0x40008000
        0x00019512:    2800        .(      CMP      r0,#0
        0x00019514:    6e50        Pn      LDR      r0,[r2,#0x64]
        0x00019516:    bf1c        ..      ITT      NE
        0x00019518:    6e12        .n      LDRNE    r2,[r2,#0x60]
        0x0001951a:    4010        .@      ANDNE    r0,r0,r2
        0x0001951c:    6008        .`      STR      r0,[r1,#0]
        0x0001951e:    2000        .       MOVS     r0,#0
        0x00019520:    4770        pG      BX       lr
    $d
        0x00019522:    0000        ..      DCW    0
        0x00019524:    40008000    ...@    DCD    1073774592
    $t
    i.am_hal_timer_read
    am_hal_timer_read
        0x00019528:    b500        ..      PUSH     {lr}
        0x0001952a:    4907        .I      LDR      r1,[pc,#28] ; [0x19548] = 0x40008204
        0x0001952c:    b083        ..      SUB      sp,sp,#0xc
        0x0001952e:    eb011040    ..@.    ADD      r0,r1,r0,LSL #5
        0x00019532:    4669        iF      MOV      r1,sp
        0x00019534:    f7feff10    ....    BL       am_hal_triple_read ; 0x18358
        0x00019538:    e9dd0100    ....    LDRD     r0,r1,[sp,#0]
        0x0001953c:    4288        .B      CMP      r0,r1
        0x0001953e:    bf0c        ..      ITE      EQ
        0x00019540:    4608        .F      MOVEQ    r0,r1
        0x00019542:    9802        ..      LDRNE    r0,[sp,#8]
        0x00019544:    b003        ..      ADD      sp,sp,#0xc
        0x00019546:    bd00        ..      POP      {pc}
    $d
        0x00019548:    40008204    ...@    DCD    1073775108
    $t
    i.am_hal_timer_reset_config
    am_hal_timer_reset_config
        0x0001954c:    e92d43f8    -..C    PUSH     {r3-r9,lr}
        0x00019550:    4605        .F      MOV      r5,r0
        0x00019552:    0041        A.      LSLS     r1,r0,#1
        0x00019554:    4c36        6L      LDR      r4,[pc,#216] ; [0x19630] = 0x40008000
        0x00019556:    2003        .       MOVS     r0,#3
        0x00019558:    fa00f801    ....    LSL      r8,r0,r1
        0x0001955c:    6e20         n      LDR      r0,[r4,#0x60]
        0x0001955e:    ea200008     ...    BIC      r0,r0,r8
        0x00019562:    6620         f      STR      r0,[r4,#0x60]
        0x00019564:    2701        .'      MOVS     r7,#1
        0x00019566:    fa07f605    ....    LSL      r6,r7,r5
        0x0001956a:    f7feff07    ....    BL       am_hal_interrupt_master_disable ; 0x1837c
        0x0001956e:    9000        ..      STR      r0,[sp,#0]
        0x00019570:    6920         i      LDR      r0,[r4,#0x10]
        0x00019572:    43b0        .C      BICS     r0,r0,r6
        0x00019574:    6120         a      STR      r0,[r4,#0x10]
        0x00019576:    2100        .!      MOVS     r1,#0
        0x00019578:    fa07f001    ....    LSL      r0,r7,r1
        0x0001957c:    4230        0B      TST      r0,r6
        0x0001957e:    d014        ..      BEQ      0x195aa ; am_hal_timer_reset_config + 94
        0x00019580:    f8d42104    ...!    LDR      r2,[r4,#0x104]
        0x00019584:    4382        .C      BICS     r2,r2,r0
        0x00019586:    f8c42104    ...!    STR      r2,[r4,#0x104]
        0x0001958a:    014a        J.      LSLS     r2,r1,#5
        0x0001958c:    f1024280    ...B    ADD      r2,r2,#0x40000000
        0x00019590:    f5024200    ...B    ADD      r2,r2,#0x8000
        0x00019594:    f8d23200    ...2    LDR      r3,[r2,#0x200]
        0x00019598:    f0430301    C...    ORR      r3,r3,#1
        0x0001959c:    f8c23200    ...2    STR      r3,[r2,#0x200]
        0x000195a0:    f8d42104    ...!    LDR      r2,[r4,#0x104]
        0x000195a4:    4310        .C      ORRS     r0,r0,r2
        0x000195a6:    f8c40104    ....    STR      r0,[r4,#0x104]
        0x000195aa:    1c49        I.      ADDS     r1,r1,#1
        0x000195ac:    2910        .)      CMP      r1,#0x10
        0x000195ae:    d3e3        ..      BCC      0x19578 ; am_hal_timer_reset_config + 44
        0x000195b0:    6921        !i      LDR      r1,[r4,#0x10]
        0x000195b2:    ea410006    A...    ORR      r0,r1,r6
        0x000195b6:    6120         a      STR      r0,[r4,#0x10]
        0x000195b8:    9800        ..      LDR      r0,[sp,#0]
        0x000195ba:    f7fefee3    ....    BL       am_hal_interrupt_master_set ; 0x18384
        0x000195be:    f7fefedd    ....    BL       am_hal_interrupt_master_disable ; 0x1837c
        0x000195c2:    9000        ..      STR      r0,[sp,#0]
        0x000195c4:    f8d40104    ....    LDR      r0,[r4,#0x104]
        0x000195c8:    43b0        .C      BICS     r0,r0,r6
        0x000195ca:    f8c40104    ....    STR      r0,[r4,#0x104]
        0x000195ce:    0168        h.      LSLS     r0,r5,#5
        0x000195d0:    f1004780    ...G    ADD      r7,r0,#0x40000000
        0x000195d4:    f5074700    ...G    ADD      r7,r7,#0x8000
        0x000195d8:    f8d70200    ....    LDR      r0,[r7,#0x200]
        0x000195dc:    f0200001     ...    BIC      r0,r0,#1
        0x000195e0:    f8c70200    ....    STR      r0,[r7,#0x200]
        0x000195e4:    9800        ..      LDR      r0,[sp,#0]
        0x000195e6:    f7fefecd    ....    BL       am_hal_interrupt_master_set ; 0x18384
        0x000195ea:    f8d40104    ....    LDR      r0,[r4,#0x104]
        0x000195ee:    43b0        .C      BICS     r0,r0,r6
        0x000195f0:    f8c40104    ....    STR      r0,[r4,#0x104]
        0x000195f4:    2100        .!      MOVS     r1,#0
        0x000195f6:    f8c71200    ....    STR      r1,[r7,#0x200]
        0x000195fa:    f8c71204    ....    STR      r1,[r7,#0x204]
        0x000195fe:    f8c71208    ....    STR      r1,[r7,#0x208]
        0x00019602:    f8c7120c    ....    STR      r1,[r7,#0x20c]
        0x00019606:    f8c71210    ....    STR      r1,[r7,#0x210]
        0x0001960a:    f8d40104    ....    LDR      r0,[r4,#0x104]
        0x0001960e:    4330        0C      ORRS     r0,r0,r6
        0x00019610:    f8c40104    ....    STR      r0,[r4,#0x104]
        0x00019614:    f8c48068    ..h.    STR      r8,[r4,#0x68]
        0x00019618:    4806        .H      LDR      r0,[pc,#24] ; [0x19634] = 0x10000658
        0x0001961a:    f8001025    ..%.    STRB     r1,[r0,r5,LSL #2]
        0x0001961e:    eb000085    ....    ADD      r0,r0,r5,LSL #2
        0x00019622:    7041        Ap      STRB     r1,[r0,#1]
        0x00019624:    7081        .p      STRB     r1,[r0,#2]
        0x00019626:    70c1        .p      STRB     r1,[r0,#3]
        0x00019628:    4608        .F      MOV      r0,r1
        0x0001962a:    e8bd83f8    ....    POP      {r3-r9,pc}
    $d
        0x0001962e:    0000        ..      DCW    0
        0x00019630:    40008000    ...@    DCD    1073774592
        0x00019634:    10000658    X...    DCD    268437080
    $t
    i.am_hal_timer_start
    am_hal_timer_start
        0x00019638:    b538        8.      PUSH     {r3-r5,lr}
        0x0001963a:    4604        .F      MOV      r4,r0
        0x0001963c:    f7fefe9e    ....    BL       am_hal_interrupt_master_disable ; 0x1837c
        0x00019640:    490d        .I      LDR      r1,[pc,#52] ; [0x19678] = 0x40008000
        0x00019642:    9000        ..      STR      r0,[sp,#0]
        0x00019644:    f8d12104    ...!    LDR      r2,[r1,#0x104]
        0x00019648:    2001        .       MOVS     r0,#1
        0x0001964a:    40a0        .@      LSLS     r0,r0,r4
        0x0001964c:    4382        .C      BICS     r2,r2,r0
        0x0001964e:    f8c12104    ...!    STR      r2,[r1,#0x104]
        0x00019652:    0162        b.      LSLS     r2,r4,#5
        0x00019654:    440a        .D      ADD      r2,r2,r1
        0x00019656:    f8d23200    ...2    LDR      r3,[r2,#0x200]
        0x0001965a:    f0430301    C...    ORR      r3,r3,#1
        0x0001965e:    f8c23200    ...2    STR      r3,[r2,#0x200]
        0x00019662:    f8d12104    ...!    LDR      r2,[r1,#0x104]
        0x00019666:    4310        .C      ORRS     r0,r0,r2
        0x00019668:    f8c10104    ....    STR      r0,[r1,#0x104]
        0x0001966c:    9800        ..      LDR      r0,[sp,#0]
        0x0001966e:    f7fefe89    ....    BL       am_hal_interrupt_master_set ; 0x18384
        0x00019672:    2000        .       MOVS     r0,#0
        0x00019674:    bd38        8.      POP      {r3-r5,pc}
    $d
        0x00019676:    0000        ..      DCW    0
        0x00019678:    40008000    ...@    DCD    1073774592
    $t
    i.am_hal_timer_stop
    am_hal_timer_stop
        0x0001967c:    b538        8.      PUSH     {r3-r5,lr}
        0x0001967e:    4604        .F      MOV      r4,r0
        0x00019680:    f7fefe7c    ..|.    BL       am_hal_interrupt_master_disable ; 0x1837c
        0x00019684:    9000        ..      STR      r0,[sp,#0]
        0x00019686:    480c        .H      LDR      r0,[pc,#48] ; [0x196b8] = 0x40008000
        0x00019688:    f8d01104    ....    LDR      r1,[r0,#0x104]
        0x0001968c:    2201        ."      MOVS     r2,#1
        0x0001968e:    40a2        .@      LSLS     r2,r2,r4
        0x00019690:    4391        .C      BICS     r1,r1,r2
        0x00019692:    f8c01104    ....    STR      r1,[r0,#0x104]
        0x00019696:    0160        `.      LSLS     r0,r4,#5
        0x00019698:    f1004080    ...@    ADD      r0,r0,#0x40000000
        0x0001969c:    f5004000    ...@    ADD      r0,r0,#0x8000
        0x000196a0:    f8d01200    ....    LDR      r1,[r0,#0x200]
        0x000196a4:    f0210101    !...    BIC      r1,r1,#1
        0x000196a8:    f8c01200    ....    STR      r1,[r0,#0x200]
        0x000196ac:    9800        ..      LDR      r0,[sp,#0]
        0x000196ae:    f7fefe69    ..i.    BL       am_hal_interrupt_master_set ; 0x18384
        0x000196b2:    2000        .       MOVS     r0,#0
        0x000196b4:    bd38        8.      POP      {r3-r5,pc}
    $d
        0x000196b6:    0000        ..      DCW    0
        0x000196b8:    40008000    ...@    DCD    1073774592
    $t
    i.am_hal_uart_configure
    am_hal_uart_configure
        0x000196bc:    6a42        Bj      LDR      r2,[r0,#0x24]
        0x000196be:    2800        .(      CMP      r0,#0
        0x000196c0:    bf1c        ..      ITT      NE
        0x000196c2:    6803        .h      LDRNE    r3,[r0,#0]
        0x000196c4:    f0137f80    ....    TSTNE    r3,#0x1000000
        0x000196c8:    d005        ..      BEQ      0x196d6 ; am_hal_uart_configure + 26
        0x000196ca:    f8dfc158    ..X.    LDR      r12,[pc,#344] ; [0x19824] = 0xea9e06
        0x000196ce:    f023437f    #..C    BIC      r3,r3,#0xff000000
        0x000196d2:    4563        cE      CMP      r3,r12
        0x000196d4:    d001        ..      BEQ      0x196da ; am_hal_uart_configure + 30
        0x000196d6:    2002        .       MOVS     r0,#2
        0x000196d8:    4770        pG      BX       lr
        0x000196da:    b470        p.      PUSH     {r4-r6}
        0x000196dc:    2500        .%      MOVS     r5,#0
        0x000196de:    0312        ..      LSLS     r2,r2,#12
        0x000196e0:    f1024280    ...B    ADD      r2,r2,#0x40000000
        0x000196e4:    f50232e0    ...2    ADD      r2,r2,#0x1c000
        0x000196e8:    6315        .c      STR      r5,[r2,#0x30]
        0x000196ea:    6b13        .k      LDR      r3,[r2,#0x30]
        0x000196ec:    f0430308    C...    ORR      r3,r3,#8
        0x000196f0:    6313        .c      STR      r3,[r2,#0x30]
        0x000196f2:    6b13        .k      LDR      r3,[r2,#0x30]
        0x000196f4:    f0230370    #.p.    BIC      r3,r3,#0x70
        0x000196f8:    3310        .3      ADDS     r3,r3,#0x10
        0x000196fa:    6313        .c      STR      r3,[r2,#0x30]
        0x000196fc:    6b13        .k      LDR      r3,[r2,#0x30]
        0x000196fe:    f0230301    #...    BIC      r3,r3,#1
        0x00019702:    6313        .c      STR      r3,[r2,#0x30]
        0x00019704:    6b13        .k      LDR      r3,[r2,#0x30]
        0x00019706:    f4237300    #..s    BIC      r3,r3,#0x200
        0x0001970a:    6313        .c      STR      r3,[r2,#0x30]
        0x0001970c:    6b13        .k      LDR      r3,[r2,#0x30]
        0x0001970e:    f4237380    #..s    BIC      r3,r3,#0x100
        0x00019712:    6313        .c      STR      r3,[r2,#0x30]
        0x00019714:    f8d1c000    ....    LDR      r12,[r1,#0]
        0x00019718:    6b13        .k      LDR      r3,[r2,#0x30]
        0x0001971a:    f3c31302    ....    UBFX     r3,r3,#4,#3
        0x0001971e:    2b01        .+      CMP      r3,#1
        0x00019720:    bf08        ..      IT       EQ
        0x00019722:    4b41        AK      LDREQ    r3,[pc,#260] ; [0x19828] = 0x16e3600
        0x00019724:    d00f        ..      BEQ      0x19746 ; am_hal_uart_configure + 138
        0x00019726:    2b02        .+      CMP      r3,#2
        0x00019728:    bf08        ..      IT       EQ
        0x0001972a:    4b40        @K      LDREQ    r3,[pc,#256] ; [0x1982c] = 0xb71b00
        0x0001972c:    d00b        ..      BEQ      0x19746 ; am_hal_uart_configure + 138
        0x0001972e:    2b03        .+      CMP      r3,#3
        0x00019730:    bf08        ..      IT       EQ
        0x00019732:    4b3f        ?K      LDREQ    r3,[pc,#252] ; [0x19830] = 0x5b8d80
        0x00019734:    d007        ..      BEQ      0x19746 ; am_hal_uart_configure + 138
        0x00019736:    2b04        .+      CMP      r3,#4
        0x00019738:    bf1b        ..      ITTET    NE
        0x0001973a:    6285        .b      STRNE    r5,[r0,#0x28]
        0x0001973c:    483d        =H      LDRNE    r0,[pc,#244] ; [0x19834] = 0x8000002
        0x0001973e:    4b3e        >K      LDREQ    r3,[pc,#248] ; [0x19838] = 0x2dc6c0
        0x00019740:    bc70        p.      POPNE    {r4-r6}
        0x00019742:    bf18        ..      IT       NE
        0x00019744:    4770        pG      BXNE     lr
        0x00019746:    ea4f1c0c    O...    LSL      r12,r12,#4
        0x0001974a:    fbb3f4fc    ....    UDIV     r4,r3,r12
        0x0001974e:    019e        ..      LSLS     r6,r3,#6
        0x00019750:    fbb6fcfc    ....    UDIV     r12,r6,r12
        0x00019754:    01a6        ..      LSLS     r6,r4,#6
        0x00019756:    ebbc0c06    ....    SUBS     r12,r12,r6
        0x0001975a:    2c00        .,      CMP      r4,#0
        0x0001975c:    bf01        ..      ITTTT    EQ
        0x0001975e:    6285        .b      STREQ    r5,[r0,#0x28]
        0x00019760:    4836        6H      LDREQ    r0,[pc,#216] ; [0x1983c] = 0x8000003
        0x00019762:    bc70        p.      POPEQ    {r4-r6}
        0x00019764:    4770        pG      BXEQ     lr
        0x00019766:    6254        Tb      STR      r4,[r2,#0x24]
        0x00019768:    f8c2c028    ..(.    STR      r12,[r2,#0x28]
        0x0001976c:    0124        $.      LSLS     r4,r4,#4
        0x0001976e:    eb040c9c    ....    ADD      r12,r4,r12,LSR #2
        0x00019772:    fbb3f3fc    ....    UDIV     r3,r3,r12
        0x00019776:    6283        .b      STR      r3,[r0,#0x28]
        0x00019778:    6b10        .k      LDR      r0,[r2,#0x30]
        0x0001977a:    f4204080     ..@    BIC      r0,r0,#0x4000
        0x0001977e:    6310        .c      STR      r0,[r2,#0x30]
        0x00019780:    6b10        .k      LDR      r0,[r2,#0x30]
        0x00019782:    f4204000     ..@    BIC      r0,r0,#0x8000
        0x00019786:    6310        .c      STR      r0,[r2,#0x30]
        0x00019788:    6b10        .k      LDR      r0,[r2,#0x30]
        0x0001978a:    890b        ..      LDRH     r3,[r1,#8]
        0x0001978c:    4318        .C      ORRS     r0,r0,r3
        0x0001978e:    6310        .c      STR      r0,[r2,#0x30]
        0x00019790:    2000        .       MOVS     r0,#0
        0x00019792:    f891c005    ....    LDRB     r12,[r1,#5]
        0x00019796:    4603        .F      MOV      r3,r0
        0x00019798:    f1bc0f00    ....    CMP      r12,#0
        0x0001979c:    bf08        ..      IT       EQ
        0x0001979e:    2001        .       MOVEQ    r0,#1
        0x000197a0:    d004        ..      BEQ      0x197ac ; am_hal_uart_configure + 240
        0x000197a2:    f1bc0f01    ....    CMP      r12,#1
        0x000197a6:    bf04        ..      ITT      EQ
        0x000197a8:    2001        .       MOVEQ    r0,#1
        0x000197aa:    4603        .F      MOVEQ    r3,r0
        0x000197ac:    f8d2c02c    ..,.    LDR      r12,[r2,#0x2c]
        0x000197b0:    f02c0c01    ,...    BIC      r12,r12,#1
        0x000197b4:    f8c2c02c    ..,.    STR      r12,[r2,#0x2c]
        0x000197b8:    f8d2c02c    ..,.    LDR      r12,[r2,#0x2c]
        0x000197bc:    f3600c41    `.A.    BFI      r12,r0,#1,#1
        0x000197c0:    f8c2c02c    ..,.    STR      r12,[r2,#0x2c]
        0x000197c4:    6ad0        .j      LDR      r0,[r2,#0x2c]
        0x000197c6:    f3630082    c...    BFI      r0,r3,#2,#1
        0x000197ca:    62d0        .b      STR      r0,[r2,#0x2c]
        0x000197cc:    798b        .y      LDRB     r3,[r1,#6]
        0x000197ce:    6ad0        .j      LDR      r0,[r2,#0x2c]
        0x000197d0:    f36300c3    c...    BFI      r0,r3,#3,#1
        0x000197d4:    62d0        .b      STR      r0,[r2,#0x2c]
        0x000197d6:    6ad0        .j      LDR      r0,[r2,#0x2c]
        0x000197d8:    f0400010    @...    ORR      r0,r0,#0x10
        0x000197dc:    62d0        .b      STR      r0,[r2,#0x2c]
        0x000197de:    790b        .y      LDRB     r3,[r1,#4]
        0x000197e0:    6ad0        .j      LDR      r0,[r2,#0x2c]
        0x000197e2:    f3631046    c.F.    BFI      r0,r3,#5,#2
        0x000197e6:    62d0        .b      STR      r0,[r2,#0x2c]
        0x000197e8:    6ad0        .j      LDR      r0,[r2,#0x2c]
        0x000197ea:    f0200080     ...    BIC      r0,r0,#0x80
        0x000197ee:    62d0        .b      STR      r0,[r2,#0x2c]
        0x000197f0:    7a8b        .z      LDRB     r3,[r1,#0xa]
        0x000197f2:    6b50        Pk      LDR      r0,[r2,#0x34]
        0x000197f4:    f3630002    c...    BFI      r0,r3,#0,#3
        0x000197f8:    6350        Pc      STR      r0,[r2,#0x34]
        0x000197fa:    7ac9        .z      LDRB     r1,[r1,#0xb]
        0x000197fc:    6b50        Pk      LDR      r0,[r2,#0x34]
        0x000197fe:    f36100c5    a...    BFI      r0,r1,#3,#3
        0x00019802:    6350        Pc      STR      r0,[r2,#0x34]
        0x00019804:    6b10        .k      LDR      r0,[r2,#0x30]
        0x00019806:    f0400001    @...    ORR      r0,r0,#1
        0x0001980a:    6310        .c      STR      r0,[r2,#0x30]
        0x0001980c:    6b10        .k      LDR      r0,[r2,#0x30]
        0x0001980e:    f4407000    @..p    ORR      r0,r0,#0x200
        0x00019812:    6310        .c      STR      r0,[r2,#0x30]
        0x00019814:    6b10        .k      LDR      r0,[r2,#0x30]
        0x00019816:    f4407080    @..p    ORR      r0,r0,#0x100
        0x0001981a:    6310        .c      STR      r0,[r2,#0x30]
        0x0001981c:    bc70        p.      POP      {r4-r6}
        0x0001981e:    2000        .       MOVS     r0,#0
        0x00019820:    4770        pG      BX       lr
    $d
        0x00019822:    0000        ..      DCW    0
        0x00019824:    00ea9e06    ....    DCD    15375878
        0x00019828:    016e3600    .6n.    DCD    24000000
        0x0001982c:    00b71b00    ....    DCD    12000000
        0x00019830:    005b8d80    ..[.    DCD    6000000
        0x00019834:    08000002    ....    DCD    134217730
        0x00019838:    002dc6c0    ..-.    DCD    3000000
        0x0001983c:    08000003    ....    DCD    134217731
    $t
    i.am_hal_uart_deinitialize
    am_hal_uart_deinitialize
        0x00019840:    2800        .(      CMP      r0,#0
        0x00019842:    bf1c        ..      ITT      NE
        0x00019844:    6801        .h      LDRNE    r1,[r0,#0]
        0x00019846:    f0117f80    ....    TSTNE    r1,#0x1000000
        0x0001984a:    d004        ..      BEQ      0x19856 ; am_hal_uart_deinitialize + 22
        0x0001984c:    4b07        .K      LDR      r3,[pc,#28] ; [0x1986c] = 0xea9e06
        0x0001984e:    f021427f    !..B    BIC      r2,r1,#0xff000000
        0x00019852:    429a        .B      CMP      r2,r3
        0x00019854:    d001        ..      BEQ      0x1985a ; am_hal_uart_deinitialize + 26
        0x00019856:    2002        .       MOVS     r0,#2
        0x00019858:    4770        pG      BX       lr
        0x0001985a:    f001417e    ..~A    AND      r1,r1,#0xfe000000
        0x0001985e:    6001        .`      STR      r1,[r0,#0]
        0x00019860:    2100        .!      MOVS     r1,#0
        0x00019862:    6241        Ab      STR      r1,[r0,#0x24]
        0x00019864:    7101        .q      STRB     r1,[r0,#4]
        0x00019866:    4608        .F      MOV      r0,r1
        0x00019868:    4770        pG      BX       lr
    $d
        0x0001986a:    0000        ..      DCW    0
        0x0001986c:    00ea9e06    ....    DCD    15375878
    $t
    i.am_hal_uart_initialize
    am_hal_uart_initialize
        0x00019870:    2804        .(      CMP      r0,#4
        0x00019872:    bf24        $.      ITT      CS
        0x00019874:    2005        .       MOVCS    r0,#5
        0x00019876:    4770        pG      BXCS     lr
        0x00019878:    2900        .)      CMP      r1,#0
        0x0001987a:    bf04        ..      ITT      EQ
        0x0001987c:    2006        .       MOVEQ    r0,#6
        0x0001987e:    4770        pG      BXEQ     lr
        0x00019880:    b410        ..      PUSH     {r4}
        0x00019882:    680a        .h      LDR      r2,[r1,#0]
        0x00019884:    4c14        .L      LDR      r4,[pc,#80] ; [0x198d8] = 0xea9e06
        0x00019886:    2a00        .*      CMP      r2,#0
        0x00019888:    bf1c        ..      ITT      NE
        0x0001988a:    6812        .h      LDRNE    r2,[r2,#0]
        0x0001988c:    f0127f80    ....    TSTNE    r2,#0x1000000
        0x00019890:    d006        ..      BEQ      0x198a0 ; am_hal_uart_initialize + 48
        0x00019892:    f022427f    "..B    BIC      r2,r2,#0xff000000
        0x00019896:    42a2        .B      CMP      r2,r4
        0x00019898:    bf02        ..      ITTT     EQ
        0x0001989a:    2007        .       MOVEQ    r0,#7
        0x0001989c:    bc10        ..      POPEQ    {r4}
        0x0001989e:    4770        pG      BXEQ     lr
        0x000198a0:    222b        +"      MOVS     r2,#0x2b
        0x000198a2:    4342        BC      MULS     r2,r0,r2
        0x000198a4:    4b0d        .K      LDR      r3,[pc,#52] ; [0x198dc] = 0x100003a8
        0x000198a6:    f853c022    S.".    LDR      r12,[r3,r2,LSL #2]
        0x000198aa:    f04c7c80    L..|    ORR      r12,r12,#0x1000000
        0x000198ae:    f3640c17    d...    BFI      r12,r4,#0,#24
        0x000198b2:    f843c022    C.".    STR      r12,[r3,r2,LSL #2]
        0x000198b6:    eb030282    ....    ADD      r2,r3,r2,LSL #2
        0x000198ba:    6250        Pb      STR      r0,[r2,#0x24]
        0x000198bc:    2000        .       MOVS     r0,#0
        0x000198be:    7110        .q      STRB     r0,[r2,#4]
        0x000198c0:    6290        .b      STR      r0,[r2,#0x28]
        0x000198c2:    f882002c    ..,.    STRB     r0,[r2,#0x2c]
        0x000198c6:    f8820050    ..P.    STRB     r0,[r2,#0x50]
        0x000198ca:    f8820074    ..t.    STRB     r0,[r2,#0x74]
        0x000198ce:    f8820090    ....    STRB     r0,[r2,#0x90]
        0x000198d2:    600a        .`      STR      r2,[r1,#0]
        0x000198d4:    bc10        ..      POP      {r4}
        0x000198d6:    4770        pG      BX       lr
    $d
        0x000198d8:    00ea9e06    ....    DCD    15375878
        0x000198dc:    100003a8    ....    DCD    268436392
    $t
    i.am_hal_uart_power_control
    am_hal_uart_power_control
        0x000198e0:    b570        p.      PUSH     {r4-r6,lr}
        0x000198e2:    6a45        Ej      LDR      r5,[r0,#0x24]
        0x000198e4:    1e04        ..      SUBS     r4,r0,#0
        0x000198e6:    f1050309    ....    ADD      r3,r5,#9
        0x000198ea:    b2db        ..      UXTB     r3,r3
        0x000198ec:    bf1c        ..      ITT      NE
        0x000198ee:    6820         h      LDRNE    r0,[r4,#0]
        0x000198f0:    f0107f80    ....    TSTNE    r0,#0x1000000
        0x000198f4:    d005        ..      BEQ      0x19902 ; am_hal_uart_power_control + 34
        0x000198f6:    f8dfc0c0    ....    LDR      r12,[pc,#192] ; [0x199b8] = 0xea9e06
        0x000198fa:    f020407f     ..@    BIC      r0,r0,#0xff000000
        0x000198fe:    4560        `E      CMP      r0,r12
        0x00019900:    d001        ..      BEQ      0x19906 ; am_hal_uart_power_control + 38
        0x00019902:    2002        .       MOVS     r0,#2
        0x00019904:    bd70        p.      POP      {r4-r6,pc}
        0x00019906:    2900        .)      CMP      r1,#0
        0x00019908:    d032        2.      BEQ      0x19970 ; am_hal_uart_power_control + 144
        0x0001990a:    2901        .)      CMP      r1,#1
        0x0001990c:    bf1e        ..      ITTT     NE
        0x0001990e:    2902        .)      CMPNE    r1,#2
        0x00019910:    2006        .       MOVNE    r0,#6
        0x00019912:    bd70        p.      POPNE    {r4-r6,pc}
        0x00019914:    b1b2        ..      CBZ      r2,0x19944 ; am_hal_uart_power_control + 100
        0x00019916:    ea4f3005    O..0    LSL      r0,r5,#12
        0x0001991a:    f1004080    ...@    ADD      r0,r0,#0x40000000
        0x0001991e:    f50030e0    ...0    ADD      r0,r0,#0x1c000
        0x00019922:    6a01        .j      LDR      r1,[r0,#0x20]
        0x00019924:    60a1        .`      STR      r1,[r4,#8]
        0x00019926:    6a41        Aj      LDR      r1,[r0,#0x24]
        0x00019928:    60e1        .`      STR      r1,[r4,#0xc]
        0x0001992a:    6a81        .j      LDR      r1,[r0,#0x28]
        0x0001992c:    6121        !a      STR      r1,[r4,#0x10]
        0x0001992e:    6ac1        .j      LDR      r1,[r0,#0x2c]
        0x00019930:    6161        aa      STR      r1,[r4,#0x14]
        0x00019932:    6b01        .k      LDR      r1,[r0,#0x30]
        0x00019934:    61a1        .a      STR      r1,[r4,#0x18]
        0x00019936:    6b41        Ak      LDR      r1,[r0,#0x34]
        0x00019938:    61e1        .a      STR      r1,[r4,#0x1c]
        0x0001993a:    6b80        .k      LDR      r0,[r0,#0x38]
        0x0001993c:    6220         b      STR      r0,[r4,#0x20]
        0x0001993e:    f04f0001    O...    MOV      r0,#1
        0x00019942:    7120         q      STRB     r0,[r4,#4]
        0x00019944:    6822        "h      LDR      r2,[r4,#0]
        0x00019946:    6a61        aj      LDR      r1,[r4,#0x24]
        0x00019948:    f04f30ff    O..0    MOV      r0,#0xffffffff
        0x0001994c:    f0127f80    ....    TST      r2,#0x1000000
        0x00019950:    d009        ..      BEQ      0x19966 ; am_hal_uart_power_control + 134
        0x00019952:    f022427f    "..B    BIC      r2,r2,#0xff000000
        0x00019956:    4562        bE      CMP      r2,r12
        0x00019958:    d105        ..      BNE      0x19966 ; am_hal_uart_power_control + 134
        0x0001995a:    0309        ..      LSLS     r1,r1,#12
        0x0001995c:    f1014180    ...A    ADD      r1,r1,#0x40000000
        0x00019960:    f50131e0    ...1    ADD      r1,r1,#0x1c000
        0x00019964:    6448        Hd      STR      r0,[r1,#0x44]
        0x00019966:    4618        .F      MOV      r0,r3
        0x00019968:    f7fffbd4    ....    BL       am_hal_pwrctrl_periph_disable ; 0x19114
        0x0001996c:    2000        .       MOVS     r0,#0
        0x0001996e:    bd70        p.      POP      {r4-r6,pc}
        0x00019970:    b1ea        ..      CBZ      r2,0x199ae ; am_hal_uart_power_control + 206
        0x00019972:    7920         y      LDRB     r0,[r4,#4]
        0x00019974:    2800        .(      CMP      r0,#0
        0x00019976:    bf04        ..      ITT      EQ
        0x00019978:    2007        .       MOVEQ    r0,#7
        0x0001997a:    bd70        p.      POPEQ    {r4-r6,pc}
        0x0001997c:    4618        .F      MOV      r0,r3
        0x0001997e:    f7fffc01    ....    BL       am_hal_pwrctrl_periph_enable ; 0x19184
        0x00019982:    0328        (.      LSLS     r0,r5,#12
        0x00019984:    f1004080    ...@    ADD      r0,r0,#0x40000000
        0x00019988:    f50030e0    ...0    ADD      r0,r0,#0x1c000
        0x0001998c:    68a1        .h      LDR      r1,[r4,#8]
        0x0001998e:    6201        .b      STR      r1,[r0,#0x20]
        0x00019990:    68e1        .h      LDR      r1,[r4,#0xc]
        0x00019992:    6241        Ab      STR      r1,[r0,#0x24]
        0x00019994:    6921        !i      LDR      r1,[r4,#0x10]
        0x00019996:    6281        .b      STR      r1,[r0,#0x28]
        0x00019998:    6961        ai      LDR      r1,[r4,#0x14]
        0x0001999a:    62c1        .b      STR      r1,[r0,#0x2c]
        0x0001999c:    69a1        .i      LDR      r1,[r4,#0x18]
        0x0001999e:    6301        .c      STR      r1,[r0,#0x30]
        0x000199a0:    69e1        .i      LDR      r1,[r4,#0x1c]
        0x000199a2:    6341        Ac      STR      r1,[r0,#0x34]
        0x000199a4:    6a21        !j      LDR      r1,[r4,#0x20]
        0x000199a6:    6381        .c      STR      r1,[r0,#0x38]
        0x000199a8:    2000        .       MOVS     r0,#0
        0x000199aa:    7120         q      STRB     r0,[r4,#4]
        0x000199ac:    e7de        ..      B        0x1996c ; am_hal_uart_power_control + 140
        0x000199ae:    4618        .F      MOV      r0,r3
        0x000199b0:    f7fffbe8    ....    BL       am_hal_pwrctrl_periph_enable ; 0x19184
        0x000199b4:    e7da        ..      B        0x1996c ; am_hal_uart_power_control + 140
    $d
        0x000199b6:    0000        ..      DCW    0
        0x000199b8:    00ea9e06    ....    DCD    15375878
    $t
    i.am_hal_uart_transfer
    am_hal_uart_transfer
        0x000199bc:    e92d4ff0    -..O    PUSH     {r4-r11,lr}
        0x000199c0:    460c        .F      MOV      r4,r1
        0x000199c2:    7809        .x      LDRB     r1,[r1,#0]
        0x000199c4:    b09d        ..      SUB      sp,sp,#0x74
        0x000199c6:    4605        .F      MOV      r5,r0
        0x000199c8:    b199        ..      CBZ      r1,0x199f2 ; am_hal_uart_transfer + 54
        0x000199ca:    4bdf        .K      LDR      r3,[pc,#892] ; [0x19d48] = 0xea9e06
        0x000199cc:    2002        .       MOVS     r0,#2
        0x000199ce:    2901        .)      CMP      r1,#1
        0x000199d0:    d054        T.      BEQ      0x19a7c ; am_hal_uart_transfer + 192
        0x000199d2:    2902        .)      CMP      r1,#2
        0x000199d4:    f000811a    ....    BEQ.W    0x19c0c ; am_hal_uart_transfer + 592
        0x000199d8:    2903        .)      CMP      r1,#3
        0x000199da:    bf1e        ..      ITTT     NE
        0x000199dc:    2001        .       MOVNE    r0,#1
        0x000199de:    b01d        ..      ADDNE    sp,sp,#0x74
        0x000199e0:    e8bd8ff0    ....    POPNE    {r4-r11,pc}
        0x000199e4:    4621        !F      MOV      r1,r4
        0x000199e6:    b01d        ..      ADD      sp,sp,#0x74
        0x000199e8:    4628        (F      MOV      r0,r5
        0x000199ea:    e8bd4ff0    ...O    POP      {r4-r11,lr}
        0x000199ee:    f001b997    ....    B.W      nonblocking_read ; 0x1ad20
        0x000199f2:    2700        .'      MOVS     r7,#0
        0x000199f4:    f8d49010    ....    LDR      r9,[r4,#0x10]
        0x000199f8:    9703        ..      STR      r7,[sp,#0xc]
        0x000199fa:    68a5        .h      LDR      r5,[r4,#8]
        0x000199fc:    4606        .F      MOV      r6,r0
        0x000199fe:    46ba        .F      MOV      r10,r7
        0x00019a00:    46b8        .F      MOV      r8,r7
        0x00019a02:    bb8d        ..      CBNZ     r5,0x19a68 ; am_hal_uart_transfer + 172
        0x00019a04:    e032        2.      B        0x19a6c ; am_hal_uart_transfer + 176
        0x00019a06:    6860        `h      LDR      r0,[r4,#4]
        0x00019a08:    6a73        sj      LDR      r3,[r6,#0x24]
        0x00019a0a:    19c2        ..      ADDS     r2,r0,r7
        0x00019a0c:    f10d0c0c    ....    ADD      r12,sp,#0xc
        0x00019a10:    2100        .!      MOVS     r1,#0
        0x00019a12:    b1c5        ..      CBZ      r5,0x19a46 ; am_hal_uart_transfer + 138
        0x00019a14:    f1b54f00    ...O    CMP      r5,#0x80000000
        0x00019a18:    f0808172    ..r.    BCS.W    0x19d00 ; am_hal_uart_transfer + 836
        0x00019a1c:    2001        .       MOVS     r0,#1
        0x00019a1e:    2d01        .-      CMP      r5,#1
        0x00019a20:    db11        ..      BLT      0x19a46 ; am_hal_uart_transfer + 138
        0x00019a22:    031b        ..      LSLS     r3,r3,#12
        0x00019a24:    f1034380    ...C    ADD      r3,r3,#0x40000000
        0x00019a28:    f50333e0    ...3    ADD      r3,r3,#0x1c000
        0x00019a2c:    f8d3b018    ....    LDR      r11,[r3,#0x18]
        0x00019a30:    f01b0f20    .. .    TST      r11,#0x20
        0x00019a34:    d107        ..      BNE      0x19a46 ; am_hal_uart_transfer + 138
        0x00019a36:    f812b001    ....    LDRB     r11,[r2,r1]
        0x00019a3a:    f8c3b000    ....    STR      r11,[r3,#0]
        0x00019a3e:    1c40        @.      ADDS     r0,r0,#1
        0x00019a40:    1c49        I.      ADDS     r1,r1,#1
        0x00019a42:    42a8        .B      CMP      r0,r5
        0x00019a44:    ddf2        ..      BLE      0x19a2c ; am_hal_uart_transfer + 112
        0x00019a46:    f1bc0f00    ....    CMP      r12,#0
        0x00019a4a:    bf18        ..      IT       NE
        0x00019a4c:    9103        ..      STRNE    r1,[sp,#0xc]
        0x00019a4e:    9803        ..      LDR      r0,[sp,#0xc]
        0x00019a50:    4407        .D      ADD      r7,r7,r0
        0x00019a52:    1a2d        -.      SUBS     r5,r5,r0
        0x00019a54:    d00a        ..      BEQ      0x19a6c ; am_hal_uart_transfer + 176
        0x00019a56:    f44f707a    O.zp    MOV      r0,#0x3e8
        0x00019a5a:    f7fefead    ....    BL       am_hal_delay_us ; 0x187b8
        0x00019a5e:    f1b93fff    ...?    CMP      r9,#0xffffffff
        0x00019a62:    bf18        ..      IT       NE
        0x00019a64:    f1080801    ....    ADDNE    r8,r8,#1
        0x00019a68:    45c8        .E      CMP      r8,r9
        0x00019a6a:    d3cc        ..      BCC      0x19a06 ; am_hal_uart_transfer + 74
        0x00019a6c:    68e0        .h      LDR      r0,[r4,#0xc]
        0x00019a6e:    2800        .(      CMP      r0,#0
        0x00019a70:    bf18        ..      IT       NE
        0x00019a72:    6007        .`      STRNE    r7,[r0,#0]
        0x00019a74:    4650        PF      MOV      r0,r10
        0x00019a76:    b01d        ..      ADD      sp,sp,#0x74
        0x00019a78:    e8bd8ff0    ....    POP      {r4-r11,pc}
        0x00019a7c:    e9d47602    ...v    LDRD     r7,r6,[r4,#8]
        0x00019a80:    f04f0800    O...    MOV      r8,#0
        0x00019a84:    f8d4b010    ....    LDR      r11,[r4,#0x10]
        0x00019a88:    46c2        .F      MOV      r10,r8
        0x00019a8a:    2f00        ./      CMP      r7,#0
        0x00019a8c:    d17a        z.      BNE      0x19b84 ; am_hal_uart_transfer + 456
        0x00019a8e:    e0b7        ..      B        0x19c00 ; am_hal_uart_transfer + 580
        0x00019a90:    e9d40902    ....    LDRD     r0,r9,[r4,#8]
        0x00019a94:    9008        ..      STR      r0,[sp,#0x20]
        0x00019a96:    6860        `h      LDR      r0,[r4,#4]
        0x00019a98:    900a        ..      STR      r0,[sp,#0x28]
        0x00019a9a:    2d00        .-      CMP      r5,#0
        0x00019a9c:    bf1c        ..      ITT      NE
        0x00019a9e:    6828        (h      LDRNE    r0,[r5,#0]
        0x00019aa0:    f0107f80    ....    TSTNE    r0,#0x1000000
        0x00019aa4:    d004        ..      BEQ      0x19ab0 ; am_hal_uart_transfer + 244
        0x00019aa6:    f020417f     ..A    BIC      r1,r0,#0xff000000
        0x00019aaa:    48a7        .H      LDR      r0,[pc,#668] ; [0x19d48] = 0xea9e06
        0x00019aac:    4281        .B      CMP      r1,r0
        0x00019aae:    d001        ..      BEQ      0x19ab4 ; am_hal_uart_transfer + 248
        0x00019ab0:    2002        .       MOVS     r0,#2
        0x00019ab2:    e05c        \.      B        0x19b6e ; am_hal_uart_transfer + 434
        0x00019ab4:    f1b90f00    ....    CMP      r9,#0
        0x00019ab8:    bf1c        ..      ITT      NE
        0x00019aba:    2000        .       MOVNE    r0,#0
        0x00019abc:    f8c90000    ....    STRNE    r0,[r9,#0]
        0x00019ac0:    9808        ..      LDR      r0,[sp,#0x20]
        0x00019ac2:    2800        .(      CMP      r0,#0
        0x00019ac4:    d053        S.      BEQ      0x19b6e ; am_hal_uart_transfer + 434
        0x00019ac6:    f8950090    ....    LDRB     r0,[r5,#0x90]
        0x00019aca:    2800        .(      CMP      r0,#0
        0x00019acc:    d062        b.      BEQ      0x19b94 ; am_hal_uart_transfer + 472
        0x00019ace:    9501        ..      STR      r5,[sp,#4]
        0x00019ad0:    951a        ..      STR      r5,[sp,#0x68]
        0x00019ad2:    f7fefc53    ..S.    BL       am_hal_interrupt_master_disable ; 0x1837c
        0x00019ad6:    9016        ..      STR      r0,[sp,#0x58]
        0x00019ad8:    a817        ..      ADD      r0,sp,#0x5c
        0x00019ada:    9901        ..      LDR      r1,[sp,#4]
        0x00019adc:    901b        ..      STR      r0,[sp,#0x6c]
        0x00019ade:    2000        .       MOVS     r0,#0
        0x00019ae0:    9018        ..      STR      r0,[sp,#0x60]
        0x00019ae2:    6a49        Ij      LDR      r1,[r1,#0x24]
        0x00019ae4:    2320         #      MOVS     r3,#0x20
        0x00019ae6:    0309        ..      LSLS     r1,r1,#12
        0x00019ae8:    f1014280    ...B    ADD      r2,r1,#0x40000000
        0x00019aec:    f10d0c38    ..8.    ADD      r12,sp,#0x38
        0x00019af0:    f50232e0    ...2    ADD      r2,r2,#0x1c000
        0x00019af4:    6991        .i      LDR      r1,[r2,#0x18]
        0x00019af6:    f0110f10    ....    TST      r1,#0x10
        0x00019afa:    d10c        ..      BNE      0x19b16 ; am_hal_uart_transfer + 346
        0x00019afc:    6811        .h      LDR      r1,[r2,#0]
        0x00019afe:    f4116f70    ..po    TST      r1,#0xf00
        0x00019b02:    d003        ..      BEQ      0x19b0c ; am_hal_uart_transfer + 336
        0x00019b04:    f04f6100    O..a    MOV      r1,#0x8000000
        0x00019b08:    9118        ..      STR      r1,[sp,#0x60]
        0x00019b0a:    e004        ..      B        0x19b16 ; am_hal_uart_transfer + 346
        0x00019b0c:    f80c1000    ....    STRB     r1,[r12,r0]
        0x00019b10:    1c40        @.      ADDS     r0,r0,#1
        0x00019b12:    4298        .B      CMP      r0,r3
        0x00019b14:    d3ee        ..      BCC      0x19af4 ; am_hal_uart_transfer + 312
        0x00019b16:    991b        ..      LDR      r1,[sp,#0x6c]
        0x00019b18:    2900        .)      CMP      r1,#0
        0x00019b1a:    bf18        ..      IT       NE
        0x00019b1c:    9017        ..      STRNE    r0,[sp,#0x5c]
        0x00019b1e:    9818        ..      LDR      r0,[sp,#0x60]
        0x00019b20:    9001        ..      STR      r0,[sp,#4]
        0x00019b22:    b120         .      CBZ      r0,0x19b2e ; am_hal_uart_transfer + 370
        0x00019b24:    9816        ..      LDR      r0,[sp,#0x58]
        0x00019b26:    f7fefc2d    ..-.    BL       am_hal_interrupt_master_set ; 0x18384
        0x00019b2a:    9801        ..      LDR      r0,[sp,#4]
        0x00019b2c:    e01f        ..      B        0x19b6e ; am_hal_uart_transfer + 434
        0x00019b2e:    981a        ..      LDR      r0,[sp,#0x68]
        0x00019b30:    4661        aF      MOV      r1,r12
        0x00019b32:    3094        .0      ADDS     r0,r0,#0x94
        0x00019b34:    9a17        ..      LDR      r2,[sp,#0x5c]
        0x00019b36:    f7fffba3    ....    BL       am_hal_queue_item_add ; 0x19280
        0x00019b3a:    b320         .      CBZ      r0,0x19b86 ; am_hal_uart_transfer + 458
        0x00019b3c:    9816        ..      LDR      r0,[sp,#0x58]
        0x00019b3e:    f7fefc21    ..!.    BL       am_hal_interrupt_master_set ; 0x18384
        0x00019b42:    9801        ..      LDR      r0,[sp,#4]
        0x00019b44:    900b        ..      STR      r0,[sp,#0x2c]
        0x00019b46:    f8d5209c    ...     LDR      r2,[r5,#0x9c]
        0x00019b4a:    9808        ..      LDR      r0,[sp,#0x20]
        0x00019b4c:    4290        .B      CMP      r0,r2
        0x00019b4e:    bf38        8.      IT       CC
        0x00019b50:    4602        .F      MOVCC    r2,r0
        0x00019b52:    9200        ..      STR      r2,[sp,#0]
        0x00019b54:    f1050094    ....    ADD      r0,r5,#0x94
        0x00019b58:    990a        ..      LDR      r1,[sp,#0x28]
        0x00019b5a:    f7fffbe3    ....    BL       am_hal_queue_item_get ; 0x19324
        0x00019b5e:    bf00        ..      NOP      
        0x00019b60:    f1b90f00    ....    CMP      r9,#0
        0x00019b64:    bf1c        ..      ITT      NE
        0x00019b66:    9800        ..      LDRNE    r0,[sp,#0]
        0x00019b68:    f8c90000    ....    STRNE    r0,[r9,#0]
        0x00019b6c:    980b        ..      LDR      r0,[sp,#0x2c]
        0x00019b6e:    6831        1h      LDR      r1,[r6,#0]
        0x00019b70:    4488        .D      ADD      r8,r8,r1
        0x00019b72:    1a7f        ..      SUBS     r7,r7,r1
        0x00019b74:    b3b0        ..      CBZ      r0,0x19be4 ; am_hal_uart_transfer + 552
        0x00019b76:    2e00        ..      CMP      r6,#0
        0x00019b78:    bf18        ..      IT       NE
        0x00019b7a:    f8c68000    ....    STRNE    r8,[r6,#0]
        0x00019b7e:    b01d        ..      ADD      sp,sp,#0x74
        0x00019b80:    e8bd8ff0    ....    POP      {r4-r11,pc}
        0x00019b84:    e039        9.      B        0x19bfa ; am_hal_uart_transfer + 574
        0x00019b86:    f8df91c4    ....    LDR      r9,[pc,#452] ; [0x19d4c] = 0x8000001
        0x00019b8a:    9816        ..      LDR      r0,[sp,#0x58]
        0x00019b8c:    f7fefbfa    ....    BL       am_hal_interrupt_master_set ; 0x18384
        0x00019b90:    4648        HF      MOV      r0,r9
        0x00019b92:    e7ec        ..      B        0x19b6e ; am_hal_uart_transfer + 434
        0x00019b94:    f8ddc028    ..(.    LDR      r12,[sp,#0x28]
        0x00019b98:    2000        .       MOVS     r0,#0
        0x00019b9a:    9b08        ..      LDR      r3,[sp,#0x20]
        0x00019b9c:    f8cdd02c    ..,.    STR      sp,[sp,#0x2c]
        0x00019ba0:    900a        ..      STR      r0,[sp,#0x28]
        0x00019ba2:    6a69        ij      LDR      r1,[r5,#0x24]
        0x00019ba4:    2b00        .+      CMP      r3,#0
        0x00019ba6:    bf82        ..      ITTT     HI
        0x00019ba8:    0309        ..      LSLHI    r1,r1,#12
        0x00019baa:    f1014280    ...B    ADDHI    r2,r1,#0x40000000
        0x00019bae:    f50232e0    ...2    ADDHI    r2,r2,#0x1c000
        0x00019bb2:    d910        ..      BLS      0x19bd6 ; am_hal_uart_transfer + 538
        0x00019bb4:    6991        .i      LDR      r1,[r2,#0x18]
        0x00019bb6:    f0110f10    ....    TST      r1,#0x10
        0x00019bba:    d10c        ..      BNE      0x19bd6 ; am_hal_uart_transfer + 538
        0x00019bbc:    6811        .h      LDR      r1,[r2,#0]
        0x00019bbe:    f4116f70    ..po    TST      r1,#0xf00
        0x00019bc2:    d003        ..      BEQ      0x19bcc ; am_hal_uart_transfer + 528
        0x00019bc4:    f04f6100    O..a    MOV      r1,#0x8000000
        0x00019bc8:    910a        ..      STR      r1,[sp,#0x28]
        0x00019bca:    e004        ..      B        0x19bd6 ; am_hal_uart_transfer + 538
        0x00019bcc:    f80c1000    ....    STRB     r1,[r12,r0]
        0x00019bd0:    1c40        @.      ADDS     r0,r0,#1
        0x00019bd2:    4298        .B      CMP      r0,r3
        0x00019bd4:    d3ee        ..      BCC      0x19bb4 ; am_hal_uart_transfer + 504
        0x00019bd6:    990b        ..      LDR      r1,[sp,#0x2c]
        0x00019bd8:    2900        .)      CMP      r1,#0
        0x00019bda:    bf18        ..      IT       NE
        0x00019bdc:    9000        ..      STRNE    r0,[sp,#0]
        0x00019bde:    980a        ..      LDR      r0,[sp,#0x28]
        0x00019be0:    900b        ..      STR      r0,[sp,#0x2c]
        0x00019be2:    e7bd        ..      B        0x19b60 ; am_hal_uart_transfer + 420
        0x00019be4:    e7ff        ..      B        0x19be6 ; am_hal_uart_transfer + 554
        0x00019be6:    b15f        _.      CBZ      r7,0x19c00 ; am_hal_uart_transfer + 580
        0x00019be8:    f44f707a    O.zp    MOV      r0,#0x3e8
        0x00019bec:    f7fefde4    ....    BL       am_hal_delay_us ; 0x187b8
        0x00019bf0:    f1bb3fff    ...?    CMP      r11,#0xffffffff
        0x00019bf4:    bf18        ..      IT       NE
        0x00019bf6:    f10a0a01    ....    ADDNE    r10,r10,#1
        0x00019bfa:    45da        .E      CMP      r10,r11
        0x00019bfc:    f4ffaf48    ..H.    BCC      0x19a90 ; am_hal_uart_transfer + 212
        0x00019c00:    2e00        ..      CMP      r6,#0
        0x00019c02:    bf18        ..      IT       NE
        0x00019c04:    f8c68000    ....    STRNE    r8,[r6,#0]
        0x00019c08:    e034        4.      B        0x19c74 ; am_hal_uart_transfer + 696
        0x00019c0a:    bf00        ..      NOP      
        0x00019c0c:    e9d41201    ....    LDRD     r1,r2,[r4,#4]
        0x00019c10:    68e7        .h      LDR      r7,[r4,#0xc]
        0x00019c12:    2d00        .-      CMP      r5,#0
        0x00019c14:    bf19        ..      ITTEE    NE
        0x00019c16:    f8d5c000    ....    LDRNE    r12,[r5,#0]
        0x00019c1a:    f01c7f80    ....    TSTNE    r12,#0x1000000
        0x00019c1e:    b01d        ..      ADDEQ    sp,sp,#0x74
        0x00019c20:    e8bd8ff0    ....    POPEQ    {r4-r11,pc}
        0x00019c24:    f02c4c7f    ,..L    BIC      r12,r12,#0xff000000
        0x00019c28:    459c        .E      CMP      r12,r3
        0x00019c2a:    bf1c        ..      ITT      NE
        0x00019c2c:    b01d        ..      ADDNE    sp,sp,#0x74
        0x00019c2e:    e8bd8ff0    ....    POPNE    {r4-r11,pc}
        0x00019c32:    2f00        ./      CMP      r7,#0
        0x00019c34:    bf1c        ..      ITT      NE
        0x00019c36:    2000        .       MOVNE    r0,#0
        0x00019c38:    6038        8`      STRNE    r0,[r7,#0]
        0x00019c3a:    b1da        ..      CBZ      r2,0x19c74 ; am_hal_uart_transfer + 696
        0x00019c3c:    f8950074    ..t.    LDRB     r0,[r5,#0x74]
        0x00019c40:    b3c0        ..      CBZ      r0,0x19cb4 ; am_hal_uart_transfer + 760
        0x00019c42:    e9d50320    .. .    LDRD     r0,r3,[r5,#0x80]
        0x00019c46:    1a18        ..      SUBS     r0,r3,r0
        0x00019c48:    4282        .B      CMP      r2,r0
        0x00019c4a:    bf28        (.      IT       CS
        0x00019c4c:    4602        .F      MOVCS    r2,r0
        0x00019c4e:    f1050078    ..x.    ADD      r0,r5,#0x78
        0x00019c52:    9202        ..      STR      r2,[sp,#8]
        0x00019c54:    f7fffb14    ....    BL       am_hal_queue_item_add ; 0x19280
        0x00019c58:    6a6c        lj      LDR      r4,[r5,#0x24]
        0x00019c5a:    f7fefb8f    ....    BL       am_hal_interrupt_master_disable ; 0x1837c
        0x00019c5e:    9005        ..      STR      r0,[sp,#0x14]
        0x00019c60:    0320         .      LSLS     r0,r4,#12
        0x00019c62:    f1004480    ...D    ADD      r4,r0,#0x40000000
        0x00019c66:    f50434e0    ...4    ADD      r4,r4,#0x1c000
        0x00019c6a:    69a0        .i      LDR      r0,[r4,#0x18]
        0x00019c6c:    f0100f20    .. .    TST      r0,#0x20
        0x00019c70:    d11c        ..      BNE      0x19cac ; am_hal_uart_transfer + 752
        0x00019c72:    e003        ..      B        0x19c7c ; am_hal_uart_transfer + 704
        0x00019c74:    b01d        ..      ADD      sp,sp,#0x74
        0x00019c76:    2000        .       MOVS     r0,#0
        0x00019c78:    e8bd8ff0    ....    POP      {r4-r11,pc}
        0x00019c7c:    2201        ."      MOVS     r2,#1
        0x00019c7e:    4669        iF      MOV      r1,sp
        0x00019c80:    f1050078    ..x.    ADD      r0,r5,#0x78
        0x00019c84:    f7fffb4e    ..N.    BL       am_hal_queue_item_get ; 0x19324
        0x00019c88:    b180        ..      CBZ      r0,0x19cac ; am_hal_uart_transfer + 752
        0x00019c8a:    6a68        hj      LDR      r0,[r5,#0x24]
        0x00019c8c:    0300        ..      LSLS     r0,r0,#12
        0x00019c8e:    f1004080    ...@    ADD      r0,r0,#0x40000000
        0x00019c92:    f50030e0    ...0    ADD      r0,r0,#0x1c000
        0x00019c96:    6981        .i      LDR      r1,[r0,#0x18]
        0x00019c98:    f0110f20    .. .    TST      r1,#0x20
        0x00019c9c:    bf04        ..      ITT      EQ
        0x00019c9e:    f89d1000    ....    LDRBEQ   r1,[sp,#0]
        0x00019ca2:    6001        .`      STREQ    r1,[r0,#0]
        0x00019ca4:    69a0        .i      LDR      r0,[r4,#0x18]
        0x00019ca6:    f0100f20    .. .    TST      r0,#0x20
        0x00019caa:    d0e7        ..      BEQ      0x19c7c ; am_hal_uart_transfer + 704
        0x00019cac:    9805        ..      LDR      r0,[sp,#0x14]
        0x00019cae:    f7fefb69    ..i.    BL       am_hal_interrupt_master_set ; 0x18384
        0x00019cb2:    e020         .      B        0x19cf6 ; am_hal_uart_transfer + 826
        0x00019cb4:    e7ff        ..      B        0x19cb6 ; am_hal_uart_transfer + 762
        0x00019cb6:    2300        .#      MOVS     r3,#0
        0x00019cb8:    f8d5c024    ..$.    LDR      r12,[r5,#0x24]
        0x00019cbc:    ac02        ..      ADD      r4,sp,#8
        0x00019cbe:    f1b24f00    ...O    CMP      r2,#0x80000000
        0x00019cc2:    d22d        -.      BCS      0x19d20 ; am_hal_uart_transfer + 868
        0x00019cc4:    2001        .       MOVS     r0,#1
        0x00019cc6:    2a01        .*      CMP      r2,#1
        0x00019cc8:    db12        ..      BLT      0x19cf0 ; am_hal_uart_transfer + 820
        0x00019cca:    ea4f3c0c    O..<    LSL      r12,r12,#12
        0x00019cce:    f10c4c80    ...L    ADD      r12,r12,#0x40000000
        0x00019cd2:    f50c3ce0    ...<    ADD      r12,r12,#0x1c000
        0x00019cd6:    bf00        ..      NOP      
        0x00019cd8:    f8dc5018    ...P    LDR      r5,[r12,#0x18]
        0x00019cdc:    f0150f20    .. .    TST      r5,#0x20
        0x00019ce0:    d106        ..      BNE      0x19cf0 ; am_hal_uart_transfer + 820
        0x00019ce2:    5ccd        .\      LDRB     r5,[r1,r3]
        0x00019ce4:    f8cc5000    ...P    STR      r5,[r12,#0]
        0x00019ce8:    1c40        @.      ADDS     r0,r0,#1
        0x00019cea:    1c5b        [.      ADDS     r3,r3,#1
        0x00019cec:    4290        .B      CMP      r0,r2
        0x00019cee:    ddf3        ..      BLE      0x19cd8 ; am_hal_uart_transfer + 796
        0x00019cf0:    2c00        .,      CMP      r4,#0
        0x00019cf2:    bf18        ..      IT       NE
        0x00019cf4:    9302        ..      STRNE    r3,[sp,#8]
        0x00019cf6:    2f00        ./      CMP      r7,#0
        0x00019cf8:    bf1c        ..      ITT      NE
        0x00019cfa:    9802        ..      LDRNE    r0,[sp,#8]
        0x00019cfc:    6038        8`      STRNE    r0,[r7,#0]
        0x00019cfe:    e7b9        ..      B        0x19c74 ; am_hal_uart_transfer + 696
        0x00019d00:    0318        ..      LSLS     r0,r3,#12
        0x00019d02:    f1004080    ...@    ADD      r0,r0,#0x40000000
        0x00019d06:    f50030e0    ...0    ADD      r0,r0,#0x1c000
        0x00019d0a:    6983        .i      LDR      r3,[r0,#0x18]
        0x00019d0c:    f0130f20    .. .    TST      r3,#0x20
        0x00019d10:    f47fae99    ....    BNE      0x19a46 ; am_hal_uart_transfer + 138
        0x00019d14:    5c53        S\      LDRB     r3,[r2,r1]
        0x00019d16:    6003        .`      STR      r3,[r0,#0]
        0x00019d18:    1c49        I.      ADDS     r1,r1,#1
        0x00019d1a:    42a9        .B      CMP      r1,r5
        0x00019d1c:    d3f5        ..      BCC      0x19d0a ; am_hal_uart_transfer + 846
        0x00019d1e:    e692        ..      B        0x19a46 ; am_hal_uart_transfer + 138
        0x00019d20:    ea4f300c    O..0    LSL      r0,r12,#12
        0x00019d24:    f1004080    ...@    ADD      r0,r0,#0x40000000
        0x00019d28:    f50030e0    ...0    ADD      r0,r0,#0x1c000
        0x00019d2c:    f8d0c018    ....    LDR      r12,[r0,#0x18]
        0x00019d30:    f01c0f20    .. .    TST      r12,#0x20
        0x00019d34:    d1dc        ..      BNE      0x19cf0 ; am_hal_uart_transfer + 820
        0x00019d36:    f811c003    ....    LDRB     r12,[r1,r3]
        0x00019d3a:    f8c0c000    ....    STR      r12,[r0,#0]
        0x00019d3e:    1c5b        [.      ADDS     r3,r3,#1
        0x00019d40:    4293        .B      CMP      r3,r2
        0x00019d42:    d3f3        ..      BCC      0x19d2c ; am_hal_uart_transfer + 880
        0x00019d44:    e7d4        ..      B        0x19cf0 ; am_hal_uart_transfer + 820
    $d
        0x00019d46:    0000        ..      DCW    0
        0x00019d48:    00ea9e06    ....    DCD    15375878
        0x00019d4c:    08000001    ....    DCD    134217729
    $t
    i.am_hal_uart_tx_flush
    am_hal_uart_tx_flush
        0x00019d50:    b570        p.      PUSH     {r4-r6,lr}
        0x00019d52:    4604        .F      MOV      r4,r0
        0x00019d54:    6a45        Ej      LDR      r5,[r0,#0x24]
        0x00019d56:    f8900074    ..t.    LDRB     r0,[r0,#0x74]
        0x00019d5a:    4e18        .N      LDR      r6,[pc,#96] ; [0x19dbc] = 0xf4240
        0x00019d5c:    2800        .(      CMP      r0,#0
        0x00019d5e:    bf1c        ..      ITT      NE
        0x00019d60:    f8d40080    ....    LDRNE    r0,[r4,#0x80]
        0x00019d64:    2800        .(      CMPNE    r0,#0
        0x00019d66:    d00e        ..      BEQ      0x19d86 ; am_hal_uart_tx_flush + 54
        0x00019d68:    6aa0        .j      LDR      r0,[r4,#0x28]
        0x00019d6a:    fbb6f0f0    ....    UDIV     r0,r6,r0
        0x00019d6e:    f1000001    ....    ADD      r0,r0,#1
        0x00019d72:    eb000080    ....    ADD      r0,r0,r0,LSL #2
        0x00019d76:    ea4f0040    O.@.    LSL      r0,r0,#1
        0x00019d7a:    f7fefd1d    ....    BL       am_hal_delay_us ; 0x187b8
        0x00019d7e:    f8d40080    ....    LDR      r0,[r4,#0x80]
        0x00019d82:    2800        .(      CMP      r0,#0
        0x00019d84:    d1f0        ..      BNE      0x19d68 ; am_hal_uart_tx_flush + 24
        0x00019d86:    0328        (.      LSLS     r0,r5,#12
        0x00019d88:    f1004580    ...E    ADD      r5,r0,#0x40000000
        0x00019d8c:    f50535e0    ...5    ADD      r5,r5,#0x1c000
        0x00019d90:    69a8        .i      LDR      r0,[r5,#0x18]
        0x00019d92:    f0100f08    ....    TST      r0,#8
        0x00019d96:    d00e        ..      BEQ      0x19db6 ; am_hal_uart_tx_flush + 102
        0x00019d98:    6aa0        .j      LDR      r0,[r4,#0x28]
        0x00019d9a:    fbb6f0f0    ....    UDIV     r0,r6,r0
        0x00019d9e:    f1000001    ....    ADD      r0,r0,#1
        0x00019da2:    eb000080    ....    ADD      r0,r0,r0,LSL #2
        0x00019da6:    ea4f0040    O.@.    LSL      r0,r0,#1
        0x00019daa:    f7fefd05    ....    BL       am_hal_delay_us ; 0x187b8
        0x00019dae:    69a8        .i      LDR      r0,[r5,#0x18]
        0x00019db0:    f0100f08    ....    TST      r0,#8
        0x00019db4:    d1f0        ..      BNE      0x19d98 ; am_hal_uart_tx_flush + 72
        0x00019db6:    f04f0000    O...    MOV      r0,#0
        0x00019dba:    bd70        p.      POP      {r4-r6,pc}
    $d
        0x00019dbc:    000f4240    @B..    DCD    1000000
    $t
    i.am_hal_util_write_and_wait
    am_hal_util_write_and_wait
        0x00019dc0:    e92d4fff    -..O    PUSH     {r0-r11,lr}
        0x00019dc4:    b087        ..      SUB      sp,sp,#0x1c
        0x00019dc6:    461d        .F      MOV      r5,r3
        0x00019dc8:    4616        .F      MOV      r6,r2
        0x00019dca:    460f        .F      MOV      r7,r1
        0x00019dcc:    2400        .$      MOVS     r4,#0
        0x00019dce:    f7fefad5    ....    BL       am_hal_interrupt_master_disable ; 0x1837c
        0x00019dd2:    9005        ..      STR      r0,[sp,#0x14]
        0x00019dd4:    4668        hF      MOV      r0,sp
        0x00019dd6:    f7fffb57    ..W.    BL       am_hal_timer_default_config_set ; 0x19488
        0x00019dda:    1e60        `.      SUBS     r0,r4,#1
        0x00019ddc:    f04f0900    O...    MOV      r9,#0
        0x00019de0:    e9cd9002    ....    STRD     r9,r0,[sp,#8]
        0x00019de4:    4837        7H      LDR      r0,[pc,#220] ; [0x19ec4] = 0x5b8d80
        0x00019de6:    4938        8I      LDR      r1,[pc,#224] ; [0x19ec8] = 0xf4240
        0x00019de8:    4368        hC      MULS     r0,r5,r0
        0x00019dea:    fbb0f0f1    ....    UDIV     r0,r0,r1
        0x00019dee:    f04f0801    O...    MOV      r8,#1
        0x00019df2:    9004        ..      STR      r0,[sp,#0x10]
        0x00019df4:    f88d8001    ....    STRB     r8,[sp,#1]
        0x00019df8:    4669        iF      MOV      r1,sp
        0x00019dfa:    200d        .       MOVS     r0,#0xd
        0x00019dfc:    f000fd54    ..T.    BL       internal_timer_config ; 0x1a8a8
        0x00019e00:    b978        x.      CBNZ     r0,0x19e22 ; am_hal_util_write_and_wait + 98
        0x00019e02:    200d        .       MOVS     r0,#0xd
        0x00019e04:    f7fffae4    ....    BL       am_hal_timer_clear ; 0x193d0
        0x00019e08:    200d        .       MOVS     r0,#0xd
        0x00019e0a:    f7fffc37    ..7.    BL       am_hal_timer_stop ; 0x1967c
        0x00019e0e:    f04f6000    O..`    MOV      r0,#0x8000000
        0x00019e12:    f7fffb47    ..G.    BL       am_hal_timer_interrupt_clear ; 0x194a4
        0x00019e16:    b920         .      CBNZ     r0,0x19e22 ; am_hal_util_write_and_wait + 98
        0x00019e18:    f04f6000    O..`    MOV      r0,#0x8000000
        0x00019e1c:    f7fffb48    ..H.    BL       am_hal_timer_interrupt_enable ; 0x194b0
        0x00019e20:    b108        ..      CBZ      r0,0x19e26 ; am_hal_util_write_and_wait + 102
        0x00019e22:    4604        .F      MOV      r4,r0
        0x00019e24:    e046        F.      B        0x19eb4 ; am_hal_util_write_and_wait + 244
        0x00019e26:    4829        )H      LDR      r0,[pc,#164] ; [0x19ecc] = 0xe000e050
        0x00019e28:    f8809400    ....    STRB     r9,[r0,#0x400]
        0x00019e2c:    f8dfb0a0    ....    LDR      r11,[pc,#160] ; [0x19ed0] = 0xe000e008
        0x00019e30:    f44f3a80    O..:    MOV      r10,#0x10000
        0x00019e34:    f8cba100    ....    STR      r10,[r11,#0x100]
        0x00019e38:    4826        &H      LDR      r0,[pc,#152] ; [0x19ed4] = 0xe000ed0c
        0x00019e3a:    6800        .h      LDR      r0,[r0,#0]
        0x00019e3c:    f3c02902    ...)    UBFX     r9,r0,#8,#3
        0x00019e40:    f1b90f07    ....    CMP      r9,#7
        0x00019e44:    bf08        ..      IT       EQ
        0x00019e46:    2401        .$      MOVEQ    r4,#1
        0x00019e48:    d034        4.      BEQ      0x19eb4 ; am_hal_util_write_and_wait + 244
        0x00019e4a:    2100        .!      MOVS     r1,#0
        0x00019e4c:    2002        .       MOVS     r0,#2
        0x00019e4e:    f7fefc0b    ....    BL       am_hal_daxi_control ; 0x18668
        0x00019e52:    f3ef8511    ....    MRS      r5,BASEPRI
        0x00019e56:    f1b90f05    ....    CMP      r9,#5
        0x00019e5a:    bf23        #.      ITTTE    CS
        0x00019e5c:    f1090001    ....    ADDCS    r0,r9,#1
        0x00019e60:    fa08f000    ....    LSLCS    r0,r8,r0
        0x00019e64:    b2c0        ..      UXTBCS   r0,r0
        0x00019e66:    2020                MOVCC    r0,#0x20
        0x00019e68:    f3808811    ....    MSR      BASEPRI,r0
        0x00019e6c:    f1b73fff    ...?    CMP      r7,#0xffffffff
        0x00019e70:    d003        ..      BEQ      0x19e7a ; am_hal_util_write_and_wait + 186
        0x00019e72:    9807        ..      LDR      r0,[sp,#0x1c]
        0x00019e74:    6800        .h      LDR      r0,[r0,#0]
        0x00019e76:    43b8        .C      BICS     r0,r0,r7
        0x00019e78:    4306        .C      ORRS     r6,r6,r0
        0x00019e7a:    200d        .       MOVS     r0,#0xd
        0x00019e7c:    f7fffaa8    ....    BL       am_hal_timer_clear ; 0x193d0
        0x00019e80:    4815        .H      LDR      r0,[pc,#84] ; [0x19ed8] = 0xe000ed10
        0x00019e82:    6801        .h      LDR      r1,[r0,#0]
        0x00019e84:    f0210104    !...    BIC      r1,r1,#4
        0x00019e88:    6001        .`      STR      r1,[r0,#0]
        0x00019e8a:    4a14        .J      LDR      r2,[pc,#80] ; [0x19edc] = 0x1000000c
        0x00019e8c:    4630        0F      MOV      r0,r6
        0x00019e8e:    9907        ..      LDR      r1,[sp,#0x1c]
        0x00019e90:    6992        .i      LDR      r2,[r2,#0x18]
        0x00019e92:    4790        .G      BLX      r2
        0x00019e94:    200d        .       MOVS     r0,#0xd
        0x00019e96:    f7fffbf1    ....    BL       am_hal_timer_stop ; 0x1967c
        0x00019e9a:    f04f6000    O..`    MOV      r0,#0x8000000
        0x00019e9e:    f7fffb01    ....    BL       am_hal_timer_interrupt_clear ; 0x194a4
        0x00019ea2:    4669        iF      MOV      r1,sp
        0x00019ea4:    2000        .       MOVS     r0,#0
        0x00019ea6:    f7fffb33    ..3.    BL       am_hal_timer_interrupt_status_get ; 0x19510
        0x00019eaa:    f8cba280    ....    STR      r10,[r11,#0x280]
        0x00019eae:    b2e8        ..      UXTB     r0,r5
        0x00019eb0:    f3808811    ....    MSR      BASEPRI,r0
        0x00019eb4:    9805        ..      LDR      r0,[sp,#0x14]
        0x00019eb6:    f7fefa65    ..e.    BL       am_hal_interrupt_master_set ; 0x18384
        0x00019eba:    b00b        ..      ADD      sp,sp,#0x2c
        0x00019ebc:    4620         F      MOV      r0,r4
        0x00019ebe:    e8bd8ff0    ....    POP      {r4-r11,pc}
    $d
        0x00019ec2:    0000        ..      DCW    0
        0x00019ec4:    005b8d80    ..[.    DCD    6000000
        0x00019ec8:    000f4240    @B..    DCD    1000000
        0x00019ecc:    e000e050    P...    DCD    3758153808
        0x00019ed0:    e000e008    ....    DCD    3758153736
        0x00019ed4:    e000ed0c    ....    DCD    3758157068
        0x00019ed8:    e000ed10    ....    DCD    3758157072
        0x00019edc:    1000000c    ....    DCD    268435468
    $t
    i.am_util_faultisr_collect_data
    am_util_faultisr_collect_data
        0x00019ee0:    b092        ..      SUB      sp,sp,#0x48
        0x00019ee2:    4604        .F      MOV      r4,r0
        0x00019ee4:    2000        .       MOVS     r0,#0
        0x00019ee6:    900c        ..      STR      r0,[sp,#0x30]
        0x00019ee8:    900f        ..      STR      r0,[sp,#0x3c]
        0x00019eea:    900d        ..      STR      r0,[sp,#0x34]
        0x00019eec:    900e        ..      STR      r0,[sp,#0x38]
        0x00019eee:    9010        ..      STR      r0,[sp,#0x40]
        0x00019ef0:    9011        ..      STR      r0,[sp,#0x44]
        0x00019ef2:    900a        ..      STR      r0,[sp,#0x28]
        0x00019ef4:    4824        $H      LDR      r0,[pc,#144] ; [0x19f88] = 0xe000ed28
        0x00019ef6:    6800        .h      LDR      r0,[r0,#0]
        0x00019ef8:    900a        ..      STR      r0,[sp,#0x28]
        0x00019efa:    980a        ..      LDR      r0,[sp,#0x28]
        0x00019efc:    f88d002c    ..,.    STRB     r0,[sp,#0x2c]
        0x00019f00:    980a        ..      LDR      r0,[sp,#0x28]
        0x00019f02:    0a00        ..      LSRS     r0,r0,#8
        0x00019f04:    f88d002d    ..-.    STRB     r0,[sp,#0x2d]
        0x00019f08:    980a        ..      LDR      r0,[sp,#0x28]
        0x00019f0a:    0c00        ..      LSRS     r0,r0,#16
        0x00019f0c:    f8ad002e    ....    STRH     r0,[sp,#0x2e]
        0x00019f10:    481e        .H      LDR      r0,[pc,#120] ; [0x19f8c] = 0xe000ed38
        0x00019f12:    6800        .h      LDR      r0,[r0,#0]
        0x00019f14:    9009        ..      STR      r0,[sp,#0x24]
        0x00019f16:    f89d002d    ..-.    LDRB     r0,[sp,#0x2d]
        0x00019f1a:    f0100f02    ....    TST      r0,#2
        0x00019f1e:    bf08        ..      IT       EQ
        0x00019f20:    f04f30ff    O..0    MOVEQ    r0,#0xffffffff
        0x00019f24:    d003        ..      BEQ      0x19f2e ; am_util_faultisr_collect_data + 78
        0x00019f26:    4621        !F      MOV      r1,r4
        0x00019f28:    2006        .       MOVS     r0,#6
        0x00019f2a:    f7fefa10    ....    BL       getStackedReg ; 0x1834e
        0x00019f2e:    9008        ..      STR      r0,[sp,#0x20]
        0x00019f30:    4621        !F      MOV      r1,r4
        0x00019f32:    2000        .       MOVS     r0,#0
        0x00019f34:    f7fefa0b    ....    BL       getStackedReg ; 0x1834e
        0x00019f38:    9000        ..      STR      r0,[sp,#0]
        0x00019f3a:    4621        !F      MOV      r1,r4
        0x00019f3c:    2001        .       MOVS     r0,#1
        0x00019f3e:    f7fefa06    ....    BL       getStackedReg ; 0x1834e
        0x00019f42:    9001        ..      STR      r0,[sp,#4]
        0x00019f44:    4621        !F      MOV      r1,r4
        0x00019f46:    2002        .       MOVS     r0,#2
        0x00019f48:    f7fefa01    ....    BL       getStackedReg ; 0x1834e
        0x00019f4c:    9002        ..      STR      r0,[sp,#8]
        0x00019f4e:    4621        !F      MOV      r1,r4
        0x00019f50:    2003        .       MOVS     r0,#3
        0x00019f52:    f7fef9fc    ....    BL       getStackedReg ; 0x1834e
        0x00019f56:    9003        ..      STR      r0,[sp,#0xc]
        0x00019f58:    4621        !F      MOV      r1,r4
        0x00019f5a:    2004        .       MOVS     r0,#4
        0x00019f5c:    f7fef9f7    ....    BL       getStackedReg ; 0x1834e
        0x00019f60:    9004        ..      STR      r0,[sp,#0x10]
        0x00019f62:    4621        !F      MOV      r1,r4
        0x00019f64:    2005        .       MOVS     r0,#5
        0x00019f66:    f7fef9f2    ....    BL       getStackedReg ; 0x1834e
        0x00019f6a:    9005        ..      STR      r0,[sp,#0x14]
        0x00019f6c:    4621        !F      MOV      r1,r4
        0x00019f6e:    2006        .       MOVS     r0,#6
        0x00019f70:    f7fef9ed    ....    BL       getStackedReg ; 0x1834e
        0x00019f74:    9006        ..      STR      r0,[sp,#0x18]
        0x00019f76:    4621        !F      MOV      r1,r4
        0x00019f78:    2007        .       MOVS     r0,#7
        0x00019f7a:    f7fef9e8    ....    BL       getStackedReg ; 0x1834e
        0x00019f7e:    9007        ..      STR      r0,[sp,#0x1c]
        0x00019f80:    a80c        ..      ADD      r0,sp,#0x30
        0x00019f82:    f7fefc8d    ....    BL       am_hal_fault_status_get ; 0x188a0
        0x00019f86:    e7fe        ..      B        0x19f86 ; am_util_faultisr_collect_data + 166
    $d
        0x00019f88:    e000ed28    (...    DCD    3758157096
        0x00019f8c:    e000ed38    8...    DCD    3758157112
    $t
    i.am_util_stdio_printf
    am_util_stdio_printf
        0x00019f90:    b40f        ..      PUSH     {r0-r3}
        0x00019f92:    b570        p.      PUSH     {r4-r6,lr}
        0x00019f94:    4c09        .L      LDR      r4,[pc,#36] ; [0x19fbc] = 0x10000000
        0x00019f96:    6860        `h      LDR      r0,[r4,#4]
        0x00019f98:    2800        .(      CMP      r0,#0
        0x00019f9a:    bf04        ..      ITT      EQ
        0x00019f9c:    bc70        p.      POPEQ    {r4-r6}
        0x00019f9e:    f85dfb14    ]...    LDREQ    pc,[sp],#0x14
        0x00019fa2:    aa05        ..      ADD      r2,sp,#0x14
        0x00019fa4:    4806        .H      LDR      r0,[pc,#24] ; [0x19fc0] = 0x10000254
        0x00019fa6:    9904        ..      LDR      r1,[sp,#0x10]
        0x00019fa8:    f000f830    ..0.    BL       am_util_stdio_vsprintf ; 0x1a00c
        0x00019fac:    4605        .F      MOV      r5,r0
        0x00019fae:    6861        ah      LDR      r1,[r4,#4]
        0x00019fb0:    4803        .H      LDR      r0,[pc,#12] ; [0x19fc0] = 0x10000254
        0x00019fb2:    4788        .G      BLX      r1
        0x00019fb4:    4628        (F      MOV      r0,r5
        0x00019fb6:    bc70        p.      POP      {r4-r6}
        0x00019fb8:    f85dfb14    ]...    LDR      pc,[sp],#0x14
    $d
        0x00019fbc:    10000000    ....    DCD    268435456
        0x00019fc0:    10000254    T...    DCD    268436052
    $t
    i.am_util_stdio_printf_init
    am_util_stdio_printf_init
        0x00019fc4:    4901        .I      LDR      r1,[pc,#4] ; [0x19fcc] = 0x10000000
        0x00019fc6:    6048        H`      STR      r0,[r1,#4]
        0x00019fc8:    4770        pG      BX       lr
    $d
        0x00019fca:    0000        ..      DCW    0
        0x00019fcc:    10000000    ....    DCD    268435456
    $t
    i.am_util_stdio_terminal_clear
    am_util_stdio_terminal_clear
        0x00019fd0:    b538        8.      PUSH     {r3-r5,lr}
        0x00019fd2:    4c0c        .L      LDR      r4,[pc,#48] ; [0x1a004] = 0x10000000
        0x00019fd4:    a106        ..      ADR      r1,{pc}+0x1c ; 0x19ff0
        0x00019fd6:    9100        ..      STR      r1,[sp,#0]
        0x00019fd8:    6860        `h      LDR      r0,[r4,#4]
        0x00019fda:    2800        .(      CMP      r0,#0
        0x00019fdc:    bf08        ..      IT       EQ
        0x00019fde:    bd38        8.      POPEQ    {r3-r5,pc}
        0x00019fe0:    aa01        ..      ADD      r2,sp,#4
        0x00019fe2:    4809        .H      LDR      r0,[pc,#36] ; [0x1a008] = 0x10000254
        0x00019fe4:    f000f812    ....    BL       am_util_stdio_vsprintf ; 0x1a00c
        0x00019fe8:    6861        ah      LDR      r1,[r4,#4]
        0x00019fea:    4807        .H      LDR      r0,[pc,#28] ; [0x1a008] = 0x10000254
        0x00019fec:    4788        .G      BLX      r1
        0x00019fee:    bd38        8.      POP      {r3-r5,pc}
    $d
        0x00019ff0:    0a0a0a0a    ....    DCD    168430090
        0x00019ff4:    0a0a0a0a    ....    DCD    168430090
        0x00019ff8:    0a0a0a0a    ....    DCD    168430090
        0x00019ffc:    0a0a0a0a    ....    DCD    168430090
        0x0001a000:    00000a0a    ....    DCD    2570
        0x0001a004:    10000000    ....    DCD    268435456
        0x0001a008:    10000254    T...    DCD    268436052
    $t
    i.am_util_stdio_vsprintf
    am_util_stdio_vsprintf
        0x0001a00c:    e92d4ff7    -..O    PUSH     {r0-r2,r4-r11,lr}
        0x0001a010:    4604        .F      MOV      r4,r0
        0x0001a012:    7808        .x      LDRB     r0,[r1,#0]
        0x0001a014:    2500        .%      MOVS     r5,#0
        0x0001a016:    b088        ..      SUB      sp,sp,#0x20
        0x0001a018:    2800        .(      CMP      r0,#0
        0x0001a01a:    f0008385    ....    BEQ.W    0x1a728 ; am_util_stdio_vsprintf + 1820
        0x0001a01e:    bf00        ..      NOP      
        0x0001a020:    b2c0        ..      UXTB     r0,r0
        0x0001a022:    f04f0906    O...    MOV      r9,#6
        0x0001a026:    2825        %(      CMP      r0,#0x25
        0x0001a028:    d010        ..      BEQ      0x1a04c ; am_util_stdio_vsprintf + 64
        0x0001a02a:    b15c        \.      CBZ      r4,0x1a044 ; am_util_stdio_vsprintf + 56
        0x0001a02c:    280a        .(      CMP      r0,#0xa
        0x0001a02e:    d106        ..      BNE      0x1a03e ; am_util_stdio_vsprintf + 50
        0x0001a030:    48fe        .H      LDR      r0,[pc,#1016] ; [0x1a42c] = 0x10000000
        0x0001a032:    7800        .x      LDRB     r0,[r0,#0]
        0x0001a034:    b118        ..      CBZ      r0,0x1a03e ; am_util_stdio_vsprintf + 50
        0x0001a036:    200d        .       MOVS     r0,#0xd
        0x0001a038:    f8040b01    ....    STRB     r0,[r4],#1
        0x0001a03c:    1c6d        m.      ADDS     r5,r5,#1
        0x0001a03e:    7808        .x      LDRB     r0,[r1,#0]
        0x0001a040:    f8040b01    ....    STRB     r0,[r4],#1
        0x0001a044:    1c49        I.      ADDS     r1,r1,#1
        0x0001a046:    1c6d        m.      ADDS     r5,r5,#1
        0x0001a048:    f000bb6a    ..j.    B.W      0x1a720 ; am_util_stdio_vsprintf + 1812
        0x0001a04c:    2020                MOVS     r0,#0x20
        0x0001a04e:    9001        ..      STR      r0,[sp,#4]
        0x0001a050:    2700        .'      MOVS     r7,#0
        0x0001a052:    f8110f01    ....    LDRB     r0,[r1,#1]!
        0x0001a056:    46bc        .F      MOV      r12,r7
        0x0001a058:    2830        0(      CMP      r0,#0x30
        0x0001a05a:    d101        ..      BNE      0x1a060 ; am_util_stdio_vsprintf + 84
        0x0001a05c:    1c49        I.      ADDS     r1,r1,#1
        0x0001a05e:    9001        ..      STR      r0,[sp,#4]
        0x0001a060:    2600        .&      MOVS     r6,#0
        0x0001a062:    f891a000    ....    LDRB     r10,[r1,#0]
        0x0001a066:    460a        .F      MOV      r2,r1
        0x0001a068:    f10d0808    ....    ADD      r8,sp,#8
        0x0001a06c:    4630        0F      MOV      r0,r6
        0x0001a06e:    4633        3F      MOV      r3,r6
        0x0001a070:    f1ba0f2d    ..-.    CMP      r10,#0x2d
        0x0001a074:    d102        ..      BNE      0x1a07c ; am_util_stdio_vsprintf + 112
        0x0001a076:    2601        .&      MOVS     r6,#1
        0x0001a078:    1c4a        J.      ADDS     r2,r1,#1
        0x0001a07a:    4633        3F      MOV      r3,r6
        0x0001a07c:    f892a000    ....    LDRB     r10,[r2,#0]
        0x0001a080:    f1aa0a30    ..0.    SUB      r10,r10,#0x30
        0x0001a084:    f1ba0f09    ....    CMP      r10,#9
        0x0001a088:    d80f        ..      BHI      0x1a0aa ; am_util_stdio_vsprintf + 158
        0x0001a08a:    bf00        ..      NOP      
        0x0001a08c:    eb000080    ....    ADD      r0,r0,r0,LSL #2
        0x0001a090:    0040        @.      LSLS     r0,r0,#1
        0x0001a092:    f812ab01    ....    LDRB     r10,[r2],#1
        0x0001a096:    3830        08      SUBS     r0,r0,#0x30
        0x0001a098:    4450        PD      ADD      r0,r0,r10
        0x0001a09a:    f892a000    ....    LDRB     r10,[r2,#0]
        0x0001a09e:    1c5b        [.      ADDS     r3,r3,#1
        0x0001a0a0:    f1aa0a30    ..0.    SUB      r10,r10,#0x30
        0x0001a0a4:    f1ba0f09    ....    CMP      r10,#9
        0x0001a0a8:    d9f0        ..      BLS      0x1a08c ; am_util_stdio_vsprintf + 128
        0x0001a0aa:    f1b80f00    ....    CMP      r8,#0
        0x0001a0ae:    bf18        ..      IT       NE
        0x0001a0b0:    9302        ..      STRNE    r3,[sp,#8]
        0x0001a0b2:    2e00        ..      CMP      r6,#0
        0x0001a0b4:    bf18        ..      IT       NE
        0x0001a0b6:    4240        @B      RSBNE    r0,r0,#0
        0x0001a0b8:    9000        ..      STR      r0,[sp,#0]
        0x0001a0ba:    9802        ..      LDR      r0,[sp,#8]
        0x0001a0bc:    180e        ..      ADDS     r6,r1,r0
        0x0001a0be:    7830        0x      LDRB     r0,[r6,#0]
        0x0001a0c0:    2873        s(      CMP      r0,#0x73
        0x0001a0c2:    d037        7.      BEQ      0x1a134 ; am_util_stdio_vsprintf + 296
        0x0001a0c4:    9900        ..      LDR      r1,[sp,#0]
        0x0001a0c6:    2900        .)      CMP      r1,#0
        0x0001a0c8:    bfbc        ..      ITT      LT
        0x0001a0ca:    4249        IB      RSBLT    r1,r1,#0
        0x0001a0cc:    9100        ..      STRLT    r1,[sp,#0]
        0x0001a0ce:    282e        .(      CMP      r0,#0x2e
        0x0001a0d0:    d003        ..      BEQ      0x1a0da ; am_util_stdio_vsprintf + 206
        0x0001a0d2:    7830        0x      LDRB     r0,[r6,#0]
        0x0001a0d4:    286c        l(      CMP      r0,#0x6c
        0x0001a0d6:    d12d        -.      BNE      0x1a134 ; am_util_stdio_vsprintf + 296
        0x0001a0d8:    e025        %.      B        0x1a126 ; am_util_stdio_vsprintf + 282
        0x0001a0da:    1c72        r.      ADDS     r2,r6,#1
        0x0001a0dc:    2300        .#      MOVS     r3,#0
        0x0001a0de:    7811        .x      LDRB     r1,[r2,#0]
        0x0001a0e0:    4616        .F      MOV      r6,r2
        0x0001a0e2:    4699        .F      MOV      r9,r3
        0x0001a0e4:    4618        .F      MOV      r0,r3
        0x0001a0e6:    292d        -)      CMP      r1,#0x2d
        0x0001a0e8:    d102        ..      BNE      0x1a0f0 ; am_util_stdio_vsprintf + 228
        0x0001a0ea:    2301        .#      MOVS     r3,#1
        0x0001a0ec:    1c56        V.      ADDS     r6,r2,#1
        0x0001a0ee:    4618        .F      MOV      r0,r3
        0x0001a0f0:    7831        1x      LDRB     r1,[r6,#0]
        0x0001a0f2:    3930        09      SUBS     r1,r1,#0x30
        0x0001a0f4:    2909        .)      CMP      r1,#9
        0x0001a0f6:    d80b        ..      BHI      0x1a110 ; am_util_stdio_vsprintf + 260
        0x0001a0f8:    eb090189    ....    ADD      r1,r9,r9,LSL #2
        0x0001a0fc:    0049        I.      LSLS     r1,r1,#1
        0x0001a0fe:    f8169b01    ....    LDRB     r9,[r6],#1
        0x0001a102:    3930        09      SUBS     r1,r1,#0x30
        0x0001a104:    4489        .D      ADD      r9,r9,r1
        0x0001a106:    7831        1x      LDRB     r1,[r6,#0]
        0x0001a108:    1c40        @.      ADDS     r0,r0,#1
        0x0001a10a:    3930        09      SUBS     r1,r1,#0x30
        0x0001a10c:    2909        .)      CMP      r1,#9
        0x0001a10e:    d9f3        ..      BLS      0x1a0f8 ; am_util_stdio_vsprintf + 236
        0x0001a110:    f1b80f00    ....    CMP      r8,#0
        0x0001a114:    bf18        ..      IT       NE
        0x0001a116:    9002        ..      STRNE    r0,[sp,#8]
        0x0001a118:    2b00        .+      CMP      r3,#0
        0x0001a11a:    bf18        ..      IT       NE
        0x0001a11c:    f1c90900    ....    RSBNE    r9,r9,#0
        0x0001a120:    9802        ..      LDR      r0,[sp,#8]
        0x0001a122:    1816        ..      ADDS     r6,r2,r0
        0x0001a124:    e7d5        ..      B        0x1a0d2 ; am_util_stdio_vsprintf + 198
        0x0001a126:    f8160f01    ....    LDRB     r0,[r6,#1]!
        0x0001a12a:    286c        l(      CMP      r0,#0x6c
        0x0001a12c:    bf04        ..      ITT      EQ
        0x0001a12e:    f04f0c01    O...    MOVEQ    r12,#1
        0x0001a132:    1c76        v.      ADDEQ    r6,r6,#1
        0x0001a134:    7830        0x      LDRB     r0,[r6,#0]
        0x0001a136:    2866        f(      CMP      r0,#0x66
        0x0001a138:    f000822a    ..*.    BEQ.W    0x1a590 ; am_util_stdio_vsprintf + 1412
        0x0001a13c:    dc0a        ..      BGT      0x1a154 ; am_util_stdio_vsprintf + 328
        0x0001a13e:    2846        F(      CMP      r0,#0x46
        0x0001a140:    f0008226    ..&.    BEQ.W    0x1a590 ; am_util_stdio_vsprintf + 1412
        0x0001a144:    2858        X(      CMP      r0,#0x58
        0x0001a146:    d07d        }.      BEQ      0x1a244 ; am_util_stdio_vsprintf + 568
        0x0001a148:    2863        c(      CMP      r0,#0x63
        0x0001a14a:    d014        ..      BEQ      0x1a176 ; am_util_stdio_vsprintf + 362
        0x0001a14c:    2864        d(      CMP      r0,#0x64
        0x0001a14e:    f00081b5    ....    BEQ.W    0x1a4bc ; am_util_stdio_vsprintf + 1200
        0x0001a152:    e00b        ..      B        0x1a16c ; am_util_stdio_vsprintf + 352
        0x0001a154:    2869        i(      CMP      r0,#0x69
        0x0001a156:    f00081b1    ....    BEQ.W    0x1a4bc ; am_util_stdio_vsprintf + 1200
        0x0001a15a:    2873        s(      CMP      r0,#0x73
        0x0001a15c:    d016        ..      BEQ      0x1a18c ; am_util_stdio_vsprintf + 384
        0x0001a15e:    2875        u(      CMP      r0,#0x75
        0x0001a160:    f000810c    ....    BEQ.W    0x1a37c ; am_util_stdio_vsprintf + 880
        0x0001a164:    2878        x(      CMP      r0,#0x78
        0x0001a166:    bf08        ..      IT       EQ
        0x0001a168:    2701        .'      MOVEQ    r7,#1
        0x0001a16a:    d06e        n.      BEQ      0x1a24a ; am_util_stdio_vsprintf + 574
        0x0001a16c:    2c00        .,      CMP      r4,#0
        0x0001a16e:    bf18        ..      IT       NE
        0x0001a170:    f8040b01    ....    STRBNE   r0,[r4],#1
        0x0001a174:    e007        ..      B        0x1a186 ; am_util_stdio_vsprintf + 378
        0x0001a176:    980a        ..      LDR      r0,[sp,#0x28]
        0x0001a178:    2c00        .,      CMP      r4,#0
        0x0001a17a:    f8101b04    ....    LDRB     r1,[r0],#4
        0x0001a17e:    900a        ..      STR      r0,[sp,#0x28]
        0x0001a180:    bf18        ..      IT       NE
        0x0001a182:    f8041b01    ....    STRBNE   r1,[r4],#1
        0x0001a186:    1c6d        m.      ADDS     r5,r5,#1
        0x0001a188:    f000bac9    ....    B.W      0x1a71e ; am_util_stdio_vsprintf + 1810
        0x0001a18c:    990a        ..      LDR      r1,[sp,#0x28]
        0x0001a18e:    2200        ."      MOVS     r2,#0
        0x0001a190:    f8510b04    Q...    LDR      r0,[r1],#4
        0x0001a194:    910a        ..      STR      r1,[sp,#0x28]
        0x0001a196:    b140        @.      CBZ      r0,0x1a1aa ; am_util_stdio_vsprintf + 414
        0x0001a198:    7803        .x      LDRB     r3,[r0,#0]
        0x0001a19a:    1c41        A.      ADDS     r1,r0,#1
        0x0001a19c:    b12b        +.      CBZ      r3,0x1a1aa ; am_util_stdio_vsprintf + 414
        0x0001a19e:    bf00        ..      NOP      
        0x0001a1a0:    f8113b01    ...;    LDRB     r3,[r1],#1
        0x0001a1a4:    1c52        R.      ADDS     r2,r2,#1
        0x0001a1a6:    2b00        .+      CMP      r3,#0
        0x0001a1a8:    d1fa        ..      BNE      0x1a1a0 ; am_util_stdio_vsprintf + 404
        0x0001a1aa:    9900        ..      LDR      r1,[sp,#0]
        0x0001a1ac:    2900        .)      CMP      r1,#0
        0x0001a1ae:    dd1e        ..      BLE      0x1a1ee ; am_util_stdio_vsprintf + 482
        0x0001a1b0:    428a        .B      CMP      r2,r1
        0x0001a1b2:    d21c        ..      BCS      0x1a1ee ; am_util_stdio_vsprintf + 482
        0x0001a1b4:    1a8b        ..      SUBS     r3,r1,r2
        0x0001a1b6:    9f01        ..      LDR      r7,[sp,#4]
        0x0001a1b8:    4621        !F      MOV      r1,r4
        0x0001a1ba:    f04f0c00    O...    MOV      r12,#0
        0x0001a1be:    2b00        .+      CMP      r3,#0
        0x0001a1c0:    bfc4        ..      ITT      GT
        0x0001a1c2:    1e5b        [.      SUBGT    r3,r3,#1
        0x0001a1c4:    f1b33fff    ...?    CMPGT    r3,#0xffffffff
        0x0001a1c8:    dd09        ..      BLE      0x1a1de ; am_util_stdio_vsprintf + 466
        0x0001a1ca:    2900        .)      CMP      r1,#0
        0x0001a1cc:    bf18        ..      IT       NE
        0x0001a1ce:    f8017b01    ...{    STRBNE   r7,[r1],#1
        0x0001a1d2:    1e5b        [.      SUBS     r3,r3,#1
        0x0001a1d4:    f10c0c01    ....    ADD      r12,r12,#1
        0x0001a1d8:    f1b33fff    ...?    CMP      r3,#0xffffffff
        0x0001a1dc:    dcf5        ..      BGT      0x1a1ca ; am_util_stdio_vsprintf + 446
        0x0001a1de:    2c00        .,      CMP      r4,#0
        0x0001a1e0:    bf14        ..      ITE      NE
        0x0001a1e2:    4661        aF      MOVNE    r1,r12
        0x0001a1e4:    2100        .!      MOVEQ    r1,#0
        0x0001a1e6:    440c        .D      ADD      r4,r4,r1
        0x0001a1e8:    2100        .!      MOVS     r1,#0
        0x0001a1ea:    4465        eD      ADD      r5,r5,r12
        0x0001a1ec:    9100        ..      STR      r1,[sp,#0]
        0x0001a1ee:    7801        .x      LDRB     r1,[r0,#0]
        0x0001a1f0:    b139        9.      CBZ      r1,0x1a202 ; am_util_stdio_vsprintf + 502
        0x0001a1f2:    b10c        ..      CBZ      r4,0x1a1f8 ; am_util_stdio_vsprintf + 492
        0x0001a1f4:    f8041b01    ....    STRB     r1,[r4],#1
        0x0001a1f8:    f8101f01    ....    LDRB     r1,[r0,#1]!
        0x0001a1fc:    1c6d        m.      ADDS     r5,r5,#1
        0x0001a1fe:    2900        .)      CMP      r1,#0
        0x0001a200:    d1f7        ..      BNE      0x1a1f2 ; am_util_stdio_vsprintf + 486
        0x0001a202:    9800        ..      LDR      r0,[sp,#0]
        0x0001a204:    2800        .(      CMP      r0,#0
        0x0001a206:    bf1c        ..      ITT      NE
        0x0001a208:    4240        @B      RSBNE    r0,r0,#0
        0x0001a20a:    4282        .B      CMPNE    r2,r0
        0x0001a20c:    f0808287    ....    BCS.W    0x1a71e ; am_util_stdio_vsprintf + 1810
        0x0001a210:    1a82        ..      SUBS     r2,r0,r2
        0x0001a212:    2000        .       MOVS     r0,#0
        0x0001a214:    9b01        ..      LDR      r3,[sp,#4]
        0x0001a216:    4621        !F      MOV      r1,r4
        0x0001a218:    2a00        .*      CMP      r2,#0
        0x0001a21a:    bfc4        ..      ITT      GT
        0x0001a21c:    1e52        R.      SUBGT    r2,r2,#1
        0x0001a21e:    f1b23fff    ...?    CMPGT    r2,#0xffffffff
        0x0001a222:    dd08        ..      BLE      0x1a236 ; am_util_stdio_vsprintf + 554
        0x0001a224:    2900        .)      CMP      r1,#0
        0x0001a226:    bf18        ..      IT       NE
        0x0001a228:    f8013b01    ...;    STRBNE   r3,[r1],#1
        0x0001a22c:    1c40        @.      ADDS     r0,r0,#1
        0x0001a22e:    1e52        R.      SUBS     r2,r2,#1
        0x0001a230:    f1b23fff    ...?    CMP      r2,#0xffffffff
        0x0001a234:    dcf6        ..      BGT      0x1a224 ; am_util_stdio_vsprintf + 536
        0x0001a236:    2c00        .,      CMP      r4,#0
        0x0001a238:    bf14        ..      ITE      NE
        0x0001a23a:    4601        .F      MOVNE    r1,r0
        0x0001a23c:    2100        .!      MOVEQ    r1,#0
        0x0001a23e:    440c        .D      ADD      r4,r4,r1
        0x0001a240:    4405        .D      ADD      r5,r5,r0
        0x0001a242:    e000        ..      B        0x1a246 ; am_util_stdio_vsprintf + 570
        0x0001a244:    e001        ..      B        0x1a24a ; am_util_stdio_vsprintf + 574
        0x0001a246:    f000ba6a    ..j.    B.W      0x1a71e ; am_util_stdio_vsprintf + 1810
        0x0001a24a:    f1bc0f00    ....    CMP      r12,#0
        0x0001a24e:    d007        ..      BEQ      0x1a260 ; am_util_stdio_vsprintf + 596
        0x0001a250:    980a        ..      LDR      r0,[sp,#0x28]
        0x0001a252:    1dc0        ..      ADDS     r0,r0,#7
        0x0001a254:    f0200207     ...    BIC      r2,r0,#7
        0x0001a258:    e8f20102    ....    LDRD     r0,r1,[r2],#8
        0x0001a25c:    920a        ..      STR      r2,[sp,#0x28]
        0x0001a25e:    e004        ..      B        0x1a26a ; am_util_stdio_vsprintf + 606
        0x0001a260:    990a        ..      LDR      r1,[sp,#0x28]
        0x0001a262:    f8510b04    Q...    LDR      r0,[r1],#4
        0x0001a266:    910a        ..      STR      r1,[sp,#0x28]
        0x0001a268:    2100        .!      MOVS     r1,#0
        0x0001a26a:    9a00        ..      LDR      r2,[sp,#0]
        0x0001a26c:    b38a        ..      CBZ      r2,0x1a2d2 ; am_util_stdio_vsprintf + 710
        0x0001a26e:    460b        .F      MOV      r3,r1
        0x0001a270:    4602        .F      MOV      r2,r0
        0x0001a272:    ea500c03    P...    ORRS     r12,r0,r3
        0x0001a276:    bf0c        ..      ITE      EQ
        0x0001a278:    f04f0c01    O...    MOVEQ    r12,#1
        0x0001a27c:    f04f0c00    O...    MOVNE    r12,#0
        0x0001a280:    d008        ..      BEQ      0x1a294 ; am_util_stdio_vsprintf + 648
        0x0001a282:    0912        ..      LSRS     r2,r2,#4
        0x0001a284:    ea427203    B..r    ORR      r2,r2,r3,LSL #28
        0x0001a288:    091b        ..      LSRS     r3,r3,#4
        0x0001a28a:    f10c0c01    ....    ADD      r12,r12,#1
        0x0001a28e:    ea520803    R...    ORRS     r8,r2,r3
        0x0001a292:    d1f6        ..      BNE      0x1a282 ; am_util_stdio_vsprintf + 630
        0x0001a294:    9a00        ..      LDR      r2,[sp,#0]
        0x0001a296:    9b01        ..      LDR      r3,[sp,#4]
        0x0001a298:    eba2020c    ....    SUB      r2,r2,r12
        0x0001a29c:    46a4        .F      MOV      r12,r4
        0x0001a29e:    f04f0800    O...    MOV      r8,#0
        0x0001a2a2:    2a00        .*      CMP      r2,#0
        0x0001a2a4:    bfc4        ..      ITT      GT
        0x0001a2a6:    1e52        R.      SUBGT    r2,r2,#1
        0x0001a2a8:    f1b23fff    ...?    CMPGT    r2,#0xffffffff
        0x0001a2ac:    dd0b        ..      BLE      0x1a2c6 ; am_util_stdio_vsprintf + 698
        0x0001a2ae:    bf00        ..      NOP      
        0x0001a2b0:    f1bc0f00    ....    CMP      r12,#0
        0x0001a2b4:    bf18        ..      IT       NE
        0x0001a2b6:    f80c3b01    ...;    STRBNE   r3,[r12],#1
        0x0001a2ba:    1e52        R.      SUBS     r2,r2,#1
        0x0001a2bc:    f1080801    ....    ADD      r8,r8,#1
        0x0001a2c0:    f1b23fff    ...?    CMP      r2,#0xffffffff
        0x0001a2c4:    dcf4        ..      BGT      0x1a2b0 ; am_util_stdio_vsprintf + 676
        0x0001a2c6:    2c00        .,      CMP      r4,#0
        0x0001a2c8:    bf14        ..      ITE      NE
        0x0001a2ca:    4642        BF      MOVNE    r2,r8
        0x0001a2cc:    2200        ."      MOVEQ    r2,#0
        0x0001a2ce:    4414        .D      ADD      r4,r4,r2
        0x0001a2d0:    4445        ED      ADD      r5,r5,r8
        0x0001a2d2:    46a0        .F      MOV      r8,r4
        0x0001a2d4:    f04f0c00    O...    MOV      r12,#0
        0x0001a2d8:    ea500201    P...    ORRS     r2,r0,r1
        0x0001a2dc:    d106        ..      BNE      0x1a2ec ; am_util_stdio_vsprintf + 736
        0x0001a2de:    bf00        ..      NOP      
        0x0001a2e0:    f04f0230    O.0.    MOV      r2,#0x30
        0x0001a2e4:    f88d200c    ...     STRB     r2,[sp,#0xc]
        0x0001a2e8:    f04f0c01    O...    MOV      r12,#1
        0x0001a2ec:    bf18        ..      IT       NE
        0x0001a2ee:    ab03        ..      ADDNE    r3,sp,#0xc
        0x0001a2f0:    d017        ..      BEQ      0x1a322 ; am_util_stdio_vsprintf + 790
        0x0001a2f2:    bf00        ..      NOP      
        0x0001a2f4:    f000020f    ....    AND      r2,r0,#0xf
        0x0001a2f8:    2a09        .*      CMP      r2,#9
        0x0001a2fa:    d906        ..      BLS      0x1a30a ; am_util_stdio_vsprintf + 766
        0x0001a2fc:    2f00        ./      CMP      r7,#0
        0x0001a2fe:    bf14        ..      ITE      NE
        0x0001a300:    f04f0927    O.'.    MOVNE    r9,#0x27
        0x0001a304:    f04f0907    O...    MOVEQ    r9,#7
        0x0001a308:    444a        JD      ADD      r2,r2,r9
        0x0001a30a:    3230        02      ADDS     r2,r2,#0x30
        0x0001a30c:    0900        ..      LSRS     r0,r0,#4
        0x0001a30e:    f803200c    ...     STRB     r2,[r3,r12]
        0x0001a312:    ea407001    @..p    ORR      r0,r0,r1,LSL #28
        0x0001a316:    0909        ..      LSRS     r1,r1,#4
        0x0001a318:    f10c0c01    ....    ADD      r12,r12,#1
        0x0001a31c:    ea500201    P...    ORRS     r2,r0,r1
        0x0001a320:    d1e8        ..      BNE      0x1a2f4 ; am_util_stdio_vsprintf + 744
        0x0001a322:    f1b80f00    ....    CMP      r8,#0
        0x0001a326:    d022        ".      BEQ      0x1a36e ; am_util_stdio_vsprintf + 866
        0x0001a328:    f1ac0301    ....    SUB      r3,r12,#1
        0x0001a32c:    f1bc0200    ....    SUBS     r2,r12,#0
        0x0001a330:    dd1a        ..      BLE      0x1a368 ; am_util_stdio_vsprintf + 860
        0x0001a332:    a803        ..      ADD      r0,sp,#0xc
        0x0001a334:    4418        .D      ADD      r0,r0,r3
        0x0001a336:    1c41        A.      ADDS     r1,r0,#1
        0x0001a338:    f1a80001    ....    SUB      r0,r8,#1
        0x0001a33c:    f0130f01    ....    TST      r3,#1
        0x0001a340:    d103        ..      BNE      0x1a34a ; am_util_stdio_vsprintf + 830
        0x0001a342:    f8117d01    ...}    LDRB     r7,[r1,#-1]!
        0x0001a346:    f8007f01    ....    STRB     r7,[r0,#1]!
        0x0001a34a:    1052        R.      ASRS     r2,r2,#1
        0x0001a34c:    d009        ..      BEQ      0x1a362 ; am_util_stdio_vsprintf + 854
        0x0001a34e:    bf00        ..      NOP      
        0x0001a350:    f8117c01    ...|    LDRB     r7,[r1,#-1]
        0x0001a354:    7047        Gp      STRB     r7,[r0,#1]
        0x0001a356:    f8117d02    ...}    LDRB     r7,[r1,#-2]!
        0x0001a35a:    f8007f02    ....    STRB     r7,[r0,#2]!
        0x0001a35e:    1e52        R.      SUBS     r2,r2,#1
        0x0001a360:    d1f6        ..      BNE      0x1a350 ; am_util_stdio_vsprintf + 836
        0x0001a362:    18e0        ..      ADDS     r0,r4,r3
        0x0001a364:    f1000801    ....    ADD      r8,r0,#1
        0x0001a368:    2000        .       MOVS     r0,#0
        0x0001a36a:    f8880000    ....    STRB     r0,[r8,#0]
        0x0001a36e:    2c00        .,      CMP      r4,#0
        0x0001a370:    bf18        ..      IT       NE
        0x0001a372:    4464        dD      ADDNE    r4,r4,r12
        0x0001a374:    4465        eD      ADD      r5,r5,r12
        0x0001a376:    f000b9d2    ....    B.W      0x1a71e ; am_util_stdio_vsprintf + 1810
        0x0001a37a:    bf00        ..      NOP      
        0x0001a37c:    980a        ..      LDR      r0,[sp,#0x28]
        0x0001a37e:    f1bc0f00    ....    CMP      r12,#0
        0x0001a382:    d006        ..      BEQ      0x1a392 ; am_util_stdio_vsprintf + 902
        0x0001a384:    1dc0        ..      ADDS     r0,r0,#7
        0x0001a386:    f0200107     ...    BIC      r1,r0,#7
        0x0001a38a:    e8f1e002    ....    LDRD     lr,r0,[r1],#8
        0x0001a38e:    910a        ..      STR      r1,[sp,#0x28]
        0x0001a390:    e003        ..      B        0x1a39a ; am_util_stdio_vsprintf + 910
        0x0001a392:    f850eb04    P...    LDR      lr,[r0],#4
        0x0001a396:    900a        ..      STR      r0,[sp,#0x28]
        0x0001a398:    2000        .       MOVS     r0,#0
        0x0001a39a:    9003        ..      STR      r0,[sp,#0xc]
        0x0001a39c:    9800        ..      LDR      r0,[sp,#0]
        0x0001a39e:    2800        .(      CMP      r0,#0
        0x0001a3a0:    d07e        ~.      BEQ      0x1a4a0 ; am_util_stdio_vsprintf + 1172
        0x0001a3a2:    9903        ..      LDR      r1,[sp,#0xc]
        0x0001a3a4:    4670        pF      MOV      r0,lr
        0x0001a3a6:    ea5e0201    ^...    ORRS     r2,lr,r1
        0x0001a3aa:    bf0e        ..      ITEE     EQ
        0x0001a3ac:    2301        .#      MOVEQ    r3,#1
        0x0001a3ae:    2300        .#      MOVNE    r3,#0
        0x0001a3b0:    f04f0c00    O...    MOVNE    r12,#0
        0x0001a3b4:    d05e        ^.      BEQ      0x1a474 ; am_util_stdio_vsprintf + 1128
        0x0001a3b6:    b3c1        ..      CBZ      r1,0x1a42a ; am_util_stdio_vsprintf + 1054
        0x0001a3b8:    084a        J.      LSRS     r2,r1,#1
        0x0001a3ba:    ea4f0990    O...    LSR      r9,r0,#2
        0x0001a3be:    ea4f0730    O.0.    RRX      r7,r0
        0x0001a3c2:    ea497881    I..x    ORR      r8,r9,r1,LSL #30
        0x0001a3c6:    eb170708    ....    ADDS     r7,r7,r8
        0x0001a3ca:    eb420291    B...    ADC      r2,r2,r1,LSR #2
        0x0001a3ce:    ea4f1917    O...    LSR      r9,r7,#4
        0x0001a3d2:    ea497802    I..x    ORR      r8,r9,r2,LSL #28
        0x0001a3d6:    eb180707    ....    ADDS     r7,r8,r7
        0x0001a3da:    eb421812    B...    ADC      r8,r2,r2,LSR #4
        0x0001a3de:    ea4f2917    O..)    LSR      r9,r7,#8
        0x0001a3e2:    ea496208    I..b    ORR      r2,r9,r8,LSL #24
        0x0001a3e6:    19d2        ..      ADDS     r2,r2,r7
        0x0001a3e8:    eb482718    H..'    ADC      r7,r8,r8,LSR #8
        0x0001a3ec:    ea4f4912    O..I    LSR      r9,r2,#16
        0x0001a3f0:    ea494807    I..H    ORR      r8,r9,r7,LSL #16
        0x0001a3f4:    eb180802    ....    ADDS     r8,r8,r2
        0x0001a3f8:    eb474217    G..B    ADC      r2,r7,r7,LSR #16
        0x0001a3fc:    eb180702    ....    ADDS     r7,r8,r2
        0x0001a400:    eb42020c    B...    ADC      r2,r2,r12
        0x0001a404:    08ff        ..      LSRS     r7,r7,#3
        0x0001a406:    ea477742    G.Bw    ORR      r7,r7,r2,LSL #29
        0x0001a40a:    f04f080a    O...    MOV      r8,#0xa
        0x0001a40e:    fba7ab08    ....    UMULL    r10,r11,r7,r8
        0x0001a412:    08d2        ..      LSRS     r2,r2,#3
        0x0001a414:    fb02b808    ....    MLA      r8,r2,r8,r11
        0x0001a418:    f04f0900    O...    MOV      r9,#0
        0x0001a41c:    fb078909    ....    MLA      r9,r7,r9,r8
        0x0001a420:    ebb0080a    ....    SUBS     r8,r0,r10
        0x0001a424:    eb610009    a...    SBC      r0,r1,r9
        0x0001a428:    e002        ..      B        0x1a430 ; am_util_stdio_vsprintf + 1060
        0x0001a42a:    e00c        ..      B        0x1a446 ; am_util_stdio_vsprintf + 1082
    $d
        0x0001a42c:    10000000    ....    DCD    268435456
    $t
        0x0001a430:    f1180106    ....    ADDS     r1,r8,#6
        0x0001a434:    f1400800    @...    ADC      r8,r0,#0
        0x0001a438:    0909        ..      LSRS     r1,r1,#4
        0x0001a43a:    ea417008    A..p    ORR      r0,r1,r8,LSL #28
        0x0001a43e:    19c0        ..      ADDS     r0,r0,r7
        0x0001a440:    eb421118    B...    ADC      r1,r2,r8,LSR #4
        0x0001a444:    e012        ..      B        0x1a46c ; am_util_stdio_vsprintf + 1120
        0x0001a446:    0841        A.      LSRS     r1,r0,#1
        0x0001a448:    eb010190    ....    ADD      r1,r1,r0,LSR #2
        0x0001a44c:    eb011111    ....    ADD      r1,r1,r1,LSR #4
        0x0001a450:    eb012111    ...!    ADD      r1,r1,r1,LSR #8
        0x0001a454:    eb014111    ...A    ADD      r1,r1,r1,LSR #16
        0x0001a458:    08c9        ..      LSRS     r1,r1,#3
        0x0001a45a:    424a        JB      RSBS     r2,r1,#0
        0x0001a45c:    eb020282    ....    ADD      r2,r2,r2,LSL #2
        0x0001a460:    eb000042    ..B.    ADD      r0,r0,r2,LSL #1
        0x0001a464:    1d80        ..      ADDS     r0,r0,#6
        0x0001a466:    eb011010    ....    ADD      r0,r1,r0,LSR #4
        0x0001a46a:    4661        aF      MOV      r1,r12
        0x0001a46c:    1c5b        [.      ADDS     r3,r3,#1
        0x0001a46e:    ea500201    P...    ORRS     r2,r0,r1
        0x0001a472:    d1a0        ..      BNE      0x1a3b6 ; am_util_stdio_vsprintf + 938
        0x0001a474:    9800        ..      LDR      r0,[sp,#0]
        0x0001a476:    2100        .!      MOVS     r1,#0
        0x0001a478:    1ac2        ..      SUBS     r2,r0,r3
        0x0001a47a:    9b01        ..      LDR      r3,[sp,#4]
        0x0001a47c:    4620         F      MOV      r0,r4
        0x0001a47e:    2a00        .*      CMP      r2,#0
        0x0001a480:    bfc4        ..      ITT      GT
        0x0001a482:    1e52        R.      SUBGT    r2,r2,#1
        0x0001a484:    f1b23fff    ...?    CMPGT    r2,#0xffffffff
        0x0001a488:    dd08        ..      BLE      0x1a49c ; am_util_stdio_vsprintf + 1168
        0x0001a48a:    2800        .(      CMP      r0,#0
        0x0001a48c:    bf18        ..      IT       NE
        0x0001a48e:    f8003b01    ...;    STRBNE   r3,[r0],#1
        0x0001a492:    1c49        I.      ADDS     r1,r1,#1
        0x0001a494:    1e52        R.      SUBS     r2,r2,#1
        0x0001a496:    f1b23fff    ...?    CMP      r2,#0xffffffff
        0x0001a49a:    dcf6        ..      BGT      0x1a48a ; am_util_stdio_vsprintf + 1150
        0x0001a49c:    2c00        .,      CMP      r4,#0
        0x0001a49e:    e000        ..      B        0x1a4a2 ; am_util_stdio_vsprintf + 1174
        0x0001a4a0:    e004        ..      B        0x1a4ac ; am_util_stdio_vsprintf + 1184
        0x0001a4a2:    bf14        ..      ITE      NE
        0x0001a4a4:    4608        .F      MOVNE    r0,r1
        0x0001a4a6:    2000        .       MOVEQ    r0,#0
        0x0001a4a8:    4404        .D      ADD      r4,r4,r0
        0x0001a4aa:    440d        .D      ADD      r5,r5,r1
        0x0001a4ac:    4622        "F      MOV      r2,r4
        0x0001a4ae:    4670        pF      MOV      r0,lr
        0x0001a4b0:    9903        ..      LDR      r1,[sp,#0xc]
        0x0001a4b2:    f000fdc1    ....    BL       uint64_to_str ; 0x1b038
        0x0001a4b6:    bbdc        ..      CBNZ     r4,0x1a530 ; am_util_stdio_vsprintf + 1316
        0x0001a4b8:    4405        .D      ADD      r5,r5,r0
        0x0001a4ba:    e130        0.      B        0x1a71e ; am_util_stdio_vsprintf + 1810
        0x0001a4bc:    980a        ..      LDR      r0,[sp,#0x28]
        0x0001a4be:    f1bc0f00    ....    CMP      r12,#0
        0x0001a4c2:    d006        ..      BEQ      0x1a4d2 ; am_util_stdio_vsprintf + 1222
        0x0001a4c4:    1dc0        ..      ADDS     r0,r0,#7
        0x0001a4c6:    f0200007     ...    BIC      r0,r0,#7
        0x0001a4ca:    e8f08702    ....    LDRD     r8,r7,[r0],#8
        0x0001a4ce:    900a        ..      STR      r0,[sp,#0x28]
        0x0001a4d0:    e004        ..      B        0x1a4dc ; am_util_stdio_vsprintf + 1232
        0x0001a4d2:    f8508b04    P...    LDR      r8,[r0],#4
        0x0001a4d6:    900a        ..      STR      r0,[sp,#0x28]
        0x0001a4d8:    ea4f77e8    O..w    ASR      r7,r8,#31
        0x0001a4dc:    2f00        ./      CMP      r7,#0
        0x0001a4de:    bfa8        ..      IT       GE
        0x0001a4e0:    f04f0900    O...    MOVGE    r9,#0
        0x0001a4e4:    da06        ..      BGE      0x1a4f4 ; am_util_stdio_vsprintf + 1256
        0x0001a4e6:    2000        .       MOVS     r0,#0
        0x0001a4e8:    f1d80800    ....    RSBS     r8,r8,#0
        0x0001a4ec:    eb600707    `...    SBC      r7,r0,r7
        0x0001a4f0:    f04f0901    O...    MOV      r9,#1
        0x0001a4f4:    9800        ..      LDR      r0,[sp,#0]
        0x0001a4f6:    b3d8        ..      CBZ      r0,0x1a570 ; am_util_stdio_vsprintf + 1380
        0x0001a4f8:    4640        @F      MOV      r0,r8
        0x0001a4fa:    0039        9.      MOVS     r1,r7
        0x0001a4fc:    d503        ..      BPL      0x1a506 ; am_util_stdio_vsprintf + 1274
        0x0001a4fe:    2200        ."      MOVS     r2,#0
        0x0001a500:    4240        @B      RSBS     r0,r0,#0
        0x0001a502:    eb620107    b...    SBC      r1,r2,r7
        0x0001a506:    f000fba7    ....    BL       ndigits_in_u64 ; 0x1ac58
        0x0001a50a:    9900        ..      LDR      r1,[sp,#0]
        0x0001a50c:    1a0a        ..      SUBS     r2,r1,r0
        0x0001a50e:    f1b90f00    ....    CMP      r9,#0
        0x0001a512:    d008        ..      BEQ      0x1a526 ; am_util_stdio_vsprintf + 1306
        0x0001a514:    9801        ..      LDR      r0,[sp,#4]
        0x0001a516:    1e52        R.      SUBS     r2,r2,#1
        0x0001a518:    2830        0(      CMP      r0,#0x30
        0x0001a51a:    d104        ..      BNE      0x1a526 ; am_util_stdio_vsprintf + 1306
        0x0001a51c:    b114        ..      CBZ      r4,0x1a524 ; am_util_stdio_vsprintf + 1304
        0x0001a51e:    202d        -       MOVS     r0,#0x2d
        0x0001a520:    f8040b01    ....    STRB     r0,[r4],#1
        0x0001a524:    1c6d        m.      ADDS     r5,r5,#1
        0x0001a526:    2100        .!      MOVS     r1,#0
        0x0001a528:    4620         F      MOV      r0,r4
        0x0001a52a:    9b01        ..      LDR      r3,[sp,#4]
        0x0001a52c:    2a00        .*      CMP      r2,#0
        0x0001a52e:    e000        ..      B        0x1a532 ; am_util_stdio_vsprintf + 1318
        0x0001a530:    e02c        ,.      B        0x1a58c ; am_util_stdio_vsprintf + 1408
        0x0001a532:    bfc4        ..      ITT      GT
        0x0001a534:    1e52        R.      SUBGT    r2,r2,#1
        0x0001a536:    f1b23fff    ...?    CMPGT    r2,#0xffffffff
        0x0001a53a:    dd08        ..      BLE      0x1a54e ; am_util_stdio_vsprintf + 1346
        0x0001a53c:    2800        .(      CMP      r0,#0
        0x0001a53e:    bf18        ..      IT       NE
        0x0001a540:    f8003b01    ...;    STRBNE   r3,[r0],#1
        0x0001a544:    1c49        I.      ADDS     r1,r1,#1
        0x0001a546:    1e52        R.      SUBS     r2,r2,#1
        0x0001a548:    f1b23fff    ...?    CMP      r2,#0xffffffff
        0x0001a54c:    dcf6        ..      BGT      0x1a53c ; am_util_stdio_vsprintf + 1328
        0x0001a54e:    2c00        .,      CMP      r4,#0
        0x0001a550:    bf14        ..      ITE      NE
        0x0001a552:    4608        .F      MOVNE    r0,r1
        0x0001a554:    2000        .       MOVEQ    r0,#0
        0x0001a556:    4404        .D      ADD      r4,r4,r0
        0x0001a558:    440d        .D      ADD      r5,r5,r1
        0x0001a55a:    f1b90f00    ....    CMP      r9,#0
        0x0001a55e:    d00e        ..      BEQ      0x1a57e ; am_util_stdio_vsprintf + 1394
        0x0001a560:    9801        ..      LDR      r0,[sp,#4]
        0x0001a562:    2820         (      CMP      r0,#0x20
        0x0001a564:    d10b        ..      BNE      0x1a57e ; am_util_stdio_vsprintf + 1394
        0x0001a566:    b14c        L.      CBZ      r4,0x1a57c ; am_util_stdio_vsprintf + 1392
        0x0001a568:    202d        -       MOVS     r0,#0x2d
        0x0001a56a:    f8040b01    ....    STRB     r0,[r4],#1
        0x0001a56e:    e005        ..      B        0x1a57c ; am_util_stdio_vsprintf + 1392
        0x0001a570:    e7ff        ..      B        0x1a572 ; am_util_stdio_vsprintf + 1382
        0x0001a572:    f1b90f00    ....    CMP      r9,#0
        0x0001a576:    d002        ..      BEQ      0x1a57e ; am_util_stdio_vsprintf + 1394
        0x0001a578:    2c00        .,      CMP      r4,#0
        0x0001a57a:    d1f5        ..      BNE      0x1a568 ; am_util_stdio_vsprintf + 1372
        0x0001a57c:    1c6d        m.      ADDS     r5,r5,#1
        0x0001a57e:    4622        "F      MOV      r2,r4
        0x0001a580:    4640        @F      MOV      r0,r8
        0x0001a582:    4639        9F      MOV      r1,r7
        0x0001a584:    f000fd58    ..X.    BL       uint64_to_str ; 0x1b038
        0x0001a588:    2c00        .,      CMP      r4,#0
        0x0001a58a:    d095        ..      BEQ      0x1a4b8 ; am_util_stdio_vsprintf + 1196
        0x0001a58c:    4404        .D      ADD      r4,r4,r0
        0x0001a58e:    e793        ..      B        0x1a4b8 ; am_util_stdio_vsprintf + 1196
        0x0001a590:    2c00        .,      CMP      r4,#0
        0x0001a592:    d07d        }.      BEQ      0x1a690 ; am_util_stdio_vsprintf + 1668
        0x0001a594:    980a        ..      LDR      r0,[sp,#0x28]
        0x0001a596:    1dc0        ..      ADDS     r0,r0,#7
        0x0001a598:    f0200007     ...    BIC      r0,r0,#7
        0x0001a59c:    ecb00b02    ....    VLDM     r0!,{d0}
        0x0001a5a0:    900a        ..      STR      r0,[sp,#0x28]
        0x0001a5a2:    ec510b10    Q...    VMOV     r0,r1,d0
        0x0001a5a6:    f000fddb    ....    BL       __aeabi_d2f ; 0x1b160
        0x0001a5aa:    ee000a10    ....    VMOV     s0,r0
        0x0001a5ae:    f04f0a14    O...    MOV      r10,#0x14
        0x0001a5b2:    4627        'F      MOV      r7,r4
        0x0001a5b4:    eeb50ac0    ....    VCMPE.F32 s0,#0.0
        0x0001a5b8:    f8c4a000    ....    STR      r10,[r4,#0]
        0x0001a5bc:    eef1fa10    ....    VMRS     APSR_nzcv,FPSCR
        0x0001a5c0:    d103        ..      BNE      0x1a5ca ; am_util_stdio_vsprintf + 1470
        0x0001a5c2:    485f        _H      LDR      r0,[pc,#380] ; [0x1a740] = 0x302e30
        0x0001a5c4:    6020         `      STR      r0,[r4,#0]
        0x0001a5c6:    2003        .       MOVS     r0,#3
        0x0001a5c8:    e0a7        ..      B        0x1a71a ; am_util_stdio_vsprintf + 1806
        0x0001a5ca:    ee100a10    ....    VMOV     r0,s0
        0x0001a5ce:    f04f0800    O...    MOV      r8,#0
        0x0001a5d2:    46a3        .F      MOV      r11,r4
        0x0001a5d4:    f3c051c7    ...Q    UBFX     r1,r0,#23,#8
        0x0001a5d8:    f020427f     ..B    BIC      r2,r0,#0xff000000
        0x0001a5dc:    397f        .9      SUBS     r1,r1,#0x7f
        0x0001a5de:    f4420200    B...    ORR      r2,r2,#0x800000
        0x0001a5e2:    4643        CF      MOV      r3,r8
        0x0001a5e4:    291f        .)      CMP      r1,#0x1f
        0x0001a5e6:    da7d        }.      BGE      0x1a6e4 ; am_util_stdio_vsprintf + 1752
        0x0001a5e8:    f1110f17    ....    CMN      r1,#0x17
        0x0001a5ec:    db7b        {.      BLT      0x1a6e6 ; am_util_stdio_vsprintf + 1754
        0x0001a5ee:    2917        .)      CMP      r1,#0x17
        0x0001a5f0:    bfa4        ..      ITT      GE
        0x0001a5f2:    3917        .9      SUBGE    r1,r1,#0x17
        0x0001a5f4:    fa02f301    ....    LSLGE    r3,r2,r1
        0x0001a5f8:    da0e        ..      BGE      0x1a618 ; am_util_stdio_vsprintf + 1548
        0x0001a5fa:    2900        .)      CMP      r1,#0
        0x0001a5fc:    bfbc        ..      ITT      LT
        0x0001a5fe:    43c9        .C      MVNLT    r1,r1
        0x0001a600:    fa22f801    "...    LSRLT    r8,r2,r1
        0x0001a604:    db08        ..      BLT      0x1a618 ; am_util_stdio_vsprintf + 1548
        0x0001a606:    f1c10317    ....    RSB      r3,r1,#0x17
        0x0001a60a:    fa42f303    B...    ASR      r3,r2,r3
        0x0001a60e:    1c49        I.      ADDS     r1,r1,#1
        0x0001a610:    fa02f101    ....    LSL      r1,r2,r1
        0x0001a614:    f021487f    !..H    BIC      r8,r1,#0xff000000
        0x0001a618:    2800        .(      CMP      r0,#0
        0x0001a61a:    da03        ..      BGE      0x1a624 ; am_util_stdio_vsprintf + 1560
        0x0001a61c:    202d        -       MOVS     r0,#0x2d
        0x0001a61e:    7038        8p      STRB     r0,[r7,#0]
        0x0001a620:    f10b0701    ....    ADD      r7,r11,#1
        0x0001a624:    2b00        .+      CMP      r3,#0
        0x0001a626:    bf04        ..      ITT      EQ
        0x0001a628:    2030        0       MOVEQ    r0,#0x30
        0x0001a62a:    f8070b01    ....    STRBEQ   r0,[r7],#1
        0x0001a62e:    d015        ..      BEQ      0x1a65c ; am_util_stdio_vsprintf + 1616
        0x0001a630:    dd06        ..      BLE      0x1a640 ; am_util_stdio_vsprintf + 1588
        0x0001a632:    463a        :F      MOV      r2,r7
        0x0001a634:    4618        .F      MOV      r0,r3
        0x0001a636:    ea4f71e3    O..q    ASR      r1,r3,#31
        0x0001a63a:    f000fcfd    ....    BL       uint64_to_str ; 0x1b038
        0x0001a63e:    e007        ..      B        0x1a650 ; am_util_stdio_vsprintf + 1604
        0x0001a640:    202d        -       MOVS     r0,#0x2d
        0x0001a642:    f8070b01    ....    STRB     r0,[r7],#1
        0x0001a646:    4258        XB      RSBS     r0,r3,#0
        0x0001a648:    463a        :F      MOV      r2,r7
        0x0001a64a:    17c1        ..      ASRS     r1,r0,#31
        0x0001a64c:    f000fcf4    ....    BL       uint64_to_str ; 0x1b038
        0x0001a650:    7838        8x      LDRB     r0,[r7,#0]
        0x0001a652:    b118        ..      CBZ      r0,0x1a65c ; am_util_stdio_vsprintf + 1616
        0x0001a654:    f8170f01    ....    LDRB     r0,[r7,#1]!
        0x0001a658:    2800        .(      CMP      r0,#0
        0x0001a65a:    d1fb        ..      BNE      0x1a654 ; am_util_stdio_vsprintf + 1608
        0x0001a65c:    202e        .       MOVS     r0,#0x2e
        0x0001a65e:    1c7a        z.      ADDS     r2,r7,#1
        0x0001a660:    7038        8p      STRB     r0,[r7,#0]
        0x0001a662:    f1b80f00    ....    CMP      r8,#0
        0x0001a666:    d041        A.      BEQ      0x1a6ec ; am_util_stdio_vsprintf + 1760
        0x0001a668:    eba2000b    ....    SUB      r0,r2,r11
        0x0001a66c:    ebaa0000    ....    SUB      r0,r10,r0
        0x0001a670:    f1a00c01    ....    SUB      r12,r0,#1
        0x0001a674:    45cc        .E      CMP      r12,r9
        0x0001a676:    bfc8        ..      IT       GT
        0x0001a678:    46cc        .F      MOVGT    r12,r9
        0x0001a67a:    f1bc0f00    ....    CMP      r12,#0
        0x0001a67e:    dd11        ..      BLE      0x1a6a4 ; am_util_stdio_vsprintf + 1688
        0x0001a680:    4617        .F      MOV      r7,r2
        0x0001a682:    4660        `F      MOV      r0,r12
        0x0001a684:    f05f0330    _.0.    MOVS.W   r3,#0x30
        0x0001a688:    eb080188    ....    ADD      r1,r8,r8,LSL #2
        0x0001a68c:    0049        I.      LSLS     r1,r1,#1
        0x0001a68e:    e000        ..      B        0x1a692 ; am_util_stdio_vsprintf + 1670
        0x0001a690:    e045        E.      B        0x1a71e ; am_util_stdio_vsprintf + 1810
        0x0001a692:    eb036821    ..!h    ADD      r8,r3,r1,ASR #24
        0x0001a696:    f8078b01    ....    STRB     r8,[r7],#1
        0x0001a69a:    f021487f    !..H    BIC      r8,r1,#0xff000000
        0x0001a69e:    1e40        @.      SUBS     r0,r0,#1
        0x0001a6a0:    d1f2        ..      BNE      0x1a688 ; am_util_stdio_vsprintf + 1660
        0x0001a6a2:    4462        bD      ADD      r2,r2,r12
        0x0001a6a4:    eb080088    ....    ADD      r0,r8,r8,LSL #2
        0x0001a6a8:    0041        A.      LSLS     r1,r0,#1
        0x0001a6aa:    2005        .       MOVS     r0,#5
        0x0001a6ac:    ebb06f21    ..!o    CMP      r0,r1,ASR #24
        0x0001a6b0:    dc24        $.      BGT      0x1a6fc ; am_util_stdio_vsprintf + 1776
        0x0001a6b2:    1e50        P.      SUBS     r0,r2,#1
        0x0001a6b4:    ebab0300    ....    SUB      r3,r11,r0
        0x0001a6b8:    2101        .!      MOVS     r1,#1
        0x0001a6ba:    f1c30301    ....    RSB      r3,r3,#1
        0x0001a6be:    2b01        .+      CMP      r3,#1
        0x0001a6c0:    bfa8        ..      IT       GE
        0x0001a6c2:    2730        0'      MOVGE    r7,#0x30
        0x0001a6c4:    db1a        ..      BLT      0x1a6fc ; am_util_stdio_vsprintf + 1776
        0x0001a6c6:    bf00        ..      NOP      
        0x0001a6c8:    f890c000    ....    LDRB     r12,[r0,#0]
        0x0001a6cc:    f1bc0f2e    ....    CMP      r12,#0x2e
        0x0001a6d0:    d010        ..      BEQ      0x1a6f4 ; am_util_stdio_vsprintf + 1768
        0x0001a6d2:    f1bc0f39    ..9.    CMP      r12,#0x39
        0x0001a6d6:    bf08        ..      IT       EQ
        0x0001a6d8:    7007        .p      STRBEQ   r7,[r0,#0]
        0x0001a6da:    d00b        ..      BEQ      0x1a6f4 ; am_util_stdio_vsprintf + 1768
        0x0001a6dc:    f00c01ff    ....    AND      r1,r12,#0xff
        0x0001a6e0:    1c49        I.      ADDS     r1,r1,#1
        0x0001a6e2:    e001        ..      B        0x1a6e8 ; am_util_stdio_vsprintf + 1756
        0x0001a6e4:    e02a        *.      B        0x1a73c ; am_util_stdio_vsprintf + 1840
        0x0001a6e6:    e027        '.      B        0x1a738 ; am_util_stdio_vsprintf + 1836
        0x0001a6e8:    7001        .p      STRB     r1,[r0,#0]
        0x0001a6ea:    e007        ..      B        0x1a6fc ; am_util_stdio_vsprintf + 1776
        0x0001a6ec:    2030        0       MOVS     r0,#0x30
        0x0001a6ee:    f8020b01    ....    STRB     r0,[r2],#1
        0x0001a6f2:    e003        ..      B        0x1a6fc ; am_util_stdio_vsprintf + 1776
        0x0001a6f4:    1e40        @.      SUBS     r0,r0,#1
        0x0001a6f6:    1c49        I.      ADDS     r1,r1,#1
        0x0001a6f8:    428b        .B      CMP      r3,r1
        0x0001a6fa:    dae5        ..      BGE      0x1a6c8 ; am_util_stdio_vsprintf + 1724
        0x0001a6fc:    2000        .       MOVS     r0,#0
        0x0001a6fe:    7010        .p      STRB     r0,[r2,#0]
        0x0001a700:    ebb2000b    ....    SUBS     r0,r2,r11
        0x0001a704:    d509        ..      BPL      0x1a71a ; am_util_stdio_vsprintf + 1806
        0x0001a706:    f1b03fff    ...?    CMP      r0,#0xffffffff
        0x0001a70a:    d015        ..      BEQ      0x1a738 ; am_util_stdio_vsprintf + 1836
        0x0001a70c:    f1100f02    ....    CMN      r0,#2
        0x0001a710:    bf18        ..      IT       NE
        0x0001a712:    480c        .H      LDRNE    r0,[pc,#48] ; [0x1a744] = 0x3f2e3f
        0x0001a714:    d012        ..      BEQ      0x1a73c ; am_util_stdio_vsprintf + 1840
        0x0001a716:    6020         `      STR      r0,[r4,#0]
        0x0001a718:    2003        .       MOVS     r0,#3
        0x0001a71a:    4405        .D      ADD      r5,r5,r0
        0x0001a71c:    4404        .D      ADD      r4,r4,r0
        0x0001a71e:    1c71        q.      ADDS     r1,r6,#1
        0x0001a720:    7808        .x      LDRB     r0,[r1,#0]
        0x0001a722:    2800        .(      CMP      r0,#0
        0x0001a724:    f47fac7c    ..|.    BNE      0x1a020 ; am_util_stdio_vsprintf + 20
        0x0001a728:    2c00        .,      CMP      r4,#0
        0x0001a72a:    bf1c        ..      ITT      NE
        0x0001a72c:    2000        .       MOVNE    r0,#0
        0x0001a72e:    7020         p      STRBNE   r0,[r4,#0]
        0x0001a730:    4628        (F      MOV      r0,r5
        0x0001a732:    b00b        ..      ADD      sp,sp,#0x2c
        0x0001a734:    e8bd8ff0    ....    POP      {r4-r11,pc}
        0x0001a738:    4801        .H      LDR      r0,[pc,#4] ; [0x1a740] = 0x302e30
        0x0001a73a:    e7ec        ..      B        0x1a716 ; am_util_stdio_vsprintf + 1802
        0x0001a73c:    4802        .H      LDR      r0,[pc,#8] ; [0x1a748] = 0x232e23
        0x0001a73e:    e7ea        ..      B        0x1a716 ; am_util_stdio_vsprintf + 1802
    $d
        0x0001a740:    00302e30    0.0.    DCD    3157552
        0x0001a744:    003f2e3f    ?.?.    DCD    4140607
        0x0001a748:    00232e23    #.#.    DCD    2305571
    $t
    i.buck_interval_check
    buck_interval_check
        0x0001a74c:    e92d43f0    -..C    PUSH     {r4-r9,lr}
        0x0001a750:    4607        .F      MOV      r7,r0
        0x0001a752:    4852        RH      LDR      r0,[pc,#328] ; [0x1a89c] = 0x40021000
        0x0001a754:    b08b        ..      SUB      sp,sp,#0x2c
        0x0001a756:    f04f0800    O...    MOV      r8,#0
        0x0001a75a:    6802        .h      LDR      r2,[r0,#0]
        0x0001a75c:    f2427910    B..y    MOV      r9,#0x2710
        0x0001a760:    f3c202c1    ....    UBFX     r2,r2,#3,#2
        0x0001a764:    2a02        .*      CMP      r2,#2
        0x0001a766:    bf08        ..      IT       EQ
        0x0001a768:    f6446920    D. i    MOVEQ    r9,#0x4e20
        0x0001a76c:    b117        ..      CBZ      r7,0x1a774 ; buck_interval_check + 40
        0x0001a76e:    b129        ).      CBZ      r1,0x1a77c ; buck_interval_check + 48
        0x0001a770:    2901        .)      CMP      r1,#1
        0x0001a772:    d007        ..      BEQ      0x1a784 ; buck_interval_check + 56
        0x0001a774:    b00b        ..      ADD      sp,sp,#0x2c
        0x0001a776:    2006        .       MOVS     r0,#6
        0x0001a778:    e8bd83f0    ....    POP      {r4-r9,pc}
        0x0001a77c:    241c        .$      MOVS     r4,#0x1c
        0x0001a77e:    2632        2&      MOVS     r6,#0x32
        0x0001a780:    2596        .%      MOVS     r5,#0x96
        0x0001a782:    e002        ..      B        0x1a78a ; buck_interval_check + 62
        0x0001a784:    241d        .$      MOVS     r4,#0x1d
        0x0001a786:    2632        2&      MOVS     r6,#0x32
        0x0001a788:    2596        .%      MOVS     r5,#0x96
        0x0001a78a:    f8d00100    ....    LDR      r0,[r0,#0x100]
        0x0001a78e:    f0100f01    ....    TST      r0,#1
        0x0001a792:    d005        ..      BEQ      0x1a7a0 ; buck_interval_check + 84
        0x0001a794:    4842        BH      LDR      r0,[pc,#264] ; [0x1a8a0] = 0x40020000
        0x0001a796:    6e00        .n      LDR      r0,[r0,#0x60]
        0x0001a798:    f24011ef    @...    MOV      r1,#0x1ef
        0x0001a79c:    4208        .B      TST      r0,r1
        0x0001a79e:    d003        ..      BEQ      0x1a7a8 ; buck_interval_check + 92
        0x0001a7a0:    b00b        ..      ADD      sp,sp,#0x2c
        0x0001a7a2:    2007        .       MOVS     r0,#7
        0x0001a7a4:    e8bd83f0    ....    POP      {r4-r9,pc}
        0x0001a7a8:    200d        .       MOVS     r0,#0xd
        0x0001a7aa:    f7fefe41    ..A.    BL       am_hal_timer_clear_stop ; 0x19430
        0x0001a7ae:    200d        .       MOVS     r0,#0xd
        0x0001a7b0:    f7feff64    ..d.    BL       am_hal_timer_stop ; 0x1967c
        0x0001a7b4:    200d        .       MOVS     r0,#0xd
        0x0001a7b6:    f7fefec9    ....    BL       am_hal_timer_reset_config ; 0x1954c
        0x0001a7ba:    4668        hF      MOV      r0,sp
        0x0001a7bc:    f7fefe64    ..d.    BL       am_hal_timer_default_config_set ; 0x19488
        0x0001a7c0:    f88d4000    ...@    STRB     r4,[sp,#0]
        0x0001a7c4:    2402        .$      MOVS     r4,#2
        0x0001a7c6:    f88d4001    ...@    STRB     r4,[sp,#1]
        0x0001a7ca:    4669        iF      MOV      r1,sp
        0x0001a7cc:    200d        .       MOVS     r0,#0xd
        0x0001a7ce:    f000fb5d    ..].    BL       timer_config_b1 ; 0x1ae8c
        0x0001a7d2:    2008        .       MOVS     r0,#8
        0x0001a7d4:    f7fefe2c    ..,.    BL       am_hal_timer_clear_stop ; 0x19430
        0x0001a7d8:    2008        .       MOVS     r0,#8
        0x0001a7da:    f7feff4f    ..O.    BL       am_hal_timer_stop ; 0x1967c
        0x0001a7de:    2008        .       MOVS     r0,#8
        0x0001a7e0:    f7fefeb4    ....    BL       am_hal_timer_reset_config ; 0x1954c
        0x0001a7e4:    a805        ..      ADD      r0,sp,#0x14
        0x0001a7e6:    f7fefe4f    ..O.    BL       am_hal_timer_default_config_set ; 0x19488
        0x0001a7ea:    2001        .       MOVS     r0,#1
        0x0001a7ec:    f88d0014    ....    STRB     r0,[sp,#0x14]
        0x0001a7f0:    f88d4015    ...@    STRB     r4,[sp,#0x15]
        0x0001a7f4:    a905        ..      ADD      r1,sp,#0x14
        0x0001a7f6:    2008        .       MOVS     r0,#8
        0x0001a7f8:    f000fb48    ..H.    BL       timer_config_b1 ; 0x1ae8c
        0x0001a7fc:    f7fdfdbe    ....    BL       am_hal_interrupt_master_disable ; 0x1837c
        0x0001a800:    900a        ..      STR      r0,[sp,#0x28]
        0x0001a802:    2008        .       MOVS     r0,#8
        0x0001a804:    f7feff18    ....    BL       am_hal_timer_start ; 0x19638
        0x0001a808:    200d        .       MOVS     r0,#0xd
        0x0001a80a:    f7feff15    ....    BL       am_hal_timer_start ; 0x19638
        0x0001a80e:    980a        ..      LDR      r0,[sp,#0x28]
        0x0001a810:    f7fdfdb8    ....    BL       am_hal_interrupt_master_set ; 0x18384
        0x0001a814:    f1b90401    ....    SUBS     r4,r9,#1
        0x0001a818:    d315        ..      BCC      0x1a846 ; buck_interval_check + 250
        0x0001a81a:    bf00        ..      NOP      
        0x0001a81c:    f7fdfdae    ....    BL       am_hal_interrupt_master_disable ; 0x1837c
        0x0001a820:    900a        ..      STR      r0,[sp,#0x28]
        0x0001a822:    200d        .       MOVS     r0,#0xd
        0x0001a824:    f7fefe80    ....    BL       am_hal_timer_read ; 0x19528
        0x0001a828:    280a        .(      CMP      r0,#0xa
        0x0001a82a:    d307        ..      BCC      0x1a83c ; buck_interval_check + 240
        0x0001a82c:    2008        .       MOVS     r0,#8
        0x0001a82e:    f7fefe7b    ..{.    BL       am_hal_timer_read ; 0x19528
        0x0001a832:    4680        .F      MOV      r8,r0
        0x0001a834:    980a        ..      LDR      r0,[sp,#0x28]
        0x0001a836:    f7fdfda5    ....    BL       am_hal_interrupt_master_set ; 0x18384
        0x0001a83a:    e004        ..      B        0x1a846 ; buck_interval_check + 250
        0x0001a83c:    980a        ..      LDR      r0,[sp,#0x28]
        0x0001a83e:    f7fdfda1    ....    BL       am_hal_interrupt_master_set ; 0x18384
        0x0001a842:    1e64        d.      SUBS     r4,r4,#1
        0x0001a844:    d2ea        ..      BCS      0x1a81c ; buck_interval_check + 208
        0x0001a846:    200d        .       MOVS     r0,#0xd
        0x0001a848:    f7fefdf2    ....    BL       am_hal_timer_clear_stop ; 0x19430
        0x0001a84c:    200d        .       MOVS     r0,#0xd
        0x0001a84e:    f7feff15    ....    BL       am_hal_timer_stop ; 0x1967c
        0x0001a852:    200d        .       MOVS     r0,#0xd
        0x0001a854:    f7fefe7a    ..z.    BL       am_hal_timer_reset_config ; 0x1954c
        0x0001a858:    2008        .       MOVS     r0,#8
        0x0001a85a:    f7fefde9    ....    BL       am_hal_timer_clear_stop ; 0x19430
        0x0001a85e:    2008        .       MOVS     r0,#8
        0x0001a860:    f7feff0c    ....    BL       am_hal_timer_stop ; 0x1967c
        0x0001a864:    2008        .       MOVS     r0,#8
        0x0001a866:    f7fefe71    ..q.    BL       am_hal_timer_reset_config ; 0x1954c
        0x0001a86a:    f1b80f00    ....    CMP      r8,#0
        0x0001a86e:    bf02        ..      ITTT     EQ
        0x0001a870:    2001        .       MOVEQ    r0,#1
        0x0001a872:    b00b        ..      ADDEQ    sp,sp,#0x2c
        0x0001a874:    e8bd83f0    ....    POPEQ    {r4-r9,pc}
        0x0001a878:    480a        .H      LDR      r0,[pc,#40] ; [0x1a8a4] = 0xaaaaaaab
        0x0001a87a:    fba01008    ....    UMULL    r1,r0,r0,r8
        0x0001a87e:    0884        ..      LSRS     r4,r0,#2
        0x0001a880:    42b4        .B      CMP      r4,r6
        0x0001a882:    d306        ..      BCC      0x1a892 ; buck_interval_check + 326
        0x0001a884:    42ac        .B      CMP      r4,r5
        0x0001a886:    d806        ..      BHI      0x1a896 ; buck_interval_check + 330
        0x0001a888:    603c        <`      STR      r4,[r7,#0]
        0x0001a88a:    b00b        ..      ADD      sp,sp,#0x2c
        0x0001a88c:    2000        .       MOVS     r0,#0
        0x0001a88e:    e8bd83f0    ....    POP      {r4-r9,pc}
        0x0001a892:    4634        4F      MOV      r4,r6
        0x0001a894:    e7f8        ..      B        0x1a888 ; buck_interval_check + 316
        0x0001a896:    462c        ,F      MOV      r4,r5
        0x0001a898:    e7f6        ..      B        0x1a888 ; buck_interval_check + 316
    $d
        0x0001a89a:    0000        ..      DCW    0
        0x0001a89c:    40021000    ...@    DCD    1073876992
        0x0001a8a0:    40020000    ...@    DCD    1073872896
        0x0001a8a4:    aaaaaaab    ....    DCD    2863311531
    $t
    i.internal_timer_config
    internal_timer_config
        0x0001a8a8:    4a36        6J      LDR      r2,[pc,#216] ; [0x1a984] = 0x40020000
        0x0001a8aa:    68d3        .h      LDR      r3,[r2,#0xc]
        0x0001a8ac:    b2db        ..      UXTB     r3,r3
        0x0001a8ae:    2b21        !+      CMP      r3,#0x21
        0x0001a8b0:    d01c        ..      BEQ      0x1a8ec ; internal_timer_config + 68
        0x0001a8b2:    68d2        .h      LDR      r2,[r2,#0xc]
        0x0001a8b4:    b2d2        ..      UXTB     r2,r2
        0x0001a8b6:    2a22        "*      CMP      r2,#0x22
        0x0001a8b8:    bf3c        <.      ITT      CC
        0x0001a8ba:    2001        .       MOVCC    r0,#1
        0x0001a8bc:    4770        pG      BXCC     lr
        0x0001a8be:    2801        .(      CMP      r0,#1
        0x0001a8c0:    bf18        ..      IT       NE
        0x0001a8c2:    2803        .(      CMPNE    r0,#3
        0x0001a8c4:    d054        T.      BEQ      0x1a970 ; internal_timer_config + 200
        0x0001a8c6:    280a        .(      CMP      r0,#0xa
        0x0001a8c8:    bf18        ..      IT       NE
        0x0001a8ca:    280b        .(      CMPNE    r0,#0xb
        0x0001a8cc:    d050        P.      BEQ      0x1a970 ; internal_timer_config + 200
        0x0001a8ce:    280c        .(      CMP      r0,#0xc
        0x0001a8d0:    bf1c        ..      ITT      NE
        0x0001a8d2:    280e        .(      CMPNE    r0,#0xe
        0x0001a8d4:    280f        .(      CMPNE    r0,#0xf
        0x0001a8d6:    d04b        K.      BEQ      0x1a970 ; internal_timer_config + 200
        0x0001a8d8:    2805        .(      CMP      r0,#5
        0x0001a8da:    bf18        ..      IT       NE
        0x0001a8dc:    2807        .(      CMPNE    r0,#7
        0x0001a8de:    d04a        J.      BEQ      0x1a976 ; internal_timer_config + 206
        0x0001a8e0:    2808        .(      CMP      r0,#8
        0x0001a8e2:    bf1c        ..      ITT      NE
        0x0001a8e4:    2809        .(      CMPNE    r0,#9
        0x0001a8e6:    280d        .(      CMPNE    r0,#0xd
        0x0001a8e8:    d045        E.      BEQ      0x1a976 ; internal_timer_config + 206
        0x0001a8ea:    e049        I.      B        0x1a980 ; internal_timer_config + 216
        0x0001a8ec:    784b        Kx      LDRB     r3,[r1,#1]
        0x0001a8ee:    780a        .x      LDRB     r2,[r1,#0]
        0x0001a8f0:    f04f0cf0    O...    MOV      r12,#0xf0
        0x0001a8f4:    ea0c1303    ....    AND      r3,r12,r3,LSL #4
        0x0001a8f8:    ea432202    C.."    ORR      r2,r3,r2,LSL #8
        0x0001a8fc:    78cb        .x      LDRB     r3,[r1,#3]
        0x0001a8fe:    f04f0c08    O...    MOV      r12,#8
        0x0001a902:    ea0c03c3    ....    AND      r3,r12,r3,LSL #3
        0x0001a906:    ea430202    C...    ORR      r2,r3,r2
        0x0001a90a:    788b        .x      LDRB     r3,[r1,#2]
        0x0001a90c:    f04f0c04    O...    MOV      r12,#4
        0x0001a910:    ea0c0383    ....    AND      r3,r12,r3,LSL #2
        0x0001a914:    ea430202    C...    ORR      r2,r3,r2
        0x0001a918:    790b        .y      LDRB     r3,[r1,#4]
        0x0001a91a:    f44f3c40    O.@<    MOV      r12,#0x30000
        0x0001a91e:    ea0c4303    ...C    AND      r3,r12,r3,LSL #16
        0x0001a922:    ea430202    C...    ORR      r2,r3,r2
        0x0001a926:    7a0b        .z      LDRB     r3,[r1,#8]
        0x0001a928:    ea4f1040    O.@.    LSL      r0,r0,#5
        0x0001a92c:    f1004080    ...@    ADD      r0,r0,#0x40000000
        0x0001a930:    ea426303    B..c    ORR      r3,r2,r3,LSL #24
        0x0001a934:    f5004000    ...@    ADD      r0,r0,#0x8000
        0x0001a938:    794a        Jy      LDRB     r2,[r1,#5]
        0x0001a93a:    f8d0c200    ....    LDR      r12,[r0,#0x200]
        0x0001a93e:    ea4f2202    O.."    LSL      r2,r2,#8
        0x0001a942:    f02c0c01    ,...    BIC      r12,r12,#1
        0x0001a946:    f8c0c200    ....    STR      r12,[r0,#0x200]
        0x0001a94a:    f8c03200    ...2    STR      r3,[r0,#0x200]
        0x0001a94e:    f8c02210    ..."    STR      r2,[r0,#0x210]
        0x0001a952:    68ca        .h      LDR      r2,[r1,#0xc]
        0x0001a954:    f8c02208    ..."    STR      r2,[r0,#0x208]
        0x0001a958:    6909        .i      LDR      r1,[r1,#0x10]
        0x0001a95a:    f8c0120c    ....    STR      r1,[r0,#0x20c]
        0x0001a95e:    f8d01200    ....    LDR      r1,[r0,#0x200]
        0x0001a962:    f0410102    A...    ORR      r1,r1,#2
        0x0001a966:    f8c01200    ....    STR      r1,[r0,#0x200]
        0x0001a96a:    f04f0000    O...    MOV      r0,#0
        0x0001a96e:    4770        pG      BX       lr
        0x0001a970:    f04f0006    O...    MOV      r0,#6
        0x0001a974:    4770        pG      BX       lr
        0x0001a976:    790a        .y      LDRB     r2,[r1,#4]
        0x0001a978:    2a00        .*      CMP      r2,#0
        0x0001a97a:    bf1c        ..      ITT      NE
        0x0001a97c:    2007        .       MOVNE    r0,#7
        0x0001a97e:    4770        pG      BXNE     lr
        0x0001a980:    f000ba84    ....    B.W      timer_config_b1 ; 0x1ae8c
    $d
        0x0001a984:    40020000    ...@    DCD    1073872896
    $t
    i.main
    main
        0x0001a988:    4954        TI      LDR      r1,[pc,#336] ; [0x1aadc] = 0x1b2e0
        0x0001a98a:    b084        ..      SUB      sp,sp,#0x10
        0x0001a98c:    e9d10100    ....    LDRD     r0,r1,[r1,#0]
        0x0001a990:    e9cd0100    ....    STRD     r0,r1,[sp,#0]
        0x0001a994:    2000        .       MOVS     r0,#0
        0x0001a996:    9002        ..      STR      r0,[sp,#8]
        0x0001a998:    f04f4090    O..@    MOV      r0,#0x48000000
        0x0001a99c:    6801        .h      LDR      r1,[r0,#0]
        0x0001a99e:    f02101f0    !...    BIC      r1,r1,#0xf0
        0x0001a9a2:    31e0        .1      ADDS     r1,r1,#0xe0
        0x0001a9a4:    6001        .`      STR      r1,[r0,#0]
        0x0001a9a6:    6801        .h      LDR      r1,[r0,#0]
        0x0001a9a8:    f4417100    A..q    ORR      r1,r1,#0x200
        0x0001a9ac:    6001        .`      STR      r1,[r0,#0]
        0x0001a9ae:    6801        .h      LDR      r1,[r0,#0]
        0x0001a9b0:    f4417180    A..q    ORR      r1,r1,#0x100
        0x0001a9b4:    6001        .`      STR      r1,[r0,#0]
        0x0001a9b6:    6801        .h      LDR      r1,[r0,#0]
        0x0001a9b8:    f0410101    A...    ORR      r1,r1,#1
        0x0001a9bc:    6001        .`      STR      r1,[r0,#0]
        0x0001a9be:    4848        HH      LDR      r0,[pc,#288] ; [0x1aae0] = 0x40021000
        0x0001a9c0:    6941        Ai      LDR      r1,[r0,#0x14]
        0x0001a9c2:    f0410120    A. .    ORR      r1,r1,#0x20
        0x0001a9c6:    6141        Aa      STR      r1,[r0,#0x14]
        0x0001a9c8:    6941        Ai      LDR      r1,[r0,#0x14]
        0x0001a9ca:    f0410110    A...    ORR      r1,r1,#0x10
        0x0001a9ce:    6141        Aa      STR      r1,[r0,#0x14]
        0x0001a9d0:    69c1        .i      LDR      r1,[r0,#0x1c]
        0x0001a9d2:    f0210110    !...    BIC      r1,r1,#0x10
        0x0001a9d6:    61c1        .a      STR      r1,[r0,#0x1c]
        0x0001a9d8:    4842        BH      LDR      r0,[pc,#264] ; [0x1aae4] = 0x40020000
        0x0001a9da:    f8d01180    ....    LDR      r1,[r0,#0x180]
        0x0001a9de:    f0210104    !...    BIC      r1,r1,#4
        0x0001a9e2:    f8c01180    ....    STR      r1,[r0,#0x180]
        0x0001a9e6:    f8d01180    ....    LDR      r1,[r0,#0x180]
        0x0001a9ea:    f0210102    !...    BIC      r1,r1,#2
        0x0001a9ee:    f8c01180    ....    STR      r1,[r0,#0x180]
        0x0001a9f2:    f8d01180    ....    LDR      r1,[r0,#0x180]
        0x0001a9f6:    f0410101    A...    ORR      r1,r1,#1
        0x0001a9fa:    f8c01180    ....    STR      r1,[r0,#0x180]
        0x0001a9fe:    4668        hF      MOV      r0,sp
        0x0001aa00:    f7fefafa    ....    BL       am_hal_pwrctrl_mcu_memory_config ; 0x18ff8
        0x0001aa04:    a802        ..      ADD      r0,sp,#8
        0x0001aa06:    f7fefbf1    ....    BL       am_hal_pwrctrl_sram_config ; 0x191ec
        0x0001aa0a:    f7fdfd75    ..u.    BL       am_bsp_low_power_init ; 0x184f8
        0x0001aa0e:    f04f2440    O.@$    MOV      r4,#0x40004000
        0x0001aa12:    6c60        `l      LDR      r0,[r4,#0x44]
        0x0001aa14:    f020707f     ..p    BIC      r0,r0,#0x3fc0000
        0x0001aa18:    f500007c    ..|.    ADD      r0,r0,#0xfc0000
        0x0001aa1c:    6460        `d      STR      r0,[r4,#0x44]
        0x0001aa1e:    2100        .!      MOVS     r1,#0
        0x0001aa20:    2001        .       MOVS     r0,#1
        0x0001aa22:    f7fdffdf    ....    BL       am_hal_pwrctrl_control ; 0x189e4
        0x0001aa26:    2100        .!      MOVS     r1,#0
        0x0001aa28:    2003        .       MOVS     r0,#3
        0x0001aa2a:    f7fdffdb    ....    BL       am_hal_pwrctrl_control ; 0x189e4
        0x0001aa2e:    2100        .!      MOVS     r1,#0
        0x0001aa30:    2002        .       MOVS     r0,#2
        0x0001aa32:    f7fdffd7    ....    BL       am_hal_pwrctrl_control ; 0x189e4
        0x0001aa36:    f7fdfd91    ....    BL       am_bsp_uart_printf_enable ; 0x1855c
        0x0001aa3a:    f7fffac9    ....    BL       am_util_stdio_terminal_clear ; 0x19fd0
        0x0001aa3e:    a02a        *.      ADR      r0,{pc}+0xaa ; 0x1aae8
        0x0001aa40:    f7fffaa6    ....    BL       am_util_stdio_printf ; 0x19f90
        0x0001aa44:    a030        0.      ADR      r0,{pc}+0xc4 ; 0x1ab08
        0x0001aa46:    f7fffaa3    ....    BL       am_util_stdio_printf ; 0x19f90
        0x0001aa4a:    a13d        =.      ADR      r1,{pc}+0xf6 ; 0x1ab40
        0x0001aa4c:    a040        @.      ADR      r0,{pc}+0x104 ; 0x1ab50
        0x0001aa4e:    f7fffa9f    ....    BL       am_util_stdio_printf ; 0x19f90
        0x0001aa52:    4945        EI      LDR      r1,[pc,#276] ; [0x1ab68] = 0x1b2e6
        0x0001aa54:    a045        E.      ADR      r0,{pc}+0x118 ; 0x1ab6c
        0x0001aa56:    f7fffa9b    ....    BL       am_util_stdio_printf ; 0x19f90
        0x0001aa5a:    4d4a        JM      LDR      r5,[pc,#296] ; [0x1ab84] = 0x1b2f4
        0x0001aa5c:    8828        (.      LDRH     r0,[r5,#0]
        0x0001aa5e:    f3c02307    ...#    UBFX     r3,r0,#8,#8
        0x0001aa62:    6828        (h      LDR      r0,[r5,#0]
        0x0001aa64:    f3c04207    ...B    UBFX     r2,r0,#16,#8
        0x0001aa68:    0e01        ..      LSRS     r1,r0,#24
        0x0001aa6a:    a047        G.      ADR      r0,{pc}+0x11e ; 0x1ab88
        0x0001aa6c:    f7fffa90    ....    BL       am_util_stdio_printf ; 0x19f90
        0x0001aa70:    7828        (x      LDRB     r0,[r5,#0]
        0x0001aa72:    f0100f80    ....    TST      r0,#0x80
        0x0001aa76:    bf14        ..      ITE      NE
        0x0001aa78:    a14a        J.      ADRNE    r1,{pc}+0x12c ; 0x1aba4
        0x0001aa7a:    a14c        L.      ADREQ    r1,{pc}+0x132 ; 0x1abac
        0x0001aa7c:    a04d        M.      ADR      r0,{pc}+0x138 ; 0x1abb4
        0x0001aa7e:    f7fffa87    ....    BL       am_util_stdio_printf ; 0x19f90
        0x0001aa82:    a056        V.      ADR      r0,{pc}+0x15a ; 0x1abdc
        0x0001aa84:    f7fffa84    ....    BL       am_util_stdio_printf ; 0x19f90
        0x0001aa88:    f2427010    B..p    MOV      r0,#0x2710
        0x0001aa8c:    f7fdfe94    ....    BL       am_hal_delay_us ; 0x187b8
        0x0001aa90:    f7fdfd3e    ..>.    BL       am_bsp_uart_printf_disable ; 0x18510
        0x0001aa94:    f8df8160    ..`.    LDR      r8,[pc,#352] ; [0x1abf8] = 0x4000c000
        0x0001aa98:    4d58        XM      LDR      r5,[pc,#352] ; [0x1abfc] = 0x186a0
        0x0001aa9a:    2737        7'      MOVS     r7,#0x37
        0x0001aa9c:    f2425978    B.xY    MOV      r9,#0x2578
        0x0001aaa0:    68e0        .h      LDR      r0,[r4,#0xc]
        0x0001aaa2:    f0400080    @...    ORR      r0,r0,#0x80
        0x0001aaa6:    60e0        .`      STR      r0,[r4,#0xc]
        0x0001aaa8:    f8c87008    ...p    STR      r7,[r8,#8]
        0x0001aaac:    2201        ."      MOVS     r2,#1
        0x0001aaae:    2100        .!      MOVS     r1,#0
        0x0001aab0:    4628        (F      MOV      r0,r5
        0x0001aab2:    f000f9cd    ....    BL       prime_number ; 0x1ae50
        0x0001aab6:    4606        .F      MOV      r6,r0
        0x0001aab8:    f7fdfd50    ..P.    BL       am_bsp_uart_printf_enable ; 0x1855c
        0x0001aabc:    454e        NE      CMP      r6,r9
        0x0001aabe:    4632        2F      MOV      r2,r6
        0x0001aac0:    4629        )F      MOV      r1,r5
        0x0001aac2:    bf0c        ..      ITE      EQ
        0x0001aac4:    a04e        N.      ADREQ    r0,{pc}+0x13c ; 0x1ac00
        0x0001aac6:    a058        X.      ADRNE    r0,{pc}+0x162 ; 0x1ac28
        0x0001aac8:    f7fffa62    ..b.    BL       am_util_stdio_printf ; 0x19f90
        0x0001aacc:    f2427010    B..p    MOV      r0,#0x2710
        0x0001aad0:    f7fdfe72    ..r.    BL       am_hal_delay_us ; 0x187b8
        0x0001aad4:    f7fdfd1c    ....    BL       am_bsp_uart_printf_disable ; 0x18510
        0x0001aad8:    e7e2        ..      B        0x1aaa0 ; main + 280
    $d
        0x0001aada:    0000        ..      DCW    0
        0x0001aadc:    0001b2e0    ....    DCD    111328
        0x0001aae0:    40021000    ...@    DCD    1073876992
        0x0001aae4:    40020000    ...@    DCD    1073872896
        0x0001aae8:    69626d41    Ambi    DCD    1768058177
        0x0001aaec:    694d2071    q Mi    DCD    1766662257
        0x0001aaf0:    206f7263    cro     DCD    544174691
        0x0001aaf4:    69687727    'whi    DCD    1768453927
        0x0001aaf8:    2027656c    le'     DCD    539452780
        0x0001aafc:    6d617865    exam    DCD    1835104357
        0x0001ab00:    2e656c70    ple.    DCD    778398832
        0x0001ab04:    00000a0a    ....    DCD    2570
        0x0001ab08:    64657355    Used    DCD    1684370261
        0x0001ab0c:    726f6620     for    DCD    1919903264
        0x0001ab10:    61656d20     mea    DCD    1634037024
        0x0001ab14:    69727573    suri    DCD    1769108851
        0x0001ab18:    7020676e    ng p    DCD    1881171822
        0x0001ab1c:    7265776f    ower    DCD    1919252335
        0x0001ab20:    206e6920     in     DCD    544106784
        0x0001ab24:    69206e61    an i    DCD    1763733089
        0x0001ab28:    6e69666e    nfin    DCD    1852401262
        0x0001ab2c:    20657469    ite     DCD    543519849
        0x0001ab30:    6c696877    whil    DCD    1818847351
        0x0001ab34:    6f6c2065    e lo    DCD    1869357157
        0x0001ab38:    0a2e706f    op..    DCD    170815599
        0x0001ab3c:    00000000    ....    DCD    0
        0x0001ab40:    434d5241    ARMC    DCD    1129140801
        0x0001ab44:    30352043    C 50    DCD    808788035
        0x0001ab48:    35373036    6075    DCD    892809270
        0x0001ab4c:    00000030    0...    DCD    48
        0x0001ab50:    20707041    App     DCD    544239681
        0x0001ab54:    706d6f43    Comp    DCD    1886220099
        0x0001ab58:    72656c69    iler    DCD    1919249513
        0x0001ab5c:    2020203a    :       DCD    538976314
        0x0001ab60:    0a732520     %s.    DCD    175318304
        0x0001ab64:    00000000    ....    DCD    0
        0x0001ab68:    0001b2e6    ....    DCD    111334
        0x0001ab6c:    204c4148    HAL     DCD    541868360
        0x0001ab70:    706d6f43    Comp    DCD    1886220099
        0x0001ab74:    72656c69    iler    DCD    1919249513
        0x0001ab78:    2020203a    :       DCD    538976314
        0x0001ab7c:    0a732520     %s.    DCD    175318304
        0x0001ab80:    00000000    ....    DCD    0
        0x0001ab84:    0001b2f4    ....    DCD    111348
        0x0001ab88:    204c4148    HAL     DCD    541868360
        0x0001ab8c:    204b4453    SDK     DCD    541803603
        0x0001ab90:    73726576    vers    DCD    1936876918
        0x0001ab94:    3a6e6f69    ion:    DCD    980316009
        0x0001ab98:    2e642520     %d.    DCD    778315040
        0x0001ab9c:    252e6425    %d.%    DCD    623797285
        0x0001aba0:    00000a64    d...    DCD    2660
        0x0001aba4:    525f4d41    AM_R    DCD    1381977409
        0x0001aba8:    00004745    EG..    DCD    18245
        0x0001abac:    49534d43    CMSI    DCD    1230196035
        0x0001abb0:    00000053    S...    DCD    83
        0x0001abb4:    204c4148    HAL     DCD    541868360
        0x0001abb8:    706d6f63    comp    DCD    1886220131
        0x0001abbc:    64656c69    iled    DCD    1684368489
        0x0001abc0:    74697720     wit    DCD    1953068832
        0x0001abc4:    73252068    h %s    DCD    1931812968
        0x0001abc8:    7974732d    -sty    DCD    2037674797
        0x0001abcc:    7220656c    le r    DCD    1914725740
        0x0001abd0:    73696765    egis    DCD    1936287589
        0x0001abd4:    73726574    ters    DCD    1936876916
        0x0001abd8:    0000000a    ....    DCD    10
        0x0001abdc:    746e450a    .Ent    DCD    1953383690
        0x0001abe0:    6e697265    erin    DCD    1852404325
        0x0001abe4:    68772067    g wh    DCD    1752637543
        0x0001abe8:    20656c69    ile     DCD    543517801
        0x0001abec:    706f6f6c    loop    DCD    1886351212
        0x0001abf0:    0a2e2e2e    ....    DCD    170798638
        0x0001abf4:    00000000    ....    DCD    0
        0x0001abf8:    4000c000    ...@    DCD    1073790976
        0x0001abfc:    000186a0    ....    DCD    100000
        0x0001ac00:    73736150    Pass    DCD    1936941392
        0x0001ac04:    756e203a    : nu    DCD    1970151482
        0x0001ac08:    7265626d    mber    DCD    1919246957
        0x0001ac0c:    20666f20     of     DCD    543584032
        0x0001ac10:    6d697270    prim    DCD    1835627120
        0x0001ac14:    66207365    es f    DCD    1713402725
        0x0001ac18:    2520726f    or %    DCD    622883439
        0x0001ac1c:    73692064    d is    DCD    1936269412
        0x0001ac20:    2e642520     %d.    DCD    778315040
        0x0001ac24:    0000000a    ....    DCD    10
        0x0001ac28:    4f525245    ERRO    DCD    1330795077
        0x0001ac2c:    49203a52    R: I    DCD    1226848850
        0x0001ac30:    6c61766e    nval    DCD    1818326638
        0x0001ac34:    72206469    id r    DCD    1914725481
        0x0001ac38:    6c757365    esul    DCD    1819636581
        0x0001ac3c:    45202e74    t. E    DCD    1159736948
        0x0001ac40:    63657078    xpec    DCD    1667592312
        0x0001ac44:    20646574    ted     DCD    543450484
        0x0001ac48:    202c6425    %d,     DCD    539780133
        0x0001ac4c:    20746f67    got     DCD    544501607
        0x0001ac50:    0a2e6425    %d..    DCD    170812453
        0x0001ac54:    00000000    ....    DCD    0
    $t
    i.ndigits_in_u64
    ndigits_in_u64
        0x0001ac58:    e92d01f0    -...    PUSH     {r4-r8}
        0x0001ac5c:    ea500201    P...    ORRS     r2,r0,r1
        0x0001ac60:    bf0e        ..      ITEE     EQ
        0x0001ac62:    2301        .#      MOVEQ    r3,#1
        0x0001ac64:    2300        .#      MOVNE    r3,#0
        0x0001ac66:    f04f0c00    O...    MOVNE    r12,#0
        0x0001ac6a:    d054        T.      BEQ      0x1ad16 ; ndigits_in_u64 + 190
        0x0001ac6c:    2900        .)      CMP      r1,#0
        0x0001ac6e:    d03b        ;.      BEQ      0x1ace8 ; ndigits_in_u64 + 144
        0x0001ac70:    084c        L.      LSRS     r4,r1,#1
        0x0001ac72:    ea4f0690    O...    LSR      r6,r0,#2
        0x0001ac76:    ea4f0230    O.0.    RRX      r2,r0
        0x0001ac7a:    ea467681    F..v    ORR      r6,r6,r1,LSL #30
        0x0001ac7e:    1992        ..      ADDS     r2,r2,r6
        0x0001ac80:    eb440491    D...    ADC      r4,r4,r1,LSR #2
        0x0001ac84:    ea4f1612    O...    LSR      r6,r2,#4
        0x0001ac88:    ea467504    F..u    ORR      r5,r6,r4,LSL #28
        0x0001ac8c:    18aa        ..      ADDS     r2,r5,r2
        0x0001ac8e:    eb441414    D...    ADC      r4,r4,r4,LSR #4
        0x0001ac92:    ea4f2612    O..&    LSR      r6,r2,#8
        0x0001ac96:    ea466504    F..e    ORR      r5,r6,r4,LSL #24
        0x0001ac9a:    18aa        ..      ADDS     r2,r5,r2
        0x0001ac9c:    eb442514    D..%    ADC      r5,r4,r4,LSR #8
        0x0001aca0:    ea4f4612    O..F    LSR      r6,r2,#16
        0x0001aca4:    ea464405    F..D    ORR      r4,r6,r5,LSL #16
        0x0001aca8:    18a4        ..      ADDS     r4,r4,r2
        0x0001acaa:    eb454215    E..B    ADC      r2,r5,r5,LSR #16
        0x0001acae:    18a4        ..      ADDS     r4,r4,r2
        0x0001acb0:    eb42020c    B...    ADC      r2,r2,r12
        0x0001acb4:    08e4        ..      LSRS     r4,r4,#3
        0x0001acb6:    ea447442    D.Bt    ORR      r4,r4,r2,LSL #29
        0x0001acba:    270a        .'      MOVS     r7,#0xa
        0x0001acbc:    fba45807    ...X    UMULL    r5,r8,r4,r7
        0x0001acc0:    08d2        ..      LSRS     r2,r2,#3
        0x0001acc2:    fb028707    ....    MLA      r7,r2,r7,r8
        0x0001acc6:    2600        .&      MOVS     r6,#0
        0x0001acc8:    fb047606    ...v    MLA      r6,r4,r6,r7
        0x0001accc:    1b40        @.      SUBS     r0,r0,r5
        0x0001acce:    eb610106    a...    SBC      r1,r1,r6
        0x0001acd2:    1d85        ..      ADDS     r5,r0,#6
        0x0001acd4:    f1410000    A...    ADC      r0,r1,#0
        0x0001acd8:    092d        -.      LSRS     r5,r5,#4
        0x0001acda:    ea457100    E..q    ORR      r1,r5,r0,LSL #28
        0x0001acde:    0905        ..      LSRS     r5,r0,#4
        0x0001ace0:    1908        ..      ADDS     r0,r1,r4
        0x0001ace2:    eb450102    E...    ADC      r1,r5,r2
        0x0001ace6:    e012        ..      B        0x1ad0e ; ndigits_in_u64 + 182
        0x0001ace8:    0841        A.      LSRS     r1,r0,#1
        0x0001acea:    eb010190    ....    ADD      r1,r1,r0,LSR #2
        0x0001acee:    eb011111    ....    ADD      r1,r1,r1,LSR #4
        0x0001acf2:    eb012111    ...!    ADD      r1,r1,r1,LSR #8
        0x0001acf6:    eb014111    ...A    ADD      r1,r1,r1,LSR #16
        0x0001acfa:    08c9        ..      LSRS     r1,r1,#3
        0x0001acfc:    424a        JB      RSBS     r2,r1,#0
        0x0001acfe:    eb020282    ....    ADD      r2,r2,r2,LSL #2
        0x0001ad02:    eb000042    ..B.    ADD      r0,r0,r2,LSL #1
        0x0001ad06:    1d80        ..      ADDS     r0,r0,#6
        0x0001ad08:    eb011010    ....    ADD      r0,r1,r0,LSR #4
        0x0001ad0c:    4661        aF      MOV      r1,r12
        0x0001ad0e:    1c5b        [.      ADDS     r3,r3,#1
        0x0001ad10:    ea500201    P...    ORRS     r2,r0,r1
        0x0001ad14:    d1aa        ..      BNE      0x1ac6c ; ndigits_in_u64 + 20
        0x0001ad16:    e8bd01f0    ....    POP      {r4-r8}
        0x0001ad1a:    4618        .F      MOV      r0,r3
        0x0001ad1c:    4770        pG      BX       lr
        0x0001ad1e:    0000        ..      MOVS     r0,r0
    i.nonblocking_read
    nonblocking_read
        0x0001ad20:    e92d4ff0    -..O    PUSH     {r4-r11,lr}
        0x0001ad24:    e9d15702    ...W    LDRD     r5,r7,[r1,#8]
        0x0001ad28:    f8d18004    ....    LDR      r8,[r1,#4]
        0x0001ad2c:    b097        ..      SUB      sp,sp,#0x5c
        0x0001ad2e:    1e06        ..      SUBS     r6,r0,#0
        0x0001ad30:    bf1c        ..      ITT      NE
        0x0001ad32:    6801        .h      LDRNE    r1,[r0,#0]
        0x0001ad34:    f0117f80    ....    TSTNE    r1,#0x1000000
        0x0001ad38:    d004        ..      BEQ      0x1ad44 ; nonblocking_read + 36
        0x0001ad3a:    4a43        CJ      LDR      r2,[pc,#268] ; [0x1ae48] = 0xea9e06
        0x0001ad3c:    f021417f    !..A    BIC      r1,r1,#0xff000000
        0x0001ad40:    4291        .B      CMP      r1,r2
        0x0001ad42:    d003        ..      BEQ      0x1ad4c ; nonblocking_read + 44
        0x0001ad44:    b017        ..      ADD      sp,sp,#0x5c
        0x0001ad46:    2002        .       MOVS     r0,#2
        0x0001ad48:    e8bd8ff0    ....    POP      {r4-r11,pc}
        0x0001ad4c:    2f00        ./      CMP      r7,#0
        0x0001ad4e:    bf1c        ..      ITT      NE
        0x0001ad50:    2100        .!      MOVNE    r1,#0
        0x0001ad52:    6039        9`      STRNE    r1,[r7,#0]
        0x0001ad54:    2d00        .-      CMP      r5,#0
        0x0001ad56:    bf02        ..      ITTT     EQ
        0x0001ad58:    2000        .       MOVEQ    r0,#0
        0x0001ad5a:    b017        ..      ADDEQ    sp,sp,#0x5c
        0x0001ad5c:    e8bd8ff0    ....    POPEQ    {r4-r11,pc}
        0x0001ad60:    f8961090    ....    LDRB     r1,[r6,#0x90]
        0x0001ad64:    2900        .)      CMP      r1,#0
        0x0001ad66:    d047        G.      BEQ      0x1adf8 ; nonblocking_read + 216
        0x0001ad68:    46b1        .F      MOV      r9,r6
        0x0001ad6a:    f7fdfb07    ....    BL       am_hal_interrupt_master_disable ; 0x1837c
        0x0001ad6e:    9010        ..      STR      r0,[sp,#0x40]
        0x0001ad70:    2000        .       MOVS     r0,#0
        0x0001ad72:    f8d91024    ..$.    LDR      r1,[r9,#0x24]
        0x0001ad76:    2320         #      MOVS     r3,#0x20
        0x0001ad78:    0309        ..      LSLS     r1,r1,#12
        0x0001ad7a:    f1014280    ...B    ADD      r2,r1,#0x40000000
        0x0001ad7e:    f10d0c20    .. .    ADD      r12,sp,#0x20
        0x0001ad82:    f10d0a44    ..D.    ADD      r10,sp,#0x44
        0x0001ad86:    4604        .F      MOV      r4,r0
        0x0001ad88:    f50232e0    ...2    ADD      r2,r2,#0x1c000
        0x0001ad8c:    6991        .i      LDR      r1,[r2,#0x18]
        0x0001ad8e:    f0110f10    ....    TST      r1,#0x10
        0x0001ad92:    d10b        ..      BNE      0x1adac ; nonblocking_read + 140
        0x0001ad94:    6811        .h      LDR      r1,[r2,#0]
        0x0001ad96:    f4116f70    ..po    TST      r1,#0xf00
        0x0001ad9a:    d002        ..      BEQ      0x1ada2 ; nonblocking_read + 130
        0x0001ad9c:    f04f6400    O..d    MOV      r4,#0x8000000
        0x0001ada0:    e004        ..      B        0x1adac ; nonblocking_read + 140
        0x0001ada2:    f80c1000    ....    STRB     r1,[r12,r0]
        0x0001ada6:    1c40        @.      ADDS     r0,r0,#1
        0x0001ada8:    4298        .B      CMP      r0,r3
        0x0001adaa:    d3ef        ..      BCC      0x1ad8c ; nonblocking_read + 108
        0x0001adac:    f1ba0f00    ....    CMP      r10,#0
        0x0001adb0:    bf18        ..      IT       NE
        0x0001adb2:    9011        ..      STRNE    r0,[sp,#0x44]
        0x0001adb4:    b134        4.      CBZ      r4,0x1adc4 ; nonblocking_read + 164
        0x0001adb6:    9810        ..      LDR      r0,[sp,#0x40]
        0x0001adb8:    f7fdfae4    ....    BL       am_hal_interrupt_master_set ; 0x18384
        0x0001adbc:    b017        ..      ADD      sp,sp,#0x5c
        0x0001adbe:    4620         F      MOV      r0,r4
        0x0001adc0:    e8bd8ff0    ....    POP      {r4-r11,pc}
        0x0001adc4:    4661        aF      MOV      r1,r12
        0x0001adc6:    f1090094    ....    ADD      r0,r9,#0x94
        0x0001adca:    9a11        ..      LDR      r2,[sp,#0x44]
        0x0001adcc:    f7fefa58    ..X.    BL       am_hal_queue_item_add ; 0x19280
        0x0001add0:    2800        .(      CMP      r0,#0
        0x0001add2:    bf08        ..      IT       EQ
        0x0001add4:    4c1d        .L      LDREQ    r4,[pc,#116] ; [0x1ae4c] = 0x8000001
        0x0001add6:    d0ee        ..      BEQ      0x1adb6 ; nonblocking_read + 150
        0x0001add8:    9810        ..      LDR      r0,[sp,#0x40]
        0x0001adda:    f7fdfad3    ....    BL       am_hal_interrupt_master_set ; 0x18384
        0x0001adde:    f8d6009c    ....    LDR      r0,[r6,#0x9c]
        0x0001ade2:    4285        .B      CMP      r5,r0
        0x0001ade4:    bf28        (.      IT       CS
        0x0001ade6:    4605        .F      MOVCS    r5,r0
        0x0001ade8:    462a        *F      MOV      r2,r5
        0x0001adea:    4641        AF      MOV      r1,r8
        0x0001adec:    f1060094    ....    ADD      r0,r6,#0x94
        0x0001adf0:    9500        ..      STR      r5,[sp,#0]
        0x0001adf2:    f7fefa97    ....    BL       am_hal_queue_item_get ; 0x19324
        0x0001adf6:    e01e        ..      B        0x1ae36 ; nonblocking_read + 278
        0x0001adf8:    2200        ."      MOVS     r2,#0
        0x0001adfa:    6a70        pj      LDR      r0,[r6,#0x24]
        0x0001adfc:    466b        kF      MOV      r3,sp
        0x0001adfe:    4614        .F      MOV      r4,r2
        0x0001ae00:    2d00        .-      CMP      r5,#0
        0x0001ae02:    bf82        ..      ITTT     HI
        0x0001ae04:    0300        ..      LSLHI    r0,r0,#12
        0x0001ae06:    f1004180    ...A    ADDHI    r1,r0,#0x40000000
        0x0001ae0a:    f50131e0    ...1    ADDHI    r1,r1,#0x1c000
        0x0001ae0e:    d90f        ..      BLS      0x1ae30 ; nonblocking_read + 272
        0x0001ae10:    6988        .i      LDR      r0,[r1,#0x18]
        0x0001ae12:    f0100f10    ....    TST      r0,#0x10
        0x0001ae16:    d10b        ..      BNE      0x1ae30 ; nonblocking_read + 272
        0x0001ae18:    6808        .h      LDR      r0,[r1,#0]
        0x0001ae1a:    f4106f70    ..po    TST      r0,#0xf00
        0x0001ae1e:    d002        ..      BEQ      0x1ae26 ; nonblocking_read + 262
        0x0001ae20:    f04f6400    O..d    MOV      r4,#0x8000000
        0x0001ae24:    e004        ..      B        0x1ae30 ; nonblocking_read + 272
        0x0001ae26:    f8080002    ....    STRB     r0,[r8,r2]
        0x0001ae2a:    1c52        R.      ADDS     r2,r2,#1
        0x0001ae2c:    42aa        .B      CMP      r2,r5
        0x0001ae2e:    d3ef        ..      BCC      0x1ae10 ; nonblocking_read + 240
        0x0001ae30:    2b00        .+      CMP      r3,#0
        0x0001ae32:    bf18        ..      IT       NE
        0x0001ae34:    9200        ..      STRNE    r2,[sp,#0]
        0x0001ae36:    2f00        ./      CMP      r7,#0
        0x0001ae38:    bf1c        ..      ITT      NE
        0x0001ae3a:    9800        ..      LDRNE    r0,[sp,#0]
        0x0001ae3c:    6038        8`      STRNE    r0,[r7,#0]
        0x0001ae3e:    4620         F      MOV      r0,r4
        0x0001ae40:    b017        ..      ADD      sp,sp,#0x5c
        0x0001ae42:    e8bd8ff0    ....    POP      {r4-r11,pc}
    $d
        0x0001ae46:    0000        ..      DCW    0
        0x0001ae48:    00ea9e06    ....    DCD    15375878
        0x0001ae4c:    08000001    ....    DCD    134217729
    $t
    i.prime_number
    prime_number
        0x0001ae50:    b430        0.      PUSH     {r4,r5}
        0x0001ae52:    4604        .F      MOV      r4,r0
        0x0001ae54:    2000        .       MOVS     r0,#0
        0x0001ae56:    1c89        ..      ADDS     r1,r1,#2
        0x0001ae58:    42a1        .B      CMP      r1,r4
        0x0001ae5a:    bfc4        ..      ITT      GT
        0x0001ae5c:    bc30        0.      POPGT    {r4,r5}
        0x0001ae5e:    4770        pG      BXGT     lr
        0x0001ae60:    2501        .%      MOVS     r5,#1
        0x0001ae62:    2302        .#      MOVS     r3,#2
        0x0001ae64:    2902        .)      CMP      r1,#2
        0x0001ae66:    dd09        ..      BLE      0x1ae7c ; prime_number + 44
        0x0001ae68:    fb91fcf3    ....    SDIV     r12,r1,r3
        0x0001ae6c:    fb031c1c    ....    MLS      r12,r3,r12,r1
        0x0001ae70:    f1bc0f00    ....    CMP      r12,#0
        0x0001ae74:    d008        ..      BEQ      0x1ae88 ; prime_number + 56
        0x0001ae76:    1c5b        [.      ADDS     r3,r3,#1
        0x0001ae78:    428b        .B      CMP      r3,r1
        0x0001ae7a:    dbf5        ..      BLT      0x1ae68 ; prime_number + 24
        0x0001ae7c:    4411        .D      ADD      r1,r1,r2
        0x0001ae7e:    4428        (D      ADD      r0,r0,r5
        0x0001ae80:    42a1        .B      CMP      r1,r4
        0x0001ae82:    dded        ..      BLE      0x1ae60 ; prime_number + 16
        0x0001ae84:    bc30        0.      POP      {r4,r5}
        0x0001ae86:    4770        pG      BX       lr
        0x0001ae88:    2500        .%      MOVS     r5,#0
        0x0001ae8a:    e7f7        ..      B        0x1ae7c ; prime_number + 44
    i.timer_config_b1
    timer_config_b1
        0x0001ae8c:    e92d01f0    -...    PUSH     {r4-r8}
        0x0001ae90:    4d67        gM      LDR      r5,[pc,#412] ; [0x1b030] = 0x10000658
        0x0001ae92:    e9d12c02    ...,    LDRD     r2,r12,[r1,#8]
        0x0001ae96:    2400        .$      MOVS     r4,#0
        0x0001ae98:    690b        .i      LDR      r3,[r1,#0x10]
        0x0001ae9a:    f8054020    .. @    STRB     r4,[r5,r0,LSL #2]
        0x0001ae9e:    eb050580    ....    ADD      r5,r5,r0,LSL #2
        0x0001aea2:    706c        lp      STRB     r4,[r5,#1]
        0x0001aea4:    70ac        .p      STRB     r4,[r5,#2]
        0x0001aea6:    70ec        .p      STRB     r4,[r5,#3]
        0x0001aea8:    784c        Lx      LDRB     r4,[r1,#1]
        0x0001aeaa:    2c0f        .,      CMP      r4,#0xf
        0x0001aeac:    d246        F.      BCS      0x1af3c ; timer_config_b1 + 176
        0x0001aeae:    e8dff004    ....    TBB      [pc,r4]
    $d
        0x0001aeb2:    0866        f.      DCW    2150
        0x0001aeb4:    45154521    !E.E    DCD    1159021857
        0x0001aeb8:    45454566    fEEE    DCD    1162167654
        0x0001aebc:    3c2d4545    EE-<    DCD    1009599813
        0x0001aec0:    0066        f.      DCW    102
    $t
        0x0001aec2:    4d5b        [M      LDR      r5,[pc,#364] ; [0x1b030] = 0x10000658
        0x0001aec4:    2401        .$      MOVS     r4,#1
        0x0001aec6:    eb050580    ....    ADD      r5,r5,r0,LSL #2
        0x0001aeca:    f1bc3fff    ...?    CMP      r12,#0xffffffff
        0x0001aece:    70ec        .p      STRB     r4,[r5,#3]
        0x0001aed0:    70ac        .p      STRB     r4,[r5,#2]
        0x0001aed2:    d154        T.      BNE      0x1af7e ; timer_config_b1 + 242
        0x0001aed4:    1c5c        \.      ADDS     r4,r3,#1
        0x0001aed6:    bf18        ..      IT       NE
        0x0001aed8:    46a4        .F      MOVNE    r12,r4
        0x0001aeda:    e02f        /.      B        0x1af3c ; timer_config_b1 + 176
        0x0001aedc:    4e54        TN      LDR      r6,[pc,#336] ; [0x1b030] = 0x10000658
        0x0001aede:    2401        .$      MOVS     r4,#1
        0x0001aee0:    eb060580    ....    ADD      r5,r6,r0,LSL #2
        0x0001aee4:    2a00        .*      CMP      r2,#0
        0x0001aee6:    706c        lp      STRB     r4,[r5,#1]
        0x0001aee8:    f8064020    .. @    STRB     r4,[r6,r0,LSL #2]
        0x0001aeec:    70ec        .p      STRB     r4,[r5,#3]
        0x0001aeee:    70ac        .p      STRB     r4,[r5,#2]
        0x0001aef0:    d14e        N.      BNE      0x1af90 ; timer_config_b1 + 260
        0x0001aef2:    e023        #.      B        0x1af3c ; timer_config_b1 + 176
        0x0001aef4:    4e4e        NN      LDR      r6,[pc,#312] ; [0x1b030] = 0x10000658
        0x0001aef6:    2401        .$      MOVS     r4,#1
        0x0001aef8:    eb060580    ....    ADD      r5,r6,r0,LSL #2
        0x0001aefc:    2a00        .*      CMP      r2,#0
        0x0001aefe:    706c        lp      STRB     r4,[r5,#1]
        0x0001af00:    f8064020    .. @    STRB     r4,[r6,r0,LSL #2]
        0x0001af04:    70ec        .p      STRB     r4,[r5,#3]
        0x0001af06:    70ac        .p      STRB     r4,[r5,#2]
        0x0001af08:    d142        B.      BNE      0x1af90 ; timer_config_b1 + 260
        0x0001af0a:    e017        ..      B        0x1af3c ; timer_config_b1 + 176
        0x0001af0c:    688b        .h      LDR      r3,[r1,#8]
        0x0001af0e:    2b20         +      CMP      r3,#0x20
        0x0001af10:    d835        5.      BHI      0x1af7e ; timer_config_b1 + 242
        0x0001af12:    1e13        ..      SUBS     r3,r2,#0
        0x0001af14:    bf18        ..      IT       NE
        0x0001af16:    1c5a        Z.      ADDNE    r2,r3,#1
        0x0001af18:    2401        .$      MOVS     r4,#1
        0x0001af1a:    4d45        EM      LDR      r5,[pc,#276] ; [0x1b030] = 0x10000658
        0x0001af1c:    f8054020    .. @    STRB     r4,[r5,r0,LSL #2]
        0x0001af20:    eb050580    ....    ADD      r5,r5,r0,LSL #2
        0x0001af24:    70ec        .p      STRB     r4,[r5,#3]
        0x0001af26:    70ac        .p      STRB     r4,[r5,#2]
        0x0001af28:    e008        ..      B        0x1af3c ; timer_config_b1 + 176
        0x0001af2a:    4d41        AM      LDR      r5,[pc,#260] ; [0x1b030] = 0x10000658
        0x0001af2c:    2401        .$      MOVS     r4,#1
        0x0001af2e:    f8054020    .. @    STRB     r4,[r5,r0,LSL #2]
        0x0001af32:    eb050580    ....    ADD      r5,r5,r0,LSL #2
        0x0001af36:    706c        lp      STRB     r4,[r5,#1]
        0x0001af38:    70ac        .p      STRB     r4,[r5,#2]
        0x0001af3a:    70ec        .p      STRB     r4,[r5,#3]
        0x0001af3c:    780c        .x      LDRB     r4,[r1,#0]
        0x0001af3e:    f1a40520    .. .    SUB      r5,r4,#0x20
        0x0001af42:    2d1f        .-      CMP      r5,#0x1f
        0x0001af44:    d80a        ..      BHI      0x1af5c ; timer_config_b1 + 208
        0x0001af46:    106d        m.      ASRS     r5,r5,#1
        0x0001af48:    f0140401    ....    ANDS     r4,r4,#1
        0x0001af4c:    d01b        ..      BEQ      0x1af86 ; timer_config_b1 + 250
        0x0001af4e:    b12c        ,.      CBZ      r4,0x1af5c ; timer_config_b1 + 208
        0x0001af50:    4c37        7L      LDR      r4,[pc,#220] ; [0x1b030] = 0x10000658
        0x0001af52:    eb040485    ....    ADD      r4,r4,r5,LSL #2
        0x0001af56:    78a4        .x      LDRB     r4,[r4,#2]
        0x0001af58:    2c00        .,      CMP      r4,#0
        0x0001af5a:    d065        e.      BEQ      0x1b028 ; timer_config_b1 + 412
        0x0001af5c:    790c        .y      LDRB     r4,[r1,#4]
        0x0001af5e:    b1e4        ..      CBZ      r4,0x1af9a ; timer_config_b1 + 270
        0x0001af60:    794d        My      LDRB     r5,[r1,#5]
        0x0001af62:    2d1f        .-      CMP      r5,#0x1f
        0x0001af64:    d819        ..      BHI      0x1af9a ; timer_config_b1 + 270
        0x0001af66:    086c        l.      LSRS     r4,r5,#1
        0x0001af68:    f0150501    ....    ANDS     r5,r5,#1
        0x0001af6c:    d011        ..      BEQ      0x1af92 ; timer_config_b1 + 262
        0x0001af6e:    b1a5        ..      CBZ      r5,0x1af9a ; timer_config_b1 + 270
        0x0001af70:    4d2f        /M      LDR      r5,[pc,#188] ; [0x1b030] = 0x10000658
        0x0001af72:    eb050484    ....    ADD      r4,r5,r4,LSL #2
        0x0001af76:    78a4        .x      LDRB     r4,[r4,#2]
        0x0001af78:    2c00        .,      CMP      r4,#0
        0x0001af7a:    d055        U.      BEQ      0x1b028 ; timer_config_b1 + 412
        0x0001af7c:    e00d        ..      B        0x1af9a ; timer_config_b1 + 270
        0x0001af7e:    e8bd01f0    ....    POP      {r4-r8}
        0x0001af82:    2007        .       MOVS     r0,#7
        0x0001af84:    4770        pG      BX       lr
        0x0001af86:    4c2a        *L      LDR      r4,[pc,#168] ; [0x1b030] = 0x10000658
        0x0001af88:    f8144025    ..%@    LDRB     r4,[r4,r5,LSL #2]
        0x0001af8c:    2c00        .,      CMP      r4,#0
        0x0001af8e:    d1e5        ..      BNE      0x1af5c ; timer_config_b1 + 208
        0x0001af90:    e04a        J.      B        0x1b028 ; timer_config_b1 + 412
        0x0001af92:    4d27        'M      LDR      r5,[pc,#156] ; [0x1b030] = 0x10000658
        0x0001af94:    f8154024    ..$@    LDRB     r4,[r5,r4,LSL #2]
        0x0001af98:    b3f4        ..      CBZ      r4,0x1b018 ; timer_config_b1 + 396
        0x0001af9a:    4c26        &L      LDR      r4,[pc,#152] ; [0x1b034] = 0x40008000
        0x0001af9c:    f8d46104    ...a    LDR      r6,[r4,#0x104]
        0x0001afa0:    2501        .%      MOVS     r5,#1
        0x0001afa2:    4085        .@      LSLS     r5,r5,r0
        0x0001afa4:    43ae        .C      BICS     r6,r6,r5
        0x0001afa6:    f8c46104    ...a    STR      r6,[r4,#0x104]
        0x0001afaa:    784f        Ox      LDRB     r7,[r1,#1]
        0x0001afac:    780e        .x      LDRB     r6,[r1,#0]
        0x0001afae:    f04f08f0    O...    MOV      r8,#0xf0
        0x0001afb2:    ea081707    ....    AND      r7,r8,r7,LSL #4
        0x0001afb6:    ea472606    G..&    ORR      r6,r7,r6,LSL #8
        0x0001afba:    78cf        .x      LDRB     r7,[r1,#3]
        0x0001afbc:    f04f0808    O...    MOV      r8,#8
        0x0001afc0:    ea0807c7    ....    AND      r7,r8,r7,LSL #3
        0x0001afc4:    433e        >C      ORRS     r6,r6,r7
        0x0001afc6:    788f        .x      LDRB     r7,[r1,#2]
        0x0001afc8:    f04f0804    O...    MOV      r8,#4
        0x0001afcc:    ea080787    ....    AND      r7,r8,r7,LSL #2
        0x0001afd0:    433e        >C      ORRS     r6,r6,r7
        0x0001afd2:    790f        .y      LDRB     r7,[r1,#4]
        0x0001afd4:    f44f3840    O.@8    MOV      r8,#0x30000
        0x0001afd8:    7949        Iy      LDRB     r1,[r1,#5]
        0x0001afda:    ea084707    ...G    AND      r7,r8,r7,LSL #16
        0x0001afde:    433e        >C      ORRS     r6,r6,r7
        0x0001afe0:    0209        ..      LSLS     r1,r1,#8
        0x0001afe2:    0140        @.      LSLS     r0,r0,#5
        0x0001afe4:    4420         D      ADD      r0,r0,r4
        0x0001afe6:    ea466202    F..b    ORR      r2,r6,r2,LSL #24
        0x0001afea:    f8d06200    ...b    LDR      r6,[r0,#0x200]
        0x0001afee:    f0260601    &...    BIC      r6,r6,#1
        0x0001aff2:    f8c06200    ...b    STR      r6,[r0,#0x200]
        0x0001aff6:    f8c02200    ..."    STR      r2,[r0,#0x200]
        0x0001affa:    f8c01210    ....    STR      r1,[r0,#0x210]
        0x0001affe:    f8c0c208    ....    STR      r12,[r0,#0x208]
        0x0001b002:    f8c0320c    ...2    STR      r3,[r0,#0x20c]
        0x0001b006:    f8d01200    ....    LDR      r1,[r0,#0x200]
        0x0001b00a:    f0410102    A...    ORR      r1,r1,#2
        0x0001b00e:    f8c01200    ....    STR      r1,[r0,#0x200]
        0x0001b012:    f8d40104    ....    LDR      r0,[r4,#0x104]
        0x0001b016:    e000        ..      B        0x1b01a ; timer_config_b1 + 398
        0x0001b018:    e006        ..      B        0x1b028 ; timer_config_b1 + 412
        0x0001b01a:    4328        (C      ORRS     r0,r0,r5
        0x0001b01c:    f8c40104    ....    STR      r0,[r4,#0x104]
        0x0001b020:    e8bd01f0    ....    POP      {r4-r8}
        0x0001b024:    2000        .       MOVS     r0,#0
        0x0001b026:    4770        pG      BX       lr
        0x0001b028:    e8bd01f0    ....    POP      {r4-r8}
        0x0001b02c:    2006        .       MOVS     r0,#6
        0x0001b02e:    4770        pG      BX       lr
    $d
        0x0001b030:    10000658    X...    DCD    268437080
        0x0001b034:    40008000    ...@    DCD    1073774592
    $t
    i.uint64_to_str
    uint64_to_str
        0x0001b038:    e92d07f0    -...    PUSH     {r4-r10}
        0x0001b03c:    b087        ..      SUB      sp,sp,#0x1c
        0x0001b03e:    f04f0c00    O...    MOV      r12,#0
        0x0001b042:    4666        fF      MOV      r6,r12
        0x0001b044:    466d        mF      MOV      r5,sp
        0x0001b046:    2900        .)      CMP      r1,#0
        0x0001b048:    d03f        ?.      BEQ      0x1b0ca ; uint64_to_str + 146
        0x0001b04a:    084f        O.      LSRS     r7,r1,#1
        0x0001b04c:    ea4f0390    O...    LSR      r3,r0,#2
        0x0001b050:    ea4f0430    O.0.    RRX      r4,r0
        0x0001b054:    ea437381    C..s    ORR      r3,r3,r1,LSL #30
        0x0001b058:    18e4        ..      ADDS     r4,r4,r3
        0x0001b05a:    eb470391    G...    ADC      r3,r7,r1,LSR #2
        0x0001b05e:    ea4f1814    O...    LSR      r8,r4,#4
        0x0001b062:    ea487803    H..x    ORR      r8,r8,r3,LSL #28
        0x0001b066:    eb180404    ....    ADDS     r4,r8,r4
        0x0001b06a:    eb431313    C...    ADC      r3,r3,r3,LSR #4
        0x0001b06e:    ea4f2814    O..(    LSR      r8,r4,#8
        0x0001b072:    ea486803    H..h    ORR      r8,r8,r3,LSL #24
        0x0001b076:    eb180404    ....    ADDS     r4,r8,r4
        0x0001b07a:    eb432313    C..#    ADC      r3,r3,r3,LSR #8
        0x0001b07e:    ea4f4814    O..H    LSR      r8,r4,#16
        0x0001b082:    ea484803    H..H    ORR      r8,r8,r3,LSL #16
        0x0001b086:    eb180404    ....    ADDS     r4,r8,r4
        0x0001b08a:    eb434313    C..C    ADC      r3,r3,r3,LSR #16
        0x0001b08e:    18e7        ..      ADDS     r7,r4,r3
        0x0001b090:    eb430406    C...    ADC      r4,r3,r6
        0x0001b094:    08ff        ..      LSRS     r7,r7,#3
        0x0001b096:    ea477344    G.Ds    ORR      r3,r7,r4,LSL #29
        0x0001b09a:    270a        .'      MOVS     r7,#0xa
        0x0001b09c:    fba39a07    ....    UMULL    r9,r10,r3,r7
        0x0001b0a0:    08e4        ..      LSRS     r4,r4,#3
        0x0001b0a2:    fb04a707    ....    MLA      r7,r4,r7,r10
        0x0001b0a6:    f04f0800    O...    MOV      r8,#0
        0x0001b0aa:    fb037808    ...x    MLA      r8,r3,r8,r7
        0x0001b0ae:    ebb00709    ....    SUBS     r7,r0,r9
        0x0001b0b2:    eb610108    a...    SBC      r1,r1,r8
        0x0001b0b6:    1dbf        ..      ADDS     r7,r7,#6
        0x0001b0b8:    f1410100    A...    ADC      r1,r1,#0
        0x0001b0bc:    093f        ?.      LSRS     r7,r7,#4
        0x0001b0be:    ea477701    G..w    ORR      r7,r7,r1,LSL #28
        0x0001b0c2:    18fb        ..      ADDS     r3,r7,r3
        0x0001b0c4:    eb441411    D...    ADC      r4,r4,r1,LSR #4
        0x0001b0c8:    e012        ..      B        0x1b0f0 ; uint64_to_str + 184
        0x0001b0ca:    0843        C.      LSRS     r3,r0,#1
        0x0001b0cc:    eb030390    ....    ADD      r3,r3,r0,LSR #2
        0x0001b0d0:    eb031313    ....    ADD      r3,r3,r3,LSR #4
        0x0001b0d4:    eb032313    ...#    ADD      r3,r3,r3,LSR #8
        0x0001b0d8:    eb034313    ...C    ADD      r3,r3,r3,LSR #16
        0x0001b0dc:    08db        ..      LSRS     r3,r3,#3
        0x0001b0de:    425c        \B      RSBS     r4,r3,#0
        0x0001b0e0:    eb040484    ....    ADD      r4,r4,r4,LSL #2
        0x0001b0e4:    eb000144    ..D.    ADD      r1,r0,r4,LSL #1
        0x0001b0e8:    1d89        ..      ADDS     r1,r1,#6
        0x0001b0ea:    eb031311    ....    ADD      r3,r3,r1,LSR #4
        0x0001b0ee:    4634        4F      MOV      r4,r6
        0x0001b0f0:    4621        !F      MOV      r1,r4
        0x0001b0f2:    240a        .$      MOVS     r4,#0xa
        0x0001b0f4:    fba34704    ...G    UMULL    r4,r7,r3,r4
        0x0001b0f8:    1b00        ..      SUBS     r0,r0,r4
        0x0001b0fa:    f1000030    ..0.    ADD      r0,r0,#0x30
        0x0001b0fe:    f805000c    ....    STRB     r0,[r5,r12]
        0x0001b102:    4618        .F      MOV      r0,r3
        0x0001b104:    f10c0c01    ....    ADD      r12,r12,#1
        0x0001b108:    430b        .C      ORRS     r3,r3,r1
        0x0001b10a:    d19c        ..      BNE      0x1b046 ; uint64_to_str + 14
        0x0001b10c:    4660        `F      MOV      r0,r12
        0x0001b10e:    2a00        .*      CMP      r2,#0
        0x0001b110:    bf02        ..      ITTT     EQ
        0x0001b112:    b007        ..      ADDEQ    sp,sp,#0x1c
        0x0001b114:    e8bd07f0    ....    POPEQ    {r4-r10}
        0x0001b118:    4770        pG      BXEQ     lr
        0x0001b11a:    1e47        G.      SUBS     r7,r0,#1
        0x0001b11c:    f1b00c00    ....    SUBS     r12,r0,#0
        0x0001b120:    dd18        ..      BLE      0x1b154 ; uint64_to_str + 284
        0x0001b122:    19e9        ..      ADDS     r1,r5,r7
        0x0001b124:    1c4b        K.      ADDS     r3,r1,#1
        0x0001b126:    1e51        Q.      SUBS     r1,r2,#1
        0x0001b128:    f0170f01    ....    TST      r7,#1
        0x0001b12c:    d103        ..      BNE      0x1b136 ; uint64_to_str + 254
        0x0001b12e:    f8134d01    ...M    LDRB     r4,[r3,#-1]!
        0x0001b132:    f8014f01    ...O    STRB     r4,[r1,#1]!
        0x0001b136:    ea5f046c    _.l.    ASRS     r4,r12,#1
        0x0001b13a:    d009        ..      BEQ      0x1b150 ; uint64_to_str + 280
        0x0001b13c:    f813cc01    ....    LDRB     r12,[r3,#-1]
        0x0001b140:    f881c001    ....    STRB     r12,[r1,#1]
        0x0001b144:    f813cd02    ....    LDRB     r12,[r3,#-2]!
        0x0001b148:    f801cf02    ....    STRB     r12,[r1,#2]!
        0x0001b14c:    1e64        d.      SUBS     r4,r4,#1
        0x0001b14e:    d1f5        ..      BNE      0x1b13c ; uint64_to_str + 260
        0x0001b150:    19d1        ..      ADDS     r1,r2,r7
        0x0001b152:    1c4a        J.      ADDS     r2,r1,#1
        0x0001b154:    7016        .p      STRB     r6,[r2,#0]
        0x0001b156:    b007        ..      ADD      sp,sp,#0x1c
        0x0001b158:    e8bd07f0    ....    POP      {r4-r10}
        0x0001b15c:    4770        pG      BX       lr
        0x0001b15e:    0000        ..      MOVS     r0,r0
    x$fpl$d2f
    $v0
    __aeabi_d2f
    _d2f
        0x0001b160:    f0214200    !..B    BIC      r2,r1,#0x80000000
        0x0001b164:    f1a25260    ..`R    SUB      r2,r2,#0x38000000
        0x0001b168:    f5b21f80    ....    CMP      r2,#0x100000
        0x0001b16c:    f0014300    ...C    AND      r3,r1,#0x80000000
        0x0001b170:    bf28        (.      IT       CS
        0x0001b172:    f1d26c7f    ...l    RSBSCS   r12,r2,#0xff00000
        0x0001b176:    d90b        ..      BLS      0x1b190 ; __aeabi_d2f + 48
        0x0001b178:    ea5f1c00    _...    LSLS     r12,r0,#4
        0x0001b17c:    ea4302c2    C...    ORR      r2,r3,r2,LSL #3
        0x0001b180:    eb427050    B.Pp    ADC      r0,r2,r0,LSR #29
        0x0001b184:    bf18        ..      IT       NE
        0x0001b186:    4770        pG      BXNE     lr
        0x0001b188:    bf28        (.      IT       CS
        0x0001b18a:    f0200001     ...    BICCS    r0,r0,#1
        0x0001b18e:    4770        pG      BX       lr
        0x0001b190:    f5b21f80    ....    CMP      r2,#0x100000
        0x0001b194:    bfbc        ..      ITT      LT
        0x0001b196:    4618        .F      MOVLT    r0,r3
        0x0001b198:    4770        pG      BXLT     lr
        0x0001b19a:    ea4f0c41    O.A.    LSL      r12,r1,#1
        0x0001b19e:    f51c1f00    ....    CMN      r12,#0x200000
        0x0001b1a2:    d202        ..      BCS      0x1b1aa ; __aeabi_d2f + 74
        0x0001b1a4:    4608        .F      MOV      r0,r1
        0x0001b1a6:    f000b85f    .._.    B.W      __fpl_fretinf ; 0x1b268
        0x0001b1aa:    b570        p.      PUSH     {r4-r6,lr}
        0x0001b1ac:    f000f809    ....    BL       __fpl_dnaninf ; 0x1b1c2
    $d
        0x0001b1b0:    89000000    ....    DCD    2298478592
    $t
        0x0001b1b4:    f7ffbff6    ....    B.W      0x1b1a4 ; __aeabi_d2f + 68
        0x0001b1b8:    f04f4000    O..@    MOV      r0,#0x80000000
        0x0001b1bc:    f5a00080    ....    SUB      r0,r0,#0x400000
        0x0001b1c0:    4770        pG      BX       lr
    x$fpl$dnaninf
    $v0
    __fpl_dnaninf
        0x0001b1c2:    f10e0e02    ....    ADD      lr,lr,#2
        0x0001b1c6:    f02e0e03    ....    BIC      lr,lr,#3
        0x0001b1ca:    f85e6b04    ^..k    LDR      r6,[lr],#4
        0x0001b1ce:    4236        6B      TST      r6,r6
        0x0001b1d0:    d405        ..      BMI      0x1b1de ; __fpl_dnaninf + 28
        0x0001b1d2:    2a01        .*      CMP      r2,#1
        0x0001b1d4:    eb430503    C...    ADC      r5,r3,r3
        0x0001b1d8:    f5151f00    ....    CMN      r5,#0x200000
        0x0001b1dc:    d812        ..      BHI      0x1b204 ; __fpl_dnaninf + 66
        0x0001b1de:    2801        .(      CMP      r0,#1
        0x0001b1e0:    eb410c01    A...    ADC      r12,r1,r1
        0x0001b1e4:    f51c1f00    ....    CMN      r12,#0x200000
        0x0001b1e8:    d80c        ..      BHI      0x1b204 ; __fpl_dnaninf + 66
        0x0001b1ea:    d10e        ..      BNE      0x1b20a ; __fpl_dnaninf + 72
        0x0001b1ec:    ea4f7cd1    O..|    LSR      r12,r1,#31
        0x0001b1f0:    f5151f00    ....    CMN      r5,#0x200000
        0x0001b1f4:    eb0c0c4c    ..L.    ADD      r12,r12,r12,LSL #1
        0x0001b1f8:    f10c0c02    ....    ADD      r12,r12,#2
        0x0001b1fc:    bf08        ..      IT       EQ
        0x0001b1fe:    eb4c7cd3    L..|    ADCEQ    r12,r12,r3,LSR #31
        0x0001b202:    e004        ..      B        0x1b20e ; __fpl_dnaninf + 76
        0x0001b204:    f04f0c08    O...    MOV      r12,#8
        0x0001b208:    e001        ..      B        0x1b20e ; __fpl_dnaninf + 76
        0x0001b20a:    ea4f7cd3    O..|    LSR      r12,r3,#31
        0x0001b20e:    eb0c054c    ..L.    ADD      r5,r12,r12,LSL #1
        0x0001b212:    fa26f605    &...    LSR      r6,r6,r5
        0x0001b216:    f0060607    ....    AND      r6,r6,#7
        0x0001b21a:    f1b60c04    ....    SUBS     r12,r6,#4
        0x0001b21e:    d206        ..      BCS      0x1b22e ; __fpl_dnaninf + 108
        0x0001b220:    eb0e0c86    ....    ADD      r12,lr,r6,LSL #2
        0x0001b224:    e8bd4070    ..p@    POP      {r4-r6,lr}
        0x0001b228:    f04c0c01    L...    ORR      r12,r12,#1
        0x0001b22c:    4760        `G      BX       r12
        0x0001b22e:    e8dff00c    ....    TBB      [pc,r12]
    $d
        0x0001b232:    0b09        ..      DCW    2825
        0x0001b234:    0202        ..      DCW    514
    $t
        0x0001b236:    f04f4100    O..A    MOV      r1,#0x80000000
        0x0001b23a:    f04f0000    O...    MOV      r0,#0
        0x0001b23e:    f5a12100    ...!    SUB      r1,r1,#0x80000
        0x0001b242:    bd70        p.      POP      {r4-r6,pc}
        0x0001b244:    4619        .F      MOV      r1,r3
        0x0001b246:    4610        .F      MOV      r0,r2
        0x0001b248:    2801        .(      CMP      r0,#1
        0x0001b24a:    eb510401    Q...    ADCS     r4,r1,r1
        0x0001b24e:    bf18        ..      IT       NE
        0x0001b250:    f5d41400    ....    RSBSNE   r4,r4,#0x200000
        0x0001b254:    bf84        ..      ITT      HI
        0x0001b256:    2000        .       MOVHI    r0,#0
        0x0001b258:    f0014100    ...A    ANDHI    r1,r1,#0x80000000
        0x0001b25c:    bd70        p.      POP      {r4-r6,pc}
    x$fpl$fpinit
    $v0
    _fp_init
        0x0001b25e:    f04f7040    O.@p    MOV      r0,#0x3000000
        0x0001b262:    eee10a10    ....    VMSR     FPSCR,r0
    __fplib_config_fpu_vfp
    __fplib_config_pureend_doubles
        0x0001b266:    4770        pG      BX       lr
    x$fpl$fretinf
    $v0
    __fpl_fretinf
        0x0001b268:    21ff        .!      MOVS     r1,#0xff
        0x0001b26a:    ea4150d0    A..P    ORR      r0,r1,r0,LSR #23
        0x0001b26e:    05c0        ..      LSLS     r0,r0,#23
        0x0001b270:    4770        pG      BX       lr
    x$fpl$usenofp
    __I$use$fp
        0x0001b272:    0000        ..      MOVS     r0,r0
    $d.realdata
    .constdata
    __tagsym$$used
    ui32MCUAllowed
        0x0001b274:    00000000    ....    DCD    0
        0x0001b278:    00000000    ....    DCD    0
        0x0001b27c:    00000000    ....    DCD    0
        0x0001b280:    00000000    ....    DCD    0
        0x0001b284:    00000000    ....    DCD    0
    __tagsym$$used
    ui32DSP0Allowed
        0x0001b288:    00000000    ....    DCD    0
        0x0001b28c:    00000000    ....    DCD    0
        0x0001b290:    00000000    ....    DCD    0
        0x0001b294:    00000000    ....    DCD    0
        0x0001b298:    00000000    ....    DCD    0
    __tagsym$$used
    ui32DSP1Allowed
        0x0001b29c:    00000000    ....    DCD    0
        0x0001b2a0:    00000000    ....    DCD    0
        0x0001b2a4:    00000000    ....    DCD    0
        0x0001b2a8:    00000000    ....    DCD    0
        0x0001b2ac:    00000000    ....    DCD    0
    __tagsym$$used
    ui32SharedAccess
        0x0001b2b0:    00000000    ....    DCD    0
        0x0001b2b4:    00000000    ....    DCD    0
        0x0001b2b8:    00000000    ....    DCD    0
        0x0001b2bc:    00000000    ....    DCD    0
        0x0001b2c0:    00000000    ....    DCD    0
    __tagsym$$used
    sGlobalAccess
        0x0001b2c4:    0001b2b0    ....    DCD    111280
        0x0001b2c8:    0001b274    t...    DCD    111220
        0x0001b2cc:    0001b288    ....    DCD    111240
        0x0001b2d0:    0001b29c    ....    DCD    111260
        0x0001b2d4:    10060004    ....    DCD    268828676
        0x0001b2d8:    10060018    ....    DCD    268828696
        0x0001b2dc:    1006002c    ,...    DCD    268828716
    .constdata
        0x0001b2e0:    01010002    ....    DCD    16842754
        0x0001b2e4:    0101        ..      DCW    257
    .constdata
    g_ui8HALcompiler
        0x0001b2e6:    5241        AR      DCW    21057
        0x0001b2e8:    2043434d    MCC     DCD    541279053
        0x0001b2ec:    30363035    5060    DCD    808857653
        0x0001b2f0:    00303537    750.    DCD    3159351
    .constdata
    g_ui32HALversion
        0x0001b2f4:    04000000    ....    DCD    67108864
    .constdata
    am_hal_gpio_pincfg_disabled
        0x0001b2f8:    00000003    ....    DCD    3
    .constdata
    g_ui32DSpintbl
        0x0001b2fc:    8fc007e0    ....    DCD    2411726816
        0x0001b300:    e3fbffff    ....    DCD    3824943103
        0x0001b304:    01ffffff    ....    DCD    33554431
        0x0001b308:    00000000    ....    DCD    0
    .constdata
    g_DefaultSRAMCfg
        0x0001b30c:    03000003    ....    DCD    50331651
    g_DefaultMcuMemCfg
        0x0001b310:    07070102    ....    DCD    117899522
        0x0001b314:    00000001    ....    DCD    1
    am_hal_pwrctrl_peripheral_control
        0x0001b318:    40021004    ...@    DCD    1073876996
        0x0001b31c:    00000001    ....    DCD    1
        0x0001b320:    40021008    ...@    DCD    1073877000
        0x0001b324:    00000001    ....    DCD    1
        0x0001b328:    40021004    ...@    DCD    1073876996
        0x0001b32c:    00000002    ....    DCD    2
        0x0001b330:    40021008    ...@    DCD    1073877000
        0x0001b334:    00000002    ....    DCD    2
        0x0001b338:    40021004    ...@    DCD    1073876996
        0x0001b33c:    00000004    ....    DCD    4
        0x0001b340:    40021008    ...@    DCD    1073877000
        0x0001b344:    00000004    ....    DCD    4
        0x0001b348:    40021004    ...@    DCD    1073876996
        0x0001b34c:    00000008    ....    DCD    8
        0x0001b350:    40021008    ...@    DCD    1073877000
        0x0001b354:    00000008    ....    DCD    8
        0x0001b358:    40021004    ...@    DCD    1073876996
        0x0001b35c:    00000010    ....    DCD    16
        0x0001b360:    40021008    ...@    DCD    1073877000
        0x0001b364:    00000010    ....    DCD    16
        0x0001b368:    40021004    ...@    DCD    1073876996
        0x0001b36c:    00000020     ...    DCD    32
        0x0001b370:    40021008    ...@    DCD    1073877000
        0x0001b374:    00000020     ...    DCD    32
        0x0001b378:    40021004    ...@    DCD    1073876996
        0x0001b37c:    00000040    @...    DCD    64
        0x0001b380:    40021008    ...@    DCD    1073877000
        0x0001b384:    00000040    @...    DCD    64
        0x0001b388:    40021004    ...@    DCD    1073876996
        0x0001b38c:    00000080    ....    DCD    128
        0x0001b390:    40021008    ...@    DCD    1073877000
        0x0001b394:    00000080    ....    DCD    128
        0x0001b398:    40021004    ...@    DCD    1073876996
        0x0001b39c:    00000100    ....    DCD    256
        0x0001b3a0:    40021008    ...@    DCD    1073877000
        0x0001b3a4:    00000100    ....    DCD    256
        0x0001b3a8:    40021004    ...@    DCD    1073876996
        0x0001b3ac:    00000200    ....    DCD    512
        0x0001b3b0:    40021008    ...@    DCD    1073877000
        0x0001b3b4:    00000200    ....    DCD    512
        0x0001b3b8:    40021004    ...@    DCD    1073876996
        0x0001b3bc:    00000400    ....    DCD    1024
        0x0001b3c0:    40021008    ...@    DCD    1073877000
        0x0001b3c4:    00000400    ....    DCD    1024
        0x0001b3c8:    40021004    ...@    DCD    1073876996
        0x0001b3cc:    00000800    ....    DCD    2048
        0x0001b3d0:    40021008    ...@    DCD    1073877000
        0x0001b3d4:    00000800    ....    DCD    2048
        0x0001b3d8:    40021004    ...@    DCD    1073876996
        0x0001b3dc:    00001000    ....    DCD    4096
        0x0001b3e0:    40021008    ...@    DCD    1073877000
        0x0001b3e4:    00001000    ....    DCD    4096
        0x0001b3e8:    40021004    ...@    DCD    1073876996
        0x0001b3ec:    00002000    . ..    DCD    8192
        0x0001b3f0:    40021008    ...@    DCD    1073877000
        0x0001b3f4:    00002000    . ..    DCD    8192
        0x0001b3f8:    40021004    ...@    DCD    1073876996
        0x0001b3fc:    00004000    .@..    DCD    16384
        0x0001b400:    40021008    ...@    DCD    1073877000
        0x0001b404:    00004000    .@..    DCD    16384
        0x0001b408:    40021004    ...@    DCD    1073876996
        0x0001b40c:    00008000    ....    DCD    32768
        0x0001b410:    40021008    ...@    DCD    1073877000
        0x0001b414:    00008000    ....    DCD    32768
        0x0001b418:    40021004    ...@    DCD    1073876996
        0x0001b41c:    00010000    ....    DCD    65536
        0x0001b420:    40021008    ...@    DCD    1073877000
        0x0001b424:    00010000    ....    DCD    65536
        0x0001b428:    40021004    ...@    DCD    1073876996
        0x0001b42c:    00020000    ....    DCD    131072
        0x0001b430:    40021008    ...@    DCD    1073877000
        0x0001b434:    00020000    ....    DCD    131072
        0x0001b438:    40021004    ...@    DCD    1073876996
        0x0001b43c:    00040000    ....    DCD    262144
        0x0001b440:    40021008    ...@    DCD    1073877000
        0x0001b444:    00040000    ....    DCD    262144
        0x0001b448:    40021004    ...@    DCD    1073876996
        0x0001b44c:    00080000    ....    DCD    524288
        0x0001b450:    40021008    ...@    DCD    1073877000
        0x0001b454:    00080000    ....    DCD    524288
        0x0001b458:    40021004    ...@    DCD    1073876996
        0x0001b45c:    00100000    ....    DCD    1048576
        0x0001b460:    40021008    ...@    DCD    1073877000
        0x0001b464:    00100000    ....    DCD    1048576
        0x0001b468:    40021004    ...@    DCD    1073876996
        0x0001b46c:    00200000    .. .    DCD    2097152
        0x0001b470:    40021008    ...@    DCD    1073877000
        0x0001b474:    00200000    .. .    DCD    2097152
        0x0001b478:    40021004    ...@    DCD    1073876996
        0x0001b47c:    00400000    ..@.    DCD    4194304
        0x0001b480:    40021008    ...@    DCD    1073877000
        0x0001b484:    00400000    ..@.    DCD    4194304
        0x0001b488:    40021004    ...@    DCD    1073876996
        0x0001b48c:    00800000    ....    DCD    8388608
        0x0001b490:    40021008    ...@    DCD    1073877000
        0x0001b494:    00800000    ....    DCD    8388608
        0x0001b498:    40021004    ...@    DCD    1073876996
        0x0001b49c:    01000000    ....    DCD    16777216
        0x0001b4a0:    40021008    ...@    DCD    1073877000
        0x0001b4a4:    01000000    ....    DCD    16777216
        0x0001b4a8:    4002100c    ...@    DCD    1073877004
        0x0001b4ac:    00000001    ....    DCD    1
        0x0001b4b0:    40021010    ...@    DCD    1073877008
        0x0001b4b4:    00000001    ....    DCD    1
        0x0001b4b8:    4002100c    ...@    DCD    1073877004
        0x0001b4bc:    00000002    ....    DCD    2
        0x0001b4c0:    40021010    ...@    DCD    1073877008
        0x0001b4c4:    00000002    ....    DCD    2
        0x0001b4c8:    4002100c    ...@    DCD    1073877004
        0x0001b4cc:    00000004    ....    DCD    4
        0x0001b4d0:    40021010    ...@    DCD    1073877008
        0x0001b4d4:    00000004    ....    DCD    4
        0x0001b4d8:    4002100c    ...@    DCD    1073877004
        0x0001b4dc:    00000008    ....    DCD    8
        0x0001b4e0:    40021010    ...@    DCD    1073877008
        0x0001b4e4:    00000008    ....    DCD    8
        0x0001b4e8:    4002100c    ...@    DCD    1073877004
        0x0001b4ec:    00000010    ....    DCD    16
        0x0001b4f0:    40021010    ...@    DCD    1073877008
        0x0001b4f4:    00000010    ....    DCD    16
        0x0001b4f8:    4002100c    ...@    DCD    1073877004
        0x0001b4fc:    00000020     ...    DCD    32
        0x0001b500:    40021010    ...@    DCD    1073877008
        0x0001b504:    00000020     ...    DCD    32
        0x0001b508:    4002100c    ...@    DCD    1073877004
        0x0001b50c:    00000040    @...    DCD    64
        0x0001b510:    40021010    ...@    DCD    1073877008
        0x0001b514:    00000040    @...    DCD    64
        0x0001b518:    4002100c    ...@    DCD    1073877004
        0x0001b51c:    00000080    ....    DCD    128
        0x0001b520:    40021010    ...@    DCD    1073877008
        0x0001b524:    00000080    ....    DCD    128
        0x0001b528:    4002100c    ...@    DCD    1073877004
        0x0001b52c:    00000400    ....    DCD    1024
        0x0001b530:    40021010    ...@    DCD    1073877008
        0x0001b534:    00000400    ....    DCD    1024
    .constdata
    g_sBspUartConfig
        0x0001b538:    0001c200    ....    DCD    115200
        0x0001b53c:    00000203    ....    DCD    515
        0x0001b540:    02020000    ....    DCD    33685504
        0x0001b544:    00000000    ....    DCD    0
        0x0001b548:    00000000    ....    DCD    0
        0x0001b54c:    00000000    ....    DCD    0
        0x0001b550:    00000000    ....    DCD    0
        0x0001b554:    ffffffff    ....    DCD    4294967295
        0x0001b558:    00000000    ....    DCD    0
        0x0001b55c:    00000000    ....    DCD    0
        0x0001b560:    00000000    ....    DCD    0
    .constdata
    g_am_hal_bootrom_helper
        0x0001b564:    0800004d    M...    DCD    134217805
        0x0001b568:    08000051    Q...    DCD    134217809
        0x0001b56c:    08000055    U...    DCD    134217813
        0x0001b570:    08000059    Y...    DCD    134217817
        0x0001b574:    0800006d    m...    DCD    134217837
        0x0001b578:    08000075    u...    DCD    134217845
        0x0001b57c:    08000079    y...    DCD    134217849
        0x0001b580:    08000081    ....    DCD    134217857
        0x0001b584:    08000099    ....    DCD    134217881
        0x0001b588:    0800009d    ....    DCD    134217885
    .constdata
    am_hal_daxi_defaults
        0x0001b58c:    00000002    ....    DCD    2
    Region$$Table$$Base
        0x0001b590:    0001b5c0    ....    DCD    112064
        0x0001b594:    10000000    ....    DCD    268435456
        0x0001b598:    00000254    T...    DCD    596
        0x0001b59c:    00018274    t...    DCD    98932
        0x0001b5a0:    0001b6fc    ....    DCD    112380
        0x0001b5a4:    10060000    ....    DCD    268828672
        0x0001b5a8:    00000040    @...    DCD    64
        0x0001b5ac:    000182d0    ....    DCD    99024
        0x0001b5b0:    0001b6fc    ....    DCD    112380
        0x0001b5b4:    10000254    T...    DCD    268436052
        0x0001b5b8:    000008a4    ....    DCD    2212
        0x0001b5bc:    000182ec    ....    DCD    99052
    Region$$Table$$Limit

** Section #2 'MCU_TCM' (SHT_PROGBITS) [SHF_ALLOC + SHF_WRITE]
    Size   : 316 bytes (alignment 16)
    Address: 0x10000000

    Data section was compressed (Original size: 596 bytes)

    0x10000000:   00 00 00 00 00 00 00 00 00 00 00 00 01 00 00 00    ................
    0x10000010:   ff ff ff ff ff ff ff ff ff ff ff ff ff ff ff ff    ................
    0x10000020:   ff ff ff ff 31 00 00 10 00 00 00 00 00 00 00 00    ....1...........
    0x10000030:   08 60 bf f3 4f 8f 30 bf bf f3 6f 8f 70 47 00 bf    .`..O.0...o.pG..
    0x10000040:   00 00 00 00 00 00 00 00 00 00 00 00 00 00 00 00    ................
    0x10000050:   00 00 00 00 00 00 00 00 00 00 00 00 00 00 00 00    ................
    0x10000060:   00 00 00 00 00 00 06 10 00 00 08 00 28 10 02 40    ............(..@
    0x10000070:   01 00 00 00 00 00 0e 10 00 00 08 00 28 10 02 40    ............(..@
    0x10000080:   02 00 00 00 00 00 16 10 00 00 02 00 5c 10 02 40    ............\..@
    0x10000090:   02 00 00 00 00 00 18 10 00 00 04 00 5c 10 02 40    ............\..@
    0x100000a0:   01 00 00 00 00 00 1d 10 00 80 00 00 7c 10 02 40    ............|..@
    0x100000b0:   02 00 00 00 00 00 1c 10 00 00 01 00 7c 10 02 40    ............|..@
    0x100000c0:   01 00 00 00 44 f2 04 01 c4 f2 01 01 c3 22 4a 60    ....D........"J`
    0x100000d0:   05 22 cb 6c 43 f0 10 03 cb 64 0a 65 01 23 cb 60    .".lC....d.e.#.`
    0x100000e0:   00 22 0a 61 4a 61 8a 61 00 f0 0f 00 0b 68 43 f0    .".aJa.a.....hC.
    0x100000f0:   08 03 0b 60 0a 68 22 f0 08 02 0a 60 09 22 0b 6d    ...`.h"....`.".m
    0x10000100:   62 f3 95 23 0b 65 06 22 0b 6d 62 f3 04 03 0b 65    b..#.e.".mb....e
    0x10000110:   0a 68 42 f0 08 02 0a 60 0b 68 23 f0 08 03 0b 60    .hB....`.h#....`
    0x10000120:   ca 6e 0b 68 23 f0 08 03 12 09 0b 60 40 ea 02 10    .n.h#......`@...
    0x10000130:   c8 60 05 20 0a 6d 60 f3 04 02 0a 65 08 68 40 f0    .`. .m`....e.h@.
    0x10000140:   08 00 08 60 0a 68 22 f0 08 02 0a 60 00 22 08 6d    ...`.h"....`.".m
    0x10000150:   6f f3 95 20 08 65 ca 60 05 20 0a 6d 60 f3 04 02    o.. .e.`. .m`...
    0x10000160:   0a 65 08 68 40 f0 08 00 08 60 0a 68 22 f0 08 02    .e.h@....`.h"...
    0x10000170:   0a 60 00 22 c8 6c 20 f0 10 00 c8 64 4a 60 70 47    .`.".l ....dJ`pG
    0x10000180:   44 f2 04 01 c4 f2 01 01 c3 20 48 60 05 20 ca 6c    D........ H`. .l
    0x10000190:   42 f0 10 02 ca 64 08 65 01 22 ca 60 00 20 08 61    B....d.e.".`. .a
    0x100001a0:   48 61 88 61 0a 68 42 f0 08 02 0a 60 08 68 20 f0    Ha.a.hB....`.h .
    0x100001b0:   08 00 08 60 09 20 0a 6d 60 f3 95 22 0a 65 06 20    ...`. .m`..".e. 
    0x100001c0:   0a 6d 60 f3 04 02 0a 65 08 68 40 f0 08 00 08 60    .m`....e.h@....`
    0x100001d0:   45 f6 a0 00 0a 68 22 f0 08 02 0a 60 c0 f2 10 00    E....h"....`....
    0x100001e0:   ca 6e 02 f0 0f 02 02 43 ca 60 05 20 0a 6d 60 f3    .n.....C.`. .m`.
    0x100001f0:   04 02 0a 65 08 68 40 f0 08 00 08 60 0a 68 22 f0    ...e.h@....`.h".
    0x10000200:   08 02 0a 60 00 22 08 6d 6f f3 95 20 08 65 ca 60    ...`.".mo.. .e.`
    0x10000210:   05 20 0a 6d 60 f3 04 02 0a 65 08 68 40 f0 08 00    . .m`....e.h@...
    0x10000220:   08 60 0a 68 22 f0 08 02 0a 60 00 22 c8 6c 20 f0    .`.h"....`.".l .
    0x10000230:   10 00 c8 64 4a 60 00 20 70 47 00 00 c5 00 00 10    ...dJ`. pG......
    0x10000240:   81 01 00 10 04 00 00 00 04 00 00 00 00 00 00 00    ................
    0x10000250:   00 00 00 00                                        ....


** Section #3 'MCU_TCM' (SHT_NOBITS) [SHF_ALLOC + SHF_WRITE]
    Size   : 2212 bytes (alignment 8)
    Address: 0x10000254


** Section #4 'SHARED_SRAM' (SHT_PROGBITS) [SHF_ALLOC + SHF_WRITE]
    Size   : 64 bytes (alignment 4)
    Address: 0x10060000

    0x10060000:   c4 b2 01 00 00 00 00 00 00 00 00 00 00 00 00 00    ................
    0x10060010:   00 00 00 00 00 00 00 00 00 00 00 00 00 00 00 00    ................
    0x10060020:   00 00 00 00 00 00 00 00 00 00 00 00 00 00 00 00    ................
    0x10060030:   00 00 00 00 00 00 00 00 00 00 00 00 00 00 00 00    ................


** Section #5 '.debug_abbrev' (SHT_PROGBITS)
    Size   : 1476 bytes


** Section #6 '.debug_frame' (SHT_PROGBITS)
    Size   : 3408 bytes


** Section #7 '.debug_info' (SHT_PROGBITS)
    Size   : 16456 bytes


** Section #8 '.debug_line' (SHT_PROGBITS)
    Size   : 5008 bytes


** Section #9 '.debug_loc' (SHT_PROGBITS)
    Size   : 2920 bytes


** Section #10 '.debug_macinfo' (SHT_PROGBITS)
    Size   : 3484 bytes


** Section #11 '.debug_pubnames' (SHT_PROGBITS)
    Size   : 712 bytes


** Section #12 '.symtab' (SHT_SYMTAB)
    Size   : 10752 bytes (alignment 4)
    String table #13 '.strtab'
    Last local symbol no. 420

    Symbol table .symtab (671 symbols, 420 local)

      #  Symbol Name                Value      Bind  Sec  Type  Vis  Size
    ========================================================================

      1  $d                         0x00018000   Lc    1   --   De 
      2  $t                         0x00018200   Lc    1   --   De 
      3  $d                         0x00018232   Lc    1   --   De 
      4  $t                         0x00018238   Lc    1   --   De 
      5  $d                         0x0001826c   Lc    1   --   De 
      6  $t                         0x00018274   Lc    1   --   De 
      7  $d                         0x00018396   Lc    1   --   De 
      8  $t                         0x000183a4   Lc    1   --   De 
      9  $d                         0x0001840c   Lc    1   --   De 
     10  $t                         0x00018410   Lc    1   --   De 
     11  $d                         0x00018418   Lc    1   --   De 
     12  $t                         0x0001841c   Lc    1   --   De 
     13  $d                         0x000184ec   Lc    1   --   De 
     14  $t                         0x000184f8   Lc    1   --   De 
     15  $d                         0x00018554   Lc    1   --   De 
     16  $t                         0x0001855c   Lc    1   --   De 
     17  $d                         0x000185b0   Lc    1   --   De 
     18  $t                         0x000185c8   Lc    1   --   De 
     19  $d                         0x0001860a   Lc    1   --   De 
     20  $t                         0x00018614   Lc    1   --   De 
     21  $d                         0x0001865e   Lc    1   --   De 
     22  $t                         0x00018668   Lc    1   --   De 
     23  $d                         0x000187a0   Lc    1   --   De 
     24  $t                         0x000187b8   Lc    1   --   De 
     25  $d                         0x000187da   Lc    1   --   De 
     26  $t                         0x000187e4   Lc    1   --   De 
     27  $d                         0x00018834   Lc    1   --   De 
     28  $t                         0x0001883c   Lc    1   --   De 
     29  $d                         0x00018898   Lc    1   --   De 
     30  $t                         0x000188a0   Lc    1   --   De 
     31  $d                         0x0001892c   Lc    1   --   De 
     32  $t                         0x00018934   Lc    1   --   De 
     33  $d                         0x0001893a   Lc    1   --   De 
     34  $t                         0x00018940   Lc    1   --   De 
     35  $d                         0x0001894c   Lc    1   --   De 
     36  $t                         0x00018950   Lc    1   --   De 
     37  $d                         0x000189dc   Lc    1   --   De 
     38  $t                         0x000189e4   Lc    1   --   De 
     39  $d                         0x00018df0   Lc    1   --   De 
     40  $t                         0x00018e0c   Lc    1   --   De 
     41  $d                         0x00018e3c   Lc    1   --   De 
     42  $t                         0x00018e40   Lc    1   --   De 
     43  $d                         0x00018fd4   Lc    1   --   De 
     44  $t                         0x00018ff8   Lc    1   --   De 
     45  $d                         0x0001910c   Lc    1   --   De 
     46  $t                         0x00019114   Lc    1   --   De 
     47  $d                         0x0001917a   Lc    1   --   De 
     48  $t                         0x00019184   Lc    1   --   De 
     49  $d                         0x000191e2   Lc    1   --   De 
     50  $t                         0x000191ec   Lc    1   --   De 
     51  $d                         0x00019278   Lc    1   --   De 
     52  $t                         0x00019280   Lc    1   --   De 
     53  $d                         0x000193ca   Lc    1   --   De 
     54  $t                         0x000193d0   Lc    1   --   De 
     55  $d                         0x0001942a   Lc    1   --   De 
     56  $t                         0x00019430   Lc    1   --   De 
     57  $d                         0x00019482   Lc    1   --   De 
     58  $t                         0x00019488   Lc    1   --   De 
     59  $d                         0x000194ac   Lc    1   --   De 
     60  $t                         0x000194b0   Lc    1   --   De 
     61  $d                         0x00019504   Lc    1   --   De 
     62  $t                         0x00019510   Lc    1   --   De 
     63  $d                         0x00019522   Lc    1   --   De 
     64  $t                         0x00019528   Lc    1   --   De 
     65  $d                         0x00019548   Lc    1   --   De 
     66  $t                         0x0001954c   Lc    1   --   De 
     67  $d                         0x0001962e   Lc    1   --   De 
     68  $t                         0x00019638   Lc    1   --   De 
     69  $d                         0x00019676   Lc    1   --   De 
     70  $t                         0x0001967c   Lc    1   --   De 
     71  $d                         0x000196b6   Lc    1   --   De 
     72  $t                         0x000196bc   Lc    1   --   De 
     73  $d                         0x00019822   Lc    1   --   De 
     74  $t                         0x00019840   Lc    1   --   De 
     75  $d                         0x0001986a   Lc    1   --   De 
     76  $t                         0x00019870   Lc    1   --   De 
     77  $d                         0x000198d8   Lc    1   --   De 
     78  $t                         0x000198e0   Lc    1   --   De 
     79  $d                         0x000199b6   Lc    1   --   De 
     80  $t                         0x000199bc   Lc    1   --   De 
     81  $d                         0x00019d46   Lc    1   --   De 
     82  $t                         0x00019d50   Lc    1   --   De 
     83  $d                         0x00019dbc   Lc    1   --   De 
     84  $t                         0x00019dc0   Lc    1   --   De 
     85  $d                         0x00019ec2   Lc    1   --   De 
     86  $t                         0x00019ee0   Lc    1   --   De 
     87  $d                         0x00019f88   Lc    1   --   De 
     88  $t                         0x00019f90   Lc    1   --   De 
     89  $d                         0x00019fbc   Lc    1   --   De 
     90  $t                         0x00019fc4   Lc    1   --   De 
     91  $d                         0x00019fca   Lc    1   --   De 
     92  $t                         0x00019fd0   Lc    1   --   De 
     93  $d                         0x00019ff0   Lc    1   --   De 
     94  $t                         0x0001a00c   Lc    1   --   De 
     95  $d                         0x0001a42c   Lc    1   --   De 
     96  $t                         0x0001a430   Lc    1   --   De 
     97  $d                         0x0001a740   Lc    1   --   De 
     98  $t                         0x0001a74c   Lc    1   --   De 
     99  $d                         0x0001a89a   Lc    1   --   De 
    100  $t                         0x0001a8a8   Lc    1   --   De 
    101  $d                         0x0001a984   Lc    1   --   De 
    102  $t                         0x0001a988   Lc    1   --   De 
    103  $d                         0x0001aada   Lc    1   --   De 
    104  $t                         0x0001ac58   Lc    1   --   De 
    105  $d                         0x0001ae46   Lc    1   --   De 
    106  $t                         0x0001ae50   Lc    1   --   De 
    107  $d                         0x0001aeb2   Lc    1   --   De 
    108  $t                         0x0001aec2   Lc    1   --   De 
    109  $d                         0x0001b030   Lc    1   --   De 
    110  $t                         0x0001b038   Lc    1   --   De 
    111  $d                         0x0001b1b0   Lc    1   --   De 
    112  $t                         0x0001b1b4   Lc    1   --   De 
    113  $d                         0x0001b232   Lc    1   --   De 
    114  $t                         0x0001b236   Lc    1   --   De 
    115  $d.realdata                0x0001b274   Lc    1   --   De 
    116  $d.realdata                0x10000000   Lc    2   --   De 
    117  $d.realdata                0x10060000   Lc    4   --   De 
    118  ../../../../../../third_party/prime_mpi/src/prime_mpi.c
                                    0x00000000   Lc  Abs  File  De 
    119  i.prime_number             0x0001ae50   Lc    1  Sect  De 
    120  ..\src\am_resources.c      0x00000000   Lc  Abs  File  De 
    121  ../src/am_resources.c      0x00000000   Lc  Abs  File  De 
    122  .constdata                 0x0001b274   Lc    1  Sect  De   0x6c
    123  __tagsym$$used             0x0001b274   Lc    1   --   De 
    124  __tagsym$$used             0x0001b288   Lc    1   --   De 
    125  __tagsym$$used             0x0001b29c   Lc    1   --   De 
    126  __tagsym$$used             0x0001b2b0   Lc    1   --   De 
    127  __tagsym$$used             0x0001b2c4   Lc    1   --   De 
    128  RESOURCE_TABLE             0x10060000   Lc    4  Sect  De   0x4
    129  __tagsym$$used             0x10060000   Lc    4   --   De 
    130  SHARED_RW                  0x10060004   Lc    4  Sect  De   0x3c
    131  __tagsym$$used             0x10060004   Lc    4   --   De 
    132  __tagsym$$used             0x10060018   Lc    4   --   De 
    133  __tagsym$$used             0x1006002c   Lc    4   --   De 
    134  ..\src\prime.c             0x00000000   Lc  Abs  File  De 
    135  ../src/prime.c             0x00000000   Lc  Abs  File  De 
    136  i.main                     0x0001a988   Lc    1  Sect  De 
    137  .constdata                 0x0001b2e0   Lc    1  Sect  De   0x6
    138  ..\..\..\..\..\..\devices\am_devices_led.c
                                    0x00000000   Lc  Abs  File  De 
    139  ../../../../../../devices/am_devices_led.c
                                    0x00000000   Lc  Abs  File  De 
    140  ..\..\..\..\..\..\utils\am_util_delay.c
                                    0x00000000   Lc  Abs  File  De 
    141  ../../../../../../utils/am_util_delay.c
                                    0x00000000   Lc  Abs  File  De 
    142  ..\..\..\..\..\..\utils\am_util_faultisr.c
                                    0x00000000   Lc  Abs  File  De 
    143  .emb_text                  0x00018334   Lc    1  Sect  De   0x22
    144  $v0                        0x00018334   Lc    1   --   De 
    145  ../../../../../../utils/am_util_faultisr.c
                                    0x00000000   Lc  Abs  File  De 
    146  i.am_util_faultisr_collect_data
                                    0x00019ee0   Lc    1  Sect  De 
    147  ../../../../../../utils/am_util_stdio.c
                                    0x00000000   Lc  Abs  File  De 
    148  i.am_util_stdio_printf     0x00019f90   Lc    1  Sect  De 
    149  i.am_util_stdio_printf_init
                                    0x00019fc4   Lc    1  Sect  De 
    150  i.am_util_stdio_terminal_clear
                                    0x00019fd0   Lc    1  Sect  De 
    151  i.am_util_stdio_vsprintf   0x0001a00c   Lc    1  Sect  De 
    152  i.ndigits_in_u64           0x0001ac58   Lc    1  Sect  De 
    153  ndigits_in_u64             0x0001ac59   Lc    1  Code  De   0xc6
    154  i.uint64_to_str            0x0001b038   Lc    1  Sect  De 
    155  uint64_to_str              0x0001b039   Lc    1  Code  De   0x126
    156  .bss                       0x10000254   Lc    3  Sect  De   0x100
    157  g_prfbuf                   0x10000254   Lc    3  Data  De   0x100
    158  .data                      0x10000000   Lc    2  Sect  De   0x8
    159  g_bTxtXlate                0x10000000   Lc    2  Data  De   0x1
    160  ../keil/startup_keil.s     0x00000000   Lc  Abs  File  De 
    161  STACK                      0x100006f8   Lc    3  Sect  De   0x400
    162  StackMem                   0x100006f8   Lc    3  Data  De 
    163  HEAP                       0x100006f8   Lc    3  Sect  De 
    164  HeapMem                    0x100006f8   Lc    3  Data  De 
    165  RESET                      0x00018000   Lc    1  Sect  De   0x238
    166  $v0                        0x00018200   Lc    1   --   De 
    167  am_cryptosec_isr           0x00018231   Lc    1  Code  De 
    168  am_default_isr             0x00018231   Lc    1  Code  De   0x2
    169  .text                      0x0001838c   Lc    1  Sect  De   0x18
    170  $v0                        0x0001838c   Lc    1   --   De 
    171  ..\..\..\..\..\mcu\apollo4b\hal\am_hal_global.c
                                    0x00000000   Lc  Abs  File  De 
    172  .emb_text                  0x00018358   Lc    1  Sect  De   0x1c
    173  $v0                        0x00018358   Lc    1   --   De 
    174  ../../../../../mcu/apollo4b/hal/am_hal_global.c
                                    0x00000000   Lc  Abs  File  De 
    175  .constdata                 0x0001b2e6   Lc    1  Sect  De   0xe
    176  .constdata                 0x0001b2f4   Lc    1  Sect  De   0x4
    177  .data                      0x10000008   Lc    2  Sect  De   0x4
    178  ..\..\..\..\..\mcu\apollo4b\hal\mcu\am_hal_fault.c
                                    0x00000000   Lc  Abs  File  De 
    179  ../../../../../mcu/apollo4b/hal/mcu/am_hal_fault.c
                                    0x00000000   Lc  Abs  File  De 
    180  i.am_hal_fault_status_get  0x000188a0   Lc    1  Sect  De 
    181  ..\..\..\..\..\mcu\apollo4b\hal\mcu\am_hal_utils.c
                                    0x00000000   Lc  Abs  File  De 
    182  ../../../../../mcu/apollo4b/hal/mcu/am_hal_utils.c
                                    0x00000000   Lc  Abs  File  De 
    183  i.am_hal_delay_us          0x000187b8   Lc    1  Sect  De 
    184  i.am_hal_delay_us_status_change
                                    0x000187e4   Lc    1  Sect  De 
    185  i.am_hal_delay_us_status_check
                                    0x0001883c   Lc    1  Sect  De 
    186  i.am_hal_load_ui32         0x00018934   Lc    1  Sect  De 
    187  ..\..\..\..\..\mcu\apollo4b\hal\am_hal_gpio.c
                                    0x00000000   Lc  Abs  File  De 
    188  ../../../../../mcu/apollo4b/hal/am_hal_gpio.c
                                    0x00000000   Lc  Abs  File  De 
    189  i.am_hal_gpio_pinconfig    0x000188e0   Lc    1  Sect  De 
    190  .constdata                 0x0001b2f8   Lc    1  Sect  De   0x4
    191  .constdata                 0x0001b2fc   Lc    1  Sect  De   0x10
    192  g_ui32DSpintbl             0x0001b2fc   Lc    1  Data  De   0x10
    193  ..\..\..\..\..\mcu\apollo4b\hal\am_hal_pwrctrl.c
                                    0x00000000   Lc  Abs  File  De 
    194  ../../../../../mcu/apollo4b/hal/am_hal_pwrctrl.c
                                    0x00000000   Lc  Abs  File  De 
    195  i.VDDF_simobuck_boost      0x00018420   Lc    1  Sect  De 
    196  VDDF_simobuck_boost        0x00018421   Lc    1  Code  De   0xcc
    197  i.am_hal_pwrctrl_control   0x000189e4   Lc    1  Sect  De 
    198  i.am_hal_pwrctrl_low_power_init
                                    0x00018e40   Lc    1  Sect  De 
    199  i.am_hal_pwrctrl_mcu_memory_config
                                    0x00018ff8   Lc    1  Sect  De 
    200  i.am_hal_pwrctrl_periph_disable
                                    0x00019114   Lc    1  Sect  De 
    201  i.am_hal_pwrctrl_periph_enable
                                    0x00019184   Lc    1  Sect  De 
    202  i.am_hal_pwrctrl_sram_config
                                    0x000191ec   Lc    1  Sect  De 
    203  i.am_hal_util_write_and_wait
                                    0x00019dc0   Lc    1  Sect  De 
    204  i.buck_interval_check      0x0001a74c   Lc    1  Sect  De 
    205  buck_interval_check        0x0001a74d   Lc    1  Code  De   0x14e
    206  .bss                       0x10000354   Lc    3  Sect  De   0x54
    207  .constdata                 0x0001b30c   Lc    1  Sect  De   0x22c
    208  .data                      0x1000000c   Lc    2  Sect  De   0x1c
    209  .data                      0x10000030   Lc    2  Sect  De   0x20
    210  storeAndWFIRAM             0x10000030   Lc    2  Data  De   0x20
    211  ..\am_bsp.c                0x00000000   Lc  Abs  File  De 
    212  ../am_bsp.c                0x00000000   Lc  Abs  File  De 
    213  i.am_bsp_low_power_init    0x000184f8   Lc    1  Sect  De 
    214  i.am_bsp_uart_printf_disable
                                    0x00018510   Lc    1  Sect  De 
    215  i.am_bsp_uart_printf_enable
                                    0x0001855c   Lc    1  Sect  De 
    216  i.am_bsp_uart_string_print 0x000185c8   Lc    1  Sect  De 
    217  .constdata                 0x0001b538   Lc    1  Sect  De   0x2c
    218  g_sBspUartConfig           0x0001b538   Lc    1  Data  De   0xc
    219  .data                      0x10000050   Lc    2  Sect  De   0x8
    220  g_ePrintInterface          0x10000050   Lc    2  Data  De   0x1
    221  g_sCOMUART                 0x10000054   Lc    2  Data  De   0x4
    222  ..\..\..\..\..\mcu\apollo4b\hal\mcu\am_hal_bootrom_helper.c
                                    0x00000000   Lc  Abs  File  De 
    223  ../../../../../mcu/apollo4b/hal/mcu/am_hal_bootrom_helper.c
                                    0x00000000   Lc  Abs  File  De 
    224  .constdata                 0x0001b564   Lc    1  Sect  De   0x28
    225  ..\..\..\..\..\mcu\apollo4b\hal\mcu\am_hal_cachectrl.c
                                    0x00000000   Lc  Abs  File  De 
    226  ../../../../../mcu/apollo4b/hal/mcu/am_hal_cachectrl.c
                                    0x00000000   Lc  Abs  File  De 
    227  i.am_hal_daxi_config       0x00018614   Lc    1  Sect  De 
    228  i.am_hal_daxi_control      0x00018668   Lc    1  Sect  De 
    229  .constdata                 0x0001b58c   Lc    1  Sect  De   0x3
    230  .data                      0x10000058   Lc    2  Sect  De   0x6c
    231  p64BAxiMem                 0x10000058   Lc    2  Data  De   0x4
    232  ui32AxiBufPwrStatMask      0x1000005c   Lc    2  Data  De   0x4
    233  ui32AxiBufPwrStatReg       0x10000060   Lc    2  Data  De   0x4
    234  gAxiMemRange               0x10000064   Lc    2  Data  De   0x60
    235  ..\..\..\..\..\mcu\apollo4b\hal\mcu\am_hal_interrupt.c
                                    0x00000000   Lc  Abs  File  De 
    236  .emb_text                  0x00018374   Lc    1  Sect  De   0x16
    237  $v0                        0x00018374   Lc    1   --   De 
    238  ../../../../../mcu/apollo4b/hal/mcu/am_hal_interrupt.c
                                    0x00000000   Lc  Abs  File  De 
    239  ..\..\..\..\..\mcu\apollo4b\hal\mcu\am_hal_itm.c
                                    0x00000000   Lc  Abs  File  De 
    240  ../../../../../mcu/apollo4b/hal/mcu/am_hal_itm.c
                                    0x00000000   Lc  Abs  File  De 
    241  ..\..\..\..\..\mcu\apollo4b\hal\mcu\am_hal_mram.c
                                    0x00000000   Lc  Abs  File  De 
    242  ../../../../../mcu/apollo4b/hal/mcu/am_hal_mram.c
                                    0x00000000   Lc  Abs  File  De 
    243  i.am_hal_mram_ds_init      0x00018940   Lc    1  Sect  De 
    244  i.am_hal_mram_info_read    0x00018950   Lc    1  Sect  De 
    245  .data                      0x100000c4   Lc    2  Sect  De   0xbc
    246  g_program_mram_tmc_tcycrd  0x100000c4   Lc    2  Data  De   0xbc
    247  .data                      0x10000180   Lc    2  Sect  De   0xbc
    248  g_recover_broken_mram_tmc_r_timer1
                                    0x10000180   Lc    2  Data  De   0xbc
    249  .data                      0x1000023c   Lc    2  Sect  De   0x8
    250  ..\..\..\..\..\mcu\apollo4b\hal\mcu\am_hal_rtc.c
                                    0x00000000   Lc  Abs  File  De 
    251  ../../../../../mcu/apollo4b/hal/mcu/am_hal_rtc.c
                                    0x00000000   Lc  Abs  File  De 
    252  i.am_hal_rtc_osc_disable   0x000193bc   Lc    1  Sect  De 
    253  ..\..\..\..\..\mcu\apollo4b\hal\mcu\am_hal_tpiu.c
                                    0x00000000   Lc  Abs  File  De 
    254  ../../../../../mcu/apollo4b/hal/mcu/am_hal_tpiu.c
                                    0x00000000   Lc  Abs  File  De 
    255  ..\..\..\..\..\mcu\apollo4b\hal\mcu\am_hal_uart.c
                                    0x00000000   Lc  Abs  File  De 
    256  ../../../../../mcu/apollo4b/hal/mcu/am_hal_uart.c
                                    0x00000000   Lc  Abs  File  De 
    257  i.am_hal_uart_configure    0x000196bc   Lc    1  Sect  De 
    258  i.am_hal_uart_deinitialize 0x00019840   Lc    1  Sect  De 
    259  i.am_hal_uart_initialize   0x00019870   Lc    1  Sect  De 
    260  i.am_hal_uart_power_control
                                    0x000198e0   Lc    1  Sect  De 
    261  i.am_hal_uart_transfer     0x000199bc   Lc    1  Sect  De 
    262  i.am_hal_uart_tx_flush     0x00019d50   Lc    1  Sect  De 
    263  i.nonblocking_read         0x0001ad20   Lc    1  Sect  De 
    264  nonblocking_read           0x0001ad21   Lc    1  Code  De   0x126
    265  .bss                       0x100003a8   Lc    3  Sect  De   0x2b0
    266  ..\..\..\..\..\mcu\apollo4b\hal\am_hal_dcu.c
                                    0x00000000   Lc  Abs  File  De 
    267  ../../../../../mcu/apollo4b/hal/am_hal_dcu.c
                                    0x00000000   Lc  Abs  File  De 
    268  ..\..\..\..\..\mcu\apollo4b\hal\am_hal_pin.c
                                    0x00000000   Lc  Abs  File  De 
    269  ../../../../../mcu/apollo4b/hal/am_hal_pin.c
                                    0x00000000   Lc  Abs  File  De 
    270  ..\..\..\..\..\mcu\apollo4b\hal\am_hal_timer.c
                                    0x00000000   Lc  Abs  File  De 
    271  ../../../../../mcu/apollo4b/hal/am_hal_timer.c
                                    0x00000000   Lc  Abs  File  De 
    272  i.am_hal_timer_clear       0x000193d0   Lc    1  Sect  De 
    273  i.am_hal_timer_clear_stop  0x00019430   Lc    1  Sect  De 
    274  i.am_hal_timer_default_config_set
                                    0x00019488   Lc    1  Sect  De 
    275  i.am_hal_timer_interrupt_clear
                                    0x000194a4   Lc    1  Sect  De 
    276  i.am_hal_timer_interrupt_enable
                                    0x000194b0   Lc    1  Sect  De 
    277  i.am_hal_timer_interrupt_status_get
                                    0x00019510   Lc    1  Sect  De 
    278  i.am_hal_timer_read        0x00019528   Lc    1  Sect  De 
    279  i.am_hal_timer_reset_config
                                    0x0001954c   Lc    1  Sect  De 
    280  i.am_hal_timer_start       0x00019638   Lc    1  Sect  De 
    281  i.am_hal_timer_stop        0x0001967c   Lc    1  Sect  De 
    282  i.internal_timer_config    0x0001a8a8   Lc    1  Sect  De 
    283  i.timer_config_b1          0x0001ae8c   Lc    1  Sect  De 
    284  .bss                       0x10000658   Lc    3  Sect  De   0x40
    285  TimerFlags                 0x10000658   Lc    3  Data  De   0x40
    286  ..\am_bsp_pins.c           0x00000000   Lc  Abs  File  De 
    287  ../am_bsp_pins.c           0x00000000   Lc  Abs  File  De 
    288  .data                      0x10000244   Lc    2  Sect  De   0x4
    289  .data                      0x10000248   Lc    2  Sect  De   0x4
    290  ..\..\..\..\..\mcu\apollo4b\hal\mcu\am_hal_mspi.c
                                    0x00000000   Lc  Abs  File  De 
    291  ../../../../../mcu/apollo4b/hal/mcu/am_hal_mspi.c
                                    0x00000000   Lc  Abs  File  De 
    292  .data                      0x1000024c   Lc    2  Sect  De   0x4
    293  ..\..\..\..\..\mcu\apollo4b\hal\mcu\am_hal_sysctrl.c
                                    0x00000000   Lc  Abs  File  De 
    294  ../../../../../mcu/apollo4b/hal/mcu/am_hal_sysctrl.c
                                    0x00000000   Lc  Abs  File  De 
    295  .data                      0x10000250   Lc    2  Sect  De   0x4
    296  ..\..\..\..\..\mcu\apollo4b\hal\am_hal_queue.c
                                    0x00000000   Lc  Abs  File  De 
    297  ../../../../../mcu/apollo4b/hal/am_hal_queue.c
                                    0x00000000   Lc  Abs  File  De 
    298  i.am_hal_queue_item_add    0x00019280   Lc    1  Sect  De 
    299  i.am_hal_queue_item_get    0x00019324   Lc    1  Sect  De 
    300  ..\..\..\..\..\mcu\apollo4b\hal\mcu\am_hal_cmdq.c
                                    0x00000000   Lc  Abs  File  De 
    301  ../../../../../mcu/apollo4b/hal/mcu/am_hal_cmdq.c
                                    0x00000000   Lc  Abs  File  De 
    302  dc.s                       0x00000000   Lc  Abs  File  De 
    303  ../clib/longlong.s         0x00000000   Lc  Abs  File  De 
    304  ../clib/longlong.s         0x00000000   Lc  Abs  File  De 
    305  ../clib/heapaux.c          0x00000000   Lc  Abs  File  De 
    306  .text                      0x000183a4   Lc    1  Sect  De 
    307  ../clib/angel/startup.s    0x00000000   Lc  Abs  File  De 
    308  !!!main                    0x00018238   Lc    1  Sect  De   0x8
    309  ../clib/angel/handlers.s   0x00000000   Lc  Abs  File  De 
    310  !!handler_copy             0x000182d0   Lc    1  Sect  De   0x1a
    311  ../fplib/d2f.s             0x00000000   Lc  Abs  File  De 
    312  x$fpl$d2f                  0x0001b160   Lc    1  Sect  De   0x62
    313  $v0                        0x0001b160   Lc    1   --   De 
    314  ../clib/angel/kernel.s     0x00000000   Lc  Abs  File  De 
    315  .ARM.Collect$$rtentry$$00000000
                                    0x00018314   Lc    1  Sect  De 
    316  ../fplib/dnaninf.s         0x00000000   Lc  Abs  File  De 
    317  x$fpl$dnaninf              0x0001b1c2   Lc    1  Sect  De   0x9c
    318  $v0                        0x0001b1c2   Lc    1   --   De 
    319  ../fplib/fretinf.s         0x00000000   Lc  Abs  File  De 
    320  x$fpl$fretinf              0x0001b268   Lc    1  Sect  De   0xa
    321  $v0                        0x0001b268   Lc    1   --   De 
    322  ../fplib/usenofp.s         0x00000000   Lc  Abs  File  De 
    323  x$fpl$usenofp              0x0001b272   Lc    1  Sect  De 
    324  ../clib/angel/kernel.s     0x00000000   Lc  Abs  File  De 
    325  .ARM.Collect$$rtentry$$00000002
                                    0x00018314   Lc    1  Sect  De 
    326  .ARM.Collect$$rtentry$$00000009
                                    0x0001831a   Lc    1  Sect  De 
    327  .ARM.Collect$$rtentry$$0000000A
                                    0x0001831a   Lc    1  Sect  De   0x4
    328  .ARM.Collect$$rtentry$$0000000C
                                    0x0001831e   Lc    1  Sect  De 
    329  .ARM.Collect$$rtentry$$0000000D
                                    0x0001831e   Lc    1  Sect  De   0x8
    330  ../clib/angel/kernel.s     0x00000000   Lc  Abs  File  De 
    331  .ARM.Collect$$rtentry$$00000004
                                    0x00018314   Lc    1  Sect  De   0x6
    332  ../clib/angel/sys.s        0x00000000   Lc  Abs  File  De 
    333  .text                      0x000183aa   Lc    1  Sect  De   0x4a
    334  ../clib/stdlib.c           0x00000000   Lc  Abs  File  De 
    335  .text                      0x000183f4   Lc    1  Sect  De 
    336  ../clib/angel/boardlib.s   0x00000000   Lc  Abs  File  De 
    337  ../clib/angel/boardlib.s   0x00000000   Lc  Abs  File  De 
    338  ../clib/angel/boardlib.s   0x00000000   Lc  Abs  File  De 
    339  ../clib/libinit.s          0x00000000   Lc  Abs  File  De 
    340  .ARM.Collect$$libinit$$00000000
                                    0x00018308   Lc    1  Sect  De   0x2
    341  ../clib/angel/sys.s        0x00000000   Lc  Abs  File  De 
    342  .text                      0x00018408   Lc    1  Sect  De   0x8
    343  .bss                       0x10000698   Lc    3  Sect  De   0x60
    344  ../clib/angel/kernel.s     0x00000000   Lc  Abs  File  De 
    345  .ARM.Collect$$rtexit$$00000000
                                    0x00018326   Lc    1  Sect  De   0x2
    346  ../clib/libinit.s          0x00000000   Lc  Abs  File  De 
    347  .ARM.Collect$$libinit$$00000001
                                    0x0001830a   Lc    1  Sect  De   0x4
    348  .ARM.Collect$$libinit$$00000004
                                    0x0001830e   Lc    1  Sect  De 
    349  .ARM.Collect$$libinit$$0000000A
                                    0x0001830e   Lc    1  Sect  De 
    350  .ARM.Collect$$libinit$$0000000C
                                    0x0001830e   Lc    1  Sect  De 
    351  .ARM.Collect$$libinit$$0000000E
                                    0x0001830e   Lc    1  Sect  De 
    352  .ARM.Collect$$libinit$$00000011
                                    0x0001830e   Lc    1  Sect  De 
    353  .ARM.Collect$$libinit$$00000013
                                    0x0001830e   Lc    1  Sect  De 
    354  .ARM.Collect$$libinit$$00000015
                                    0x0001830e   Lc    1  Sect  De 
    355  .ARM.Collect$$libinit$$00000017
                                    0x0001830e   Lc    1  Sect  De 
    356  .ARM.Collect$$libinit$$00000019
                                    0x0001830e   Lc    1  Sect  De 
    357  .ARM.Collect$$libinit$$0000001B
                                    0x0001830e   Lc    1  Sect  De 
    358  .ARM.Collect$$libinit$$0000001D
                                    0x0001830e   Lc    1  Sect  De 
    359  .ARM.Collect$$libinit$$0000001F
                                    0x0001830e   Lc    1  Sect  De 
    360  .ARM.Collect$$libinit$$00000021
                                    0x0001830e   Lc    1  Sect  De 
    361  .ARM.Collect$$libinit$$00000023
                                    0x0001830e   Lc    1  Sect  De 
    362  .ARM.Collect$$libinit$$00000025
                                    0x0001830e   Lc    1  Sect  De 
    363  .ARM.Collect$$libinit$$0000002C
                                    0x0001830e   Lc    1  Sect  De 
    364  .ARM.Collect$$libinit$$0000002E
                                    0x0001830e   Lc    1  Sect  De 
    365  .ARM.Collect$$libinit$$00000030
                                    0x0001830e   Lc    1  Sect  De 
    366  .ARM.Collect$$libinit$$00000032
                                    0x0001830e   Lc    1  Sect  De 
    367  .ARM.Collect$$libinit$$00000033
                                    0x0001830e   Lc    1  Sect  De   0x2
    368  ../clib/angel/kernel.s     0x00000000   Lc  Abs  File  De 
    369  .ARM.Collect$$rtexit$$00000002
                                    0x00018328   Lc    1  Sect  De 
    370  .ARM.Collect$$rtexit$$00000003
                                    0x00018328   Lc    1  Sect  De   0x4
    371  .ARM.Collect$$rtexit$$00000004
                                    0x0001832c   Lc    1  Sect  De   0x6
    372  ../clib/armsys.c           0x00000000   Lc  Abs  File  De 
    373  ../clib/armsys.c           0x00000000   Lc  Abs  File  De 
    374  ../fplib/fpinit.s          0x00000000   Lc  Abs  File  De 
    375  x$fpl$fpinit               0x0001b25e   Lc    1  Sect  De   0xa
    376  $v0                        0x0001b25e   Lc    1   --   De 
    377  ../clib/angel/sysapp.c     0x00000000   Lc  Abs  File  De 
    378  .text                      0x00018410   Lc    1  Sect  De 
    379  ../clib/angel/boardlib.s   0x00000000   Lc  Abs  File  De 
    380  ../clib/armsys.c           0x00000000   Lc  Abs  File  De 
    381  ../clib/armsys.c           0x00000000   Lc  Abs  File  De 
    382  ../clib/libinit.s          0x00000000   Lc  Abs  File  De 
    383  .ARM.Collect$$libshutdown$$00000000
                                    0x00018310   Lc    1  Sect  De   0x2
    384  ../clib/angel/sysapp.c     0x00000000   Lc  Abs  File  De 
    385  ../clib/angel/sys.s        0x00000000   Lc  Abs  File  De 
    386  .text                      0x0001841c   Lc    1  Sect  De   0x2
    387  ../clib/angel/sys.s        0x00000000   Lc  Abs  File  De 
    388  .text                      0x0001841e   Lc    1  Sect  De 
    389  ../clib/heapalloc.c        0x00000000   Lc  Abs  File  De 
    390  ../clib/signal.c           0x00000000   Lc  Abs  File  De 
    391  ../clib/signal.c           0x00000000   Lc  Abs  File  De 
    392  ../clib/libinit.s          0x00000000   Lc  Abs  File  De 
    393  .ARM.Collect$$libshutdown$$00000002
                                    0x00018312   Lc    1  Sect  De 
    394  .ARM.Collect$$libshutdown$$00000004
                                    0x00018312   Lc    1  Sect  De 
    395  .ARM.Collect$$libshutdown$$00000007
                                    0x00018312   Lc    1  Sect  De 
    396  .ARM.Collect$$libshutdown$$0000000A
                                    0x00018312   Lc    1  Sect  De 
    397  .ARM.Collect$$libshutdown$$0000000C
                                    0x00018312   Lc    1  Sect  De 
    398  .ARM.Collect$$libshutdown$$0000000F
                                    0x00018312   Lc    1  Sect  De 
    399  .ARM.Collect$$libshutdown$$00000010
                                    0x00018312   Lc    1  Sect  De   0x2
    400  ../clib/angel/rt.s         0x00000000   Lc  Abs  File  De 
    401  ../clib/signal.c           0x00000000   Lc  Abs  File  De 
    402  ../clib/signal.c           0x00000000   Lc  Abs  File  De 
    403  ../clib/signal.c           0x00000000   Lc  Abs  File  De 
    404  ../clib/signal.c           0x00000000   Lc  Abs  File  De 
    405  ../clib/angel/sysapp.c     0x00000000   Lc  Abs  File  De 
    406  ../clib/signal.s           0x00000000   Lc  Abs  File  De 
    407  ../clib/signal.c           0x00000000   Lc  Abs  File  De 
    408  ../clib/signal.c           0x00000000   Lc  Abs  File  De 
    409  ../clib/signal.c           0x00000000   Lc  Abs  File  De 
    410  ../clib/signal.c           0x00000000   Lc  Abs  File  De 
    411  ../clib/signal.c           0x00000000   Lc  Abs  File  De 
    412  ../clib/signal.c           0x00000000   Lc  Abs  File  De 
    413  ../clib/signal.c           0x00000000   Lc  Abs  File  De 
    414  ../clib/signal.c           0x00000000   Lc  Abs  File  De 
    415  ../clib/angel/dczerorl2.s  0x00000000   Lc  Abs  File  De 
    416  !!dczerorl2                0x00018274   Lc    1  Sect  De   0x5a
    417  ../clib/angel/scatter.s    0x00000000   Lc  Abs  File  De 
    418  !!!scatter                 0x00018240   Lc    1  Sect  De   0x34
    419  ../clib/angel/handlers.s   0x00000000   Lc  Abs  File  De 
    420  !!handler_zi               0x000182ec   Lc    1  Sect  De   0x1c
    421  BuildAttributes$$THM_ISAv4$E$P$D$K$B$S$7EM$VFPi3$EXTD16$VFPS$VFMA$PE$A:L22UL41UL21$X:L11$S22US41US21$IEEE1$IW$USESV6$~STKCKD$USESV7$~SHL$OTIME$ROPI$EBA8$UX$STANDARDLIB$REQ8$PRES8$EABIv2
                                    0x00000000   Gb  Abs   --   Hi 
    422  __ARM_use_no_argv          0x00000000   Gb  Abs   --   Hi 
    423  __Vectors                  0x00018000   Gb    1  Data  Hi 
    424  __Patchable                0x00018190   Gb    1  Data  Hi 
    425  Reset_Handler              0x00018201   Wk    1  Code  Hi   0x1c
    426  NMI_Handler                0x0001821f   Wk    1  Code  Hi   0x2
    427  MemManage_Handler          0x00018221   Wk    1  Code  Hi   0x2
    428  BusFault_Handler           0x00018223   Wk    1  Code  Hi   0x2
    429  UsageFault_Handler         0x00018225   Wk    1  Code  Hi   0x2
    430  SecureFault_Handler        0x00018227   Wk    1  Code  Hi   0x2
    431  SVC_Handler                0x00018229   Wk    1  Code  Hi   0x2
    432  DebugMon_Handler           0x0001822b   Wk    1  Code  Hi   0x2
    433  PendSV_Handler             0x0001822d   Wk    1  Code  Hi   0x2
    434  SysTick_Handler            0x0001822f   Wk    1  Code  Hi   0x2
    435  am_adc_isr                 0x00018231   Wk    1  Code  Hi 
    436  am_audadc0_isr             0x00018231   Wk    1  Code  Hi 
    437  am_brownout_isr            0x00018231   Wk    1  Code  Hi 
    438  am_cachecpu_isr            0x00018231   Wk    1  Code  Hi 
    439  am_clkgen_isr              0x00018231   Wk    1  Code  Hi 
    440  am_ctimer_isr              0x00018231   Wk    1  Code  Hi 
    441  am_disp_isr                0x00018231   Wk    1  Code  Hi 
    442  am_dsi_isr                 0x00018231   Wk    1  Code  Hi 
    443  am_dspi2s0_isr             0x00018231   Wk    1  Code  Hi 
    444  am_dspi2s1_isr             0x00018231   Wk    1  Code  Hi 
    445  am_dspi2s2_isr             0x00018231   Wk    1  Code  Hi 
    446  am_dspi2s3_isr             0x00018231   Wk    1  Code  Hi 
    447  am_gpio0_001f_isr          0x00018231   Wk    1  Code  Hi 
    448  am_gpio0_203f_isr          0x00018231   Wk    1  Code  Hi 
    449  am_gpio0_405f_isr          0x00018231   Wk    1  Code  Hi 
    450  am_gpio0_607f_isr          0x00018231   Wk    1  Code  Hi 
    451  am_gpio1_001f_isr          0x00018231   Wk    1  Code  Hi 
    452  am_gpio1_203f_isr          0x00018231   Wk    1  Code  Hi 
    453  am_gpio1_405f_isr          0x00018231   Wk    1  Code  Hi 
    454  am_gpio1_607f_isr          0x00018231   Wk    1  Code  Hi 
    455  am_gpu_isr                 0x00018231   Wk    1  Code  Hi 
    456  am_iomaster0_isr           0x00018231   Wk    1  Code  Hi 
    457  am_iomaster1_isr           0x00018231   Wk    1  Code  Hi 
    458  am_iomaster2_isr           0x00018231   Wk    1  Code  Hi 
    459  am_iomaster3_isr           0x00018231   Wk    1  Code  Hi 
    460  am_iomaster4_isr           0x00018231   Wk    1  Code  Hi 
    461  am_iomaster5_isr           0x00018231   Wk    1  Code  Hi 
    462  am_iomaster6_isr           0x00018231   Wk    1  Code  Hi 
    463  am_iomaster7_isr           0x00018231   Wk    1  Code  Hi 
    464  am_ioslave_acc_isr         0x00018231   Wk    1  Code  Hi 
    465  am_ioslave_ios_isr         0x00018231   Wk    1  Code  Hi 
    466  am_mspi0_isr               0x00018231   Wk    1  Code  Hi 
    467  am_mspi1_isr               0x00018231   Wk    1  Code  Hi 
    468  am_mspi2_isr               0x00018231   Wk    1  Code  Hi 
    469  am_pdm0_isr                0x00018231   Wk    1  Code  Hi 
    470  am_pdm1_isr                0x00018231   Wk    1  Code  Hi 
    471  am_pdm2_isr                0x00018231   Wk    1  Code  Hi 
    472  am_pdm3_isr                0x00018231   Wk    1  Code  Hi 
    473  am_rtc_isr                 0x00018231   Wk    1  Code  Hi 
    474  am_sdio_isr                0x00018231   Wk    1  Code  Hi 
    475  am_stimer_cmpr0_isr        0x00018231   Wk    1  Code  Hi 
    476  am_stimer_cmpr1_isr        0x00018231   Wk    1  Code  Hi 
    477  am_stimer_cmpr2_isr        0x00018231   Wk    1  Code  Hi 
    478  am_stimer_cmpr3_isr        0x00018231   Wk    1  Code  Hi 
    479  am_stimer_cmpr4_isr        0x00018231   Wk    1  Code  Hi 
    480  am_stimer_cmpr5_isr        0x00018231   Wk    1  Code  Hi 
    481  am_stimer_cmpr6_isr        0x00018231   Wk    1  Code  Hi 
    482  am_stimer_cmpr7_isr        0x00018231   Wk    1  Code  Hi 
    483  am_stimerof_isr            0x00018231   Wk    1  Code  Hi 
    484  am_timer00_isr             0x00018231   Wk    1  Code  Hi 
    485  am_timer01_isr             0x00018231   Wk    1  Code  Hi 
    486  am_timer02_isr             0x00018231   Wk    1  Code  Hi 
    487  am_timer03_isr             0x00018231   Wk    1  Code  Hi 
    488  am_timer04_isr             0x00018231   Wk    1  Code  Hi 
    489  am_timer05_isr             0x00018231   Wk    1  Code  Hi 
    490  am_timer06_isr             0x00018231   Wk    1  Code  Hi 
    491  am_timer07_isr             0x00018231   Wk    1  Code  Hi 
    492  am_timer08_isr             0x00018231   Wk    1  Code  Hi 
    493  am_timer09_isr             0x00018231   Wk    1  Code  Hi 
    494  am_timer10_isr             0x00018231   Wk    1  Code  Hi 
    495  am_timer11_isr             0x00018231   Wk    1  Code  Hi 
    496  am_timer12_isr             0x00018231   Wk    1  Code  Hi 
    497  am_timer13_isr             0x00018231   Wk    1  Code  Hi 
    498  am_timer14_isr             0x00018231   Wk    1  Code  Hi 
    499  am_timer15_isr             0x00018231   Wk    1  Code  Hi 
    500  am_uart1_isr               0x00018231   Wk    1  Code  Hi 
    501  am_uart2_isr               0x00018231   Wk    1  Code  Hi 
    502  am_uart3_isr               0x00018231   Wk    1  Code  Hi 
    503  am_uart_isr                0x00018231   Wk    1  Code  Hi 
    504  am_usb_isr                 0x00018231   Wk    1  Code  Hi 
    505  am_vcomp_isr               0x00018231   Wk    1  Code  Hi 
    506  am_watchdog_isr            0x00018231   Wk    1  Code  Hi 
    507  __main                     0x00018239   Gb    1  Code  Hi   0x8
    508  __scatterload              0x00018241   Gb    1  Code  Hi 
    509  __scatterload_rt2          0x00018241   Gb    1  Code  Hi   0x2c
    510  __scatterload_rt2_thumb_only
                                    0x00018241   Gb    1  Code  Hi 
    511  __scatterload_null         0x0001824f   Gb    1  Code  Hi 
    512  __decompress               0x00018275   Gb    1  Code  Hi   0x5a
    513  __decompress1              0x00018275   Gb    1  Code  Hi 
    514  __scatterload_copy         0x000182d1   Gb    1  Code  Hi   0x1a
    515  __scatterload_zeroinit     0x000182ed   Gb    1  Code  Hi   0x1c
    516  __rt_lib_init              0x00018309   Gb    1  Code  De 
    517  __rt_lib_init_fp_1         0x0001830b   Gb    1  Code  Hi 
    518  __rt_lib_init_alloca_1     0x0001830f   Gb    1  Code  Hi 
    519  __rt_lib_init_argv_1       0x0001830f   Gb    1  Code  Hi 
    520  __rt_lib_init_atexit_1     0x0001830f   Gb    1  Code  Hi 
    521  __rt_lib_init_clock_1      0x0001830f   Gb    1  Code  Hi 
    522  __rt_lib_init_cpp_1        0x0001830f   Gb    1  Code  Hi 
    523  __rt_lib_init_exceptions_1 0x0001830f   Gb    1  Code  Hi 
    524  __rt_lib_init_fp_trap_1    0x0001830f   Gb    1  Code  Hi 
    525  __rt_lib_init_getenv_1     0x0001830f   Gb    1  Code  Hi 
    526  __rt_lib_init_heap_1       0x0001830f   Gb    1  Code  Hi 
    527  __rt_lib_init_lc_collate_1 0x0001830f   Gb    1  Code  Hi 
    528  __rt_lib_init_lc_ctype_1   0x0001830f   Gb    1  Code  Hi 
    529  __rt_lib_init_lc_monetary_1
                                    0x0001830f   Gb    1  Code  Hi 
    530  __rt_lib_init_lc_numeric_1 0x0001830f   Gb    1  Code  Hi 
    531  __rt_lib_init_lc_time_1    0x0001830f   Gb    1  Code  Hi 
    532  __rt_lib_init_preinit_1    0x0001830f   Gb    1  Code  Hi 
    533  __rt_lib_init_rand_1       0x0001830f   Gb    1  Code  Hi 
    534  __rt_lib_init_return       0x0001830f   Gb    1  Code  Hi 
    535  __rt_lib_init_signal_1     0x0001830f   Gb    1  Code  Hi 
    536  __rt_lib_init_stdio_1      0x0001830f   Gb    1  Code  Hi 
    537  __rt_lib_init_user_alloc_1 0x0001830f   Gb    1  Code  Hi 
    538  __rt_lib_shutdown          0x00018311   Gb    1  Code  De 
    539  __rt_lib_shutdown_cpp_1    0x00018313   Gb    1  Code  Hi 
    540  __rt_lib_shutdown_fp_trap_1
                                    0x00018313   Gb    1  Code  Hi 
    541  __rt_lib_shutdown_heap_1   0x00018313   Gb    1  Code  Hi 
    542  __rt_lib_shutdown_return   0x00018313   Gb    1  Code  Hi 
    543  __rt_lib_shutdown_signal_1 0x00018313   Gb    1  Code  Hi 
    544  __rt_lib_shutdown_stdio_1  0x00018313   Gb    1  Code  Hi 
    545  __rt_lib_shutdown_user_alloc_1
                                    0x00018313   Gb    1  Code  Hi 
    546  __rt_entry                 0x00018315   Gb    1  Code  Hi 
    547  __rt_entry_presh_1         0x00018315   Gb    1  Code  Hi 
    548  __rt_entry_sh              0x00018315   Gb    1  Code  Hi 
    549  __rt_entry_li              0x0001831b   Gb    1  Code  Hi 
    550  __rt_entry_postsh_1        0x0001831b   Gb    1  Code  Hi 
    551  __rt_entry_main            0x0001831f   Gb    1  Code  Hi 
    552  __rt_entry_postli_1        0x0001831f   Gb    1  Code  Hi 
    553  __rt_exit                  0x00018327   Gb    1  Code  De 
    554  __rt_exit_ls               0x00018329   Gb    1  Code  Hi 
    555  __rt_exit_prels_1          0x00018329   Gb    1  Code  Hi 
    556  __rt_exit_exit             0x0001832d   Gb    1  Code  Hi 
    557  HardFault_Handler          0x00018335   Gb    1  Code  Hi   0x1a
    558  getStackedReg              0x0001834f   Gb    1  Code  Hi   0x8
    559  am_hal_triple_read         0x00018359   Gb    1  Code  Hi   0x1c
    560  am_hal_interrupt_master_enable
                                    0x00018375   Gb    1  Code  Hi   0x8
    561  am_hal_interrupt_master_disable
                                    0x0001837d   Gb    1  Code  Hi   0x8
    562  am_hal_interrupt_master_set
                                    0x00018385   Gb    1  Code  Hi   0x6
    563  __user_initial_stackheap   0x0001838d   Gb    1  Code  Hi   0xa
    564  __use_two_region_memory    0x000183a5   Gb    1  Code  Hi   0x2
    565  __rt_heap_escrow$2region   0x000183a7   Gb    1  Code  De   0x2
    566  __rt_heap_expand$2region   0x000183a9   Gb    1  Code  De   0x2
    567  __user_setup_stackheap     0x000183ab   Gb    1  Code  De   0x4a
    568  exit                       0x000183f5   Gb    1  Code  De   0x12
    569  __user_libspace            0x00018409   Wk    1  Code  De   0x8
    570  __user_perproc_libspace    0x00018409   Wk    1  Code  De 
    571  __user_perthread_libspace  0x00018409   Wk    1  Code  De 
    572  _sys_exit                  0x00018411   Gb    1  Code  De   0x8
    573  __I$use$semihosting        0x0001841d   Gb    1  Code  Hi 
    574  __use_no_semihosting_swi   0x0001841d   Gb    1  Code  Hi   0x2
    575  __semihosting_library_function
                                    0x0001841f   Gb    1  Code  Hi 
    576  am_bsp_low_power_init      0x000184f9   Gb    1  Code  Hi   0x16
    577  am_bsp_uart_printf_disable 0x00018511   Gb    1  Code  Hi   0x44
    578  am_bsp_uart_printf_enable  0x0001855d   Gb    1  Code  Hi   0x54
    579  am_bsp_uart_string_print   0x000185c9   Gb    1  Code  Hi   0x42
    580  am_hal_daxi_config         0x00018615   Gb    1  Code  Hi   0x4a
    581  am_hal_daxi_control        0x00018669   Gb    1  Code  Hi   0x138
    582  am_hal_delay_us            0x000187b9   Gb    1  Code  Hi   0x22
    583  am_hal_delay_us_status_change
                                    0x000187e5   Gb    1  Code  Hi   0x50
    584  am_hal_delay_us_status_check
                                    0x0001883d   Gb    1  Code  Hi   0x5c
    585  am_hal_fault_status_get    0x000188a1   Gb    1  Code  Hi   0x3e
    586  am_hal_gpio_pinconfig      0x000188e1   Gb    1  Code  Hi   0x4c
    587  am_hal_load_ui32           0x00018935   Gb    1  Code  Hi   0x6
    588  am_hal_mram_ds_init        0x00018941   Gb    1  Code  Hi   0xc
    589  am_hal_mram_info_read      0x00018951   Gb    1  Code  Hi   0x8c
    590  am_hal_pwrctrl_control     0x000189e5   Gb    1  Code  Hi   0x458
    591  am_hal_pwrctrl_low_power_init
                                    0x00018e41   Gb    1  Code  Hi   0x194
    592  am_hal_pwrctrl_mcu_memory_config
                                    0x00018ff9   Gb    1  Code  Hi   0x114
    593  am_hal_pwrctrl_periph_disable
                                    0x00019115   Gb    1  Code  Hi   0x66
    594  am_hal_pwrctrl_periph_enable
                                    0x00019185   Gb    1  Code  Hi   0x5e
    595  am_hal_pwrctrl_sram_config 0x000191ed   Gb    1  Code  Hi   0x8c
    596  am_hal_queue_item_add      0x00019281   Gb    1  Code  Hi   0xa4
    597  am_hal_queue_item_get      0x00019325   Gb    1  Code  Hi   0x98
    598  am_hal_rtc_osc_disable     0x000193bd   Gb    1  Code  Hi   0xe
    599  am_hal_timer_clear         0x000193d1   Gb    1  Code  Hi   0x5a
    600  am_hal_timer_clear_stop    0x00019431   Gb    1  Code  Hi   0x52
    601  am_hal_timer_default_config_set
                                    0x00019489   Gb    1  Code  Hi   0x1c
    602  am_hal_timer_interrupt_clear
                                    0x000194a5   Gb    1  Code  Hi   0x8
    603  am_hal_timer_interrupt_enable
                                    0x000194b1   Gb    1  Code  Hi   0x54
    604  am_hal_timer_interrupt_status_get
                                    0x00019511   Gb    1  Code  Hi   0x12
    605  am_hal_timer_read          0x00019529   Gb    1  Code  Hi   0x20
    606  am_hal_timer_reset_config  0x0001954d   Gb    1  Code  Hi   0xe2
    607  am_hal_timer_start         0x00019639   Gb    1  Code  Hi   0x3e
    608  am_hal_timer_stop          0x0001967d   Gb    1  Code  Hi   0x3a
    609  am_hal_uart_configure      0x000196bd   Gb    1  Code  Hi   0x166
    610  am_hal_uart_deinitialize   0x00019841   Gb    1  Code  Hi   0x2a
    611  am_hal_uart_initialize     0x00019871   Gb    1  Code  Hi   0x68
    612  am_hal_uart_power_control  0x000198e1   Gb    1  Code  Hi   0xd6
    613  am_hal_uart_transfer       0x000199bd   Gb    1  Code  Hi   0x38a
    614  am_hal_uart_tx_flush       0x00019d51   Gb    1  Code  Hi   0x6c
    615  am_hal_util_write_and_wait 0x00019dc1   Gb    1  Code  Hi   0x102
    616  am_util_faultisr_collect_data
                                    0x00019ee1   Gb    1  Code  Hi   0xa8
    617  am_util_stdio_printf       0x00019f91   Gb    1  Code  Hi   0x2c
    618  am_util_stdio_printf_init  0x00019fc5   Gb    1  Code  Hi   0x6
    619  am_util_stdio_terminal_clear
                                    0x00019fd1   Gb    1  Code  Hi   0x20
    620  am_util_stdio_vsprintf     0x0001a00d   Gb    1  Code  Hi   0x734
    621  internal_timer_config      0x0001a8a9   Gb    1  Code  Hi   0xdc
    622  main                       0x0001a989   Gb    1  Code  Hi   0x152
    623  prime_number               0x0001ae51   Gb    1  Code  Hi   0x3c
    624  timer_config_b1            0x0001ae8d   Gb    1  Code  Hi   0x1a4
    625  __aeabi_d2f                0x0001b161   Gb    1  Code  Hi 
    626  _d2f                       0x0001b161   Gb    1  Code  De   0x62
    627  __fpl_dnaninf              0x0001b1c3   Gb    1  Code  De   0x9c
    628  _fp_init                   0x0001b25f   Gb    1  Code  De   0xa
    629  __fplib_config_fpu_vfp     0x0001b267   Gb    1  Code  De 
    630  __fplib_config_pureend_doubles
                                    0x0001b267   Gb    1  Code  De 
    631  __fpl_fretinf              0x0001b269   Gb    1  Code  De   0xa
    632  __I$use$fp                 0x0001b272   Gb    1   --   De 
    633  ui32MCUAllowed             0x0001b274   Gb    1  Data  Hi   0x14
    634  ui32DSP0Allowed            0x0001b288   Gb    1  Data  Hi   0x14
    635  ui32DSP1Allowed            0x0001b29c   Gb    1  Data  Hi   0x14
    636  ui32SharedAccess           0x0001b2b0   Gb    1  Data  Hi   0x14
    637  sGlobalAccess              0x0001b2c4   Gb    1  Data  Hi   0x1c
    638  g_ui8HALcompiler           0x0001b2e6   Gb    1  Data  Hi   0xe
    639  g_ui32HALversion           0x0001b2f4   Gb    1  Data  Hi   0x4
    640  am_hal_gpio_pincfg_disabled
                                    0x0001b2f8   Gb    1  Data  Hi   0x4
    641  g_DefaultSRAMCfg           0x0001b30c   Gb    1  Data  Hi   0x4
    642  g_DefaultMcuMemCfg         0x0001b310   Gb    1  Data  Hi   0x6
    643  am_hal_pwrctrl_peripheral_control
                                    0x0001b318   Gb    1  Data  Hi   0x220
    644  g_am_hal_bootrom_helper    0x0001b564   Gb    1  Data  Hi   0x28
    645  am_hal_daxi_defaults       0x0001b58c   Gb    1  Data  Hi   0x3
    646  Region$$Table$$Base        0x0001b590   Gb    1   --   Hi 
    647  Region$$Table$$Limit       0x0001b5c0   Gb    1   --   Hi 
    648  g_pfnCharPrint             0x10000004   Gb    2  Data  Hi   0x4
    649  g_ui32HALflags             0x10000008   Gb    2  Data  Hi   0x4
    650  g_eCurrPwrMode             0x1000000c   Gb    2  Data  Hi   0x1
    651  g_bVDDCbuckboosted         0x1000000d   Gb    2  Data  Hi   0x1
    652  g_ui32TrimVer              0x10000010   Gb    2  Data  Hi   0x4
    653  g_ui32origSimobuckVDDFtrim 0x10000014   Gb    2  Data  Hi   0x4
    654  g_ui32origSimobuckVDDCtrim 0x10000018   Gb    2  Data  Hi   0x4
    655  g_ui32origMEMLDOActiveTrim 0x1000001c   Gb    2  Data  Hi   0x4
    656  g_ui32origSimobuckVDDStrim 0x10000020   Gb    2  Data  Hi   0x4
    657  storeAndWFIfuncRAM         0x10000024   Gb    2  Data  Hi   0x4
    658  program_mram_tmc_tcycrd    0x1000023c   Gb    2  Data  Hi   0x4
    659  recover_broken_mram_tmc_r_timer1
                                    0x10000240   Gb    2  Data  Hi   0x4
    660  g_AM_BSP_GPIO_COM_UART_TX  0x10000244   Gb    2  Data  Hi   0x4
    661  g_AM_BSP_GPIO_COM_UART_RX  0x10000248   Gb    2  Data  Hi   0x4
    662  gMspiXipState              0x1000024c   Gb    2  Data  Hi   0x4
    663  g_ui32BusWriteFlush        0x10000250   Gb    2  Data  Hi   0x4
    664  g_trim_reg_origvals        0x10000354   Gb    3  Data  Hi   0x54
    665  g_am_hal_uart_states       0x100003a8   Gb    3  Data  Hi   0x2b0
    666  __libspace_start           0x10000698   Gb    3  Data  De   0x60
    667  __temporary_stack_top$libspace
                                    0x100006f8   Gb    3  Data  De 
    668  psGlobalAccessPtr          0x10060000   Gb    4  Data  Hi   0x4
    669  ui32MCUClaimed             0x10060004   Gb    4  Data  Hi   0x14
    670  ui32DSP0Claimed            0x10060018   Gb    4  Data  Hi   0x14
    671  ui32DSP1Claimed            0x1006002c   Gb    4  Data  Hi   0x14


** Section #13 '.strtab' (SHT_STRTAB)
    Size   : 11288 bytes

            #  Offset String
        ====================================

            1      1: $d
            2      4: $t
            3      7: $d.realdata
            4     19: ../../../../../../third_party/prime_mpi/src/prime_mpi.c
            5     75: i.prime_number
            6     90: ..\src\am_resources.c
            7    112: ../src/am_resources.c
            8    134: .constdata
            9    145: __tagsym$$used
           10    160: RESOURCE_TABLE
           11    175: SHARED_RW
           12    185: ..\src\prime.c
           13    200: ../src/prime.c
           14    215: i.main
           15    222: ..\..\..\..\..\..\devices\am_devices_led.c
           16    265: ../../../../../../devices/am_devices_led.c
           17    308: ..\..\..\..\..\..\utils\am_util_delay.c
           18    348: ../../../../../../utils/am_util_delay.c
           19    388: ..\..\..\..\..\..\utils\am_util_faultisr.c
           20    431: .emb_text
           21    441: $v0
           22    445: ../../../../../../utils/am_util_faultisr.c
           23    488: i.am_util_faultisr_collect_data
           24    520: ../../../../../../utils/am_util_stdio.c
           25    560: i.am_util_stdio_printf
           26    583: i.am_util_stdio_printf_init
           27    611: i.am_util_stdio_terminal_clear
           28    642: i.am_util_stdio_vsprintf
           29    667: i.ndigits_in_u64
           30    684: ndigits_in_u64
           31    699: i.uint64_to_str
           32    715: uint64_to_str
           33    729: .bss
           34    734: g_prfbuf
           35    743: .data
           36    749: g_bTxtXlate
           37    761: ../keil/startup_keil.s
           38    784: STACK
           39    790: StackMem
           40    799: HEAP
           41    804: HeapMem
           42    812: RESET
           43    818: am_cryptosec_isr
           44    835: am_default_isr
           45    850: .text
           46    856: ..\..\..\..\..\mcu\apollo4b\hal\am_hal_global.c
           47    904: ../../../../../mcu/apollo4b/hal/am_hal_global.c
           48    952: ..\..\..\..\..\mcu\apollo4b\hal\mcu\am_hal_fault.c
           49   1003: ../../../../../mcu/apollo4b/hal/mcu/am_hal_fault.c
           50   1054: i.am_hal_fault_status_get
           51   1080: ..\..\..\..\..\mcu\apollo4b\hal\mcu\am_hal_utils.c
           52   1131: ../../../../../mcu/apollo4b/hal/mcu/am_hal_utils.c
           53   1182: i.am_hal_delay_us
           54   1200: i.am_hal_delay_us_status_change
           55   1232: i.am_hal_delay_us_status_check
           56   1263: i.am_hal_load_ui32
           57   1282: ..\..\..\..\..\mcu\apollo4b\hal\am_hal_gpio.c
           58   1328: ../../../../../mcu/apollo4b/hal/am_hal_gpio.c
           59   1374: i.am_hal_gpio_pinconfig
           60   1398: g_ui32DSpintbl
           61   1413: ..\..\..\..\..\mcu\apollo4b\hal\am_hal_pwrctrl.c
           62   1462: ../../../../../mcu/apollo4b/hal/am_hal_pwrctrl.c
           63   1511: i.VDDF_simobuck_boost
           64   1533: VDDF_simobuck_boost
           65   1553: i.am_hal_pwrctrl_control
           66   1578: i.am_hal_pwrctrl_low_power_init
           67   1610: i.am_hal_pwrctrl_mcu_memory_config
           68   1645: i.am_hal_pwrctrl_periph_disable
           69   1677: i.am_hal_pwrctrl_periph_enable
           70   1708: i.am_hal_pwrctrl_sram_config
           71   1737: i.am_hal_util_write_and_wait
           72   1766: i.buck_interval_check
           73   1788: buck_interval_check
           74   1808: storeAndWFIRAM
           75   1823: ..\am_bsp.c
           76   1835: ../am_bsp.c
           77   1847: i.am_bsp_low_power_init
           78   1871: i.am_bsp_uart_printf_disable
           79   1900: i.am_bsp_uart_printf_enable
           80   1928: i.am_bsp_uart_string_print
           81   1955: g_sBspUartConfig
           82   1972: g_ePrintInterface
           83   1990: g_sCOMUART
           84   2001: ..\..\..\..\..\mcu\apollo4b\hal\mcu\am_hal_bootrom_helper.c
           85   2061: ../../../../../mcu/apollo4b/hal/mcu/am_hal_bootrom_helper.c
           86   2121: ..\..\..\..\..\mcu\apollo4b\hal\mcu\am_hal_cachectrl.c
           87   2176: ../../../../../mcu/apollo4b/hal/mcu/am_hal_cachectrl.c
           88   2231: i.am_hal_daxi_config
           89   2252: i.am_hal_daxi_control
           90   2274: p64BAxiMem
           91   2285: ui32AxiBufPwrStatMask
           92   2307: ui32AxiBufPwrStatReg
           93   2328: gAxiMemRange
           94   2341: ..\..\..\..\..\mcu\apollo4b\hal\mcu\am_hal_interrupt.c
           95   2396: ../../../../../mcu/apollo4b/hal/mcu/am_hal_interrupt.c
           96   2451: ..\..\..\..\..\mcu\apollo4b\hal\mcu\am_hal_itm.c
           97   2500: ../../../../../mcu/apollo4b/hal/mcu/am_hal_itm.c
           98   2549: ..\..\..\..\..\mcu\apollo4b\hal\mcu\am_hal_mram.c
           99   2599: ../../../../../mcu/apollo4b/hal/mcu/am_hal_mram.c
          100   2649: i.am_hal_mram_ds_init
          101   2671: i.am_hal_mram_info_read
          102   2695: g_program_mram_tmc_tcycrd
          103   2721: g_recover_broken_mram_tmc_r_timer1
          104   2756: ..\..\..\..\..\mcu\apollo4b\hal\mcu\am_hal_rtc.c
          105   2805: ../../../../../mcu/apollo4b/hal/mcu/am_hal_rtc.c
          106   2854: i.am_hal_rtc_osc_disable
          107   2879: ..\..\..\..\..\mcu\apollo4b\hal\mcu\am_hal_tpiu.c
          108   2929: ../../../../../mcu/apollo4b/hal/mcu/am_hal_tpiu.c
          109   2979: ..\..\..\..\..\mcu\apollo4b\hal\mcu\am_hal_uart.c
          110   3029: ../../../../../mcu/apollo4b/hal/mcu/am_hal_uart.c
          111   3079: i.am_hal_uart_configure
          112   3103: i.am_hal_uart_deinitialize
          113   3130: i.am_hal_uart_initialize
          114   3155: i.am_hal_uart_power_control
          115   3183: i.am_hal_uart_transfer
          116   3206: i.am_hal_uart_tx_flush
          117   3229: i.nonblocking_read
          118   3248: nonblocking_read
          119   3265: ..\..\..\..\..\mcu\apollo4b\hal\am_hal_dcu.c
          120   3310: ../../../../../mcu/apollo4b/hal/am_hal_dcu.c
          121   3355: ..\..\..\..\..\mcu\apollo4b\hal\am_hal_pin.c
          122   3400: ../../../../../mcu/apollo4b/hal/am_hal_pin.c
          123   3445: ..\..\..\..\..\mcu\apollo4b\hal\am_hal_timer.c
          124   3492: ../../../../../mcu/apollo4b/hal/am_hal_timer.c
          125   3539: i.am_hal_timer_clear
          126   3560: i.am_hal_timer_clear_stop
          127   3586: i.am_hal_timer_default_config_set
          128   3620: i.am_hal_timer_interrupt_clear
          129   3651: i.am_hal_timer_interrupt_enable
          130   3683: i.am_hal_timer_interrupt_status_get
          131   3719: i.am_hal_timer_read
          132   3739: i.am_hal_timer_reset_config
          133   3767: i.am_hal_timer_start
          134   3788: i.am_hal_timer_stop
          135   3808: i.internal_timer_config
          136   3832: i.timer_config_b1
          137   3850: TimerFlags
          138   3861: ..\am_bsp_pins.c
          139   3878: ../am_bsp_pins.c
          140   3895: ..\..\..\..\..\mcu\apollo4b\hal\mcu\am_hal_mspi.c
          141   3945: ../../../../../mcu/apollo4b/hal/mcu/am_hal_mspi.c
          142   3995: ..\..\..\..\..\mcu\apollo4b\hal\mcu\am_hal_sysctrl.c
          143   4048: ../../../../../mcu/apollo4b/hal/mcu/am_hal_sysctrl.c
          144   4101: ..\..\..\..\..\mcu\apollo4b\hal\am_hal_queue.c
          145   4148: ../../../../../mcu/apollo4b/hal/am_hal_queue.c
          146   4195: i.am_hal_queue_item_add
          147   4219: i.am_hal_queue_item_get
          148   4243: ..\..\..\..\..\mcu\apollo4b\hal\mcu\am_hal_cmdq.c
          149   4293: ../../../../../mcu/apollo4b/hal/mcu/am_hal_cmdq.c
          150   4343: dc.s
          151   4348: ../clib/longlong.s
          152   4367: ../clib/heapaux.c
          153   4385: ../clib/angel/startup.s
          154   4409: !!!main
          155   4417: ../clib/angel/handlers.s
          156   4442: !!handler_copy
          157   4457: ../fplib/d2f.s
          158   4472: x$fpl$d2f
          159   4482: ../clib/angel/kernel.s
          160   4505: .ARM.Collect$$rtentry$$00000000
          161   4537: ../fplib/dnaninf.s
          162   4556: x$fpl$dnaninf
          163   4570: ../fplib/fretinf.s
          164   4589: x$fpl$fretinf
          165   4603: ../fplib/usenofp.s
          166   4622: x$fpl$usenofp
          167   4636: .ARM.Collect$$rtentry$$00000002
          168   4668: .ARM.Collect$$rtentry$$00000009
          169   4700: .ARM.Collect$$rtentry$$0000000A
          170   4732: .ARM.Collect$$rtentry$$0000000C
          171   4764: .ARM.Collect$$rtentry$$0000000D
          172   4796: .ARM.Collect$$rtentry$$00000004
          173   4828: ../clib/angel/sys.s
          174   4848: ../clib/stdlib.c
          175   4865: ../clib/angel/boardlib.s
          176   4890: ../clib/libinit.s
          177   4908: .ARM.Collect$$libinit$$00000000
          178   4940: .ARM.Collect$$rtexit$$00000000
          179   4971: .ARM.Collect$$libinit$$00000001
          180   5003: .ARM.Collect$$libinit$$00000004
          181   5035: .ARM.Collect$$libinit$$0000000A
          182   5067: .ARM.Collect$$libinit$$0000000C
          183   5099: .ARM.Collect$$libinit$$0000000E
          184   5131: .ARM.Collect$$libinit$$00000011
          185   5163: .ARM.Collect$$libinit$$00000013
          186   5195: .ARM.Collect$$libinit$$00000015
          187   5227: .ARM.Collect$$libinit$$00000017
          188   5259: .ARM.Collect$$libinit$$00000019
          189   5291: .ARM.Collect$$libinit$$0000001B
          190   5323: .ARM.Collect$$libinit$$0000001D
          191   5355: .ARM.Collect$$libinit$$0000001F
          192   5387: .ARM.Collect$$libinit$$00000021
          193   5419: .ARM.Collect$$libinit$$00000023
          194   5451: .ARM.Collect$$libinit$$00000025
          195   5483: .ARM.Collect$$libinit$$0000002C
          196   5515: .ARM.Collect$$libinit$$0000002E
          197   5547: .ARM.Collect$$libinit$$00000030
          198   5579: .ARM.Collect$$libinit$$00000032
          199   5611: .ARM.Collect$$libinit$$00000033
          200   5643: .ARM.Collect$$rtexit$$00000002
          201   5674: .ARM.Collect$$rtexit$$00000003
          202   5705: .ARM.Collect$$rtexit$$00000004
          203   5736: ../clib/armsys.c
          204   5753: ../fplib/fpinit.s
          205   5771: x$fpl$fpinit
          206   5784: ../clib/angel/sysapp.c
          207   5807: .ARM.Collect$$libshutdown$$00000000
          208   5843: ../clib/heapalloc.c
          209   5863: ../clib/signal.c
          210   5880: .ARM.Collect$$libshutdown$$00000002
          211   5916: .ARM.Collect$$libshutdown$$00000004
          212   5952: .ARM.Collect$$libshutdown$$00000007
          213   5988: .ARM.Collect$$libshutdown$$0000000A
          214   6024: .ARM.Collect$$libshutdown$$0000000C
          215   6060: .ARM.Collect$$libshutdown$$0000000F
          216   6096: .ARM.Collect$$libshutdown$$00000010
          217   6132: ../clib/angel/rt.s
          218   6151: ../clib/signal.s
          219   6168: ../clib/angel/dczerorl2.s
          220   6194: !!dczerorl2
          221   6206: ../clib/angel/scatter.s
          222   6230: !!!scatter
          223   6241: !!handler_zi
          224   6254: BuildAttributes$$THM_ISAv4$E$P$D$K$B$S$7EM$VFPi3$EXTD16$VFPS$VFMA$PE$A:L22UL41UL21$X:L11$S22US41US21$IEEE1$IW$USESV6$~STKCKD$USESV7$~SHL$OTIME$ROPI$EBA8$UX$STANDARDLIB$REQ8$PRES8$EABIv2
          225   6440: __ARM_use_no_argv
          226   6458: __Vectors
          227   6468: __Patchable
          228   6480: Reset_Handler
          229   6494: NMI_Handler
          230   6506: MemManage_Handler
          231   6524: BusFault_Handler
          232   6541: UsageFault_Handler
          233   6560: SecureFault_Handler
          234   6580: SVC_Handler
          235   6592: DebugMon_Handler
          236   6609: PendSV_Handler
          237   6624: SysTick_Handler
          238   6640: am_adc_isr
          239   6651: am_audadc0_isr
          240   6666: am_brownout_isr
          241   6682: am_cachecpu_isr
          242   6698: am_clkgen_isr
          243   6712: am_ctimer_isr
          244   6726: am_disp_isr
          245   6738: am_dsi_isr
          246   6749: am_dspi2s0_isr
          247   6764: am_dspi2s1_isr
          248   6779: am_dspi2s2_isr
          249   6794: am_dspi2s3_isr
          250   6809: am_gpio0_001f_isr
          251   6827: am_gpio0_203f_isr
          252   6845: am_gpio0_405f_isr
          253   6863: am_gpio0_607f_isr
          254   6881: am_gpio1_001f_isr
          255   6899: am_gpio1_203f_isr
          256   6917: am_gpio1_405f_isr
          257   6935: am_gpio1_607f_isr
          258   6953: am_gpu_isr
          259   6964: am_iomaster0_isr
          260   6981: am_iomaster1_isr
          261   6998: am_iomaster2_isr
          262   7015: am_iomaster3_isr
          263   7032: am_iomaster4_isr
          264   7049: am_iomaster5_isr
          265   7066: am_iomaster6_isr
          266   7083: am_iomaster7_isr
          267   7100: am_ioslave_acc_isr
          268   7119: am_ioslave_ios_isr
          269   7138: am_mspi0_isr
          270   7151: am_mspi1_isr
          271   7164: am_mspi2_isr
          272   7177: am_pdm0_isr
          273   7189: am_pdm1_isr
          274   7201: am_pdm2_isr
          275   7213: am_pdm3_isr
          276   7225: am_rtc_isr
          277   7236: am_sdio_isr
          278   7248: am_stimer_cmpr0_isr
          279   7268: am_stimer_cmpr1_isr
          280   7288: am_stimer_cmpr2_isr
          281   7308: am_stimer_cmpr3_isr
          282   7328: am_stimer_cmpr4_isr
          283   7348: am_stimer_cmpr5_isr
          284   7368: am_stimer_cmpr6_isr
          285   7388: am_stimer_cmpr7_isr
          286   7408: am_stimerof_isr
          287   7424: am_timer00_isr
          288   7439: am_timer01_isr
          289   7454: am_timer02_isr
          290   7469: am_timer03_isr
          291   7484: am_timer04_isr
          292   7499: am_timer05_isr
          293   7514: am_timer06_isr
          294   7529: am_timer07_isr
          295   7544: am_timer08_isr
          296   7559: am_timer09_isr
          297   7574: am_timer10_isr
          298   7589: am_timer11_isr
          299   7604: am_timer12_isr
          300   7619: am_timer13_isr
          301   7634: am_timer14_isr
          302   7649: am_timer15_isr
          303   7664: am_uart1_isr
          304   7677: am_uart2_isr
          305   7690: am_uart3_isr
          306   7703: am_uart_isr
          307   7715: am_usb_isr
          308   7726: am_vcomp_isr
          309   7739: am_watchdog_isr
          310   7755: __main
          311   7762: __scatterload
          312   7776: __scatterload_rt2
          313   7794: __scatterload_rt2_thumb_only
          314   7823: __scatterload_null
          315   7842: __decompress
          316   7855: __decompress1
          317   7869: __scatterload_copy
          318   7888: __scatterload_zeroinit
          319   7911: __rt_lib_init
          320   7925: __rt_lib_init_fp_1
          321   7944: __rt_lib_init_alloca_1
          322   7967: __rt_lib_init_argv_1
          323   7988: __rt_lib_init_atexit_1
          324   8011: __rt_lib_init_clock_1
          325   8033: __rt_lib_init_cpp_1
          326   8053: __rt_lib_init_exceptions_1
          327   8080: __rt_lib_init_fp_trap_1
          328   8104: __rt_lib_init_getenv_1
          329   8127: __rt_lib_init_heap_1
          330   8148: __rt_lib_init_lc_collate_1
          331   8175: __rt_lib_init_lc_ctype_1
          332   8200: __rt_lib_init_lc_monetary_1
          333   8228: __rt_lib_init_lc_numeric_1
          334   8255: __rt_lib_init_lc_time_1
          335   8279: __rt_lib_init_preinit_1
          336   8303: __rt_lib_init_rand_1
          337   8324: __rt_lib_init_return
          338   8345: __rt_lib_init_signal_1
          339   8368: __rt_lib_init_stdio_1
          340   8390: __rt_lib_init_user_alloc_1
          341   8417: __rt_lib_shutdown
          342   8435: __rt_lib_shutdown_cpp_1
          343   8459: __rt_lib_shutdown_fp_trap_1
          344   8487: __rt_lib_shutdown_heap_1
          345   8512: __rt_lib_shutdown_return
          346   8537: __rt_lib_shutdown_signal_1
          347   8564: __rt_lib_shutdown_stdio_1
          348   8590: __rt_lib_shutdown_user_alloc_1
          349   8621: __rt_entry
          350   8632: __rt_entry_presh_1
          351   8651: __rt_entry_sh
          352   8665: __rt_entry_li
          353   8679: __rt_entry_postsh_1
          354   8699: __rt_entry_main
          355   8715: __rt_entry_postli_1
          356   8735: __rt_exit
          357   8745: __rt_exit_ls
          358   8758: __rt_exit_prels_1
          359   8776: __rt_exit_exit
          360   8791: HardFault_Handler
          361   8809: getStackedReg
          362   8823: am_hal_triple_read
          363   8842: am_hal_interrupt_master_enable
          364   8873: am_hal_interrupt_master_disable
          365   8905: am_hal_interrupt_master_set
          366   8933: __user_initial_stackheap
          367   8958: __use_two_region_memory
          368   8982: __rt_heap_escrow$2region
          369   9007: __rt_heap_expand$2region
          370   9032: __user_setup_stackheap
          371   9055: exit
          372   9060: __user_libspace
          373   9076: __user_perproc_libspace
          374   9100: __user_perthread_libspace
          375   9126: _sys_exit
          376   9136: __I$use$semihosting
          377   9156: __use_no_semihosting_swi
          378   9181: __semihosting_library_function
          379   9212: am_bsp_low_power_init
          380   9234: am_bsp_uart_printf_disable
          381   9261: am_bsp_uart_printf_enable
          382   9287: am_bsp_uart_string_print
          383   9312: am_hal_daxi_config
          384   9331: am_hal_daxi_control
          385   9351: am_hal_delay_us
          386   9367: am_hal_delay_us_status_change
          387   9397: am_hal_delay_us_status_check
          388   9426: am_hal_fault_status_get
          389   9450: am_hal_gpio_pinconfig
          390   9472: am_hal_load_ui32
          391   9489: am_hal_mram_ds_init
          392   9509: am_hal_mram_info_read
          393   9531: am_hal_pwrctrl_control
          394   9554: am_hal_pwrctrl_low_power_init
          395   9584: am_hal_pwrctrl_mcu_memory_config
          396   9617: am_hal_pwrctrl_periph_disable
          397   9647: am_hal_pwrctrl_periph_enable
          398   9676: am_hal_pwrctrl_sram_config
          399   9703: am_hal_queue_item_add
          400   9725: am_hal_queue_item_get
          401   9747: am_hal_rtc_osc_disable
          402   9770: am_hal_timer_clear
          403   9789: am_hal_timer_clear_stop
          404   9813: am_hal_timer_default_config_set
          405   9845: am_hal_timer_interrupt_clear
          406   9874: am_hal_timer_interrupt_enable
          407   9904: am_hal_timer_interrupt_status_get
          408   9938: am_hal_timer_read
          409   9956: am_hal_timer_reset_config
          410   9982: am_hal_timer_start
          411  10001: am_hal_timer_stop
          412  10019: am_hal_uart_configure
          413  10041: am_hal_uart_deinitialize
          414  10066: am_hal_uart_initialize
          415  10089: am_hal_uart_power_control
          416  10115: am_hal_uart_transfer
          417  10136: am_hal_uart_tx_flush
          418  10157: am_hal_util_write_and_wait
          419  10184: am_util_faultisr_collect_data
          420  10214: am_util_stdio_printf
          421  10235: am_util_stdio_printf_init
          422  10261: am_util_stdio_terminal_clear
          423  10290: am_util_stdio_vsprintf
          424  10313: internal_timer_config
          425  10335: main
          426  10340: prime_number
          427  10353: timer_config_b1
          428  10369: __aeabi_d2f
          429  10381: _d2f
          430  10386: __fpl_dnaninf
          431  10400: _fp_init
          432  10409: __fplib_config_fpu_vfp
          433  10432: __fplib_config_pureend_doubles
          434  10463: __fpl_fretinf
          435  10477: __I$use$fp
          436  10488: ui32MCUAllowed
          437  10503: ui32DSP0Allowed
          438  10519: ui32DSP1Allowed
          439  10535: ui32SharedAccess
          440  10552: sGlobalAccess
          441  10566: g_ui8HALcompiler
          442  10583: g_ui32HALversion
          443  10600: am_hal_gpio_pincfg_disabled
          444  10628: g_DefaultSRAMCfg
          445  10645: g_DefaultMcuMemCfg
          446  10664: am_hal_pwrctrl_peripheral_control
          447  10698: g_am_hal_bootrom_helper
          448  10722: am_hal_daxi_defaults
          449  10743: Region$$Table$$Base
          450  10763: Region$$Table$$Limit
          451  10784: g_pfnCharPrint
          452  10799: g_ui32HALflags
          453  10814: g_eCurrPwrMode
          454  10829: g_bVDDCbuckboosted
          455  10848: g_ui32TrimVer
          456  10862: g_ui32origSimobuckVDDFtrim
          457  10889: g_ui32origSimobuckVDDCtrim
          458  10916: g_ui32origMEMLDOActiveTrim
          459  10943: g_ui32origSimobuckVDDStrim
          460  10970: storeAndWFIfuncRAM
          461  10989: program_mram_tmc_tcycrd
          462  11013: recover_broken_mram_tmc_r_timer1
          463  11046: g_AM_BSP_GPIO_COM_UART_TX
          464  11072: g_AM_BSP_GPIO_COM_UART_RX
          465  11098: gMspiXipState
          466  11112: g_ui32BusWriteFlush
          467  11132: g_trim_reg_origvals
          468  11152: g_am_hal_uart_states
          469  11173: __libspace_start
          470  11190: __temporary_stack_top$libspace
          471  11221: psGlobalAccessPtr
          472  11239: ui32MCUClaimed
          473  11254: ui32DSP0Claimed
          474  11270: ui32DSP1Claimed
          475  11286: 
          476  11287: 


** Section #14 '.note' (SHT_NOTE)
    Size   : 32 bytes (alignment 4)


** Section #15 '.comment' (SHT_PROGBITS)
    Size   : 33328 bytes


** Section #16 '.shstrtab' (SHT_STRTAB)
    Size   : 164 bytes

            #  Offset String
        ====================================

            1      1: MCU_MRAM
            2     10: MCU_TCM
            3     18: SHARED_SRAM
            4     30: .debug_abbrev
            5     44: .debug_frame
            6     57: .debug_info
            7     69: .debug_line
            8     81: .debug_loc
            9     92: .debug_macinfo
           10    107: .debug_pubnames
           11    123: .symtab
           12    131: .strtab
           13    139: .note
           14    145: .comment
           15    154: .shstrtab


