
========================================================================

** ELF Header Information

    File Name: bin\mpu_mspi_ddr_octal_psram_example.axf

    Machine class: ELFCLASS32 (32-bit)
    Data encoding: ELFDATA2LSB (Little endian)
    Header version: EV_CURRENT (Current version)
    Operating System ABI: none
    ABI Version: 0
    File Type: ET_EXEC (Executable) (2)
    Machine: EM_ARM (ARM)

    Image Entry point: 0x00018239
    Flags: EF_ARM_HASENTRY + EF_ARM_ABI_FLOAT_HARD (0x05000402)

    ARM ELF revision: 5 (ABI version 2)

    Conforms to Hard float procedure-call standard

    Built with
    Component: ARM Compiler 5.06 update 6 (build 750) Tool: armasm [4d35ec]
    Component: ARM Compiler 5.06 update 6 (build 750) Tool: armlink [4d35ed]

    Header size: 52 bytes (0x34)
    Program header entry size: 32 bytes (0x20)
    Section header entry size: 40 bytes (0x28)

    Program header entries: 1
    Section header entries: 17

    Program header offset: 1954176 (0x001dd180)
    Section header offset: 1954208 (0x001dd1a0)

    Section header string table index: 16

========================================================================

** Program header #0 (PT_LOAD) [PF_X + PF_W + PF_R + PF_ARM_ENTRY]
    Size : 54200 bytes (30724 bytes in file)
    Virtual address: 0x00018000 (Alignment 16)


========================================================================

** Section #1 'MCU_MRAM' (SHT_PROGBITS) [SHF_ALLOC + SHF_EXECINSTR]
    Size   : 30072 bytes (alignment 4)
    Address: 0x00018000

    $d
    RESET
    __Vectors
        0x00018000:    10005db0    .]..    DCD    268459440
        0x00018004:    00018201    ....    DCD    98817
        0x00018008:    0001821f    ....    DCD    98847
        0x0001800c:    0001821d    ....    DCD    98845
        0x00018010:    00018631    1...    DCD    99889
        0x00018014:    00018223    #...    DCD    98851
        0x00018018:    00018225    %...    DCD    98853
        0x0001801c:    00018227    '...    DCD    98855
        0x00018020:    00000000    ....    DCD    0
        0x00018024:    00000000    ....    DCD    0
        0x00018028:    00000000    ....    DCD    0
        0x0001802c:    00018229    )...    DCD    98857
        0x00018030:    0001822b    +...    DCD    98859
        0x00018034:    00000000    ....    DCD    0
        0x00018038:    0001822d    -...    DCD    98861
        0x0001803c:    0001822f    /...    DCD    98863
        0x00018040:    00018231    1...    DCD    98865
        0x00018044:    00018231    1...    DCD    98865
        0x00018048:    00018231    1...    DCD    98865
        0x0001804c:    00018231    1...    DCD    98865
        0x00018050:    00018231    1...    DCD    98865
        0x00018054:    00018231    1...    DCD    98865
        0x00018058:    00018231    1...    DCD    98865
        0x0001805c:    00018231    1...    DCD    98865
        0x00018060:    00018231    1...    DCD    98865
        0x00018064:    00018231    1...    DCD    98865
        0x00018068:    00018231    1...    DCD    98865
        0x0001806c:    00018231    1...    DCD    98865
        0x00018070:    00018231    1...    DCD    98865
        0x00018074:    00018231    1...    DCD    98865
        0x00018078:    00018231    1...    DCD    98865
        0x0001807c:    00018231    1...    DCD    98865
        0x00018080:    00018231    1...    DCD    98865
        0x00018084:    00018231    1...    DCD    98865
        0x00018088:    00018231    1...    DCD    98865
        0x0001808c:    00018231    1...    DCD    98865
        0x00018090:    0001d50d    ....    DCD    120077
        0x00018094:    00018231    1...    DCD    98865
        0x00018098:    00018231    1...    DCD    98865
        0x0001809c:    00018231    1...    DCD    98865
        0x000180a0:    00018231    1...    DCD    98865
        0x000180a4:    00018231    1...    DCD    98865
        0x000180a8:    00018231    1...    DCD    98865
        0x000180ac:    00018231    1...    DCD    98865
        0x000180b0:    00018231    1...    DCD    98865
        0x000180b4:    00018231    1...    DCD    98865
        0x000180b8:    00018231    1...    DCD    98865
        0x000180bc:    00018231    1...    DCD    98865
        0x000180c0:    0001d535    5...    DCD    120117
        0x000180c4:    00018231    1...    DCD    98865
        0x000180c8:    00018231    1...    DCD    98865
        0x000180cc:    00018231    1...    DCD    98865
        0x000180d0:    00018231    1...    DCD    98865
        0x000180d4:    00018231    1...    DCD    98865
        0x000180d8:    00018231    1...    DCD    98865
        0x000180dc:    00018231    1...    DCD    98865
        0x000180e0:    00018231    1...    DCD    98865
        0x000180e4:    00018231    1...    DCD    98865
        0x000180e8:    00018231    1...    DCD    98865
        0x000180ec:    00018231    1...    DCD    98865
        0x000180f0:    00018231    1...    DCD    98865
        0x000180f4:    00018231    1...    DCD    98865
        0x000180f8:    00018231    1...    DCD    98865
        0x000180fc:    00018231    1...    DCD    98865
        0x00018100:    00018231    1...    DCD    98865
        0x00018104:    00018231    1...    DCD    98865
        0x00018108:    00018231    1...    DCD    98865
        0x0001810c:    00018231    1...    DCD    98865
        0x00018110:    00018231    1...    DCD    98865
        0x00018114:    00018231    1...    DCD    98865
        0x00018118:    00018231    1...    DCD    98865
        0x0001811c:    00018231    1...    DCD    98865
        0x00018120:    00018231    1...    DCD    98865
        0x00018124:    00018231    1...    DCD    98865
        0x00018128:    00018231    1...    DCD    98865
        0x0001812c:    00018231    1...    DCD    98865
        0x00018130:    00018231    1...    DCD    98865
        0x00018134:    00018231    1...    DCD    98865
        0x00018138:    00018231    1...    DCD    98865
        0x0001813c:    00018231    1...    DCD    98865
        0x00018140:    00018231    1...    DCD    98865
        0x00018144:    00018231    1...    DCD    98865
        0x00018148:    00018231    1...    DCD    98865
        0x0001814c:    00018231    1...    DCD    98865
        0x00018150:    00018231    1...    DCD    98865
        0x00018154:    00018231    1...    DCD    98865
        0x00018158:    00018231    1...    DCD    98865
        0x0001815c:    00018231    1...    DCD    98865
        0x00018160:    00018231    1...    DCD    98865
        0x00018164:    00018231    1...    DCD    98865
        0x00018168:    00018231    1...    DCD    98865
        0x0001816c:    00018231    1...    DCD    98865
        0x00018170:    00018231    1...    DCD    98865
        0x00018174:    00018231    1...    DCD    98865
        0x00018178:    00018231    1...    DCD    98865
        0x0001817c:    00018231    1...    DCD    98865
        0x00018180:    00018231    1...    DCD    98865
        0x00018184:    00018231    1...    DCD    98865
        0x00018188:    00018231    1...    DCD    98865
        0x0001818c:    00018231    1...    DCD    98865
    __Patchable
        0x00018190:    00000000    ....    DCD    0
        0x00018194:    00000000    ....    DCD    0
        0x00018198:    00000000    ....    DCD    0
        0x0001819c:    00000000    ....    DCD    0
        0x000181a0:    00000000    ....    DCD    0
        0x000181a4:    00000000    ....    DCD    0
        0x000181a8:    00000000    ....    DCD    0
        0x000181ac:    00000000    ....    DCD    0
        0x000181b0:    00000000    ....    DCD    0
        0x000181b4:    00000000    ....    DCD    0
        0x000181b8:    00000000    ....    DCD    0
        0x000181bc:    00000000    ....    DCD    0
        0x000181c0:    00000000    ....    DCD    0
        0x000181c4:    00000000    ....    DCD    0
        0x000181c8:    00000000    ....    DCD    0
        0x000181cc:    00000000    ....    DCD    0
        0x000181d0:    00000000    ....    DCD    0
        0x000181d4:    00000000    ....    DCD    0
        0x000181d8:    00000000    ....    DCD    0
        0x000181dc:    00000000    ....    DCD    0
        0x000181e0:    00000000    ....    DCD    0
        0x000181e4:    00000000    ....    DCD    0
        0x000181e8:    00000000    ....    DCD    0
        0x000181ec:    00000000    ....    DCD    0
        0x000181f0:    00000000    ....    DCD    0
        0x000181f4:    00000000    ....    DCD    0
        0x000181f8:    00000000    ....    DCD    0
        0x000181fc:    00000000    ....    DCD    0
    $t
    $v0
    Reset_Handler
        0x00018200:    f64e5088    N..P    MOV      r0,#0xed88
        0x00018204:    f2ce0000    ....    MOVT     r0,#0xe000
        0x00018208:    6801        .h      LDR      r1,[r0,#0]
        0x0001820a:    f4410170    A.p.    ORR      r1,r1,#0xf00000
        0x0001820e:    6001        .`      STR      r1,[r0,#0]
        0x00018210:    f3bf8f4f    ..O.    DSB      
        0x00018214:    f3bf8f6f    ..o.    ISB      
        0x00018218:    4806        .H      LDR      r0,[pc,#24] ; [0x18234] = 0x18239
        0x0001821a:    4700        .G      BX       r0
    HardFault_Handler
        0x0001821c:    e7fe        ..      B        HardFault_Handler ; 0x1821c
    NMI_Handler
        0x0001821e:    e7fe        ..      B        NMI_Handler ; 0x1821e
        0x00018220:    e7fe        ..      B        0x18220 ; NMI_Handler + 2
    BusFault_Handler
        0x00018222:    e7fe        ..      B        BusFault_Handler ; 0x18222
    UsageFault_Handler
        0x00018224:    e7fe        ..      B        UsageFault_Handler ; 0x18224
    SecureFault_Handler
        0x00018226:    e7fe        ..      B        SecureFault_Handler ; 0x18226
    SVC_Handler
        0x00018228:    e7fe        ..      B        SVC_Handler ; 0x18228
    DebugMon_Handler
        0x0001822a:    e7fe        ..      B        DebugMon_Handler ; 0x1822a
    PendSV_Handler
        0x0001822c:    e7fe        ..      B        PendSV_Handler ; 0x1822c
    SysTick_Handler
        0x0001822e:    e7fe        ..      B        SysTick_Handler ; 0x1822e
    am_cryptosec_isr
    am_default_isr
    am_adc_isr
    am_audadc0_isr
    am_brownout_isr
    am_cachecpu_isr
    am_clkgen_isr
    am_ctimer_isr
    am_disp_isr
    am_dsi_isr
    am_dspi2s0_isr
    am_dspi2s1_isr
    am_dspi2s2_isr
    am_dspi2s3_isr
    am_gpio0_001f_isr
    am_gpio0_203f_isr
    am_gpio0_405f_isr
    am_gpio0_607f_isr
    am_gpio1_001f_isr
    am_gpio1_203f_isr
    am_gpio1_405f_isr
    am_gpio1_607f_isr
    am_gpu_isr
    am_iomaster0_isr
    am_iomaster1_isr
    am_iomaster2_isr
    am_iomaster3_isr
    am_iomaster4_isr
    am_iomaster5_isr
    am_iomaster6_isr
    am_iomaster7_isr
    am_ioslave_acc_isr
    am_ioslave_ios_isr
    am_mspi1_isr
    am_mspi2_isr
    am_pdm0_isr
    am_pdm1_isr
    am_pdm2_isr
    am_pdm3_isr
    am_rtc_isr
    am_sdio_isr
    am_stimer_cmpr1_isr
    am_stimer_cmpr2_isr
    am_stimer_cmpr3_isr
    am_stimer_cmpr4_isr
    am_stimer_cmpr5_isr
    am_stimer_cmpr6_isr
    am_stimer_cmpr7_isr
    am_stimerof_isr
    am_timer00_isr
    am_timer01_isr
    am_timer02_isr
    am_timer03_isr
    am_timer04_isr
    am_timer05_isr
    am_timer06_isr
    am_timer07_isr
    am_timer08_isr
    am_timer09_isr
    am_timer10_isr
    am_timer11_isr
    am_timer12_isr
    am_timer13_isr
    am_timer14_isr
    am_timer15_isr
    am_uart1_isr
    am_uart2_isr
    am_uart3_isr
    am_uart_isr
    am_usb_isr
    am_vcomp_isr
    am_watchdog_isr
        0x00018230:    e7fe        ..      B        am_cryptosec_isr ; 0x18230
    $d
        0x00018232:    0000        ..      DCW    0
        0x00018234:    00018239    9...    DCD    98873
    $t
    !!!main
    __main
        0x00018238:    f000f802    ....    BL       __scatterload ; 0x18240
        0x0001823c:    f000f86a    ..j.    BL       __rt_entry ; 0x18314
    !!!scatter
    __scatterload
    __scatterload_rt2
    __scatterload_rt2_thumb_only
        0x00018240:    a00a        ..      ADR      r0,{pc}+0x2c ; 0x1826c
        0x00018242:    e8900c00    ....    LDM      r0,{r10,r11}
        0x00018246:    4482        .D      ADD      r10,r10,r0
        0x00018248:    4483        .D      ADD      r11,r11,r0
        0x0001824a:    f1aa0701    ....    SUB      r7,r10,#1
    __scatterload_null
        0x0001824e:    45da        .E      CMP      r10,r11
        0x00018250:    d101        ..      BNE      0x18256 ; __scatterload_null + 8
        0x00018252:    f000f85f    .._.    BL       __rt_entry ; 0x18314
        0x00018256:    f2af0e09    ....    ADR      lr,{pc}-7 ; 0x1824f
        0x0001825a:    e8ba000f    ....    LDM      r10!,{r0-r3}
        0x0001825e:    f0130f01    ....    TST      r3,#1
        0x00018262:    bf18        ..      IT       NE
        0x00018264:    1afb        ..      SUBNE    r3,r7,r3
        0x00018266:    f0430301    C...    ORR      r3,r3,#1
        0x0001826a:    4718        .G      BX       r3
    $d
        0x0001826c:    000072dc    .r..    DCD    29404
        0x00018270:    0000730c    .s..    DCD    29452
    $t
    !!dczerorl2
    __decompress
    __decompress1
        0x00018274:    440a        .D      ADD      r2,r2,r1
        0x00018276:    f04f0c00    O...    MOV      r12,#0
        0x0001827a:    f8103b01    ...;    LDRB     r3,[r0],#1
        0x0001827e:    f0130407    ....    ANDS     r4,r3,#7
        0x00018282:    bf08        ..      IT       EQ
        0x00018284:    f8104b01    ...K    LDRBEQ   r4,[r0],#1
        0x00018288:    111d        ..      ASRS     r5,r3,#4
        0x0001828a:    bf08        ..      IT       EQ
        0x0001828c:    f8105b01    ...[    LDRBEQ   r5,[r0],#1
        0x00018290:    1e64        d.      SUBS     r4,r4,#1
        0x00018292:    d005        ..      BEQ      0x182a0 ; __decompress + 44
        0x00018294:    f8106b01    ...k    LDRB     r6,[r0],#1
        0x00018298:    1e64        d.      SUBS     r4,r4,#1
        0x0001829a:    f8016b01    ...k    STRB     r6,[r1],#1
        0x0001829e:    d1f9        ..      BNE      0x18294 ; __decompress + 32
        0x000182a0:    f0130f08    ....    TST      r3,#8
        0x000182a4:    bf1e        ..      ITTT     NE
        0x000182a6:    f8104b01    ...K    LDRBNE   r4,[r0],#1
        0x000182aa:    1cad        ..      ADDNE    r5,r5,#2
        0x000182ac:    1b0c        ..      SUBNE    r4,r1,r4
        0x000182ae:    d109        ..      BNE      0x182c4 ; __decompress + 80
        0x000182b0:    1e6d        m.      SUBS     r5,r5,#1
        0x000182b2:    bf58        X.      IT       PL
        0x000182b4:    f801cb01    ....    STRBPL   r12,[r1],#1
        0x000182b8:    d5fa        ..      BPL      0x182b0 ; __decompress + 60
        0x000182ba:    e005        ..      B        0x182c8 ; __decompress + 84
        0x000182bc:    f8146b01    ...k    LDRB     r6,[r4],#1
        0x000182c0:    f8016b01    ...k    STRB     r6,[r1],#1
        0x000182c4:    1e6d        m.      SUBS     r5,r5,#1
        0x000182c6:    d5f9        ..      BPL      0x182bc ; __decompress + 72
        0x000182c8:    4291        .B      CMP      r1,r2
        0x000182ca:    d3d6        ..      BCC      0x1827a ; __decompress + 6
        0x000182cc:    4770        pG      BX       lr
        0x000182ce:    0000        ..      MOVS     r0,r0
    !!handler_copy
    __scatterload_copy
        0x000182d0:    3a10        .:      SUBS     r2,r2,#0x10
        0x000182d2:    bf24        $.      ITT      CS
        0x000182d4:    c878        x.      LDMCS    r0!,{r3-r6}
        0x000182d6:    c178        x.      STMCS    r1!,{r3-r6}
        0x000182d8:    d8fa        ..      BHI      __scatterload_copy ; 0x182d0
        0x000182da:    0752        R.      LSLS     r2,r2,#29
        0x000182dc:    bf24        $.      ITT      CS
        0x000182de:    c830        0.      LDMCS    r0!,{r4,r5}
        0x000182e0:    c130        0.      STMCS    r1!,{r4,r5}
        0x000182e2:    bf44        D.      ITT      MI
        0x000182e4:    6804        .h      LDRMI    r4,[r0,#0]
        0x000182e6:    600c        .`      STRMI    r4,[r1,#0]
        0x000182e8:    4770        pG      BX       lr
        0x000182ea:    0000        ..      MOVS     r0,r0
    !!handler_zi
    __scatterload_zeroinit
        0x000182ec:    2300        .#      MOVS     r3,#0
        0x000182ee:    2400        .$      MOVS     r4,#0
        0x000182f0:    2500        .%      MOVS     r5,#0
        0x000182f2:    2600        .&      MOVS     r6,#0
        0x000182f4:    3a10        .:      SUBS     r2,r2,#0x10
        0x000182f6:    bf28        (.      IT       CS
        0x000182f8:    c178        x.      STMCS    r1!,{r3-r6}
        0x000182fa:    d8fb        ..      BHI      0x182f4 ; __scatterload_zeroinit + 8
        0x000182fc:    0752        R.      LSLS     r2,r2,#29
        0x000182fe:    bf28        (.      IT       CS
        0x00018300:    c130        0.      STMCS    r1!,{r4,r5}
        0x00018302:    bf48        H.      IT       MI
        0x00018304:    600b        .`      STRMI    r3,[r1,#0]
        0x00018306:    4770        pG      BX       lr
    .ARM.Collect$$libinit$$00000000
    __rt_lib_init
        0x00018308:    b51f        ..      PUSH     {r0-r4,lr}
    .ARM.Collect$$libinit$$00000001
    __rt_lib_init_fp_1
        0x0001830a:    f006fe86    ....    BL       _fp_init ; 0x1f01a
    .ARM.Collect$$libinit$$00000004
    .ARM.Collect$$libinit$$0000000A
    .ARM.Collect$$libinit$$0000000C
    .ARM.Collect$$libinit$$0000000E
    .ARM.Collect$$libinit$$00000011
    .ARM.Collect$$libinit$$00000013
    .ARM.Collect$$libinit$$00000015
    .ARM.Collect$$libinit$$00000017
    .ARM.Collect$$libinit$$00000019
    .ARM.Collect$$libinit$$0000001B
    .ARM.Collect$$libinit$$0000001D
    .ARM.Collect$$libinit$$0000001F
    .ARM.Collect$$libinit$$00000021
    .ARM.Collect$$libinit$$00000023
    .ARM.Collect$$libinit$$00000025
    .ARM.Collect$$libinit$$0000002C
    .ARM.Collect$$libinit$$0000002E
    .ARM.Collect$$libinit$$00000030
    .ARM.Collect$$libinit$$00000032
    .ARM.Collect$$libinit$$00000033
    __rt_lib_init_alloca_1
    __rt_lib_init_argv_1
    __rt_lib_init_atexit_1
    __rt_lib_init_clock_1
    __rt_lib_init_cpp_1
    __rt_lib_init_exceptions_1
    __rt_lib_init_fp_trap_1
    __rt_lib_init_getenv_1
    __rt_lib_init_heap_1
    __rt_lib_init_lc_collate_1
    __rt_lib_init_lc_ctype_1
    __rt_lib_init_lc_monetary_1
    __rt_lib_init_lc_numeric_1
    __rt_lib_init_lc_time_1
    __rt_lib_init_preinit_1
    __rt_lib_init_rand_1
    __rt_lib_init_return
    __rt_lib_init_signal_1
    __rt_lib_init_stdio_1
    __rt_lib_init_user_alloc_1
        0x0001830e:    bd1f        ..      POP      {r0-r4,pc}
    .ARM.Collect$$libshutdown$$00000000
    __rt_lib_shutdown
        0x00018310:    b510        ..      PUSH     {r4,lr}
    .ARM.Collect$$libshutdown$$00000002
    .ARM.Collect$$libshutdown$$00000004
    .ARM.Collect$$libshutdown$$00000007
    .ARM.Collect$$libshutdown$$0000000A
    .ARM.Collect$$libshutdown$$0000000C
    .ARM.Collect$$libshutdown$$0000000F
    .ARM.Collect$$libshutdown$$00000010
    __rt_lib_shutdown_cpp_1
    __rt_lib_shutdown_fp_trap_1
    __rt_lib_shutdown_heap_1
    __rt_lib_shutdown_return
    __rt_lib_shutdown_signal_1
    __rt_lib_shutdown_stdio_1
    __rt_lib_shutdown_user_alloc_1
        0x00018312:    bd10        ..      POP      {r4,pc}
    .ARM.Collect$$rtentry$$00000000
    .ARM.Collect$$rtentry$$00000002
    .ARM.Collect$$rtentry$$00000004
    __rt_entry
    __rt_entry_presh_1
    __rt_entry_sh
        0x00018314:    f000f951    ..Q.    BL       __user_setup_stackheap ; 0x185ba
        0x00018318:    4611        .F      MOV      r1,r2
    .ARM.Collect$$rtentry$$00000009
    .ARM.Collect$$rtentry$$0000000A
    __rt_entry_li
    __rt_entry_postsh_1
        0x0001831a:    f7fffff5    ....    BL       __rt_lib_init ; 0x18308
    .ARM.Collect$$rtentry$$0000000C
    .ARM.Collect$$rtentry$$0000000D
    __rt_entry_main
    __rt_entry_postli_1
        0x0001831e:    f005fe3d    ..=.    BL       main ; 0x1df9c
        0x00018322:    f000f96f    ..o.    BL       exit ; 0x18604
    .ARM.Collect$$rtexit$$00000000
    __rt_exit
        0x00018326:    b403        ..      PUSH     {r0,r1}
    .ARM.Collect$$rtexit$$00000002
    .ARM.Collect$$rtexit$$00000003
    __rt_exit_ls
    __rt_exit_prels_1
        0x00018328:    f7fffff2    ....    BL       __rt_lib_shutdown ; 0x18310
    .ARM.Collect$$rtexit$$00000004
    __rt_exit_exit
        0x0001832c:    bc03        ..      POP      {r0,r1}
        0x0001832e:    f000f977    ..w.    BL       _sys_exit ; 0x18620
        0x00018332:    0000        ..      MOVS     r0,r0
    .emb_text
    $v0
    am_hal_triple_read
        0x00018334:    b412        ..      PUSH     {r1,r4}
        0x00018336:    f3ef8410    ....    MRS      r4,PRIMASK
        0x0001833a:    b672        r.      CPSID    i
        0x0001833c:    6801        .h      LDR      r1,[r0,#0]
        0x0001833e:    6802        .h      LDR      r2,[r0,#0]
        0x00018340:    6803        .h      LDR      r3,[r0,#0]
        0x00018342:    f3848810    ....    MSR      PRIMASK,r4
        0x00018346:    bc11        ..      POP      {r0,r4}
        0x00018348:    6001        .`      STR      r1,[r0,#0]
        0x0001834a:    6042        B`      STR      r2,[r0,#4]
        0x0001834c:    6083        .`      STR      r3,[r0,#8]
        0x0001834e:    4770        pG      BX       lr
    .emb_text
    $v0
    am_hal_interrupt_master_enable
        0x00018350:    f3ef8010    ....    MRS      r0,PRIMASK
        0x00018354:    b662        b.      CPSIE    i
        0x00018356:    4770        pG      BX       lr
    am_hal_interrupt_master_disable
        0x00018358:    f3ef8010    ....    MRS      r0,PRIMASK
        0x0001835c:    b672        r.      CPSID    i
        0x0001835e:    4770        pG      BX       lr
    am_hal_interrupt_master_set
        0x00018360:    f3808810    ....    MSR      PRIMASK,r0
        0x00018364:    4770        pG      BX       lr
        0x00018366:    0000        ..      MOVS     r0,r0
    .text
    $v0
    __user_initial_stackheap
        0x00018368:    4802        .H      LDR      r0,[pc,#8] ; [0x18374] = 0x10004db0
        0x0001836a:    4903        .I      LDR      r1,[pc,#12] ; [0x18378] = 0x10005db0
        0x0001836c:    4a01        .J      LDR      r2,[pc,#4] ; [0x18374] = 0x10004db0
        0x0001836e:    4b03        .K      LDR      r3,[pc,#12] ; [0x1837c] = 0x10004db0
        0x00018370:    4770        pG      BX       lr
    $d
        0x00018372:    0000        ..      DCW    0
        0x00018374:    10004db0    .M..    DCD    268455344
        0x00018378:    10005db0    .]..    DCD    268459440
        0x0001837c:    10004db0    .M..    DCD    268455344
    $t
    .text
    __aeabi_llsl
    _ll_shift_l
        0x00018380:    f1b20320    .. .    SUBS     r3,r2,#0x20
        0x00018384:    d50a        ..      BPL      0x1839c ; __aeabi_llsl + 28
        0x00018386:    f1c20320    .. .    RSB      r3,r2,#0x20
        0x0001838a:    fa01f102    ....    LSL      r1,r1,r2
        0x0001838e:    fa20f303     ...    LSR      r3,r0,r3
        0x00018392:    fa00f002    ....    LSL      r0,r0,r2
        0x00018396:    ea410103    A...    ORR      r1,r1,r3
        0x0001839a:    4770        pG      BX       lr
        0x0001839c:    fa00f103    ....    LSL      r1,r0,r3
        0x000183a0:    f04f0000    O...    MOV      r0,#0
        0x000183a4:    4770        pG      BX       lr
    .text
    __aeabi_llsr
    _ll_ushift_r
        0x000183a6:    f1b20320    .. .    SUBS     r3,r2,#0x20
        0x000183aa:    d50a        ..      BPL      0x183c2 ; __aeabi_llsr + 28
        0x000183ac:    f1c20320    .. .    RSB      r3,r2,#0x20
        0x000183b0:    fa20f002     ...    LSR      r0,r0,r2
        0x000183b4:    fa01f303    ....    LSL      r3,r1,r3
        0x000183b8:    fa21f102    !...    LSR      r1,r1,r2
        0x000183bc:    ea400003    @...    ORR      r0,r0,r3
        0x000183c0:    4770        pG      BX       lr
        0x000183c2:    fa21f003    !...    LSR      r0,r1,r3
        0x000183c6:    f04f0100    O...    MOV      r1,#0
        0x000183ca:    4770        pG      BX       lr
    .text
    memcmp
        0x000183cc:    ea400301    @...    ORR      r3,r0,r1
        0x000183d0:    b510        ..      PUSH     {r4,lr}
        0x000183d2:    079b        ..      LSLS     r3,r3,#30
        0x000183d4:    d10f        ..      BNE      0x183f6 ; memcmp + 42
        0x000183d6:    2a04        .*      CMP      r2,#4
        0x000183d8:    d30d        ..      BCC      0x183f6 ; memcmp + 42
        0x000183da:    c810        ..      LDM      r0!,{r4}
        0x000183dc:    c908        ..      LDM      r1!,{r3}
        0x000183de:    1f12        ..      SUBS     r2,r2,#4
        0x000183e0:    429c        .B      CMP      r4,r3
        0x000183e2:    d0f8        ..      BEQ      0x183d6 ; memcmp + 10
        0x000183e4:    ba20         .      REV      r0,r4
        0x000183e6:    ba19        ..      REV      r1,r3
        0x000183e8:    4288        .B      CMP      r0,r1
        0x000183ea:    d901        ..      BLS      0x183f0 ; memcmp + 36
        0x000183ec:    2001        .       MOVS     r0,#1
        0x000183ee:    bd10        ..      POP      {r4,pc}
        0x000183f0:    f04f30ff    O..0    MOV      r0,#0xffffffff
        0x000183f4:    bd10        ..      POP      {r4,pc}
        0x000183f6:    b11a        ..      CBZ      r2,0x18400 ; memcmp + 52
        0x000183f8:    07d3        ..      LSLS     r3,r2,#31
        0x000183fa:    d003        ..      BEQ      0x18404 ; memcmp + 56
        0x000183fc:    1c52        R.      ADDS     r2,r2,#1
        0x000183fe:    e007        ..      B        0x18410 ; memcmp + 68
        0x00018400:    2000        .       MOVS     r0,#0
        0x00018402:    bd10        ..      POP      {r4,pc}
        0x00018404:    f8103b01    ...;    LDRB     r3,[r0],#1
        0x00018408:    f8114b01    ...K    LDRB     r4,[r1],#1
        0x0001840c:    1b1b        ..      SUBS     r3,r3,r4
        0x0001840e:    d107        ..      BNE      0x18420 ; memcmp + 84
        0x00018410:    f8103b01    ...;    LDRB     r3,[r0],#1
        0x00018414:    f8114b01    ...K    LDRB     r4,[r1],#1
        0x00018418:    1b1b        ..      SUBS     r3,r3,r4
        0x0001841a:    d101        ..      BNE      0x18420 ; memcmp + 84
        0x0001841c:    1e92        ..      SUBS     r2,r2,#2
        0x0001841e:    d1f1        ..      BNE      0x18404 ; memcmp + 56
        0x00018420:    4618        .F      MOV      r0,r3
        0x00018422:    bd10        ..      POP      {r4,pc}
    .text
    __aeabi_memcpy
    __rt_memcpy
        0x00018424:    2a03        .*      CMP      r2,#3
        0x00018426:    f2408030    @.0.    BLS.W    _memcpy_lastbytes ; 0x1848a
        0x0001842a:    f0100c03    ....    ANDS     r12,r0,#3
        0x0001842e:    f0008015    ....    BEQ.W    0x1845c ; __aeabi_memcpy + 56
        0x00018432:    f8113b01    ...;    LDRB     r3,[r1],#1
        0x00018436:    f1bc0f02    ....    CMP      r12,#2
        0x0001843a:    4462        bD      ADD      r2,r2,r12
        0x0001843c:    bf98        ..      IT       LS
        0x0001843e:    f811cb01    ....    LDRBLS   r12,[r1],#1
        0x00018442:    f8003b01    ...;    STRB     r3,[r0],#1
        0x00018446:    bf38        8.      IT       CC
        0x00018448:    f8113b01    ...;    LDRBCC   r3,[r1],#1
        0x0001844c:    f1a20204    ....    SUB      r2,r2,#4
        0x00018450:    bf98        ..      IT       LS
        0x00018452:    f800cb01    ....    STRBLS   r12,[r0],#1
        0x00018456:    bf38        8.      IT       CC
        0x00018458:    f8003b01    ...;    STRBCC   r3,[r0],#1
        0x0001845c:    f0110303    ....    ANDS     r3,r1,#3
        0x00018460:    f0008057    ..W.    BEQ.W    __aeabi_memcpy4 ; 0x18512
        0x00018464:    3a08        .:      SUBS     r2,r2,#8
        0x00018466:    f0c08008    ....    BCC.W    0x1847a ; __aeabi_memcpy + 86
        0x0001846a:    f8513b04    Q..;    LDR      r3,[r1],#4
        0x0001846e:    3a08        .:      SUBS     r2,r2,#8
        0x00018470:    f851cb04    Q...    LDR      r12,[r1],#4
        0x00018474:    e8a01008    ....    STM      r0!,{r3,r12}
        0x00018478:    e7f5        ..      B        0x18466 ; __aeabi_memcpy + 66
        0x0001847a:    1d12        ..      ADDS     r2,r2,#4
        0x0001847c:    bf5c        \.      ITT      PL
        0x0001847e:    f8513b04    Q..;    LDRPL    r3,[r1],#4
        0x00018482:    f8403b04    @..;    STRPL    r3,[r0],#4
        0x00018486:    f3af8000    ....    NOP.W    
    _memcpy_lastbytes
        0x0001848a:    07d2        ..      LSLS     r2,r2,#31
        0x0001848c:    bf24        $.      ITT      CS
        0x0001848e:    f8113b01    ...;    LDRBCS   r3,[r1],#1
        0x00018492:    f811cb01    ....    LDRBCS   r12,[r1],#1
        0x00018496:    bf48        H.      IT       MI
        0x00018498:    f8112b01    ...+    LDRBMI   r2,[r1],#1
        0x0001849c:    bf24        $.      ITT      CS
        0x0001849e:    f8003b01    ...;    STRBCS   r3,[r0],#1
        0x000184a2:    f800cb01    ....    STRBCS   r12,[r0],#1
        0x000184a6:    bf48        H.      IT       MI
        0x000184a8:    f8002b01    ...+    STRBMI   r2,[r0],#1
        0x000184ac:    4770        pG      BX       lr
    .text
    __aeabi_memset
        0x000184ae:    f00203ff    ....    AND      r3,r2,#0xff
        0x000184b2:    ea432203    C.."    ORR      r2,r3,r3,LSL #8
        0x000184b6:    ea424202    B..B    ORR      r2,r2,r2,LSL #16
        0x000184ba:    f000b85e    ..^.    B.W      _memset ; 0x1857a
    .text
    __aeabi_memclr4
    __aeabi_memclr8
    __rt_memclr_w
        0x000184be:    f04f0200    O...    MOV      r2,#0
    _memset_w
        0x000184c2:    b500        ..      PUSH     {lr}
        0x000184c4:    4613        .F      MOV      r3,r2
        0x000184c6:    4694        .F      MOV      r12,r2
        0x000184c8:    4696        .F      MOV      lr,r2
        0x000184ca:    3920         9      SUBS     r1,r1,#0x20
        0x000184cc:    bf22        ".      ITTT     CS
        0x000184ce:    e8a0500c    ...P    STMCS    r0!,{r2,r3,r12,lr}
        0x000184d2:    e8a0500c    ...P    STMCS    r0!,{r2,r3,r12,lr}
        0x000184d6:    f1b10120    .. .    SUBSCS   r1,r1,#0x20
        0x000184da:    f4bfaff7    ....    BCS.W    0x184cc ; _memset_w + 10
        0x000184de:    0709        ..      LSLS     r1,r1,#28
        0x000184e0:    bf28        (.      IT       CS
        0x000184e2:    e8a0500c    ...P    STMCS    r0!,{r2,r3,r12,lr}
        0x000184e6:    bf48        H.      IT       MI
        0x000184e8:    c00c        ..      STMMI    r0!,{r2,r3}
        0x000184ea:    f85deb04    ]...    POP      {lr}
        0x000184ee:    0089        ..      LSLS     r1,r1,#2
        0x000184f0:    bf28        (.      IT       CS
        0x000184f2:    f8402b04    @..+    STRCS    r2,[r0],#4
        0x000184f6:    bf08        ..      IT       EQ
        0x000184f8:    4770        pG      BXEQ     lr
        0x000184fa:    bf48        H.      IT       MI
        0x000184fc:    f8202b02     ..+    STRHMI   r2,[r0],#2
        0x00018500:    f0114f80    ...O    TST      r1,#0x40000000
        0x00018504:    bf18        ..      IT       NE
        0x00018506:    f8002b01    ...+    STRBNE   r2,[r0],#1
        0x0001850a:    4770        pG      BX       lr
    .text
    __use_two_region_memory
        0x0001850c:    4770        pG      BX       lr
    __rt_heap_escrow$2region
        0x0001850e:    4770        pG      BX       lr
    __rt_heap_expand$2region
        0x00018510:    4770        pG      BX       lr
    .text
    __aeabi_memcpy4
    __aeabi_memcpy8
    __rt_memcpy_w
        0x00018512:    b510        ..      PUSH     {r4,lr}
        0x00018514:    3a20         :      SUBS     r2,r2,#0x20
        0x00018516:    f0c0800b    ....    BCC.W    0x18530 ; __aeabi_memcpy4 + 30
        0x0001851a:    e8b15018    ...P    LDM      r1!,{r3,r4,r12,lr}
        0x0001851e:    3a20         :      SUBS     r2,r2,#0x20
        0x00018520:    e8a05018    ...P    STM      r0!,{r3,r4,r12,lr}
        0x00018524:    e8b15018    ...P    LDM      r1!,{r3,r4,r12,lr}
        0x00018528:    e8a05018    ...P    STM      r0!,{r3,r4,r12,lr}
        0x0001852c:    f4bfaff5    ....    BCS.W    0x1851a ; __aeabi_memcpy4 + 8
        0x00018530:    ea5f7c02    _..|    LSLS     r12,r2,#28
        0x00018534:    bf24        $.      ITT      CS
        0x00018536:    e8b15018    ...P    LDMCS    r1!,{r3,r4,r12,lr}
        0x0001853a:    e8a05018    ...P    STMCS    r0!,{r3,r4,r12,lr}
        0x0001853e:    bf44        D.      ITT      MI
        0x00018540:    c918        ..      LDMMI    r1!,{r3,r4}
        0x00018542:    c018        ..      STMMI    r0!,{r3,r4}
        0x00018544:    e8bd4010    ...@    POP      {r4,lr}
        0x00018548:    ea5f7c82    _..|    LSLS     r12,r2,#30
        0x0001854c:    bf24        $.      ITT      CS
        0x0001854e:    f8513b04    Q..;    LDRCS    r3,[r1],#4
        0x00018552:    f8403b04    @..;    STRCS    r3,[r0],#4
        0x00018556:    bf08        ..      IT       EQ
        0x00018558:    4770        pG      BXEQ     lr
    _memcpy_lastbytes_aligned
        0x0001855a:    07d2        ..      LSLS     r2,r2,#31
        0x0001855c:    bf28        (.      IT       CS
        0x0001855e:    f8313b02    1..;    LDRHCS   r3,[r1],#2
        0x00018562:    bf48        H.      IT       MI
        0x00018564:    f8112b01    ...+    LDRBMI   r2,[r1],#1
        0x00018568:    bf28        (.      IT       CS
        0x0001856a:    f8203b02     ..;    STRHCS   r3,[r0],#2
        0x0001856e:    bf48        H.      IT       MI
        0x00018570:    f8002b01    ...+    STRBMI   r2,[r0],#1
        0x00018574:    4770        pG      BX       lr
    .text
    __aeabi_memclr
    __rt_memclr
        0x00018576:    f04f0200    O...    MOV      r2,#0
    _memset
        0x0001857a:    2904        .)      CMP      r1,#4
        0x0001857c:    f0c08012    ....    BCC.W    0x185a4 ; _memset + 42
        0x00018580:    f0100c03    ....    ANDS     r12,r0,#3
        0x00018584:    f43faf9d    ?...    BEQ.W    _memset_w ; 0x184c2
        0x00018588:    f1cc0c04    ....    RSB      r12,r12,#4
        0x0001858c:    f1bc0f02    ....    CMP      r12,#2
        0x00018590:    bf18        ..      IT       NE
        0x00018592:    f8002b01    ...+    STRBNE   r2,[r0],#1
        0x00018596:    bfa8        ..      IT       GE
        0x00018598:    f8202b02     ..+    STRHGE   r2,[r0],#2
        0x0001859c:    eba1010c    ....    SUB      r1,r1,r12
        0x000185a0:    f7ffbf8f    ....    B.W      _memset_w ; 0x184c2
        0x000185a4:    ea5f7cc1    _..|    LSLS     r12,r1,#31
        0x000185a8:    bf24        $.      ITT      CS
        0x000185aa:    f8002b01    ...+    STRBCS   r2,[r0],#1
        0x000185ae:    f8002b01    ...+    STRBCS   r2,[r0],#1
        0x000185b2:    bf48        H.      IT       MI
        0x000185b4:    f8002b01    ...+    STRBMI   r2,[r0],#1
        0x000185b8:    4770        pG      BX       lr
    .text
    __user_setup_stackheap
        0x000185ba:    4675        uF      MOV      r5,lr
        0x000185bc:    f000f82c    ..,.    BL       __user_libspace ; 0x18618
        0x000185c0:    46ae        .F      MOV      lr,r5
        0x000185c2:    0005        ..      MOVS     r5,r0
        0x000185c4:    4669        iF      MOV      r1,sp
        0x000185c6:    4653        SF      MOV      r3,r10
        0x000185c8:    f0200007     ...    BIC      r0,r0,#7
        0x000185cc:    4685        .F      MOV      sp,r0
        0x000185ce:    b018        ..      ADD      sp,sp,#0x60
        0x000185d0:    b520         .      PUSH     {r5,lr}
        0x000185d2:    f7fffec9    ....    BL       __user_initial_stackheap ; 0x18368
        0x000185d6:    e8bd4020    .. @    POP      {r5,lr}
        0x000185da:    f04f0600    O...    MOV      r6,#0
        0x000185de:    f04f0700    O...    MOV      r7,#0
        0x000185e2:    f04f0800    O...    MOV      r8,#0
        0x000185e6:    f04f0b00    O...    MOV      r11,#0
        0x000185ea:    f0210107    !...    BIC      r1,r1,#7
        0x000185ee:    46ac        .F      MOV      r12,r5
        0x000185f0:    e8ac09c0    ....    STM      r12!,{r6-r8,r11}
        0x000185f4:    e8ac09c0    ....    STM      r12!,{r6-r8,r11}
        0x000185f8:    e8ac09c0    ....    STM      r12!,{r6-r8,r11}
        0x000185fc:    e8ac09c0    ....    STM      r12!,{r6-r8,r11}
        0x00018600:    468d        .F      MOV      sp,r1
        0x00018602:    4770        pG      BX       lr
    .text
    exit
        0x00018604:    b510        ..      PUSH     {r4,lr}
        0x00018606:    4604        .F      MOV      r4,r0
        0x00018608:    f3af8000    ....    NOP.W    
        0x0001860c:    4620         F      MOV      r0,r4
        0x0001860e:    e8bd4010    ...@    POP      {r4,lr}
        0x00018612:    f7ffbe88    ....    B.W      __rt_exit ; 0x18326
        0x00018616:    0000        ..      MOVS     r0,r0
    .text
    __user_libspace
    __user_perproc_libspace
    __user_perthread_libspace
        0x00018618:    4800        .H      LDR      r0,[pc,#0] ; [0x1861c] = 0x10004d4c
        0x0001861a:    4770        pG      BX       lr
    $d
        0x0001861c:    10004d4c    LM..    DCD    268455244
    $t
    .text
    _sys_exit
        0x00018620:    4901        .I      LDR      r1,[pc,#4] ; [0x18628] = 0x20026
        0x00018622:    2018        .       MOVS     r0,#0x18
        0x00018624:    beab        ..      BKPT     #0xab
        0x00018626:    e7fe        ..      B        0x18626 ; _sys_exit + 6
    $d
        0x00018628:    00020026    &...    DCD    131110
    $t
    .text
    __I$use$semihosting
    __use_no_semihosting_swi
        0x0001862c:    4770        pG      BX       lr
    .text
    __semihosting_library_function
        0x0001862e:    0000        ..      MOVS     r0,r0
    i.MemManage_Handler
    MemManage_Handler
        0x00018630:    b570        p.      PUSH     {r4-r6,lr}
        0x00018632:    482f        /H      LDR      r0,[pc,#188] ; [0x186f0] = 0xe000ed34
        0x00018634:    6804        .h      LDR      r4,[r0,#0]
        0x00018636:    482e        .H      LDR      r0,[pc,#184] ; [0x186f0] = 0xe000ed34
        0x00018638:    380c        .8      SUBS     r0,r0,#0xc
        0x0001863a:    7805        .x      LDRB     r5,[r0,#0]
        0x0001863c:    7005        .p      STRB     r5,[r0,#0]
        0x0001863e:    f0050080    ....    AND      r0,r5,#0x80
        0x00018642:    2800        .(      CMP      r0,#0
        0x00018644:    d052        R.      BEQ      0x186ec ; MemManage_Handler + 188
        0x00018646:    482b        +H      LDR      r0,[pc,#172] ; [0x186f4] = 0x10160000
        0x00018648:    4284        .B      CMP      r4,r0
        0x0001864a:    d32c        ,.      BCC      0x186a6 ; MemManage_Handler + 118
        0x0001864c:    482a        *H      LDR      r0,[pc,#168] ; [0x186f8] = 0x101d8000
        0x0001864e:    4284        .B      CMP      r4,r0
        0x00018650:    d229        ).      BCS      0x186a6 ; MemManage_Handler + 118
        0x00018652:    f04f4090    O..@    MOV      r0,#0x48000000
        0x00018656:    6d40        @m      LDR      r0,[r0,#0x54]
        0x00018658:    f0200001     ...    BIC      r0,r0,#1
        0x0001865c:    1c40        @.      ADDS     r0,r0,#1
        0x0001865e:    f04f4190    O..A    MOV      r1,#0x48000000
        0x00018662:    6548        He      STR      r0,[r1,#0x54]
        0x00018664:    4608        .F      MOV      r0,r1
        0x00018666:    6d40        @m      LDR      r0,[r0,#0x54]
        0x00018668:    f0200002     ...    BIC      r0,r0,#2
        0x0001866c:    1c80        ..      ADDS     r0,r0,#2
        0x0001866e:    6548        He      STR      r0,[r1,#0x54]
        0x00018670:    a022        ".      ADR      r0,{pc}+0x8c ; 0x186fc
        0x00018672:    f004ffad    ....    BL       am_util_stdio_printf ; 0x1d5d0
        0x00018676:    4928        (I      LDR      r1,[pc,#160] ; [0x18718] = 0x10000090
        0x00018678:    7808        .x      LDRB     r0,[r1,#0]
        0x0001867a:    f005fe7d    ..}.    BL       mpu_region_disable ; 0x1e378
        0x0001867e:    4927        'I      LDR      r1,[pc,#156] ; [0x1871c] = 0x100000a0
        0x00018680:    7808        .x      LDRB     r0,[r1,#0]
        0x00018682:    f005fe79    ..y.    BL       mpu_region_disable ; 0x1e378
        0x00018686:    4926        &I      LDR      r1,[pc,#152] ; [0x18720] = 0x100000b0
        0x00018688:    7808        .x      LDRB     r0,[r1,#0]
        0x0001868a:    f005fe81    ....    BL       mpu_region_enable ; 0x1e390
        0x0001868e:    4925        %I      LDR      r1,[pc,#148] ; [0x18724] = 0x10000070
        0x00018690:    7808        .x      LDRB     r0,[r1,#0]
        0x00018692:    f005fe7d    ..}.    BL       mpu_region_enable ; 0x1e390
        0x00018696:    4924        $I      LDR      r1,[pc,#144] ; [0x18728] = 0x10000080
        0x00018698:    7808        .x      LDRB     r0,[r1,#0]
        0x0001869a:    f005fe79    ..y.    BL       mpu_region_enable ; 0x1e390
        0x0001869e:    a023        #.      ADR      r0,{pc}+0x8e ; 0x1872c
        0x000186a0:    f004ff96    ....    BL       am_util_stdio_printf ; 0x1d5d0
        0x000186a4:    e022        ".      B        0x186ec ; MemManage_Handler + 188
        0x000186a6:    4829        )H      LDR      r0,[pc,#164] ; [0x1874c] = 0x10060000
        0x000186a8:    4284        .B      CMP      r4,r0
        0x000186aa:    d302        ..      BCC      0x186b2 ; MemManage_Handler + 130
        0x000186ac:    4811        .H      LDR      r0,[pc,#68] ; [0x186f4] = 0x10160000
        0x000186ae:    4284        .B      CMP      r4,r0
        0x000186b0:    d305        ..      BCC      0x186be ; MemManage_Handler + 142
        0x000186b2:    f1b45fa0    ..._    CMP      r4,#0x14000000
        0x000186b6:    d319        ..      BCC      0x186ec ; MemManage_Handler + 188
        0x000186b8:    f1b45fc0    ..._    CMP      r4,#0x18000000
        0x000186bc:    d216        ..      BCS      0x186ec ; MemManage_Handler + 188
        0x000186be:    4918        .I      LDR      r1,[pc,#96] ; [0x18720] = 0x100000b0
        0x000186c0:    7808        .x      LDRB     r0,[r1,#0]
        0x000186c2:    f005fe59    ..Y.    BL       mpu_region_disable ; 0x1e378
        0x000186c6:    4917        .I      LDR      r1,[pc,#92] ; [0x18724] = 0x10000070
        0x000186c8:    7808        .x      LDRB     r0,[r1,#0]
        0x000186ca:    f005fe55    ..U.    BL       mpu_region_disable ; 0x1e378
        0x000186ce:    4916        .I      LDR      r1,[pc,#88] ; [0x18728] = 0x10000080
        0x000186d0:    7808        .x      LDRB     r0,[r1,#0]
        0x000186d2:    f005fe51    ..Q.    BL       mpu_region_disable ; 0x1e378
        0x000186d6:    4910        .I      LDR      r1,[pc,#64] ; [0x18718] = 0x10000090
        0x000186d8:    7808        .x      LDRB     r0,[r1,#0]
        0x000186da:    f005fe59    ..Y.    BL       mpu_region_enable ; 0x1e390
        0x000186de:    490f        .I      LDR      r1,[pc,#60] ; [0x1871c] = 0x100000a0
        0x000186e0:    7808        .x      LDRB     r0,[r1,#0]
        0x000186e2:    f005fe55    ..U.    BL       mpu_region_enable ; 0x1e390
        0x000186e6:    a01a        ..      ADR      r0,{pc}+0x6a ; 0x18750
        0x000186e8:    f004ff72    ..r.    BL       am_util_stdio_printf ; 0x1d5d0
        0x000186ec:    bd70        p.      POP      {r4-r6,pc}
    $d
        0x000186ee:    0000        ..      DCW    0
        0x000186f0:    e000ed34    4...    DCD    3758157108
        0x000186f4:    10160000    ....    DCD    269877248
        0x000186f8:    101d8000    ....    DCD    270368768
        0x000186fc:    73756c46    Flus    DCD    1937075270
        0x00018700:    41442068    h DA    DCD    1094983784
        0x00018704:    61204958    XI a    DCD    1629505880
        0x00018708:    4420646e    nd D    DCD    1142973550
        0x0001870c:    796d6d75    ummy    DCD    2037214581
        0x00018710:    61655220     Rea    DCD    1634030112
        0x00018714:    00000a64    d...    DCD    2660
        0x00018718:    10000090    ....    DCD    268435600
        0x0001871c:    100000a0    ....    DCD    268435616
        0x00018720:    100000b0    ....    DCD    268435632
        0x00018724:    10000070    p...    DCD    268435568
        0x00018728:    10000080    ....    DCD    268435584
        0x0001872c:    62616e45    Enab    DCD    1650552389
        0x00018730:    4d20656c    le M    DCD    1293968748
        0x00018734:    66205550    PU f    DCD    1713395024
        0x00018738:    5020726f    or P    DCD    1344303727
        0x0001873c:    4d415253    SRAM    DCD    1296126547
        0x00018740:    646e6120     and    DCD    1684955424
        0x00018744:    52535320     SSR    DCD    1381192480
        0x00018748:    000a4d41    AM..    DCD    675137
        0x0001874c:    10060000    ....    DCD    268828672
        0x00018750:    62616e45    Enab    DCD    1650552389
        0x00018754:    4d20656c    le M    DCD    1293968748
        0x00018758:    66205550    PU f    DCD    1713395024
        0x0001875c:    4420726f    or D    DCD    1142977135
        0x00018760:    52205053    SP R    DCD    1377849427
        0x00018764:    000a4d41    AM..    DCD    675137
    $t
    i.VDDF_simobuck_boost
    VDDF_simobuck_boost
        0x00018768:    e92d43f8    -..C    PUSH     {r3-r9,lr}
        0x0001876c:    4d31        1M      LDR      r5,[pc,#196] ; [0x18834] = 0x10000200
        0x0001876e:    4681        .F      MOV      r9,r0
        0x00018770:    4c31        1L      LDR      r4,[pc,#196] ; [0x18838] = 0x40020000
        0x00018772:    68a8        .h      LDR      r0,[r5,#8]
        0x00018774:    4616        .F      MOV      r6,r2
        0x00018776:    4688        .F      MOV      r8,r1
        0x00018778:    f1b03fff    ...?    CMP      r0,#0xffffffff
        0x0001877c:    d104        ..      BNE      0x18788 ; VDDF_simobuck_boost + 32
        0x0001877e:    f8d4036c    ..l.    LDR      r0,[r4,#0x36c]
        0x00018782:    f3c05005    ...P    UBFX     r0,r0,#20,#6
        0x00018786:    60a8        .`      STR      r0,[r5,#8]
        0x00018788:    e9d50701    ....    LDRD     r0,r7,[r5,#4]
        0x0001878c:    f1b03fff    ...?    CMP      r0,#0xffffffff
        0x00018790:    d10d        ..      BNE      0x187ae ; VDDF_simobuck_boost + 70
        0x00018792:    2201        ."      MOVS     r2,#1
        0x00018794:    4b29        )K      LDR      r3,[pc,#164] ; [0x1883c] = 0x10000204
        0x00018796:    f24041c4    @..A    MOV      r1,#0x4c4
        0x0001879a:    4610        .F      MOV      r0,r2
        0x0001879c:    f001ff88    ....    BL       am_hal_mram_info_read ; 0x1a6b0
        0x000187a0:    b918        ..      CBNZ     r0,0x187aa ; VDDF_simobuck_boost + 66
        0x000187a2:    6868        hh      LDR      r0,[r5,#4]
        0x000187a4:    f1b03fff    ...?    CMP      r0,#0xffffffff
        0x000187a8:    d101        ..      BNE      0x187ae ; VDDF_simobuck_boost + 70
        0x000187aa:    2000        .       MOVS     r0,#0
        0x000187ac:    6068        h`      STR      r0,[r5,#4]
        0x000187ae:    6868        hh      LDR      r0,[r5,#4]
        0x000187b0:    f1b90f00    ....    CMP      r9,#0
        0x000187b4:    d02c        ,.      BEQ      0x18810 ; VDDF_simobuck_boost + 168
        0x000187b6:    68e1        .h      LDR      r1,[r4,#0xc]
        0x000187b8:    b2c9        ..      UXTB     r1,r1
        0x000187ba:    2922        ")      CMP      r1,#0x22
        0x000187bc:    d325        %.      BCC      0x1880a ; VDDF_simobuck_boost + 162
        0x000187be:    f1080103    ....    ADD      r1,r8,#3
        0x000187c2:    2806        .(      CMP      r0,#6
        0x000187c4:    bf28        (.      IT       CS
        0x000187c6:    460e        .F      MOVCS    r6,r1
        0x000187c8:    f8d40378    ..x.    LDR      r0,[r4,#0x378]
        0x000187cc:    f0404000    @..@    ORR      r0,r0,#0x80000000
        0x000187d0:    f8c40378    ..x.    STR      r0,[r4,#0x378]
        0x000187d4:    f1c6003f    ..?.    RSB      r0,r6,#0x3f
        0x000187d8:    42b8        .B      CMP      r0,r7
        0x000187da:    bf2c        ,.      ITE      CS
        0x000187dc:    19bd        ..      ADDCS    r5,r7,r6
        0x000187de:    253f        ?%      MOVCC    r5,#0x3f
        0x000187e0:    f8d4036c    ..l.    LDR      r0,[r4,#0x36c]
        0x000187e4:    f3c05005    ...P    UBFX     r0,r0,#20,#6
        0x000187e8:    42a8        .B      CMP      r0,r5
        0x000187ea:    d00e        ..      BEQ      0x1880a ; VDDF_simobuck_boost + 162
        0x000187ec:    f7fffdb4    ....    BL       am_hal_interrupt_master_disable ; 0x18358
        0x000187f0:    9000        ..      STR      r0,[sp,#0]
        0x000187f2:    f8d4036c    ..l.    LDR      r0,[r4,#0x36c]
        0x000187f6:    f3655019    e..P    BFI      r0,r5,#20,#6
        0x000187fa:    f8c4036c    ..l.    STR      r0,[r4,#0x36c]
        0x000187fe:    2014        .       MOVS     r0,#0x14
        0x00018800:    f001fe64    ..d.    BL       am_hal_delay_us ; 0x1a4cc
        0x00018804:    9800        ..      LDR      r0,[sp,#0]
        0x00018806:    f7fffdab    ....    BL       am_hal_interrupt_master_set ; 0x18360
        0x0001880a:    2000        .       MOVS     r0,#0
        0x0001880c:    e8bd83f8    ....    POP      {r3-r9,pc}
        0x00018810:    2806        .(      CMP      r0,#6
        0x00018812:    bf2c        ,.      ITE      CS
        0x00018814:    2003        .       MOVCS    r0,#3
        0x00018816:    2000        .       MOVCC    r0,#0
        0x00018818:    19c5        ..      ADDS     r5,r0,r7
        0x0001881a:    f8d40378    ..x.    LDR      r0,[r4,#0x378]
        0x0001881e:    f0404000    @..@    ORR      r0,r0,#0x80000000
        0x00018822:    f8c40378    ..x.    STR      r0,[r4,#0x378]
        0x00018826:    f8d4036c    ..l.    LDR      r0,[r4,#0x36c]
        0x0001882a:    f3c05005    ...P    UBFX     r0,r0,#20,#6
        0x0001882e:    42a8        .B      CMP      r0,r5
        0x00018830:    d0eb        ..      BEQ      0x1880a ; VDDF_simobuck_boost + 162
        0x00018832:    e7db        ..      B        0x187ec ; VDDF_simobuck_boost + 132
    $d
        0x00018834:    10000200    ....    DCD    268435968
        0x00018838:    40020000    ...@    DCD    1073872896
        0x0001883c:    10000204    ....    DCD    268435972
    $t
    i.__NVIC_EnableIRQ
    __NVIC_EnableIRQ
        0x00018840:    2800        .(      CMP      r0,#0
        0x00018842:    db0d        ..      BLT      0x18860 ; __NVIC_EnableIRQ + 32
        0x00018844:    bf00        ..      NOP      
        0x00018846:    bf00        ..      NOP      
        0x00018848:    f000021f    ....    AND      r2,r0,#0x1f
        0x0001884c:    2101        .!      MOVS     r1,#1
        0x0001884e:    4091        .@      LSLS     r1,r1,r2
        0x00018850:    0942        B.      LSRS     r2,r0,#5
        0x00018852:    0092        ..      LSLS     r2,r2,#2
        0x00018854:    f10222e0    ..."    ADD      r2,r2,#0xe000e000
        0x00018858:    f8c21100    ....    STR      r1,[r2,#0x100]
        0x0001885c:    bf00        ..      NOP      
        0x0001885e:    bf00        ..      NOP      
        0x00018860:    4770        pG      BX       lr
        0x00018862:    0000        ..      MOVS     r0,r0
    i.__NVIC_SetPriority
    __NVIC_SetPriority
        0x00018864:    b510        ..      PUSH     {r4,lr}
        0x00018866:    2800        .(      CMP      r0,#0
        0x00018868:    db04        ..      BLT      0x18874 ; __NVIC_SetPriority + 16
        0x0001886a:    074a        J.      LSLS     r2,r1,#29
        0x0001886c:    0e13        ..      LSRS     r3,r2,#24
        0x0001886e:    4a05        .J      LDR      r2,[pc,#20] ; [0x18884] = 0xe000e400
        0x00018870:    5413        .T      STRB     r3,[r2,r0]
        0x00018872:    e006        ..      B        0x18882 ; __NVIC_SetPriority + 30
        0x00018874:    074a        J.      LSLS     r2,r1,#29
        0x00018876:    0e14        ..      LSRS     r4,r2,#24
        0x00018878:    4a03        .J      LDR      r2,[pc,#12] ; [0x18888] = 0xe000ed18
        0x0001887a:    f000030f    ....    AND      r3,r0,#0xf
        0x0001887e:    1f1b        ..      SUBS     r3,r3,#4
        0x00018880:    54d4        .T      STRB     r4,[r2,r3]
        0x00018882:    bd10        ..      POP      {r4,pc}
    $d
        0x00018884:    e000e400    ....    DCD    3758154752
        0x00018888:    e000ed18    ....    DCD    3758157080
    $t
    i.am_bsp_itm_printf_enable
    am_bsp_itm_printf_enable
        0x0001888c:    4817        .H      LDR      r0,[pc,#92] ; [0x188ec] = 0x40021000
        0x0001888e:    b500        ..      PUSH     {lr}
        0x00018890:    6880        .h      LDR      r0,[r0,#8]
        0x00018892:    b083        ..      SUB      sp,sp,#0xc
        0x00018894:    f4101f80    ....    TST      r0,#0x100000
        0x00018898:    d010        ..      BEQ      0x188bc ; am_bsp_itm_printf_enable + 48
        0x0001889a:    4815        .H      LDR      r0,[pc,#84] ; [0x188f0] = 0x400c0a7c
        0x0001889c:    6800        .h      LDR      r0,[r0,#0]
        0x0001889e:    f0100f01    ....    TST      r0,#1
        0x000188a2:    d00b        ..      BEQ      0x188bc ; am_bsp_itm_printf_enable + 48
        0x000188a4:    4668        hF      MOV      r0,sp
        0x000188a6:    f001fd57    ..W.    BL       am_hal_dcu_get ; 0x1a358
        0x000188aa:    9800        ..      LDR      r0,[sp,#0]
        0x000188ac:    f0100f10    ....    TST      r0,#0x10
        0x000188b0:    d108        ..      BNE      0x188c4 ; am_bsp_itm_printf_enable + 56
        0x000188b2:    2110        .!      MOVS     r1,#0x10
        0x000188b4:    2001        .       MOVS     r0,#1
        0x000188b6:    f001fd97    ....    BL       am_hal_dcu_update ; 0x1a3e8
        0x000188ba:    b118        ..      CBZ      r0,0x188c4 ; am_bsp_itm_printf_enable + 56
        0x000188bc:    b003        ..      ADD      sp,sp,#0xc
        0x000188be:    f04f30ff    O..0    MOV      r0,#0xffffffff
        0x000188c2:    bd00        ..      POP      {pc}
        0x000188c4:    490b        .I      LDR      r1,[pc,#44] ; [0x188f4] = 0x10000184
        0x000188c6:    2001        .       MOVS     r0,#1
        0x000188c8:    7008        .p      STRB     r0,[r1,#0]
        0x000188ca:    f001fea7    ....    BL       am_hal_itm_enable ; 0x1a61c
        0x000188ce:    480a        .H      LDR      r0,[pc,#40] ; [0x188f8] = 0xf4240
        0x000188d0:    f004fd68    ..h.    BL       am_hal_tpiu_enable ; 0x1d3a4
        0x000188d4:    4809        .H      LDR      r0,[pc,#36] ; [0x188fc] = 0x10000274
        0x000188d6:    6801        .h      LDR      r1,[r0,#0]
        0x000188d8:    9101        ..      STR      r1,[sp,#4]
        0x000188da:    201c        .       MOVS     r0,#0x1c
        0x000188dc:    f001fe74    ..t.    BL       am_hal_gpio_pinconfig ; 0x1a5c8
        0x000188e0:    4807        .H      LDR      r0,[pc,#28] ; [0x18900] = 0x1a665
        0x000188e2:    f004fe93    ....    BL       am_util_stdio_printf_init ; 0x1d60c
        0x000188e6:    b003        ..      ADD      sp,sp,#0xc
        0x000188e8:    2000        .       MOVS     r0,#0
        0x000188ea:    bd00        ..      POP      {pc}
    $d
        0x000188ec:    40021000    ...@    DCD    1073876992
        0x000188f0:    400c0a7c    |..@    DCD    1074530940
        0x000188f4:    10000184    ....    DCD    268435844
        0x000188f8:    000f4240    @B..    DCD    1000000
        0x000188fc:    10000274    t...    DCD    268436084
        0x00018900:    0001a665    e...    DCD    108133
    $t
    i.am_bsp_low_power_init
    am_bsp_low_power_init
        0x00018904:    b510        ..      PUSH     {r4,lr}
        0x00018906:    f003ffd1    ....    BL       am_hal_pwrctrl_low_power_init ; 0x1c8ac
        0x0001890a:    2100        .!      MOVS     r1,#0
        0x0001890c:    4608        .F      MOV      r0,r1
        0x0001890e:    f003fcf1    ....    BL       am_hal_pwrctrl_control ; 0x1c2f4
        0x00018912:    e8bd4010    ...@    POP      {r4,lr}
        0x00018916:    f004ba7b    ..{.    B.W      am_hal_rtc_osc_disable ; 0x1ce10
        0x0001891a:    0000        ..      MOVS     r0,r0
    i.am_bsp_mspi_pins_enable
    am_bsp_mspi_pins_enable
        0x0001891c:    b508        ..      PUSH     {r3,lr}
        0x0001891e:    b198        ..      CBZ      r0,0x18948 ; am_bsp_mspi_pins_enable + 44
        0x00018920:    2801        .(      CMP      r0,#1
        0x00018922:    f00080e1    ....    BEQ.W    0x18ae8 ; am_bsp_mspi_pins_enable + 460
        0x00018926:    2802        .(      CMP      r0,#2
        0x00018928:    bf18        ..      IT       NE
        0x0001892a:    bd08        ..      POPNE    {r3,pc}
        0x0001892c:    2912        .)      CMP      r1,#0x12
        0x0001892e:    bf28        (.      IT       CS
        0x00018930:    bd08        ..      POPCS    {r3,pc}
        0x00018932:    e8dff001    ....    TBB      [pc,r1]
    $d
        0x00018936:    fcfd        ..      DCW    64765
        0x00018938:    f9fafbfb    ....    DCD    4193975291
        0x0001893c:    f5f6f7f8    ....    DCD    4126603256
        0x00018940:    fbfbfbfb    ....    DCD    4227595259
        0x00018944:    f9faf9fa    ....    DCD    4193974778
    $t
        0x00018948:    2911        .)      CMP      r1,#0x11
        0x0001894a:    bf28        (.      IT       CS
        0x0001894c:    bd08        ..      POPCS    {r3,pc}
        0x0001894e:    e8dff001    ....    TBB      [pc,r1]
    $d
        0x00018952:    ed09        ..      DCW    60681
        0x00018954:    ed23eded    ..#.    DCD    3978554861
        0x00018958:    ed87ed49    I...    DCD    3985108297
        0x0001895c:    edededed    ....    DCD    3991793133
        0x00018960:    0023ed23    #.#.    DCD    2354467
    $t
        0x00018964:    48fe        .H      LDR      r0,[pc,#1016] ; [0x18d60] = 0x10000278
        0x00018966:    6801        .h      LDR      r1,[r0,#0]
        0x00018968:    9100        ..      STR      r1,[sp,#0]
        0x0001896a:    2039        9       MOVS     r0,#0x39
        0x0001896c:    f001fe2c    ..,.    BL       am_hal_gpio_pinconfig ; 0x1a5c8
        0x00018970:    48fc        .H      LDR      r0,[pc,#1008] ; [0x18d64] = 0x1000027c
        0x00018972:    6801        .h      LDR      r1,[r0,#0]
        0x00018974:    9100        ..      STR      r1,[sp,#0]
        0x00018976:    2040        @       MOVS     r0,#0x40
        0x00018978:    f001fe26    ..&.    BL       am_hal_gpio_pinconfig ; 0x1a5c8
        0x0001897c:    48fa        .H      LDR      r0,[pc,#1000] ; [0x18d68] = 0x10000280
        0x0001897e:    6801        .h      LDR      r1,[r0,#0]
        0x00018980:    9100        ..      STR      r1,[sp,#0]
        0x00018982:    2041        A       MOVS     r0,#0x41
        0x00018984:    f001fe20    .. .    BL       am_hal_gpio_pinconfig ; 0x1a5c8
        0x00018988:    48f8        .H      LDR      r0,[pc,#992] ; [0x18d6c] = 0x1000029c
        0x0001898a:    6801        .h      LDR      r1,[r0,#0]
        0x0001898c:    9100        ..      STR      r1,[sp,#0]
        0x0001898e:    e8bd4008    ...@    POP      {r3,lr}
        0x00018992:    2048        H       MOVS     r0,#0x48
        0x00018994:    f001be18    ....    B.W      am_hal_gpio_pinconfig ; 0x1a5c8
        0x00018998:    48f1        .H      LDR      r0,[pc,#964] ; [0x18d60] = 0x10000278
        0x0001899a:    6801        .h      LDR      r1,[r0,#0]
        0x0001899c:    9100        ..      STR      r1,[sp,#0]
        0x0001899e:    2039        9       MOVS     r0,#0x39
        0x000189a0:    f001fe12    ....    BL       am_hal_gpio_pinconfig ; 0x1a5c8
        0x000189a4:    48ef        .H      LDR      r0,[pc,#956] ; [0x18d64] = 0x1000027c
        0x000189a6:    6801        .h      LDR      r1,[r0,#0]
        0x000189a8:    9100        ..      STR      r1,[sp,#0]
        0x000189aa:    2040        @       MOVS     r0,#0x40
        0x000189ac:    f001fe0c    ....    BL       am_hal_gpio_pinconfig ; 0x1a5c8
        0x000189b0:    48ed        .H      LDR      r0,[pc,#948] ; [0x18d68] = 0x10000280
        0x000189b2:    6801        .h      LDR      r1,[r0,#0]
        0x000189b4:    9100        ..      STR      r1,[sp,#0]
        0x000189b6:    2041        A       MOVS     r0,#0x41
        0x000189b8:    f001fe06    ....    BL       am_hal_gpio_pinconfig ; 0x1a5c8
        0x000189bc:    48ec        .H      LDR      r0,[pc,#944] ; [0x18d70] = 0x10000284
        0x000189be:    6801        .h      LDR      r1,[r0,#0]
        0x000189c0:    9100        ..      STR      r1,[sp,#0]
        0x000189c2:    2042        B       MOVS     r0,#0x42
        0x000189c4:    f001fe00    ....    BL       am_hal_gpio_pinconfig ; 0x1a5c8
        0x000189c8:    48ea        .H      LDR      r0,[pc,#936] ; [0x18d74] = 0x10000288
        0x000189ca:    6801        .h      LDR      r1,[r0,#0]
        0x000189cc:    9100        ..      STR      r1,[sp,#0]
        0x000189ce:    2043        C       MOVS     r0,#0x43
        0x000189d0:    f001fdfa    ....    BL       am_hal_gpio_pinconfig ; 0x1a5c8
        0x000189d4:    48e5        .H      LDR      r0,[pc,#916] ; [0x18d6c] = 0x1000029c
        0x000189d6:    6801        .h      LDR      r1,[r0,#0]
        0x000189d8:    9100        ..      STR      r1,[sp,#0]
        0x000189da:    e8bd4008    ...@    POP      {r3,lr}
        0x000189de:    2048        H       MOVS     r0,#0x48
        0x000189e0:    f001bdf2    ....    B.W      am_hal_gpio_pinconfig ; 0x1a5c8
        0x000189e4:    48de        .H      LDR      r0,[pc,#888] ; [0x18d60] = 0x10000278
        0x000189e6:    6801        .h      LDR      r1,[r0,#0]
        0x000189e8:    9100        ..      STR      r1,[sp,#0]
        0x000189ea:    2039        9       MOVS     r0,#0x39
        0x000189ec:    f001fdec    ....    BL       am_hal_gpio_pinconfig ; 0x1a5c8
        0x000189f0:    48dc        .H      LDR      r0,[pc,#880] ; [0x18d64] = 0x1000027c
        0x000189f2:    6801        .h      LDR      r1,[r0,#0]
        0x000189f4:    9100        ..      STR      r1,[sp,#0]
        0x000189f6:    2040        @       MOVS     r0,#0x40
        0x000189f8:    f001fde6    ....    BL       am_hal_gpio_pinconfig ; 0x1a5c8
        0x000189fc:    48da        .H      LDR      r0,[pc,#872] ; [0x18d68] = 0x10000280
        0x000189fe:    6801        .h      LDR      r1,[r0,#0]
        0x00018a00:    9100        ..      STR      r1,[sp,#0]
        0x00018a02:    2041        A       MOVS     r0,#0x41
        0x00018a04:    f001fde0    ....    BL       am_hal_gpio_pinconfig ; 0x1a5c8
        0x00018a08:    48d9        .H      LDR      r0,[pc,#868] ; [0x18d70] = 0x10000284
        0x00018a0a:    6801        .h      LDR      r1,[r0,#0]
        0x00018a0c:    9100        ..      STR      r1,[sp,#0]
        0x00018a0e:    2042        B       MOVS     r0,#0x42
        0x00018a10:    f001fdda    ....    BL       am_hal_gpio_pinconfig ; 0x1a5c8
        0x00018a14:    48d7        .H      LDR      r0,[pc,#860] ; [0x18d74] = 0x10000288
        0x00018a16:    6801        .h      LDR      r1,[r0,#0]
        0x00018a18:    9100        ..      STR      r1,[sp,#0]
        0x00018a1a:    2043        C       MOVS     r0,#0x43
        0x00018a1c:    f001fdd4    ....    BL       am_hal_gpio_pinconfig ; 0x1a5c8
        0x00018a20:    48d5        .H      LDR      r0,[pc,#852] ; [0x18d78] = 0x1000028c
        0x00018a22:    6801        .h      LDR      r1,[r0,#0]
        0x00018a24:    9100        ..      STR      r1,[sp,#0]
        0x00018a26:    2044        D       MOVS     r0,#0x44
        0x00018a28:    f001fdce    ....    BL       am_hal_gpio_pinconfig ; 0x1a5c8
        0x00018a2c:    48d3        .H      LDR      r0,[pc,#844] ; [0x18d7c] = 0x10000290
        0x00018a2e:    6801        .h      LDR      r1,[r0,#0]
        0x00018a30:    9100        ..      STR      r1,[sp,#0]
        0x00018a32:    2045        E       MOVS     r0,#0x45
        0x00018a34:    f001fdc8    ....    BL       am_hal_gpio_pinconfig ; 0x1a5c8
        0x00018a38:    48d1        .H      LDR      r0,[pc,#836] ; [0x18d80] = 0x10000294
        0x00018a3a:    6801        .h      LDR      r1,[r0,#0]
        0x00018a3c:    9100        ..      STR      r1,[sp,#0]
        0x00018a3e:    2046        F       MOVS     r0,#0x46
        0x00018a40:    f001fdc2    ....    BL       am_hal_gpio_pinconfig ; 0x1a5c8
        0x00018a44:    48cf        .H      LDR      r0,[pc,#828] ; [0x18d84] = 0x10000298
        0x00018a46:    6801        .h      LDR      r1,[r0,#0]
        0x00018a48:    9100        ..      STR      r1,[sp,#0]
        0x00018a4a:    2047        G       MOVS     r0,#0x47
        0x00018a4c:    f001fdbc    ....    BL       am_hal_gpio_pinconfig ; 0x1a5c8
        0x00018a50:    48c6        .H      LDR      r0,[pc,#792] ; [0x18d6c] = 0x1000029c
        0x00018a52:    6801        .h      LDR      r1,[r0,#0]
        0x00018a54:    9100        ..      STR      r1,[sp,#0]
        0x00018a56:    e8bd4008    ...@    POP      {r3,lr}
        0x00018a5a:    2048        H       MOVS     r0,#0x48
        0x00018a5c:    f001bdb4    ....    B.W      am_hal_gpio_pinconfig ; 0x1a5c8
        0x00018a60:    48bf        .H      LDR      r0,[pc,#764] ; [0x18d60] = 0x10000278
        0x00018a62:    6801        .h      LDR      r1,[r0,#0]
        0x00018a64:    9100        ..      STR      r1,[sp,#0]
        0x00018a66:    2039        9       MOVS     r0,#0x39
        0x00018a68:    f001fdae    ....    BL       am_hal_gpio_pinconfig ; 0x1a5c8
        0x00018a6c:    48bd        .H      LDR      r0,[pc,#756] ; [0x18d64] = 0x1000027c
        0x00018a6e:    6801        .h      LDR      r1,[r0,#0]
        0x00018a70:    9100        ..      STR      r1,[sp,#0]
        0x00018a72:    2040        @       MOVS     r0,#0x40
        0x00018a74:    f001fda8    ....    BL       am_hal_gpio_pinconfig ; 0x1a5c8
        0x00018a78:    48bb        .H      LDR      r0,[pc,#748] ; [0x18d68] = 0x10000280
        0x00018a7a:    6801        .h      LDR      r1,[r0,#0]
        0x00018a7c:    9100        ..      STR      r1,[sp,#0]
        0x00018a7e:    2041        A       MOVS     r0,#0x41
        0x00018a80:    f001fda2    ....    BL       am_hal_gpio_pinconfig ; 0x1a5c8
        0x00018a84:    48ba        .H      LDR      r0,[pc,#744] ; [0x18d70] = 0x10000284
        0x00018a86:    6801        .h      LDR      r1,[r0,#0]
        0x00018a88:    9100        ..      STR      r1,[sp,#0]
        0x00018a8a:    2042        B       MOVS     r0,#0x42
        0x00018a8c:    f001fd9c    ....    BL       am_hal_gpio_pinconfig ; 0x1a5c8
        0x00018a90:    48b8        .H      LDR      r0,[pc,#736] ; [0x18d74] = 0x10000288
        0x00018a92:    6801        .h      LDR      r1,[r0,#0]
        0x00018a94:    9100        ..      STR      r1,[sp,#0]
        0x00018a96:    2043        C       MOVS     r0,#0x43
        0x00018a98:    f001fd96    ....    BL       am_hal_gpio_pinconfig ; 0x1a5c8
        0x00018a9c:    48b6        .H      LDR      r0,[pc,#728] ; [0x18d78] = 0x1000028c
        0x00018a9e:    6801        .h      LDR      r1,[r0,#0]
        0x00018aa0:    9100        ..      STR      r1,[sp,#0]
        0x00018aa2:    2044        D       MOVS     r0,#0x44
        0x00018aa4:    f001fd90    ....    BL       am_hal_gpio_pinconfig ; 0x1a5c8
        0x00018aa8:    48b4        .H      LDR      r0,[pc,#720] ; [0x18d7c] = 0x10000290
        0x00018aaa:    6801        .h      LDR      r1,[r0,#0]
        0x00018aac:    9100        ..      STR      r1,[sp,#0]
        0x00018aae:    2045        E       MOVS     r0,#0x45
        0x00018ab0:    f001fd8a    ....    BL       am_hal_gpio_pinconfig ; 0x1a5c8
        0x00018ab4:    48b2        .H      LDR      r0,[pc,#712] ; [0x18d80] = 0x10000294
        0x00018ab6:    6801        .h      LDR      r1,[r0,#0]
        0x00018ab8:    9100        ..      STR      r1,[sp,#0]
        0x00018aba:    2046        F       MOVS     r0,#0x46
        0x00018abc:    f001fd84    ....    BL       am_hal_gpio_pinconfig ; 0x1a5c8
        0x00018ac0:    48b0        .H      LDR      r0,[pc,#704] ; [0x18d84] = 0x10000298
        0x00018ac2:    6801        .h      LDR      r1,[r0,#0]
        0x00018ac4:    9100        ..      STR      r1,[sp,#0]
        0x00018ac6:    2047        G       MOVS     r0,#0x47
        0x00018ac8:    f001fd7e    ..~.    BL       am_hal_gpio_pinconfig ; 0x1a5c8
        0x00018acc:    48a7        .H      LDR      r0,[pc,#668] ; [0x18d6c] = 0x1000029c
        0x00018ace:    6801        .h      LDR      r1,[r0,#0]
        0x00018ad0:    9100        ..      STR      r1,[sp,#0]
        0x00018ad2:    2048        H       MOVS     r0,#0x48
        0x00018ad4:    f001fd78    ..x.    BL       am_hal_gpio_pinconfig ; 0x1a5c8
        0x00018ad8:    48ab        .H      LDR      r0,[pc,#684] ; [0x18d88] = 0x100002a0
        0x00018ada:    6801        .h      LDR      r1,[r0,#0]
        0x00018adc:    9100        ..      STR      r1,[sp,#0]
        0x00018ade:    e8bd4008    ...@    POP      {r3,lr}
        0x00018ae2:    2049        I       MOVS     r0,#0x49
        0x00018ae4:    f001bd70    ..p.    B.W      am_hal_gpio_pinconfig ; 0x1a5c8
        0x00018ae8:    2911        .)      CMP      r1,#0x11
        0x00018aea:    bf28        (.      IT       CS
        0x00018aec:    bd08        ..      POPCS    {r3,pc}
        0x00018aee:    e8dff001    ....    TBB      [pc,r1]
    $d
        0x00018af2:    1d09        ..      DCW    7433
        0x00018af4:    1d2d1d1d    ..-.    DCD    489495837
        0x00018af8:    1d911d53    S...    DCD    496049491
        0x00018afc:    1d1d1d1d    ....    DCD    488447261
        0x00018b00:    002d1d2d    -.-.    DCD    2956589
    $t
        0x00018b04:    48a1        .H      LDR      r0,[pc,#644] ; [0x18d8c] = 0x100002a4
        0x00018b06:    6801        .h      LDR      r1,[r0,#0]
        0x00018b08:    9100        ..      STR      r1,[sp,#0]
        0x00018b0a:    2059        Y       MOVS     r0,#0x59
        0x00018b0c:    f001fd5c    ..\.    BL       am_hal_gpio_pinconfig ; 0x1a5c8
        0x00018b10:    489f        .H      LDR      r0,[pc,#636] ; [0x18d90] = 0x100002a8
        0x00018b12:    6801        .h      LDR      r1,[r0,#0]
        0x00018b14:    9100        ..      STR      r1,[sp,#0]
        0x00018b16:    2025        %       MOVS     r0,#0x25
        0x00018b18:    f001fd56    ..V.    BL       am_hal_gpio_pinconfig ; 0x1a5c8
        0x00018b1c:    489d        .H      LDR      r0,[pc,#628] ; [0x18d94] = 0x100002ac
        0x00018b1e:    e008        ..      B        0x18b32 ; am_bsp_mspi_pins_enable + 534
        0x00018b20:    e237        7.      B        0x18f92 ; am_bsp_mspi_pins_enable + 1654
        0x00018b22:    e1f2        ..      B        0x18f0a ; am_bsp_mspi_pins_enable + 1518
        0x00018b24:    e1b3        ..      B        0x18e8e ; am_bsp_mspi_pins_enable + 1394
        0x00018b26:    e174        t.      B        0x18e12 ; am_bsp_mspi_pins_enable + 1270
        0x00018b28:    e112        ..      B        0x18d50 ; am_bsp_mspi_pins_enable + 1076
        0x00018b2a:    e0eb        ..      B        0x18d04 ; am_bsp_mspi_pins_enable + 1000
        0x00018b2c:    e275        u.      B        0x1901a ; am_bsp_mspi_pins_enable + 1790
        0x00018b2e:    e0cf        ..      B        0x18cd0 ; am_bsp_mspi_pins_enable + 948
        0x00018b30:    e0b4        ..      B        0x18c9c ; am_bsp_mspi_pins_enable + 896
        0x00018b32:    6801        .h      LDR      r1,[r0,#0]
        0x00018b34:    9100        ..      STR      r1,[sp,#0]
        0x00018b36:    2026        &       MOVS     r0,#0x26
        0x00018b38:    f001fd46    ..F.    BL       am_hal_gpio_pinconfig ; 0x1a5c8
        0x00018b3c:    4896        .H      LDR      r0,[pc,#600] ; [0x18d98] = 0x100002c8
        0x00018b3e:    6801        .h      LDR      r1,[r0,#0]
        0x00018b40:    9100        ..      STR      r1,[sp,#0]
        0x00018b42:    e8bd4008    ...@    POP      {r3,lr}
        0x00018b46:    202d        -       MOVS     r0,#0x2d
        0x00018b48:    f001bd3e    ..>.    B.W      am_hal_gpio_pinconfig ; 0x1a5c8
        0x00018b4c:    488f        .H      LDR      r0,[pc,#572] ; [0x18d8c] = 0x100002a4
        0x00018b4e:    6801        .h      LDR      r1,[r0,#0]
        0x00018b50:    9100        ..      STR      r1,[sp,#0]
        0x00018b52:    2059        Y       MOVS     r0,#0x59
        0x00018b54:    f001fd38    ..8.    BL       am_hal_gpio_pinconfig ; 0x1a5c8
        0x00018b58:    488d        .H      LDR      r0,[pc,#564] ; [0x18d90] = 0x100002a8
        0x00018b5a:    6801        .h      LDR      r1,[r0,#0]
        0x00018b5c:    9100        ..      STR      r1,[sp,#0]
        0x00018b5e:    2025        %       MOVS     r0,#0x25
        0x00018b60:    f001fd32    ..2.    BL       am_hal_gpio_pinconfig ; 0x1a5c8
        0x00018b64:    488b        .H      LDR      r0,[pc,#556] ; [0x18d94] = 0x100002ac
        0x00018b66:    6801        .h      LDR      r1,[r0,#0]
        0x00018b68:    9100        ..      STR      r1,[sp,#0]
        0x00018b6a:    2026        &       MOVS     r0,#0x26
        0x00018b6c:    f001fd2c    ..,.    BL       am_hal_gpio_pinconfig ; 0x1a5c8
        0x00018b70:    488a        .H      LDR      r0,[pc,#552] ; [0x18d9c] = 0x100002b0
        0x00018b72:    6801        .h      LDR      r1,[r0,#0]
        0x00018b74:    9100        ..      STR      r1,[sp,#0]
        0x00018b76:    2027        '       MOVS     r0,#0x27
        0x00018b78:    f001fd26    ..&.    BL       am_hal_gpio_pinconfig ; 0x1a5c8
        0x00018b7c:    4888        .H      LDR      r0,[pc,#544] ; [0x18da0] = 0x100002b4
        0x00018b7e:    6801        .h      LDR      r1,[r0,#0]
        0x00018b80:    9100        ..      STR      r1,[sp,#0]
        0x00018b82:    2028        (       MOVS     r0,#0x28
        0x00018b84:    f001fd20    .. .    BL       am_hal_gpio_pinconfig ; 0x1a5c8
        0x00018b88:    4883        .H      LDR      r0,[pc,#524] ; [0x18d98] = 0x100002c8
        0x00018b8a:    6801        .h      LDR      r1,[r0,#0]
        0x00018b8c:    9100        ..      STR      r1,[sp,#0]
        0x00018b8e:    e8bd4008    ...@    POP      {r3,lr}
        0x00018b92:    202d        -       MOVS     r0,#0x2d
        0x00018b94:    f001bd18    ....    B.W      am_hal_gpio_pinconfig ; 0x1a5c8
        0x00018b98:    487c        |H      LDR      r0,[pc,#496] ; [0x18d8c] = 0x100002a4
        0x00018b9a:    6801        .h      LDR      r1,[r0,#0]
        0x00018b9c:    9100        ..      STR      r1,[sp,#0]
        0x00018b9e:    2059        Y       MOVS     r0,#0x59
        0x00018ba0:    f001fd12    ....    BL       am_hal_gpio_pinconfig ; 0x1a5c8
        0x00018ba4:    487a        zH      LDR      r0,[pc,#488] ; [0x18d90] = 0x100002a8
        0x00018ba6:    6801        .h      LDR      r1,[r0,#0]
        0x00018ba8:    9100        ..      STR      r1,[sp,#0]
        0x00018baa:    2025        %       MOVS     r0,#0x25
        0x00018bac:    f001fd0c    ....    BL       am_hal_gpio_pinconfig ; 0x1a5c8
        0x00018bb0:    4878        xH      LDR      r0,[pc,#480] ; [0x18d94] = 0x100002ac
        0x00018bb2:    6801        .h      LDR      r1,[r0,#0]
        0x00018bb4:    9100        ..      STR      r1,[sp,#0]
        0x00018bb6:    2026        &       MOVS     r0,#0x26
        0x00018bb8:    f001fd06    ....    BL       am_hal_gpio_pinconfig ; 0x1a5c8
        0x00018bbc:    4877        wH      LDR      r0,[pc,#476] ; [0x18d9c] = 0x100002b0
        0x00018bbe:    6801        .h      LDR      r1,[r0,#0]
        0x00018bc0:    9100        ..      STR      r1,[sp,#0]
        0x00018bc2:    2027        '       MOVS     r0,#0x27
        0x00018bc4:    f001fd00    ....    BL       am_hal_gpio_pinconfig ; 0x1a5c8
        0x00018bc8:    4875        uH      LDR      r0,[pc,#468] ; [0x18da0] = 0x100002b4
        0x00018bca:    6801        .h      LDR      r1,[r0,#0]
        0x00018bcc:    9100        ..      STR      r1,[sp,#0]
        0x00018bce:    2028        (       MOVS     r0,#0x28
        0x00018bd0:    f001fcfa    ....    BL       am_hal_gpio_pinconfig ; 0x1a5c8
        0x00018bd4:    4873        sH      LDR      r0,[pc,#460] ; [0x18da4] = 0x100002b8
        0x00018bd6:    6801        .h      LDR      r1,[r0,#0]
        0x00018bd8:    9100        ..      STR      r1,[sp,#0]
        0x00018bda:    2029        )       MOVS     r0,#0x29
        0x00018bdc:    f001fcf4    ....    BL       am_hal_gpio_pinconfig ; 0x1a5c8
        0x00018be0:    4871        qH      LDR      r0,[pc,#452] ; [0x18da8] = 0x100002bc
        0x00018be2:    6801        .h      LDR      r1,[r0,#0]
        0x00018be4:    9100        ..      STR      r1,[sp,#0]
        0x00018be6:    202a        *       MOVS     r0,#0x2a
        0x00018be8:    f001fcee    ....    BL       am_hal_gpio_pinconfig ; 0x1a5c8
        0x00018bec:    486f        oH      LDR      r0,[pc,#444] ; [0x18dac] = 0x100002c0
        0x00018bee:    6801        .h      LDR      r1,[r0,#0]
        0x00018bf0:    9100        ..      STR      r1,[sp,#0]
        0x00018bf2:    202b        +       MOVS     r0,#0x2b
        0x00018bf4:    f001fce8    ....    BL       am_hal_gpio_pinconfig ; 0x1a5c8
        0x00018bf8:    486d        mH      LDR      r0,[pc,#436] ; [0x18db0] = 0x100002c4
        0x00018bfa:    6801        .h      LDR      r1,[r0,#0]
        0x00018bfc:    9100        ..      STR      r1,[sp,#0]
        0x00018bfe:    202c        ,       MOVS     r0,#0x2c
        0x00018c00:    f001fce2    ....    BL       am_hal_gpio_pinconfig ; 0x1a5c8
        0x00018c04:    4864        dH      LDR      r0,[pc,#400] ; [0x18d98] = 0x100002c8
        0x00018c06:    6801        .h      LDR      r1,[r0,#0]
        0x00018c08:    9100        ..      STR      r1,[sp,#0]
        0x00018c0a:    e8bd4008    ...@    POP      {r3,lr}
        0x00018c0e:    202d        -       MOVS     r0,#0x2d
        0x00018c10:    f001bcda    ....    B.W      am_hal_gpio_pinconfig ; 0x1a5c8
        0x00018c14:    485d        ]H      LDR      r0,[pc,#372] ; [0x18d8c] = 0x100002a4
        0x00018c16:    6801        .h      LDR      r1,[r0,#0]
        0x00018c18:    9100        ..      STR      r1,[sp,#0]
        0x00018c1a:    2059        Y       MOVS     r0,#0x59
        0x00018c1c:    f001fcd4    ....    BL       am_hal_gpio_pinconfig ; 0x1a5c8
        0x00018c20:    485b        [H      LDR      r0,[pc,#364] ; [0x18d90] = 0x100002a8
        0x00018c22:    6801        .h      LDR      r1,[r0,#0]
        0x00018c24:    9100        ..      STR      r1,[sp,#0]
        0x00018c26:    2025        %       MOVS     r0,#0x25
        0x00018c28:    f001fcce    ....    BL       am_hal_gpio_pinconfig ; 0x1a5c8
        0x00018c2c:    4859        YH      LDR      r0,[pc,#356] ; [0x18d94] = 0x100002ac
        0x00018c2e:    6801        .h      LDR      r1,[r0,#0]
        0x00018c30:    9100        ..      STR      r1,[sp,#0]
        0x00018c32:    2026        &       MOVS     r0,#0x26
        0x00018c34:    f001fcc8    ....    BL       am_hal_gpio_pinconfig ; 0x1a5c8
        0x00018c38:    4858        XH      LDR      r0,[pc,#352] ; [0x18d9c] = 0x100002b0
        0x00018c3a:    6801        .h      LDR      r1,[r0,#0]
        0x00018c3c:    9100        ..      STR      r1,[sp,#0]
        0x00018c3e:    2027        '       MOVS     r0,#0x27
        0x00018c40:    f001fcc2    ....    BL       am_hal_gpio_pinconfig ; 0x1a5c8
        0x00018c44:    4856        VH      LDR      r0,[pc,#344] ; [0x18da0] = 0x100002b4
        0x00018c46:    6801        .h      LDR      r1,[r0,#0]
        0x00018c48:    9100        ..      STR      r1,[sp,#0]
        0x00018c4a:    2028        (       MOVS     r0,#0x28
        0x00018c4c:    f001fcbc    ....    BL       am_hal_gpio_pinconfig ; 0x1a5c8
        0x00018c50:    4854        TH      LDR      r0,[pc,#336] ; [0x18da4] = 0x100002b8
        0x00018c52:    6801        .h      LDR      r1,[r0,#0]
        0x00018c54:    9100        ..      STR      r1,[sp,#0]
        0x00018c56:    2029        )       MOVS     r0,#0x29
        0x00018c58:    f001fcb6    ....    BL       am_hal_gpio_pinconfig ; 0x1a5c8
        0x00018c5c:    4852        RH      LDR      r0,[pc,#328] ; [0x18da8] = 0x100002bc
        0x00018c5e:    6801        .h      LDR      r1,[r0,#0]
        0x00018c60:    9100        ..      STR      r1,[sp,#0]
        0x00018c62:    202a        *       MOVS     r0,#0x2a
        0x00018c64:    f001fcb0    ....    BL       am_hal_gpio_pinconfig ; 0x1a5c8
        0x00018c68:    4850        PH      LDR      r0,[pc,#320] ; [0x18dac] = 0x100002c0
        0x00018c6a:    6801        .h      LDR      r1,[r0,#0]
        0x00018c6c:    9100        ..      STR      r1,[sp,#0]
        0x00018c6e:    202b        +       MOVS     r0,#0x2b
        0x00018c70:    f001fcaa    ....    BL       am_hal_gpio_pinconfig ; 0x1a5c8
        0x00018c74:    484e        NH      LDR      r0,[pc,#312] ; [0x18db0] = 0x100002c4
        0x00018c76:    6801        .h      LDR      r1,[r0,#0]
        0x00018c78:    9100        ..      STR      r1,[sp,#0]
        0x00018c7a:    202c        ,       MOVS     r0,#0x2c
        0x00018c7c:    f001fca4    ....    BL       am_hal_gpio_pinconfig ; 0x1a5c8
        0x00018c80:    4845        EH      LDR      r0,[pc,#276] ; [0x18d98] = 0x100002c8
        0x00018c82:    6801        .h      LDR      r1,[r0,#0]
        0x00018c84:    9100        ..      STR      r1,[sp,#0]
        0x00018c86:    202d        -       MOVS     r0,#0x2d
        0x00018c88:    f001fc9e    ....    BL       am_hal_gpio_pinconfig ; 0x1a5c8
        0x00018c8c:    4849        IH      LDR      r0,[pc,#292] ; [0x18db4] = 0x100002cc
        0x00018c8e:    6801        .h      LDR      r1,[r0,#0]
        0x00018c90:    9100        ..      STR      r1,[sp,#0]
        0x00018c92:    e8bd4008    ...@    POP      {r3,lr}
        0x00018c96:    202e        .       MOVS     r0,#0x2e
        0x00018c98:    f001bc96    ....    B.W      am_hal_gpio_pinconfig ; 0x1a5c8
        0x00018c9c:    4846        FH      LDR      r0,[pc,#280] ; [0x18db8] = 0x10000244
        0x00018c9e:    6801        .h      LDR      r1,[r0,#0]
        0x00018ca0:    9100        ..      STR      r1,[sp,#0]
        0x00018ca2:    2000        .       MOVS     r0,#0
        0x00018ca4:    f001fc90    ....    BL       am_hal_gpio_pinconfig ; 0x1a5c8
        0x00018ca8:    4844        DH      LDR      r0,[pc,#272] ; [0x18dbc] = 0x1000024c
        0x00018caa:    6801        .h      LDR      r1,[r0,#0]
        0x00018cac:    9100        ..      STR      r1,[sp,#0]
        0x00018cae:    204a        J       MOVS     r0,#0x4a
        0x00018cb0:    f001fc8a    ....    BL       am_hal_gpio_pinconfig ; 0x1a5c8
        0x00018cb4:    4842        BH      LDR      r0,[pc,#264] ; [0x18dc0] = 0x10000250
        0x00018cb6:    6801        .h      LDR      r1,[r0,#0]
        0x00018cb8:    9100        ..      STR      r1,[sp,#0]
        0x00018cba:    204b        K       MOVS     r0,#0x4b
        0x00018cbc:    f001fc84    ....    BL       am_hal_gpio_pinconfig ; 0x1a5c8
        0x00018cc0:    4840        @H      LDR      r0,[pc,#256] ; [0x18dc4] = 0x1000026c
        0x00018cc2:    6801        .h      LDR      r1,[r0,#0]
        0x00018cc4:    9100        ..      STR      r1,[sp,#0]
        0x00018cc6:    e8bd4008    ...@    POP      {r3,lr}
        0x00018cca:    2052        R       MOVS     r0,#0x52
        0x00018ccc:    f001bc7c    ..|.    B.W      am_hal_gpio_pinconfig ; 0x1a5c8
        0x00018cd0:    483d        =H      LDR      r0,[pc,#244] ; [0x18dc8] = 0x10000248
        0x00018cd2:    6801        .h      LDR      r1,[r0,#0]
        0x00018cd4:    9100        ..      STR      r1,[sp,#0]
        0x00018cd6:    2056        V       MOVS     r0,#0x56
        0x00018cd8:    f001fc76    ..v.    BL       am_hal_gpio_pinconfig ; 0x1a5c8
        0x00018cdc:    4837        7H      LDR      r0,[pc,#220] ; [0x18dbc] = 0x1000024c
        0x00018cde:    6801        .h      LDR      r1,[r0,#0]
        0x00018ce0:    9100        ..      STR      r1,[sp,#0]
        0x00018ce2:    204a        J       MOVS     r0,#0x4a
        0x00018ce4:    f001fc70    ..p.    BL       am_hal_gpio_pinconfig ; 0x1a5c8
        0x00018ce8:    4835        5H      LDR      r0,[pc,#212] ; [0x18dc0] = 0x10000250
        0x00018cea:    6801        .h      LDR      r1,[r0,#0]
        0x00018cec:    9100        ..      STR      r1,[sp,#0]
        0x00018cee:    204b        K       MOVS     r0,#0x4b
        0x00018cf0:    f001fc6a    ..j.    BL       am_hal_gpio_pinconfig ; 0x1a5c8
        0x00018cf4:    4833        3H      LDR      r0,[pc,#204] ; [0x18dc4] = 0x1000026c
        0x00018cf6:    6801        .h      LDR      r1,[r0,#0]
        0x00018cf8:    9100        ..      STR      r1,[sp,#0]
        0x00018cfa:    e8bd4008    ...@    POP      {r3,lr}
        0x00018cfe:    2052        R       MOVS     r0,#0x52
        0x00018d00:    f001bc62    ..b.    B.W      am_hal_gpio_pinconfig ; 0x1a5c8
        0x00018d04:    482c        ,H      LDR      r0,[pc,#176] ; [0x18db8] = 0x10000244
        0x00018d06:    6801        .h      LDR      r1,[r0,#0]
        0x00018d08:    9100        ..      STR      r1,[sp,#0]
        0x00018d0a:    2000        .       MOVS     r0,#0
        0x00018d0c:    f001fc5c    ..\.    BL       am_hal_gpio_pinconfig ; 0x1a5c8
        0x00018d10:    482a        *H      LDR      r0,[pc,#168] ; [0x18dbc] = 0x1000024c
        0x00018d12:    6801        .h      LDR      r1,[r0,#0]
        0x00018d14:    9100        ..      STR      r1,[sp,#0]
        0x00018d16:    204a        J       MOVS     r0,#0x4a
        0x00018d18:    f001fc56    ..V.    BL       am_hal_gpio_pinconfig ; 0x1a5c8
        0x00018d1c:    4828        (H      LDR      r0,[pc,#160] ; [0x18dc0] = 0x10000250
        0x00018d1e:    6801        .h      LDR      r1,[r0,#0]
        0x00018d20:    9100        ..      STR      r1,[sp,#0]
        0x00018d22:    204b        K       MOVS     r0,#0x4b
        0x00018d24:    f001fc50    ..P.    BL       am_hal_gpio_pinconfig ; 0x1a5c8
        0x00018d28:    4828        (H      LDR      r0,[pc,#160] ; [0x18dcc] = 0x10000254
        0x00018d2a:    6801        .h      LDR      r1,[r0,#0]
        0x00018d2c:    9100        ..      STR      r1,[sp,#0]
        0x00018d2e:    204c        L       MOVS     r0,#0x4c
        0x00018d30:    f001fc4a    ..J.    BL       am_hal_gpio_pinconfig ; 0x1a5c8
        0x00018d34:    4826        &H      LDR      r0,[pc,#152] ; [0x18dd0] = 0x10000258
        0x00018d36:    6801        .h      LDR      r1,[r0,#0]
        0x00018d38:    9100        ..      STR      r1,[sp,#0]
        0x00018d3a:    204d        M       MOVS     r0,#0x4d
        0x00018d3c:    f001fc44    ..D.    BL       am_hal_gpio_pinconfig ; 0x1a5c8
        0x00018d40:    4820         H      LDR      r0,[pc,#128] ; [0x18dc4] = 0x1000026c
        0x00018d42:    6801        .h      LDR      r1,[r0,#0]
        0x00018d44:    9100        ..      STR      r1,[sp,#0]
        0x00018d46:    e8bd4008    ...@    POP      {r3,lr}
        0x00018d4a:    2052        R       MOVS     r0,#0x52
        0x00018d4c:    f001bc3c    ..<.    B.W      am_hal_gpio_pinconfig ; 0x1a5c8
        0x00018d50:    481d        .H      LDR      r0,[pc,#116] ; [0x18dc8] = 0x10000248
        0x00018d52:    6801        .h      LDR      r1,[r0,#0]
        0x00018d54:    9100        ..      STR      r1,[sp,#0]
        0x00018d56:    2056        V       MOVS     r0,#0x56
        0x00018d58:    f001fc36    ..6.    BL       am_hal_gpio_pinconfig ; 0x1a5c8
        0x00018d5c:    4817        .H      LDR      r0,[pc,#92] ; [0x18dbc] = 0x1000024c
        0x00018d5e:    e039        9.      B        0x18dd4 ; am_bsp_mspi_pins_enable + 1208
    $d
        0x00018d60:    10000278    x...    DCD    268436088
        0x00018d64:    1000027c    |...    DCD    268436092
        0x00018d68:    10000280    ....    DCD    268436096
        0x00018d6c:    1000029c    ....    DCD    268436124
        0x00018d70:    10000284    ....    DCD    268436100
        0x00018d74:    10000288    ....    DCD    268436104
        0x00018d78:    1000028c    ....    DCD    268436108
        0x00018d7c:    10000290    ....    DCD    268436112
        0x00018d80:    10000294    ....    DCD    268436116
        0x00018d84:    10000298    ....    DCD    268436120
        0x00018d88:    100002a0    ....    DCD    268436128
        0x00018d8c:    100002a4    ....    DCD    268436132
        0x00018d90:    100002a8    ....    DCD    268436136
        0x00018d94:    100002ac    ....    DCD    268436140
        0x00018d98:    100002c8    ....    DCD    268436168
        0x00018d9c:    100002b0    ....    DCD    268436144
        0x00018da0:    100002b4    ....    DCD    268436148
        0x00018da4:    100002b8    ....    DCD    268436152
        0x00018da8:    100002bc    ....    DCD    268436156
        0x00018dac:    100002c0    ....    DCD    268436160
        0x00018db0:    100002c4    ....    DCD    268436164
        0x00018db4:    100002cc    ....    DCD    268436172
        0x00018db8:    10000244    D...    DCD    268436036
        0x00018dbc:    1000024c    L...    DCD    268436044
        0x00018dc0:    10000250    P...    DCD    268436048
        0x00018dc4:    1000026c    l...    DCD    268436076
        0x00018dc8:    10000248    H...    DCD    268436040
        0x00018dcc:    10000254    T...    DCD    268436052
        0x00018dd0:    10000258    X...    DCD    268436056
    $t
        0x00018dd4:    6801        .h      LDR      r1,[r0,#0]
        0x00018dd6:    9100        ..      STR      r1,[sp,#0]
        0x00018dd8:    204a        J       MOVS     r0,#0x4a
        0x00018dda:    f001fbf5    ....    BL       am_hal_gpio_pinconfig ; 0x1a5c8
        0x00018dde:    488f        .H      LDR      r0,[pc,#572] ; [0x1901c] = 0x10000250
        0x00018de0:    6801        .h      LDR      r1,[r0,#0]
        0x00018de2:    9100        ..      STR      r1,[sp,#0]
        0x00018de4:    204b        K       MOVS     r0,#0x4b
        0x00018de6:    f001fbef    ....    BL       am_hal_gpio_pinconfig ; 0x1a5c8
        0x00018dea:    488d        .H      LDR      r0,[pc,#564] ; [0x19020] = 0x10000254
        0x00018dec:    6801        .h      LDR      r1,[r0,#0]
        0x00018dee:    9100        ..      STR      r1,[sp,#0]
        0x00018df0:    204c        L       MOVS     r0,#0x4c
        0x00018df2:    f001fbe9    ....    BL       am_hal_gpio_pinconfig ; 0x1a5c8
        0x00018df6:    488b        .H      LDR      r0,[pc,#556] ; [0x19024] = 0x10000258
        0x00018df8:    6801        .h      LDR      r1,[r0,#0]
        0x00018dfa:    9100        ..      STR      r1,[sp,#0]
        0x00018dfc:    204d        M       MOVS     r0,#0x4d
        0x00018dfe:    f001fbe3    ....    BL       am_hal_gpio_pinconfig ; 0x1a5c8
        0x00018e02:    4889        .H      LDR      r0,[pc,#548] ; [0x19028] = 0x1000026c
        0x00018e04:    6801        .h      LDR      r1,[r0,#0]
        0x00018e06:    9100        ..      STR      r1,[sp,#0]
        0x00018e08:    e8bd4008    ...@    POP      {r3,lr}
        0x00018e0c:    2052        R       MOVS     r0,#0x52
        0x00018e0e:    f001bbdb    ....    B.W      am_hal_gpio_pinconfig ; 0x1a5c8
        0x00018e12:    4886        .H      LDR      r0,[pc,#536] ; [0x1902c] = 0x10000244
        0x00018e14:    6801        .h      LDR      r1,[r0,#0]
        0x00018e16:    9100        ..      STR      r1,[sp,#0]
        0x00018e18:    2000        .       MOVS     r0,#0
        0x00018e1a:    f001fbd5    ....    BL       am_hal_gpio_pinconfig ; 0x1a5c8
        0x00018e1e:    4884        .H      LDR      r0,[pc,#528] ; [0x19030] = 0x1000024c
        0x00018e20:    6801        .h      LDR      r1,[r0,#0]
        0x00018e22:    9100        ..      STR      r1,[sp,#0]
        0x00018e24:    204a        J       MOVS     r0,#0x4a
        0x00018e26:    f001fbcf    ....    BL       am_hal_gpio_pinconfig ; 0x1a5c8
        0x00018e2a:    487c        |H      LDR      r0,[pc,#496] ; [0x1901c] = 0x10000250
        0x00018e2c:    6801        .h      LDR      r1,[r0,#0]
        0x00018e2e:    9100        ..      STR      r1,[sp,#0]
        0x00018e30:    204b        K       MOVS     r0,#0x4b
        0x00018e32:    f001fbc9    ....    BL       am_hal_gpio_pinconfig ; 0x1a5c8
        0x00018e36:    487a        zH      LDR      r0,[pc,#488] ; [0x19020] = 0x10000254
        0x00018e38:    6801        .h      LDR      r1,[r0,#0]
        0x00018e3a:    9100        ..      STR      r1,[sp,#0]
        0x00018e3c:    204c        L       MOVS     r0,#0x4c
        0x00018e3e:    f001fbc3    ....    BL       am_hal_gpio_pinconfig ; 0x1a5c8
        0x00018e42:    4878        xH      LDR      r0,[pc,#480] ; [0x19024] = 0x10000258
        0x00018e44:    6801        .h      LDR      r1,[r0,#0]
        0x00018e46:    9100        ..      STR      r1,[sp,#0]
        0x00018e48:    204d        M       MOVS     r0,#0x4d
        0x00018e4a:    f001fbbd    ....    BL       am_hal_gpio_pinconfig ; 0x1a5c8
        0x00018e4e:    4879        yH      LDR      r0,[pc,#484] ; [0x19034] = 0x1000025c
        0x00018e50:    6801        .h      LDR      r1,[r0,#0]
        0x00018e52:    9100        ..      STR      r1,[sp,#0]
        0x00018e54:    204e        N       MOVS     r0,#0x4e
        0x00018e56:    f001fbb7    ....    BL       am_hal_gpio_pinconfig ; 0x1a5c8
        0x00018e5a:    4877        wH      LDR      r0,[pc,#476] ; [0x19038] = 0x10000260
        0x00018e5c:    6801        .h      LDR      r1,[r0,#0]
        0x00018e5e:    9100        ..      STR      r1,[sp,#0]
        0x00018e60:    204f        O       MOVS     r0,#0x4f
        0x00018e62:    f001fbb1    ....    BL       am_hal_gpio_pinconfig ; 0x1a5c8
        0x00018e66:    4875        uH      LDR      r0,[pc,#468] ; [0x1903c] = 0x10000264
        0x00018e68:    6801        .h      LDR      r1,[r0,#0]
        0x00018e6a:    9100        ..      STR      r1,[sp,#0]
        0x00018e6c:    2050        P       MOVS     r0,#0x50
        0x00018e6e:    f001fbab    ....    BL       am_hal_gpio_pinconfig ; 0x1a5c8
        0x00018e72:    4873        sH      LDR      r0,[pc,#460] ; [0x19040] = 0x10000268
        0x00018e74:    6801        .h      LDR      r1,[r0,#0]
        0x00018e76:    9100        ..      STR      r1,[sp,#0]
        0x00018e78:    2051        Q       MOVS     r0,#0x51
        0x00018e7a:    f001fba5    ....    BL       am_hal_gpio_pinconfig ; 0x1a5c8
        0x00018e7e:    486a        jH      LDR      r0,[pc,#424] ; [0x19028] = 0x1000026c
        0x00018e80:    6801        .h      LDR      r1,[r0,#0]
        0x00018e82:    9100        ..      STR      r1,[sp,#0]
        0x00018e84:    e8bd4008    ...@    POP      {r3,lr}
        0x00018e88:    2052        R       MOVS     r0,#0x52
        0x00018e8a:    f001bb9d    ....    B.W      am_hal_gpio_pinconfig ; 0x1a5c8
        0x00018e8e:    486d        mH      LDR      r0,[pc,#436] ; [0x19044] = 0x10000248
        0x00018e90:    6801        .h      LDR      r1,[r0,#0]
        0x00018e92:    9100        ..      STR      r1,[sp,#0]
        0x00018e94:    2056        V       MOVS     r0,#0x56
        0x00018e96:    f001fb97    ....    BL       am_hal_gpio_pinconfig ; 0x1a5c8
        0x00018e9a:    4865        eH      LDR      r0,[pc,#404] ; [0x19030] = 0x1000024c
        0x00018e9c:    6801        .h      LDR      r1,[r0,#0]
        0x00018e9e:    9100        ..      STR      r1,[sp,#0]
        0x00018ea0:    204a        J       MOVS     r0,#0x4a
        0x00018ea2:    f001fb91    ....    BL       am_hal_gpio_pinconfig ; 0x1a5c8
        0x00018ea6:    485d        ]H      LDR      r0,[pc,#372] ; [0x1901c] = 0x10000250
        0x00018ea8:    6801        .h      LDR      r1,[r0,#0]
        0x00018eaa:    9100        ..      STR      r1,[sp,#0]
        0x00018eac:    204b        K       MOVS     r0,#0x4b
        0x00018eae:    f001fb8b    ....    BL       am_hal_gpio_pinconfig ; 0x1a5c8
        0x00018eb2:    485b        [H      LDR      r0,[pc,#364] ; [0x19020] = 0x10000254
        0x00018eb4:    6801        .h      LDR      r1,[r0,#0]
        0x00018eb6:    9100        ..      STR      r1,[sp,#0]
        0x00018eb8:    204c        L       MOVS     r0,#0x4c
        0x00018eba:    f001fb85    ....    BL       am_hal_gpio_pinconfig ; 0x1a5c8
        0x00018ebe:    4859        YH      LDR      r0,[pc,#356] ; [0x19024] = 0x10000258
        0x00018ec0:    6801        .h      LDR      r1,[r0,#0]
        0x00018ec2:    9100        ..      STR      r1,[sp,#0]
        0x00018ec4:    204d        M       MOVS     r0,#0x4d
        0x00018ec6:    f001fb7f    ....    BL       am_hal_gpio_pinconfig ; 0x1a5c8
        0x00018eca:    485a        ZH      LDR      r0,[pc,#360] ; [0x19034] = 0x1000025c
        0x00018ecc:    6801        .h      LDR      r1,[r0,#0]
        0x00018ece:    9100        ..      STR      r1,[sp,#0]
        0x00018ed0:    204e        N       MOVS     r0,#0x4e
        0x00018ed2:    f001fb79    ..y.    BL       am_hal_gpio_pinconfig ; 0x1a5c8
        0x00018ed6:    4858        XH      LDR      r0,[pc,#352] ; [0x19038] = 0x10000260
        0x00018ed8:    6801        .h      LDR      r1,[r0,#0]
        0x00018eda:    9100        ..      STR      r1,[sp,#0]
        0x00018edc:    204f        O       MOVS     r0,#0x4f
        0x00018ede:    f001fb73    ..s.    BL       am_hal_gpio_pinconfig ; 0x1a5c8
        0x00018ee2:    4856        VH      LDR      r0,[pc,#344] ; [0x1903c] = 0x10000264
        0x00018ee4:    6801        .h      LDR      r1,[r0,#0]
        0x00018ee6:    9100        ..      STR      r1,[sp,#0]
        0x00018ee8:    2050        P       MOVS     r0,#0x50
        0x00018eea:    f001fb6d    ..m.    BL       am_hal_gpio_pinconfig ; 0x1a5c8
        0x00018eee:    4854        TH      LDR      r0,[pc,#336] ; [0x19040] = 0x10000268
        0x00018ef0:    6801        .h      LDR      r1,[r0,#0]
        0x00018ef2:    9100        ..      STR      r1,[sp,#0]
        0x00018ef4:    2051        Q       MOVS     r0,#0x51
        0x00018ef6:    f001fb67    ..g.    BL       am_hal_gpio_pinconfig ; 0x1a5c8
        0x00018efa:    484b        KH      LDR      r0,[pc,#300] ; [0x19028] = 0x1000026c
        0x00018efc:    6801        .h      LDR      r1,[r0,#0]
        0x00018efe:    9100        ..      STR      r1,[sp,#0]
        0x00018f00:    e8bd4008    ...@    POP      {r3,lr}
        0x00018f04:    2052        R       MOVS     r0,#0x52
        0x00018f06:    f001bb5f    .._.    B.W      am_hal_gpio_pinconfig ; 0x1a5c8
        0x00018f0a:    4848        HH      LDR      r0,[pc,#288] ; [0x1902c] = 0x10000244
        0x00018f0c:    6801        .h      LDR      r1,[r0,#0]
        0x00018f0e:    9100        ..      STR      r1,[sp,#0]
        0x00018f10:    2000        .       MOVS     r0,#0
        0x00018f12:    f001fb59    ..Y.    BL       am_hal_gpio_pinconfig ; 0x1a5c8
        0x00018f16:    4846        FH      LDR      r0,[pc,#280] ; [0x19030] = 0x1000024c
        0x00018f18:    6801        .h      LDR      r1,[r0,#0]
        0x00018f1a:    9100        ..      STR      r1,[sp,#0]
        0x00018f1c:    204a        J       MOVS     r0,#0x4a
        0x00018f1e:    f001fb53    ..S.    BL       am_hal_gpio_pinconfig ; 0x1a5c8
        0x00018f22:    483e        >H      LDR      r0,[pc,#248] ; [0x1901c] = 0x10000250
        0x00018f24:    6801        .h      LDR      r1,[r0,#0]
        0x00018f26:    9100        ..      STR      r1,[sp,#0]
        0x00018f28:    204b        K       MOVS     r0,#0x4b
        0x00018f2a:    f001fb4d    ..M.    BL       am_hal_gpio_pinconfig ; 0x1a5c8
        0x00018f2e:    483c        <H      LDR      r0,[pc,#240] ; [0x19020] = 0x10000254
        0x00018f30:    6801        .h      LDR      r1,[r0,#0]
        0x00018f32:    9100        ..      STR      r1,[sp,#0]
        0x00018f34:    204c        L       MOVS     r0,#0x4c
        0x00018f36:    f001fb47    ..G.    BL       am_hal_gpio_pinconfig ; 0x1a5c8
        0x00018f3a:    483a        :H      LDR      r0,[pc,#232] ; [0x19024] = 0x10000258
        0x00018f3c:    6801        .h      LDR      r1,[r0,#0]
        0x00018f3e:    9100        ..      STR      r1,[sp,#0]
        0x00018f40:    204d        M       MOVS     r0,#0x4d
        0x00018f42:    f001fb41    ..A.    BL       am_hal_gpio_pinconfig ; 0x1a5c8
        0x00018f46:    483b        ;H      LDR      r0,[pc,#236] ; [0x19034] = 0x1000025c
        0x00018f48:    6801        .h      LDR      r1,[r0,#0]
        0x00018f4a:    9100        ..      STR      r1,[sp,#0]
        0x00018f4c:    204e        N       MOVS     r0,#0x4e
        0x00018f4e:    f001fb3b    ..;.    BL       am_hal_gpio_pinconfig ; 0x1a5c8
        0x00018f52:    4839        9H      LDR      r0,[pc,#228] ; [0x19038] = 0x10000260
        0x00018f54:    6801        .h      LDR      r1,[r0,#0]
        0x00018f56:    9100        ..      STR      r1,[sp,#0]
        0x00018f58:    204f        O       MOVS     r0,#0x4f
        0x00018f5a:    f001fb35    ..5.    BL       am_hal_gpio_pinconfig ; 0x1a5c8
        0x00018f5e:    4837        7H      LDR      r0,[pc,#220] ; [0x1903c] = 0x10000264
        0x00018f60:    6801        .h      LDR      r1,[r0,#0]
        0x00018f62:    9100        ..      STR      r1,[sp,#0]
        0x00018f64:    2050        P       MOVS     r0,#0x50
        0x00018f66:    f001fb2f    ../.    BL       am_hal_gpio_pinconfig ; 0x1a5c8
        0x00018f6a:    4835        5H      LDR      r0,[pc,#212] ; [0x19040] = 0x10000268
        0x00018f6c:    6801        .h      LDR      r1,[r0,#0]
        0x00018f6e:    9100        ..      STR      r1,[sp,#0]
        0x00018f70:    2051        Q       MOVS     r0,#0x51
        0x00018f72:    f001fb29    ..).    BL       am_hal_gpio_pinconfig ; 0x1a5c8
        0x00018f76:    482c        ,H      LDR      r0,[pc,#176] ; [0x19028] = 0x1000026c
        0x00018f78:    6801        .h      LDR      r1,[r0,#0]
        0x00018f7a:    9100        ..      STR      r1,[sp,#0]
        0x00018f7c:    2052        R       MOVS     r0,#0x52
        0x00018f7e:    f001fb23    ..#.    BL       am_hal_gpio_pinconfig ; 0x1a5c8
        0x00018f82:    4831        1H      LDR      r0,[pc,#196] ; [0x19048] = 0x10000270
        0x00018f84:    6801        .h      LDR      r1,[r0,#0]
        0x00018f86:    9100        ..      STR      r1,[sp,#0]
        0x00018f88:    e8bd4008    ...@    POP      {r3,lr}
        0x00018f8c:    2053        S       MOVS     r0,#0x53
        0x00018f8e:    f001bb1b    ....    B.W      am_hal_gpio_pinconfig ; 0x1a5c8
        0x00018f92:    482c        ,H      LDR      r0,[pc,#176] ; [0x19044] = 0x10000248
        0x00018f94:    6801        .h      LDR      r1,[r0,#0]
        0x00018f96:    9100        ..      STR      r1,[sp,#0]
        0x00018f98:    2056        V       MOVS     r0,#0x56
        0x00018f9a:    f001fb15    ....    BL       am_hal_gpio_pinconfig ; 0x1a5c8
        0x00018f9e:    4824        $H      LDR      r0,[pc,#144] ; [0x19030] = 0x1000024c
        0x00018fa0:    6801        .h      LDR      r1,[r0,#0]
        0x00018fa2:    9100        ..      STR      r1,[sp,#0]
        0x00018fa4:    204a        J       MOVS     r0,#0x4a
        0x00018fa6:    f001fb0f    ....    BL       am_hal_gpio_pinconfig ; 0x1a5c8
        0x00018faa:    481c        .H      LDR      r0,[pc,#112] ; [0x1901c] = 0x10000250
        0x00018fac:    6801        .h      LDR      r1,[r0,#0]
        0x00018fae:    9100        ..      STR      r1,[sp,#0]
        0x00018fb0:    204b        K       MOVS     r0,#0x4b
        0x00018fb2:    f001fb09    ....    BL       am_hal_gpio_pinconfig ; 0x1a5c8
        0x00018fb6:    481a        .H      LDR      r0,[pc,#104] ; [0x19020] = 0x10000254
        0x00018fb8:    6801        .h      LDR      r1,[r0,#0]
        0x00018fba:    9100        ..      STR      r1,[sp,#0]
        0x00018fbc:    204c        L       MOVS     r0,#0x4c
        0x00018fbe:    f001fb03    ....    BL       am_hal_gpio_pinconfig ; 0x1a5c8
        0x00018fc2:    4818        .H      LDR      r0,[pc,#96] ; [0x19024] = 0x10000258
        0x00018fc4:    6801        .h      LDR      r1,[r0,#0]
        0x00018fc6:    9100        ..      STR      r1,[sp,#0]
        0x00018fc8:    204d        M       MOVS     r0,#0x4d
        0x00018fca:    f001fafd    ....    BL       am_hal_gpio_pinconfig ; 0x1a5c8
        0x00018fce:    4819        .H      LDR      r0,[pc,#100] ; [0x19034] = 0x1000025c
        0x00018fd0:    6801        .h      LDR      r1,[r0,#0]
        0x00018fd2:    9100        ..      STR      r1,[sp,#0]
        0x00018fd4:    204e        N       MOVS     r0,#0x4e
        0x00018fd6:    f001faf7    ....    BL       am_hal_gpio_pinconfig ; 0x1a5c8
        0x00018fda:    4817        .H      LDR      r0,[pc,#92] ; [0x19038] = 0x10000260
        0x00018fdc:    6801        .h      LDR      r1,[r0,#0]
        0x00018fde:    9100        ..      STR      r1,[sp,#0]
        0x00018fe0:    204f        O       MOVS     r0,#0x4f
        0x00018fe2:    f001faf1    ....    BL       am_hal_gpio_pinconfig ; 0x1a5c8
        0x00018fe6:    4815        .H      LDR      r0,[pc,#84] ; [0x1903c] = 0x10000264
        0x00018fe8:    6801        .h      LDR      r1,[r0,#0]
        0x00018fea:    9100        ..      STR      r1,[sp,#0]
        0x00018fec:    2050        P       MOVS     r0,#0x50
        0x00018fee:    f001faeb    ....    BL       am_hal_gpio_pinconfig ; 0x1a5c8
        0x00018ff2:    4813        .H      LDR      r0,[pc,#76] ; [0x19040] = 0x10000268
        0x00018ff4:    6801        .h      LDR      r1,[r0,#0]
        0x00018ff6:    9100        ..      STR      r1,[sp,#0]
        0x00018ff8:    2051        Q       MOVS     r0,#0x51
        0x00018ffa:    f001fae5    ....    BL       am_hal_gpio_pinconfig ; 0x1a5c8
        0x00018ffe:    480a        .H      LDR      r0,[pc,#40] ; [0x19028] = 0x1000026c
        0x00019000:    6801        .h      LDR      r1,[r0,#0]
        0x00019002:    9100        ..      STR      r1,[sp,#0]
        0x00019004:    2052        R       MOVS     r0,#0x52
        0x00019006:    f001fadf    ....    BL       am_hal_gpio_pinconfig ; 0x1a5c8
        0x0001900a:    480f        .H      LDR      r0,[pc,#60] ; [0x19048] = 0x10000270
        0x0001900c:    6801        .h      LDR      r1,[r0,#0]
        0x0001900e:    9100        ..      STR      r1,[sp,#0]
        0x00019010:    e8bd4008    ...@    POP      {r3,lr}
        0x00019014:    2053        S       MOVS     r0,#0x53
        0x00019016:    f001bad7    ....    B.W      am_hal_gpio_pinconfig ; 0x1a5c8
        0x0001901a:    bd08        ..      POP      {r3,pc}
    $d
        0x0001901c:    10000250    P...    DCD    268436048
        0x00019020:    10000254    T...    DCD    268436052
        0x00019024:    10000258    X...    DCD    268436056
        0x00019028:    1000026c    l...    DCD    268436076
        0x0001902c:    10000244    D...    DCD    268436036
        0x00019030:    1000024c    L...    DCD    268436044
        0x00019034:    1000025c    \...    DCD    268436060
        0x00019038:    10000260    `...    DCD    268436064
        0x0001903c:    10000264    d...    DCD    268436068
        0x00019040:    10000268    h...    DCD    268436072
        0x00019044:    10000248    H...    DCD    268436040
        0x00019048:    10000270    p...    DCD    268436080
    $t
    i.am_device_command_read
    am_device_command_read
        0x0001904c:    e92d43f0    -..C    PUSH     {r4-r9,lr}
        0x00019050:    b087        ..      SUB      sp,sp,#0x1c
        0x00019052:    4607        .F      MOV      r7,r0
        0x00019054:    460c        .F      MOV      r4,r1
        0x00019056:    4615        .F      MOV      r5,r2
        0x00019058:    461e        .F      MOV      r6,r3
        0x0001905a:    e9dd890e    ....    LDRD     r8,r9,[sp,#0x38]
        0x0001905e:    f8cd9004    ....    STR      r9,[sp,#4]
        0x00019062:    2000        .       MOVS     r0,#0
        0x00019064:    f88d0008    ....    STRB     r0,[sp,#8]
        0x00019068:    f88d000a    ....    STRB     r0,[sp,#0xa]
        0x0001906c:    f88d500b    ...P    STRB     r5,[sp,#0xb]
        0x00019070:    9603        ..      STR      r6,[sp,#0xc]
        0x00019072:    2001        .       MOVS     r0,#1
        0x00019074:    f88d0010    ....    STRB     r0,[sp,#0x10]
        0x00019078:    f8ad4012    ...@    STRH     r4,[sp,#0x12]
        0x0001907c:    f88d0014    ....    STRB     r0,[sp,#0x14]
        0x00019080:    2000        .       MOVS     r0,#0
        0x00019082:    f88d0009    ....    STRB     r0,[sp,#9]
        0x00019086:    2001        .       MOVS     r0,#1
        0x00019088:    f88d0015    ....    STRB     r0,[sp,#0x15]
        0x0001908c:    2000        .       MOVS     r0,#0
        0x0001908e:    f88d0016    ....    STRB     r0,[sp,#0x16]
        0x00019092:    f8cd8018    ....    STR      r8,[sp,#0x18]
        0x00019096:    4a04        .J      LDR      r2,[pc,#16] ; [0x190a8] = 0xf4240
        0x00019098:    a901        ..      ADD      r1,sp,#4
        0x0001909a:    4638        8F      MOV      r0,r7
        0x0001909c:    f001fb52    ..R.    BL       am_hal_mspi_blocking_transfer ; 0x1a744
        0x000190a0:    b007        ..      ADD      sp,sp,#0x1c
        0x000190a2:    e8bd83f0    ....    POP      {r4-r9,pc}
    $d
        0x000190a6:    0000        ..      DCW    0
        0x000190a8:    000f4240    @B..    DCD    1000000
    $t
    i.am_device_command_write
    am_device_command_write
        0x000190ac:    e92d43f0    -..C    PUSH     {r4-r9,lr}
        0x000190b0:    b087        ..      SUB      sp,sp,#0x1c
        0x000190b2:    4607        .F      MOV      r7,r0
        0x000190b4:    460c        .F      MOV      r4,r1
        0x000190b6:    4615        .F      MOV      r5,r2
        0x000190b8:    461e        .F      MOV      r6,r3
        0x000190ba:    e9dd890e    ....    LDRD     r8,r9,[sp,#0x38]
        0x000190be:    f8cd9004    ....    STR      r9,[sp,#4]
        0x000190c2:    2000        .       MOVS     r0,#0
        0x000190c4:    f88d0008    ....    STRB     r0,[sp,#8]
        0x000190c8:    2001        .       MOVS     r0,#1
        0x000190ca:    f88d000a    ....    STRB     r0,[sp,#0xa]
        0x000190ce:    f88d500b    ...P    STRB     r5,[sp,#0xb]
        0x000190d2:    9603        ..      STR      r6,[sp,#0xc]
        0x000190d4:    f88d0010    ....    STRB     r0,[sp,#0x10]
        0x000190d8:    f8ad4012    ...@    STRH     r4,[sp,#0x12]
        0x000190dc:    2000        .       MOVS     r0,#0
        0x000190de:    f88d0014    ....    STRB     r0,[sp,#0x14]
        0x000190e2:    f88d0009    ....    STRB     r0,[sp,#9]
        0x000190e6:    f88d0015    ....    STRB     r0,[sp,#0x15]
        0x000190ea:    f88d0016    ....    STRB     r0,[sp,#0x16]
        0x000190ee:    f8cd8018    ....    STR      r8,[sp,#0x18]
        0x000190f2:    4a04        .J      LDR      r2,[pc,#16] ; [0x19104] = 0xf4240
        0x000190f4:    a901        ..      ADD      r1,sp,#4
        0x000190f6:    4638        8F      MOV      r0,r7
        0x000190f8:    f001fb24    ..$.    BL       am_hal_mspi_blocking_transfer ; 0x1a744
        0x000190fc:    b007        ..      ADD      sp,sp,#0x1c
        0x000190fe:    e8bd83f0    ....    POP      {r4-r9,pc}
    $d
        0x00019102:    0000        ..      DCW    0
        0x00019104:    000f4240    @B..    DCD    1000000
    $t
    i.am_devices_mspi_psram_apply_ddr_timing
    am_devices_mspi_psram_apply_ddr_timing
        0x00019108:    b5fe        ..      PUSH     {r1-r7,lr}
        0x0001910a:    4605        .F      MOV      r5,r0
        0x0001910c:    460c        .F      MOV      r4,r1
        0x0001910e:    462e        .F      MOV      r6,r5
        0x00019110:    4a0c        .J      LDR      r2,[pc,#48] ; [0x19144] = 0x1f118
        0x00019112:    ca07        ..      LDM      r2,{r0-r2}
        0x00019114:    e88d0007    ....    STM      sp,{r0-r2}
        0x00019118:    7a20         z      LDRB     r0,[r4,#8]
        0x0001911a:    f88d0003    ....    STRB     r0,[sp,#3]
        0x0001911e:    7820         x      LDRB     r0,[r4,#0]
        0x00019120:    f88d0008    ....    STRB     r0,[sp,#8]
        0x00019124:    7820         x      LDRB     r0,[r4,#0]
        0x00019126:    f88d0009    ....    STRB     r0,[sp,#9]
        0x0001912a:    6860        `h      LDR      r0,[r4,#4]
        0x0001912c:    b108        ..      CBZ      r0,0x19132 ; am_devices_mspi_psram_apply_ddr_timing + 42
        0x0001912e:    2001        .       MOVS     r0,#1
        0x00019130:    e000        ..      B        0x19134 ; am_devices_mspi_psram_apply_ddr_timing + 44
        0x00019132:    2000        .       MOVS     r0,#0
        0x00019134:    f88d000a    ....    STRB     r0,[sp,#0xa]
        0x00019138:    466a        jF      MOV      r2,sp
        0x0001913a:    210b        .!      MOVS     r1,#0xb
        0x0001913c:    6870        ph      LDR      r0,[r6,#4]
        0x0001913e:    f001fca3    ....    BL       am_hal_mspi_control ; 0x1aa88
        0x00019142:    bdfe        ..      POP      {r1-r7,pc}
    $d
        0x00019144:    0001f118    ....    DCD    127256
    $t
    i.am_devices_mspi_psram_aps12808l_ddr_deinit
    am_devices_mspi_psram_aps12808l_ddr_deinit
        0x00019148:    b570        p.      PUSH     {r4-r6,lr}
        0x0001914a:    4606        .F      MOV      r6,r0
        0x0001914c:    4634        4F      MOV      r4,r6
        0x0001914e:    f04f31ff    O..1    MOV      r1,#0xffffffff
        0x00019152:    6860        `h      LDR      r0,[r4,#4]
        0x00019154:    f002fce4    ....    BL       am_hal_mspi_interrupt_disable ; 0x1bb20
        0x00019158:    4605        .F      MOV      r5,r0
        0x0001915a:    b10d        ..      CBZ      r5,0x19160 ; am_devices_mspi_psram_aps12808l_ddr_deinit + 24
        0x0001915c:    2001        .       MOVS     r0,#1
        0x0001915e:    bd70        p.      POP      {r4-r6,pc}
        0x00019160:    f04f31ff    O..1    MOV      r1,#0xffffffff
        0x00019164:    6860        `h      LDR      r0,[r4,#4]
        0x00019166:    f002fcc1    ....    BL       am_hal_mspi_interrupt_clear ; 0x1baec
        0x0001916a:    4605        .F      MOV      r5,r0
        0x0001916c:    b10d        ..      CBZ      r5,0x19172 ; am_devices_mspi_psram_aps12808l_ddr_deinit + 42
        0x0001916e:    2001        .       MOVS     r0,#1
        0x00019170:    e7f5        ..      B        0x1915e ; am_devices_mspi_psram_aps12808l_ddr_deinit + 22
        0x00019172:    6860        `h      LDR      r0,[r4,#4]
        0x00019174:    f002fbe8    ....    BL       am_hal_mspi_disable ; 0x1b948
        0x00019178:    4605        .F      MOV      r5,r0
        0x0001917a:    b10d        ..      CBZ      r5,0x19180 ; am_devices_mspi_psram_aps12808l_ddr_deinit + 56
        0x0001917c:    2001        .       MOVS     r0,#1
        0x0001917e:    e7ee        ..      B        0x1915e ; am_devices_mspi_psram_aps12808l_ddr_deinit + 22
        0x00019180:    2200        ."      MOVS     r2,#0
        0x00019182:    2102        .!      MOVS     r1,#2
        0x00019184:    6860        `h      LDR      r0,[r4,#4]
        0x00019186:    f002fe8f    ....    BL       am_hal_mspi_power_control ; 0x1bea8
        0x0001918a:    b120         .      CBZ      r0,0x19196 ; am_devices_mspi_psram_aps12808l_ddr_deinit + 78
        0x0001918c:    a007        ..      ADR      r0,{pc}+0x20 ; 0x191ac
        0x0001918e:    f004fa1f    ....    BL       am_util_stdio_printf ; 0x1d5d0
        0x00019192:    2001        .       MOVS     r0,#1
        0x00019194:    e7e3        ..      B        0x1915e ; am_devices_mspi_psram_aps12808l_ddr_deinit + 22
        0x00019196:    6860        `h      LDR      r0,[r4,#4]
        0x00019198:    f002fa70    ..p.    BL       am_hal_mspi_deinitialize ; 0x1b67c
        0x0001919c:    4605        .F      MOV      r5,r0
        0x0001919e:    b10d        ..      CBZ      r5,0x191a4 ; am_devices_mspi_psram_aps12808l_ddr_deinit + 92
        0x000191a0:    2001        .       MOVS     r0,#1
        0x000191a2:    e7dc        ..      B        0x1915e ; am_devices_mspi_psram_aps12808l_ddr_deinit + 22
        0x000191a4:    2000        .       MOVS     r0,#0
        0x000191a6:    7260        `r      STRB     r0,[r4,#9]
        0x000191a8:    bf00        ..      NOP      
        0x000191aa:    e7d8        ..      B        0x1915e ; am_devices_mspi_psram_aps12808l_ddr_deinit + 22
    $d
        0x000191ac:    6f727245    Erro    DCD    1869771333
        0x000191b0:    202d2072    r -     DCD    539828338
        0x000191b4:    6c696146    Fail    DCD    1818845510
        0x000191b8:    74206465    ed t    DCD    1948279909
        0x000191bc:    6f70206f    o po    DCD    1869619311
        0x000191c0:    20726577    wer     DCD    544367991
        0x000191c4:    4d206e6f    on M    DCD    1293971055
        0x000191c8:    2e495053    SPI.    DCD    776556627
        0x000191cc:    0000000a    ....    DCD    10
    $t
    i.am_devices_mspi_psram_aps12808l_ddr_enable_xip
    am_devices_mspi_psram_aps12808l_ddr_enable_xip
        0x000191d0:    b570        p.      PUSH     {r4-r6,lr}
        0x000191d2:    4604        .F      MOV      r4,r0
        0x000191d4:    4625        %F      MOV      r5,r4
        0x000191d6:    4b0d        .K      LDR      r3,[pc,#52] ; [0x1920c] = 0x100000c8
        0x000191d8:    6829        )h      LDR      r1,[r5,#0]
        0x000191da:    eb031201    ....    ADD      r2,r3,r1,LSL #4
        0x000191de:    210c        .!      MOVS     r1,#0xc
        0x000191e0:    6868        hh      LDR      r0,[r5,#4]
        0x000191e2:    f001fc51    ..Q.    BL       am_hal_mspi_control ; 0x1aa88
        0x000191e6:    4606        .F      MOV      r6,r0
        0x000191e8:    b10e        ..      CBZ      r6,0x191ee ; am_devices_mspi_psram_aps12808l_ddr_enable_xip + 30
        0x000191ea:    2001        .       MOVS     r0,#1
        0x000191ec:    bd70        p.      POP      {r4-r6,pc}
        0x000191ee:    4b07        .K      LDR      r3,[pc,#28] ; [0x1920c] = 0x100000c8
        0x000191f0:    6829        )h      LDR      r1,[r5,#0]
        0x000191f2:    eb031201    ....    ADD      r2,r3,r1,LSL #4
        0x000191f6:    210f        .!      MOVS     r1,#0xf
        0x000191f8:    6868        hh      LDR      r0,[r5,#4]
        0x000191fa:    f001fc45    ..E.    BL       am_hal_mspi_control ; 0x1aa88
        0x000191fe:    4606        .F      MOV      r6,r0
        0x00019200:    b10e        ..      CBZ      r6,0x19206 ; am_devices_mspi_psram_aps12808l_ddr_enable_xip + 54
        0x00019202:    2001        .       MOVS     r0,#1
        0x00019204:    e7f2        ..      B        0x191ec ; am_devices_mspi_psram_aps12808l_ddr_enable_xip + 28
        0x00019206:    2000        .       MOVS     r0,#0
        0x00019208:    e7f0        ..      B        0x191ec ; am_devices_mspi_psram_aps12808l_ddr_enable_xip + 28
    $d
        0x0001920a:    0000        ..      DCW    0
        0x0001920c:    100000c8    ....    DCD    268435656
    $t
    i.am_devices_mspi_psram_aps12808l_ddr_init
    am_devices_mspi_psram_aps12808l_ddr_init
        0x00019210:    e92d43f0    -..C    PUSH     {r4-r9,lr}
        0x00019214:    b095        ..      SUB      sp,sp,#0x54
        0x00019216:    4607        .F      MOV      r7,r0
        0x00019218:    460c        .F      MOV      r4,r1
        0x0001921a:    4690        .F      MOV      r8,r2
        0x0001921c:    4699        .F      MOV      r9,r3
        0x0001921e:    2600        .&      MOVS     r6,#0
        0x00019220:    2f03        ./      CMP      r7,#3
        0x00019222:    d800        ..      BHI      0x19226 ; am_devices_mspi_psram_aps12808l_ddr_init + 22
        0x00019224:    b91c        ..      CBNZ     r4,0x1922e ; am_devices_mspi_psram_aps12808l_ddr_init + 30
        0x00019226:    2001        .       MOVS     r0,#1
        0x00019228:    b015        ..      ADD      sp,sp,#0x54
        0x0001922a:    e8bd83f0    ....    POP      {r4-r9,pc}
        0x0001922e:    f001f9c1    ....    BL       am_hal_fault_capture_enable ; 0x1a5b4
        0x00019232:    2600        .&      MOVS     r6,#0
        0x00019234:    e008        ..      B        0x19248 ; am_devices_mspi_psram_aps12808l_ddr_init + 56
        0x00019236:    eb060046    ..F.    ADD      r0,r6,r6,LSL #1
        0x0001923a:    497b        {I      LDR      r1,[pc,#492] ; [0x19428] = 0x10003088
        0x0001923c:    eb010080    ....    ADD      r0,r1,r0,LSL #2
        0x00019240:    7a40        @z      LDRB     r0,[r0,#9]
        0x00019242:    b900        ..      CBNZ     r0,0x19246 ; am_devices_mspi_psram_aps12808l_ddr_init + 54
        0x00019244:    e002        ..      B        0x1924c ; am_devices_mspi_psram_aps12808l_ddr_init + 60
        0x00019246:    1c76        v.      ADDS     r6,r6,#1
        0x00019248:    2e02        ..      CMP      r6,#2
        0x0001924a:    d3f4        ..      BCC      0x19236 ; am_devices_mspi_psram_aps12808l_ddr_init + 38
        0x0001924c:    bf00        ..      NOP      
        0x0001924e:    2e02        ..      CMP      r6,#2
        0x00019250:    d101        ..      BNE      0x19256 ; am_devices_mspi_psram_aps12808l_ddr_init + 70
        0x00019252:    2001        .       MOVS     r0,#1
        0x00019254:    e7e8        ..      B        0x19228 ; am_devices_mspi_psram_aps12808l_ddr_init + 24
        0x00019256:    7820         x      LDRB     r0,[r4,#0]
        0x00019258:    2808        .(      CMP      r0,#8
        0x0001925a:    d002        ..      BEQ      0x19262 ; am_devices_mspi_psram_aps12808l_ddr_init + 82
        0x0001925c:    2809        .(      CMP      r0,#9
        0x0001925e:    d10c        ..      BNE      0x1927a ; am_devices_mspi_psram_aps12808l_ddr_init + 106
        0x00019260:    e005        ..      B        0x1926e ; am_devices_mspi_psram_aps12808l_ddr_init + 94
        0x00019262:    2216        ."      MOVS     r2,#0x16
        0x00019264:    4971        qI      LDR      r1,[pc,#452] ; [0x1942c] = 0x10000148
        0x00019266:    a80f        ..      ADD      r0,sp,#0x3c
        0x00019268:    f7fff8dc    ....    BL       __aeabi_memcpy ; 0x18424
        0x0001926c:    e007        ..      B        0x1927e ; am_devices_mspi_psram_aps12808l_ddr_init + 110
        0x0001926e:    2216        ."      MOVS     r2,#0x16
        0x00019270:    496f        oI      LDR      r1,[pc,#444] ; [0x19430] = 0x1000015e
        0x00019272:    a80f        ..      ADD      r0,sp,#0x3c
        0x00019274:    f7fff8d6    ....    BL       __aeabi_memcpy ; 0x18424
        0x00019278:    e001        ..      B        0x1927e ; am_devices_mspi_psram_aps12808l_ddr_init + 110
        0x0001927a:    2001        .       MOVS     r0,#1
        0x0001927c:    e7d4        ..      B        0x19228 ; am_devices_mspi_psram_aps12808l_ddr_init + 24
        0x0001927e:    bf00        ..      NOP      
        0x00019280:    7820         x      LDRB     r0,[r4,#0]
        0x00019282:    f88d0044    ..D.    STRB     r0,[sp,#0x44]
        0x00019286:    7860        `x      LDRB     r0,[r4,#1]
        0x00019288:    f88d0047    ..G.    STRB     r0,[sp,#0x47]
        0x0001928c:    a90e        ..      ADD      r1,sp,#0x38
        0x0001928e:    4638        8F      MOV      r0,r7
        0x00019290:    f002fc02    ....    BL       am_hal_mspi_initialize ; 0x1ba98
        0x00019294:    b120         .      CBZ      r0,0x192a0 ; am_devices_mspi_psram_aps12808l_ddr_init + 144
        0x00019296:    a067        g.      ADR      r0,{pc}+0x19e ; 0x19434
        0x00019298:    f004f99a    ....    BL       am_util_stdio_printf ; 0x1d5d0
        0x0001929c:    2001        .       MOVS     r0,#1
        0x0001929e:    e7c3        ..      B        0x19228 ; am_devices_mspi_psram_aps12808l_ddr_init + 24
        0x000192a0:    2200        ."      MOVS     r2,#0
        0x000192a2:    4611        .F      MOV      r1,r2
        0x000192a4:    980e        ..      LDR      r0,[sp,#0x38]
        0x000192a6:    f002fdff    ....    BL       am_hal_mspi_power_control ; 0x1bea8
        0x000192aa:    b120         .      CBZ      r0,0x192b6 ; am_devices_mspi_psram_aps12808l_ddr_init + 166
        0x000192ac:    a06a        j.      ADR      r0,{pc}+0x1ac ; 0x19458
        0x000192ae:    f004f98f    ....    BL       am_util_stdio_printf ; 0x1d5d0
        0x000192b2:    2001        .       MOVS     r0,#1
        0x000192b4:    e7b8        ..      B        0x19228 ; am_devices_mspi_psram_aps12808l_ddr_init + 24
        0x000192b6:    4a71        qJ      LDR      r2,[pc,#452] ; [0x1947c] = 0x1000307c
        0x000192b8:    ca07        ..      LDM      r2,{r0-r2}
        0x000192ba:    ab0b        ..      ADD      r3,sp,#0x2c
        0x000192bc:    c307        ..      STM      r3!,{r0-r2}
        0x000192be:    68a0        .h      LDR      r0,[r4,#8]
        0x000192c0:    900b        ..      STR      r0,[sp,#0x2c]
        0x000192c2:    6860        `h      LDR      r0,[r4,#4]
        0x000192c4:    900c        ..      STR      r0,[sp,#0x30]
        0x000192c6:    a90b        ..      ADD      r1,sp,#0x2c
        0x000192c8:    980e        ..      LDR      r0,[sp,#0x38]
        0x000192ca:    f001fb55    ..U.    BL       am_hal_mspi_configure ; 0x1a978
        0x000192ce:    b120         .      CBZ      r0,0x192da ; am_devices_mspi_psram_aps12808l_ddr_init + 202
        0x000192d0:    a06b        k.      ADR      r0,{pc}+0x1b0 ; 0x19480
        0x000192d2:    f004f97d    ..}.    BL       am_util_stdio_printf ; 0x1d5d0
        0x000192d6:    2001        .       MOVS     r0,#1
        0x000192d8:    e7a6        ..      B        0x19228 ; am_devices_mspi_psram_aps12808l_ddr_init + 24
        0x000192da:    a90f        ..      ADD      r1,sp,#0x3c
        0x000192dc:    980e        ..      LDR      r0,[sp,#0x38]
        0x000192de:    f002fa25    ..%.    BL       am_hal_mspi_device_configure ; 0x1b72c
        0x000192e2:    b120         .      CBZ      r0,0x192ee ; am_devices_mspi_psram_aps12808l_ddr_init + 222
        0x000192e4:    a066        f.      ADR      r0,{pc}+0x19c ; 0x19480
        0x000192e6:    f004f973    ..s.    BL       am_util_stdio_printf ; 0x1d5d0
        0x000192ea:    2001        .       MOVS     r0,#1
        0x000192ec:    e79c        ..      B        0x19228 ; am_devices_mspi_psram_aps12808l_ddr_init + 24
        0x000192ee:    486f        oH      LDR      r0,[pc,#444] ; [0x194ac] = 0x100000c8
        0x000192f0:    eb001307    ....    ADD      r3,r0,r7,LSL #4
        0x000192f4:    cb0f        ..      LDM      r3,{r0-r3}
        0x000192f6:    ad07        ..      ADD      r5,sp,#0x1c
        0x000192f8:    c50f        ..      STM      r5!,{r0-r3}
        0x000192fa:    68e0        .h      LDR      r0,[r4,#0xc]
        0x000192fc:    9007        ..      STR      r0,[sp,#0x1c]
        0x000192fe:    6920         i      LDR      r0,[r4,#0x10]
        0x00019300:    9008        ..      STR      r0,[sp,#0x20]
        0x00019302:    aa07        ..      ADD      r2,sp,#0x1c
        0x00019304:    210c        .!      MOVS     r1,#0xc
        0x00019306:    980e        ..      LDR      r0,[sp,#0x38]
        0x00019308:    f001fbbe    ....    BL       am_hal_mspi_control ; 0x1aa88
        0x0001930c:    4605        .F      MOV      r5,r0
        0x0001930e:    b10d        ..      CBZ      r5,0x19314 ; am_devices_mspi_psram_aps12808l_ddr_init + 260
        0x00019310:    2001        .       MOVS     r0,#1
        0x00019312:    e789        ..      B        0x19228 ; am_devices_mspi_psram_aps12808l_ddr_init + 24
        0x00019314:    eb070047    ..G.    ADD      r0,r7,r7,LSL #1
        0x00019318:    4965        eI      LDR      r1,[pc,#404] ; [0x194b0] = 0x10000124
        0x0001931a:    eb010280    ....    ADD      r2,r1,r0,LSL #2
        0x0001931e:    ca07        ..      LDM      r2,{r0-r2}
        0x00019320:    ab04        ..      ADD      r3,sp,#0x10
        0x00019322:    c307        ..      STM      r3!,{r0-r2}
        0x00019324:    aa04        ..      ADD      r2,sp,#0x10
        0x00019326:    210d        .!      MOVS     r1,#0xd
        0x00019328:    980e        ..      LDR      r0,[sp,#0x38]
        0x0001932a:    f001fbad    ....    BL       am_hal_mspi_control ; 0x1aa88
        0x0001932e:    4605        .F      MOV      r5,r0
        0x00019330:    b10d        ..      CBZ      r5,0x19336 ; am_devices_mspi_psram_aps12808l_ddr_init + 294
        0x00019332:    2001        .       MOVS     r0,#1
        0x00019334:    e778        x.      B        0x19228 ; am_devices_mspi_psram_aps12808l_ddr_init + 24
        0x00019336:    eb070047    ..G.    ADD      r0,r7,r7,LSL #1
        0x0001933a:    eb0000c7    ....    ADD      r0,r0,r7,LSL #3
        0x0001933e:    495d        ]I      LDR      r1,[pc,#372] ; [0x194b4] = 0x100000f8
        0x00019340:    4408        .D      ADD      r0,r0,r1
        0x00019342:    6801        .h      LDR      r1,[r0,#0]
        0x00019344:    9101        ..      STR      r1,[sp,#4]
        0x00019346:    6841        Ah      LDR      r1,[r0,#4]
        0x00019348:    9102        ..      STR      r1,[sp,#8]
        0x0001934a:    8901        ..      LDRH     r1,[r0,#8]
        0x0001934c:    f8ad100c    ....    STRH     r1,[sp,#0xc]
        0x00019350:    7a80        .z      LDRB     r0,[r0,#0xa]
        0x00019352:    f88d000e    ....    STRB     r0,[sp,#0xe]
        0x00019356:    aa01        ..      ADD      r2,sp,#4
        0x00019358:    210b        .!      MOVS     r1,#0xb
        0x0001935a:    980e        ..      LDR      r0,[sp,#0x38]
        0x0001935c:    f001fb94    ....    BL       am_hal_mspi_control ; 0x1aa88
        0x00019360:    4605        .F      MOV      r5,r0
        0x00019362:    b10d        ..      CBZ      r5,0x19368 ; am_devices_mspi_psram_aps12808l_ddr_init + 344
        0x00019364:    2001        .       MOVS     r0,#1
        0x00019366:    e75f        _.      B        0x19228 ; am_devices_mspi_psram_aps12808l_ddr_init + 24
        0x00019368:    2200        ."      MOVS     r2,#0
        0x0001936a:    210a        .!      MOVS     r1,#0xa
        0x0001936c:    980e        ..      LDR      r0,[sp,#0x38]
        0x0001936e:    f001fb8b    ....    BL       am_hal_mspi_control ; 0x1aa88
        0x00019372:    4605        .F      MOV      r5,r0
        0x00019374:    b10d        ..      CBZ      r5,0x1937a ; am_devices_mspi_psram_aps12808l_ddr_init + 362
        0x00019376:    2001        .       MOVS     r0,#1
        0x00019378:    e756        V.      B        0x19228 ; am_devices_mspi_psram_aps12808l_ddr_init + 24
        0x0001937a:    980e        ..      LDR      r0,[sp,#0x38]
        0x0001937c:    f002fb32    ..2.    BL       am_hal_mspi_enable ; 0x1b9e4
        0x00019380:    b120         .      CBZ      r0,0x1938c ; am_devices_mspi_psram_aps12808l_ddr_init + 380
        0x00019382:    a04d        M.      ADR      r0,{pc}+0x136 ; 0x194b8
        0x00019384:    f004f924    ..$.    BL       am_util_stdio_printf ; 0x1d5d0
        0x00019388:    2001        .       MOVS     r0,#1
        0x0001938a:    e74d        M.      B        0x19228 ; am_devices_mspi_psram_aps12808l_ddr_init + 24
        0x0001938c:    f89d1044    ..D.    LDRB     r1,[sp,#0x44]
        0x00019390:    4638        8F      MOV      r0,r7
        0x00019392:    f7fffac3    ....    BL       am_bsp_mspi_pins_enable ; 0x1891c
        0x00019396:    2096        .       MOVS     r0,#0x96
        0x00019398:    f004f914    ....    BL       am_util_delay_us ; 0x1d5c4
        0x0001939c:    980e        ..      LDR      r0,[sp,#0x38]
        0x0001939e:    f000faf9    ....    BL       am_devices_mspi_psram_aps12808l_reset ; 0x19994
        0x000193a2:    b108        ..      CBZ      r0,0x193a8 ; am_devices_mspi_psram_aps12808l_ddr_init + 408
        0x000193a4:    2001        .       MOVS     r0,#1
        0x000193a6:    e73f        ?.      B        0x19228 ; am_devices_mspi_psram_aps12808l_ddr_init + 24
        0x000193a8:    2002        .       MOVS     r0,#2
        0x000193aa:    f004f90b    ....    BL       am_util_delay_us ; 0x1d5c4
        0x000193ae:    980e        ..      LDR      r0,[sp,#0x38]
        0x000193b0:    f000f892    ....    BL       am_devices_mspi_psram_aps12808l_id ; 0x194d8
        0x000193b4:    b108        ..      CBZ      r0,0x193ba ; am_devices_mspi_psram_aps12808l_ddr_init + 426
        0x000193b6:    2001        .       MOVS     r0,#1
        0x000193b8:    e736        6.      B        0x19228 ; am_devices_mspi_psram_aps12808l_ddr_init + 24
        0x000193ba:    f44f51d4    O..Q    MOV      r1,#0x1a80
        0x000193be:    980e        ..      LDR      r0,[sp,#0x38]
        0x000193c0:    f002fb94    ....    BL       am_hal_mspi_interrupt_clear ; 0x1baec
        0x000193c4:    4605        .F      MOV      r5,r0
        0x000193c6:    b10d        ..      CBZ      r5,0x193cc ; am_devices_mspi_psram_aps12808l_ddr_init + 444
        0x000193c8:    2001        .       MOVS     r0,#1
        0x000193ca:    e72d        -.      B        0x19228 ; am_devices_mspi_psram_aps12808l_ddr_init + 24
        0x000193cc:    f44f51d4    O..Q    MOV      r1,#0x1a80
        0x000193d0:    980e        ..      LDR      r0,[sp,#0x38]
        0x000193d2:    f002fbc3    ....    BL       am_hal_mspi_interrupt_enable ; 0x1bb5c
        0x000193d6:    4605        .F      MOV      r5,r0
        0x000193d8:    b10d        ..      CBZ      r5,0x193de ; am_devices_mspi_psram_aps12808l_ddr_init + 462
        0x000193da:    2001        .       MOVS     r0,#1
        0x000193dc:    e724        $.      B        0x19228 ; am_devices_mspi_psram_aps12808l_ddr_init + 24
        0x000193de:    2001        .       MOVS     r0,#1
        0x000193e0:    eb060146    ..F.    ADD      r1,r6,r6,LSL #1
        0x000193e4:    4a10        .J      LDR      r2,[pc,#64] ; [0x19428] = 0x10003088
        0x000193e6:    eb020181    ....    ADD      r1,r2,r1,LSL #2
        0x000193ea:    7248        Hr      STRB     r0,[r1,#9]
        0x000193ec:    eb060046    ..F.    ADD      r0,r6,r6,LSL #1
        0x000193f0:    4611        .F      MOV      r1,r2
        0x000193f2:    eb010080    ....    ADD      r0,r1,r0,LSL #2
        0x000193f6:    f8c80000    ....    STR      r0,[r8,#0]
        0x000193fa:    eb060146    ..F.    ADD      r1,r6,r6,LSL #1
        0x000193fe:    eb020181    ....    ADD      r1,r2,r1,LSL #2
        0x00019402:    980e        ..      LDR      r0,[sp,#0x38]
        0x00019404:    6048        H`      STR      r0,[r1,#4]
        0x00019406:    f8c90000    ....    STR      r0,[r9,#0]
        0x0001940a:    eb060046    ..F.    ADD      r0,r6,r6,LSL #1
        0x0001940e:    4611        .F      MOV      r1,r2
        0x00019410:    f8417020    A. p    STR      r7,[r1,r0,LSL #2]
        0x00019414:    f89d0044    ..D.    LDRB     r0,[sp,#0x44]
        0x00019418:    eb060146    ..F.    ADD      r1,r6,r6,LSL #1
        0x0001941c:    eb020181    ....    ADD      r1,r2,r1,LSL #2
        0x00019420:    7208        .r      STRB     r0,[r1,#8]
        0x00019422:    2000        .       MOVS     r0,#0
        0x00019424:    e700        ..      B        0x19228 ; am_devices_mspi_psram_aps12808l_ddr_init + 24
    $d
        0x00019426:    0000        ..      DCW    0
        0x00019428:    10003088    .0..    DCD    268447880
        0x0001942c:    10000148    H...    DCD    268435784
        0x00019430:    1000015e    ^...    DCD    268435806
        0x00019434:    6f727245    Erro    DCD    1869771333
        0x00019438:    202d2072    r -     DCD    539828338
        0x0001943c:    6c696146    Fail    DCD    1818845510
        0x00019440:    74206465    ed t    DCD    1948279909
        0x00019444:    6e69206f    o in    DCD    1852383343
        0x00019448:    61697469    itia    DCD    1634301033
        0x0001944c:    657a696c    lize    DCD    1702521196
        0x00019450:    50534d20     MSP    DCD    1347636512
        0x00019454:    000a2e49    I...    DCD    667209
        0x00019458:    6f727245    Erro    DCD    1869771333
        0x0001945c:    202d2072    r -     DCD    539828338
        0x00019460:    6c696146    Fail    DCD    1818845510
        0x00019464:    74206465    ed t    DCD    1948279909
        0x00019468:    6f70206f    o po    DCD    1869619311
        0x0001946c:    20726577    wer     DCD    544367991
        0x00019470:    4d206e6f    on M    DCD    1293971055
        0x00019474:    2e495053    SPI.    DCD    776556627
        0x00019478:    0000000a    ....    DCD    10
        0x0001947c:    1000307c    |0..    DCD    268447868
        0x00019480:    6f727245    Erro    DCD    1869771333
        0x00019484:    202d2072    r -     DCD    539828338
        0x00019488:    6c696146    Fail    DCD    1818845510
        0x0001948c:    74206465    ed t    DCD    1948279909
        0x00019490:    6f63206f    o co    DCD    1868767343
        0x00019494:    6769666e    nfig    DCD    1734960750
        0x00019498:    20657275    ure     DCD    543519349
        0x0001949c:    4950534d    MSPI    DCD    1230000973
        0x000194a0:    76656420     dev    DCD    1986356256
        0x000194a4:    2e656369    ice.    DCD    778396521
        0x000194a8:    0000000a    ....    DCD    10
        0x000194ac:    100000c8    ....    DCD    268435656
        0x000194b0:    10000124    $...    DCD    268435748
        0x000194b4:    100000f8    ....    DCD    268435704
        0x000194b8:    6f727245    Erro    DCD    1869771333
        0x000194bc:    202d2072    r -     DCD    539828338
        0x000194c0:    6c696146    Fail    DCD    1818845510
        0x000194c4:    74206465    ed t    DCD    1948279909
        0x000194c8:    6e65206f    o en    DCD    1852121199
        0x000194cc:    656c6261    able    DCD    1701601889
        0x000194d0:    50534d20     MSP    DCD    1347636512
        0x000194d4:    000a2e49    I...    DCD    667209
    $t
    i.am_devices_mspi_psram_aps12808l_id
    am_devices_mspi_psram_aps12808l_id
        0x000194d8:    e92d43fe    -..C    PUSH     {r1-r9,lr}
        0x000194dc:    4607        .F      MOV      r7,r0
        0x000194de:    f04f0800    O...    MOV      r8,#0
        0x000194e2:    2600        .&      MOVS     r6,#0
        0x000194e4:    2400        .$      MOVS     r4,#0
        0x000194e6:    2004        .       MOVS     r0,#4
        0x000194e8:    a902        ..      ADD      r1,sp,#8
        0x000194ea:    2300        .#      MOVS     r3,#0
        0x000194ec:    2201        ."      MOVS     r2,#1
        0x000194ee:    e9cd1000    ....    STRD     r1,r0,[sp,#0]
        0x000194f2:    f2440140    D.@.    MOV      r1,#0x4040
        0x000194f6:    4638        8F      MOV      r0,r7
        0x000194f8:    f7fffda8    ....    BL       am_device_command_read ; 0x1904c
        0x000194fc:    4605        .F      MOV      r5,r0
        0x000194fe:    b12d        -.      CBZ      r5,0x1950c ; am_devices_mspi_psram_aps12808l_id + 52
        0x00019500:    a089        ..      ADR      r0,{pc}+0x228 ; 0x19728
        0x00019502:    f004f865    ..e.    BL       am_util_stdio_printf ; 0x1d5d0
        0x00019506:    2001        .       MOVS     r0,#1
        0x00019508:    e8bd83fe    ....    POP      {r1-r9,pc}
        0x0001950c:    9802        ..      LDR      r0,[sp,#8]
        0x0001950e:    b2c4        ..      UXTB     r4,r0
        0x00019510:    f024041c    $...    BIC      r4,r4,#0x1c
        0x00019514:    f00404fc    ....    AND      r4,r4,#0xfc
        0x00019518:    f0440401    D...    ORR      r4,r4,#1
        0x0001951c:    f0440420    D. .    ORR      r4,r4,#0x20
        0x00019520:    9402        ..      STR      r4,[sp,#8]
        0x00019522:    2004        .       MOVS     r0,#4
        0x00019524:    a902        ..      ADD      r1,sp,#8
        0x00019526:    2300        .#      MOVS     r3,#0
        0x00019528:    2201        ."      MOVS     r2,#1
        0x0001952a:    e9cd1000    ....    STRD     r1,r0,[sp,#0]
        0x0001952e:    f24c01c0    L...    MOV      r1,#0xc0c0
        0x00019532:    4638        8F      MOV      r0,r7
        0x00019534:    f7fffdba    ....    BL       am_device_command_write ; 0x190ac
        0x00019538:    4605        .F      MOV      r5,r0
        0x0001953a:    b125        %.      CBZ      r5,0x19546 ; am_devices_mspi_psram_aps12808l_id + 110
        0x0001953c:    a085        ..      ADR      r0,{pc}+0x218 ; 0x19754
        0x0001953e:    f004f847    ..G.    BL       am_util_stdio_printf ; 0x1d5d0
        0x00019542:    2001        .       MOVS     r0,#1
        0x00019544:    e7e0        ..      B        0x19508 ; am_devices_mspi_psram_aps12808l_id + 48
        0x00019546:    2004        .       MOVS     r0,#4
        0x00019548:    a902        ..      ADD      r1,sp,#8
        0x0001954a:    2300        .#      MOVS     r3,#0
        0x0001954c:    2201        ."      MOVS     r2,#1
        0x0001954e:    e9cd1000    ....    STRD     r1,r0,[sp,#0]
        0x00019552:    f2440140    D.@.    MOV      r1,#0x4040
        0x00019556:    4638        8F      MOV      r0,r7
        0x00019558:    f7fffd78    ..x.    BL       am_device_command_read ; 0x1904c
        0x0001955c:    4605        .F      MOV      r5,r0
        0x0001955e:    b125        %.      CBZ      r5,0x1956a ; am_devices_mspi_psram_aps12808l_id + 146
        0x00019560:    a071        q.      ADR      r0,{pc}+0x1c8 ; 0x19728
        0x00019562:    f004f835    ..5.    BL       am_util_stdio_printf ; 0x1d5d0
        0x00019566:    2001        .       MOVS     r0,#1
        0x00019568:    e7ce        ..      B        0x19508 ; am_devices_mspi_psram_aps12808l_id + 48
        0x0001956a:    9802        ..      LDR      r0,[sp,#8]
        0x0001956c:    b2c4        ..      UXTB     r4,r0
        0x0001956e:    f3c40182    ....    UBFX     r1,r4,#2,#3
        0x00019572:    1cc9        ..      ADDS     r1,r1,#3
        0x00019574:    a082        ..      ADR      r0,{pc}+0x20c ; 0x19780
        0x00019576:    f004f82b    ..+.    BL       am_util_stdio_printf ; 0x1d5d0
        0x0001957a:    2004        .       MOVS     r0,#4
        0x0001957c:    a902        ..      ADD      r1,sp,#8
        0x0001957e:    4603        .F      MOV      r3,r0
        0x00019580:    2201        ."      MOVS     r2,#1
        0x00019582:    e9cd1000    ....    STRD     r1,r0,[sp,#0]
        0x00019586:    f2440140    D.@.    MOV      r1,#0x4040
        0x0001958a:    4638        8F      MOV      r0,r7
        0x0001958c:    f7fffd5e    ..^.    BL       am_device_command_read ; 0x1904c
        0x00019590:    4605        .F      MOV      r5,r0
        0x00019592:    b125        %.      CBZ      r5,0x1959e ; am_devices_mspi_psram_aps12808l_id + 198
        0x00019594:    a084        ..      ADR      r0,{pc}+0x214 ; 0x197a8
        0x00019596:    f004f81b    ....    BL       am_util_stdio_printf ; 0x1d5d0
        0x0001959a:    2001        .       MOVS     r0,#1
        0x0001959c:    e7b4        ..      B        0x19508 ; am_devices_mspi_psram_aps12808l_id + 48
        0x0001959e:    9802        ..      LDR      r0,[sp,#8]
        0x000195a0:    b2c4        ..      UXTB     r4,r0
        0x000195a2:    f02400e0    $...    BIC      r0,r4,#0xe0
        0x000195a6:    9002        ..      STR      r0,[sp,#8]
        0x000195a8:    2004        .       MOVS     r0,#4
        0x000195aa:    a902        ..      ADD      r1,sp,#8
        0x000195ac:    4603        .F      MOV      r3,r0
        0x000195ae:    2201        ."      MOVS     r2,#1
        0x000195b0:    e9cd1000    ....    STRD     r1,r0,[sp,#0]
        0x000195b4:    f24c01c0    L...    MOV      r1,#0xc0c0
        0x000195b8:    4638        8F      MOV      r0,r7
        0x000195ba:    f7fffd77    ..w.    BL       am_device_command_write ; 0x190ac
        0x000195be:    4605        .F      MOV      r5,r0
        0x000195c0:    b125        %.      CBZ      r5,0x195cc ; am_devices_mspi_psram_aps12808l_id + 244
        0x000195c2:    a084        ..      ADR      r0,{pc}+0x212 ; 0x197d4
        0x000195c4:    f004f804    ....    BL       am_util_stdio_printf ; 0x1d5d0
        0x000195c8:    2001        .       MOVS     r0,#1
        0x000195ca:    e79d        ..      B        0x19508 ; am_devices_mspi_psram_aps12808l_id + 48
        0x000195cc:    2004        .       MOVS     r0,#4
        0x000195ce:    a902        ..      ADD      r1,sp,#8
        0x000195d0:    4603        .F      MOV      r3,r0
        0x000195d2:    2201        ."      MOVS     r2,#1
        0x000195d4:    e9cd1000    ....    STRD     r1,r0,[sp,#0]
        0x000195d8:    f2440140    D.@.    MOV      r1,#0x4040
        0x000195dc:    4638        8F      MOV      r0,r7
        0x000195de:    f7fffd35    ..5.    BL       am_device_command_read ; 0x1904c
        0x000195e2:    4605        .F      MOV      r5,r0
        0x000195e4:    b125        %.      CBZ      r5,0x195f0 ; am_devices_mspi_psram_aps12808l_id + 280
        0x000195e6:    a070        p.      ADR      r0,{pc}+0x1c2 ; 0x197a8
        0x000195e8:    f003fff2    ....    BL       am_util_stdio_printf ; 0x1d5d0
        0x000195ec:    2001        .       MOVS     r0,#1
        0x000195ee:    e78b        ..      B        0x19508 ; am_devices_mspi_psram_aps12808l_id + 48
        0x000195f0:    9802        ..      LDR      r0,[sp,#8]
        0x000195f2:    b2c4        ..      UXTB     r4,r0
        0x000195f4:    2003        .       MOVS     r0,#3
        0x000195f6:    eb001154    ..T.    ADD      r1,r0,r4,LSR #5
        0x000195fa:    a081        ..      ADR      r0,{pc}+0x206 ; 0x19800
        0x000195fc:    f003ffe8    ....    BL       am_util_stdio_printf ; 0x1d5d0
        0x00019600:    2004        .       MOVS     r0,#4
        0x00019602:    a902        ..      ADD      r1,sp,#8
        0x00019604:    2301        .#      MOVS     r3,#1
        0x00019606:    461a        .F      MOV      r2,r3
        0x00019608:    e9cd1000    ....    STRD     r1,r0,[sp,#0]
        0x0001960c:    f2440140    D.@.    MOV      r1,#0x4040
        0x00019610:    4638        8F      MOV      r0,r7
        0x00019612:    f7fffd1b    ....    BL       am_device_command_read ; 0x1904c
        0x00019616:    4605        .F      MOV      r5,r0
        0x00019618:    b125        %.      CBZ      r5,0x19624 ; am_devices_mspi_psram_aps12808l_id + 332
        0x0001961a:    a083        ..      ADR      r0,{pc}+0x20e ; 0x19828
        0x0001961c:    f003ffd8    ....    BL       am_util_stdio_printf ; 0x1d5d0
        0x00019620:    2001        .       MOVS     r0,#1
        0x00019622:    e771        q.      B        0x19508 ; am_devices_mspi_psram_aps12808l_id + 48
        0x00019624:    9802        ..      LDR      r0,[sp,#8]
        0x00019626:    f00008ff    ....    AND      r8,r0,#0xff
        0x0001962a:    f008001f    ....    AND      r0,r8,#0x1f
        0x0001962e:    280d        .(      CMP      r0,#0xd
        0x00019630:    d102        ..      BNE      0x19638 ; am_devices_mspi_psram_aps12808l_id + 352
        0x00019632:    a086        ..      ADR      r0,{pc}+0x21a ; 0x1984c
        0x00019634:    f003ffcc    ....    BL       am_util_stdio_printf ; 0x1d5d0
        0x00019638:    2004        .       MOVS     r0,#4
        0x0001963a:    a902        ..      ADD      r1,sp,#8
        0x0001963c:    2302        .#      MOVS     r3,#2
        0x0001963e:    2201        ."      MOVS     r2,#1
        0x00019640:    e9cd1000    ....    STRD     r1,r0,[sp,#0]
        0x00019644:    f2440140    D.@.    MOV      r1,#0x4040
        0x00019648:    4638        8F      MOV      r0,r7
        0x0001964a:    f7fffcff    ....    BL       am_device_command_read ; 0x1904c
        0x0001964e:    4605        .F      MOV      r5,r0
        0x00019650:    b125        %.      CBZ      r5,0x1965c ; am_devices_mspi_psram_aps12808l_id + 388
        0x00019652:    a086        ..      ADR      r0,{pc}+0x21a ; 0x1986c
        0x00019654:    f003ffbc    ....    BL       am_util_stdio_printf ; 0x1d5d0
        0x00019658:    2001        .       MOVS     r0,#1
        0x0001965a:    e755        U.      B        0x19508 ; am_devices_mspi_psram_aps12808l_id + 48
        0x0001965c:    9802        ..      LDR      r0,[sp,#8]
        0x0001965e:    b2c6        ..      UXTB     r6,r0
        0x00019660:    f3c601c1    ....    UBFX     r1,r6,#3,#2
        0x00019664:    1c49        I.      ADDS     r1,r1,#1
        0x00019666:    a08a        ..      ADR      r0,{pc}+0x22a ; 0x19890
        0x00019668:    f003ffb2    ....    BL       am_util_stdio_printf ; 0x1d5d0
        0x0001966c:    f0060007    ....    AND      r0,r6,#7
        0x00019670:    2801        .(      CMP      r0,#1
        0x00019672:    d103        ..      BNE      0x1967c ; am_devices_mspi_psram_aps12808l_id + 420
        0x00019674:    a090        ..      ADR      r0,{pc}+0x244 ; 0x198b8
        0x00019676:    f003ffab    ....    BL       am_util_stdio_printf ; 0x1d5d0
        0x0001967a:    e016        ..      B        0x196aa ; am_devices_mspi_psram_aps12808l_id + 466
        0x0001967c:    f0060007    ....    AND      r0,r6,#7
        0x00019680:    2803        .(      CMP      r0,#3
        0x00019682:    d103        ..      BNE      0x1968c ; am_devices_mspi_psram_aps12808l_id + 436
        0x00019684:    a093        ..      ADR      r0,{pc}+0x250 ; 0x198d4
        0x00019686:    f003ffa3    ....    BL       am_util_stdio_printf ; 0x1d5d0
        0x0001968a:    e00e        ..      B        0x196aa ; am_devices_mspi_psram_aps12808l_id + 466
        0x0001968c:    f0060007    ....    AND      r0,r6,#7
        0x00019690:    2805        .(      CMP      r0,#5
        0x00019692:    d103        ..      BNE      0x1969c ; am_devices_mspi_psram_aps12808l_id + 452
        0x00019694:    a096        ..      ADR      r0,{pc}+0x25c ; 0x198f0
        0x00019696:    f003ff9b    ....    BL       am_util_stdio_printf ; 0x1d5d0
        0x0001969a:    e006        ..      B        0x196aa ; am_devices_mspi_psram_aps12808l_id + 466
        0x0001969c:    f0060007    ....    AND      r0,r6,#7
        0x000196a0:    2807        .(      CMP      r0,#7
        0x000196a2:    d102        ..      BNE      0x196aa ; am_devices_mspi_psram_aps12808l_id + 466
        0x000196a4:    a099        ..      ADR      r0,{pc}+0x268 ; 0x1990c
        0x000196a6:    f003ff93    ....    BL       am_util_stdio_printf ; 0x1d5d0
        0x000196aa:    2000        .       MOVS     r0,#0
        0x000196ac:    9002        ..      STR      r0,[sp,#8]
        0x000196ae:    2004        .       MOVS     r0,#4
        0x000196b0:    a902        ..      ADD      r1,sp,#8
        0x000196b2:    2303        .#      MOVS     r3,#3
        0x000196b4:    2201        ."      MOVS     r2,#1
        0x000196b6:    e9cd1000    ....    STRD     r1,r0,[sp,#0]
        0x000196ba:    f2440140    D.@.    MOV      r1,#0x4040
        0x000196be:    4638        8F      MOV      r0,r7
        0x000196c0:    f7fffcc4    ....    BL       am_device_command_read ; 0x1904c
        0x000196c4:    4605        .F      MOV      r5,r0
        0x000196c6:    9802        ..      LDR      r0,[sp,#8]
        0x000196c8:    b2c4        ..      UXTB     r4,r0
        0x000196ca:    4621        !F      MOV      r1,r4
        0x000196cc:    a096        ..      ADR      r0,{pc}+0x25c ; 0x19928
        0x000196ce:    f003ff7f    ....    BL       am_util_stdio_printf ; 0x1d5d0
        0x000196d2:    2000        .       MOVS     r0,#0
        0x000196d4:    9002        ..      STR      r0,[sp,#8]
        0x000196d6:    2004        .       MOVS     r0,#4
        0x000196d8:    a902        ..      ADD      r1,sp,#8
        0x000196da:    2306        .#      MOVS     r3,#6
        0x000196dc:    2201        ."      MOVS     r2,#1
        0x000196de:    e9cd1000    ....    STRD     r1,r0,[sp,#0]
        0x000196e2:    f2440140    D.@.    MOV      r1,#0x4040
        0x000196e6:    4638        8F      MOV      r0,r7
        0x000196e8:    f7fffcb0    ....    BL       am_device_command_read ; 0x1904c
        0x000196ec:    4605        .F      MOV      r5,r0
        0x000196ee:    9802        ..      LDR      r0,[sp,#8]
        0x000196f0:    b2c4        ..      UXTB     r4,r0
        0x000196f2:    4621        !F      MOV      r1,r4
        0x000196f4:    a095        ..      ADR      r0,{pc}+0x258 ; 0x1994c
        0x000196f6:    f003ff6b    ..k.    BL       am_util_stdio_printf ; 0x1d5d0
        0x000196fa:    2000        .       MOVS     r0,#0
        0x000196fc:    9002        ..      STR      r0,[sp,#8]
        0x000196fe:    2004        .       MOVS     r0,#4
        0x00019700:    a902        ..      ADD      r1,sp,#8
        0x00019702:    2308        .#      MOVS     r3,#8
        0x00019704:    2201        ."      MOVS     r2,#1
        0x00019706:    e9cd1000    ....    STRD     r1,r0,[sp,#0]
        0x0001970a:    f2440140    D.@.    MOV      r1,#0x4040
        0x0001970e:    4638        8F      MOV      r0,r7
        0x00019710:    f7fffc9c    ....    BL       am_device_command_read ; 0x1904c
        0x00019714:    4605        .F      MOV      r5,r0
        0x00019716:    9802        ..      LDR      r0,[sp,#8]
        0x00019718:    b2c4        ..      UXTB     r4,r0
        0x0001971a:    4621        !F      MOV      r1,r4
        0x0001971c:    a094        ..      ADR      r0,{pc}+0x254 ; 0x19970
        0x0001971e:    f003ff57    ..W.    BL       am_util_stdio_printf ; 0x1d5d0
        0x00019722:    2000        .       MOVS     r0,#0
        0x00019724:    e6f0        ..      B        0x19508 ; am_devices_mspi_psram_aps12808l_id + 48
    $d
        0x00019726:    0000        ..      DCW    0
        0x00019728:    6c696146    Fail    DCD    1818845510
        0x0001972c:    74206465    ed t    DCD    1948279909
        0x00019730:    6572206f    o re    DCD    1701978223
        0x00019734:    50206461    ad P    DCD    1344300129
        0x00019738:    4d415253    SRAM    DCD    1296126547
        0x0001973c:    61655220     Rea    DCD    1634030112
        0x00019740:    614c2064    d La    DCD    1632378980
        0x00019744:    636e6574    tenc    DCD    1668179316
        0x00019748:    6f432079    y Co    DCD    1866670201
        0x0001974c:    0a216564    de!.    DCD    169960804
        0x00019750:    00000000    ....    DCD    0
        0x00019754:    6c696146    Fail    DCD    1818845510
        0x00019758:    74206465    ed t    DCD    1948279909
        0x0001975c:    7277206f    o wr    DCD    1920409711
        0x00019760:    20657469    ite     DCD    543519849
        0x00019764:    41525350    PSRA    DCD    1095914320
        0x00019768:    6552204d    M Re    DCD    1699881037
        0x0001976c:    4c206461    ad L    DCD    1277191265
        0x00019770:    6e657461    aten    DCD    1852142689
        0x00019774:    43207963    cy C    DCD    1126201699
        0x00019778:    2165646f    ode!    DCD    560292975
        0x0001977c:    0000000a    ....    DCD    10
        0x00019780:    2020200a    .       DCD    538976266
        0x00019784:    52535020     PSR    DCD    1381191712
        0x00019788:    52204d41    AM R    DCD    1377848641
        0x0001978c:    20646165    ead     DCD    543449445
        0x00019790:    6574614c    Late    DCD    1702125900
        0x00019794:    2079636e    ncy     DCD    544826222
        0x00019798:    65646f43    Code    DCD    1701080899
        0x0001979c:    30203d20     = 0    DCD    807419168
        0x000197a0:    0a582578    x%X.    DCD    173548920
        0x000197a4:    00000000    ....    DCD    0
        0x000197a8:    6c696146    Fail    DCD    1818845510
        0x000197ac:    74206465    ed t    DCD    1948279909
        0x000197b0:    6572206f    o re    DCD    1701978223
        0x000197b4:    50206461    ad P    DCD    1344300129
        0x000197b8:    4d415253    SRAM    DCD    1296126547
        0x000197bc:    69725720     Wri    DCD    1769101088
        0x000197c0:    4c206574    te L    DCD    1277191540
        0x000197c4:    6e657461    aten    DCD    1852142689
        0x000197c8:    43207963    cy C    DCD    1126201699
        0x000197cc:    2165646f    ode!    DCD    560292975
        0x000197d0:    0000000a    ....    DCD    10
        0x000197d4:    6c696146    Fail    DCD    1818845510
        0x000197d8:    74206465    ed t    DCD    1948279909
        0x000197dc:    7277206f    o wr    DCD    1920409711
        0x000197e0:    20657469    ite     DCD    543519849
        0x000197e4:    41525350    PSRA    DCD    1095914320
        0x000197e8:    7257204d    M Wr    DCD    1918312525
        0x000197ec:    20657469    ite     DCD    543519849
        0x000197f0:    6574614c    Late    DCD    1702125900
        0x000197f4:    2079636e    ncy     DCD    544826222
        0x000197f8:    65646f43    Code    DCD    1701080899
        0x000197fc:    00000a21    !...    DCD    2593
        0x00019800:    20202020            DCD    538976288
        0x00019804:    41525350    PSRA    DCD    1095914320
        0x00019808:    7257204d    M Wr    DCD    1918312525
        0x0001980c:    20657469    ite     DCD    543519849
        0x00019810:    6574614c    Late    DCD    1702125900
        0x00019814:    2079636e    ncy     DCD    544826222
        0x00019818:    65646f43    Code    DCD    1701080899
        0x0001981c:    30203d20     = 0    DCD    807419168
        0x00019820:    0a582578    x%X.    DCD    173548920
        0x00019824:    00000000    ....    DCD    0
        0x00019828:    6c696146    Fail    DCD    1818845510
        0x0001982c:    74206465    ed t    DCD    1948279909
        0x00019830:    6572206f    o re    DCD    1701978223
        0x00019834:    50206461    ad P    DCD    1344300129
        0x00019838:    4d415253    SRAM    DCD    1296126547
        0x0001983c:    6e655620     Ven    DCD    1852134944
        0x00019840:    20726f64    dor     DCD    544370532
        0x00019844:    0a214449    ID!.    DCD    169952329
        0x00019848:    00000000    ....    DCD    0
        0x0001984c:    20202020            DCD    538976288
        0x00019850:    41525350    PSRA    DCD    1095914320
        0x00019854:    6556204d    M Ve    DCD    1700143181
        0x00019858:    726f646e    ndor    DCD    1919902830
        0x0001985c:    20444920     ID     DCD    541346080
        0x00019860:    3020203d    =  0    DCD    807411773
        0x00019864:    31303131    1101    DCD    825241905
        0x00019868:    0000000a    ....    DCD    10
        0x0001986c:    6c696146    Fail    DCD    1818845510
        0x00019870:    74206465    ed t    DCD    1948279909
        0x00019874:    6572206f    o re    DCD    1701978223
        0x00019878:    50206461    ad P    DCD    1344300129
        0x0001987c:    4d415253    SRAM    DCD    1296126547
        0x00019880:    76654420     Dev    DCD    1986348064
        0x00019884:    20656369    ice     DCD    543515497
        0x00019888:    0a214449    ID!.    DCD    169952329
        0x0001988c:    00000000    ....    DCD    0
        0x00019890:    20202020            DCD    538976288
        0x00019894:    41525350    PSRA    DCD    1095914320
        0x00019898:    6544204d    M De    DCD    1698963533
        0x0001989c:    65636976    vice    DCD    1701013878
        0x000198a0:    20444920     ID     DCD    541346080
        0x000198a4:    4720203d    =  G    DCD    1193287741
        0x000198a8:    72656e65    ener    DCD    1919250021
        0x000198ac:    6f697461    atio    DCD    1869182049
        0x000198b0:    6425206e    n %d    DCD    1680154734
        0x000198b4:    0000000a    ....    DCD    10
        0x000198b8:    20202020            DCD    538976288
        0x000198bc:    41525350    PSRA    DCD    1095914320
        0x000198c0:    6544204d    M De    DCD    1698963533
        0x000198c4:    7469736e    nsit    DCD    1953067886
        0x000198c8:    203d2079    y =     DCD    540876921
        0x000198cc:    4d323320     32M    DCD    1295135520
        0x000198d0:    00000a62    b...    DCD    2658
        0x000198d4:    20202020            DCD    538976288
        0x000198d8:    41525350    PSRA    DCD    1095914320
        0x000198dc:    6544204d    M De    DCD    1698963533
        0x000198e0:    7469736e    nsit    DCD    1953067886
        0x000198e4:    203d2079    y =     DCD    540876921
        0x000198e8:    4d343620     64M    DCD    1295267360
        0x000198ec:    00000a62    b...    DCD    2658
        0x000198f0:    20202020            DCD    538976288
        0x000198f4:    41525350    PSRA    DCD    1095914320
        0x000198f8:    6544204d    M De    DCD    1698963533
        0x000198fc:    7469736e    nsit    DCD    1953067886
        0x00019900:    203d2079    y =     DCD    540876921
        0x00019904:    38323120     128    DCD    942813472
        0x00019908:    000a624d    Mb..    DCD    680525
        0x0001990c:    20202020            DCD    538976288
        0x00019910:    41525350    PSRA    DCD    1095914320
        0x00019914:    6544204d    M De    DCD    1698963533
        0x00019918:    7469736e    nsit    DCD    1953067886
        0x0001991c:    203d2079    y =     DCD    540876921
        0x00019920:    36353220     256    DCD    909455904
        0x00019924:    000a624d    Mb..    DCD    680525
        0x00019928:    20202020            DCD    538976288
        0x0001992c:    41525350    PSRA    DCD    1095914320
        0x00019930:    6552204d    M Re    DCD    1699881037
        0x00019934:    74736967    gist    DCD    1953720679
        0x00019938:    4d207265    er M    DCD    1293972069
        0x0001993c:    3d203352    R3 =    DCD    1025520466
        0x00019940:    25783020     0x%    DCD    628633632
        0x00019944:    0a583230    02X.    DCD    173552176
        0x00019948:    00000000    ....    DCD    0
        0x0001994c:    20202020            DCD    538976288
        0x00019950:    41525350    PSRA    DCD    1095914320
        0x00019954:    6552204d    M Re    DCD    1699881037
        0x00019958:    74736967    gist    DCD    1953720679
        0x0001995c:    4d207265    er M    DCD    1293972069
        0x00019960:    3d203652    R6 =    DCD    1025521234
        0x00019964:    25783020     0x%    DCD    628633632
        0x00019968:    0a583230    02X.    DCD    173552176
        0x0001996c:    00000000    ....    DCD    0
        0x00019970:    20202020            DCD    538976288
        0x00019974:    41525350    PSRA    DCD    1095914320
        0x00019978:    6552204d    M Re    DCD    1699881037
        0x0001997c:    74736967    gist    DCD    1953720679
        0x00019980:    4d207265    er M    DCD    1293972069
        0x00019984:    3d203852    R8 =    DCD    1025521746
        0x00019988:    25783020     0x%    DCD    628633632
        0x0001998c:    0a583230    02X.    DCD    173552176
        0x00019990:    0000000a    ....    DCD    10
    $t
    i.am_devices_mspi_psram_aps12808l_reset
    am_devices_mspi_psram_aps12808l_reset
        0x00019994:    b53e        >.      PUSH     {r1-r5,lr}
        0x00019996:    4604        .F      MOV      r4,r0
        0x00019998:    2000        .       MOVS     r0,#0
        0x0001999a:    9002        ..      STR      r0,[sp,#8]
        0x0001999c:    2002        .       MOVS     r0,#2
        0x0001999e:    a902        ..      ADD      r1,sp,#8
        0x000199a0:    2300        .#      MOVS     r3,#0
        0x000199a2:    2201        ."      MOVS     r2,#1
        0x000199a4:    e9cd1000    ....    STRD     r1,r0,[sp,#0]
        0x000199a8:    f64f71ff    O..q    MOV      r1,#0xffff
        0x000199ac:    4620         F      MOV      r0,r4
        0x000199ae:    f7fffb7d    ..}.    BL       am_device_command_write ; 0x190ac
        0x000199b2:    b108        ..      CBZ      r0,0x199b8 ; am_devices_mspi_psram_aps12808l_reset + 36
        0x000199b4:    2001        .       MOVS     r0,#1
        0x000199b6:    bd3e        >.      POP      {r1-r5,pc}
        0x000199b8:    2000        .       MOVS     r0,#0
        0x000199ba:    e7fc        ..      B        0x199b6 ; am_devices_mspi_psram_aps12808l_reset + 34
    i.am_devices_mspi_psram_ddr_init_timing_check
    am_devices_mspi_psram_ddr_init_timing_check
        0x000199bc:    e92d4ff7    -..O    PUSH     {r0-r2,r4-r11,lr}
        0x000199c0:    b090        ..      SUB      sp,sp,#0x40
        0x000199c2:    4617        .F      MOV      r7,r2
        0x000199c4:    2120         !      MOVS     r1,#0x20
        0x000199c6:    a806        ..      ADD      r0,sp,#0x18
        0x000199c8:    f7fefd79    ..y.    BL       __aeabi_memclr4 ; 0x184be
        0x000199cc:    4a5a        ZJ      LDR      r2,[pc,#360] ; [0x19b38] = 0x1f10c
        0x000199ce:    ca07        ..      LDM      r2,{r0-r2}
        0x000199d0:    ab03        ..      ADD      r3,sp,#0xc
        0x000199d2:    c307        ..      STM      r3!,{r0-r2}
        0x000199d4:    9811        ..      LDR      r0,[sp,#0x44]
        0x000199d6:    7800        .x      LDRB     r0,[r0,#0]
        0x000199d8:    2808        .(      CMP      r0,#8
        0x000199da:    d002        ..      BEQ      0x199e2 ; am_devices_mspi_psram_ddr_init_timing_check + 38
        0x000199dc:    2809        .(      CMP      r0,#9
        0x000199de:    d104        ..      BNE      0x199ea ; am_devices_mspi_psram_ddr_init_timing_check + 46
        0x000199e0:    e001        ..      B        0x199e6 ; am_devices_mspi_psram_ddr_init_timing_check + 42
        0x000199e2:    4c56        VL      LDR      r4,[pc,#344] ; [0x19b3c] = 0x10000148
        0x000199e4:    e005        ..      B        0x199f2 ; am_devices_mspi_psram_ddr_init_timing_check + 54
        0x000199e6:    4c56        VL      LDR      r4,[pc,#344] ; [0x19b40] = 0x1000015e
        0x000199e8:    e003        ..      B        0x199f2 ; am_devices_mspi_psram_ddr_init_timing_check + 54
        0x000199ea:    2001        .       MOVS     r0,#1
        0x000199ec:    b013        ..      ADD      sp,sp,#0x4c
        0x000199ee:    e8bd8ff0    ....    POP      {r4-r11,pc}
        0x000199f2:    bf00        ..      NOP      
        0x000199f4:    8a60        `.      LDRH     r0,[r4,#0x12]
        0x000199f6:    9002        ..      STR      r0,[sp,#8]
        0x000199f8:    7d20         }      LDRB     r0,[r4,#0x14]
        0x000199fa:    9001        ..      STR      r0,[sp,#4]
        0x000199fc:    2000        .       MOVS     r0,#0
        0x000199fe:    8260        `.      STRH     r0,[r4,#0x12]
        0x00019a00:    7520         u      STRB     r0,[r4,#0x14]
        0x00019a02:    ab0e        ..      ADD      r3,sp,#0x38
        0x00019a04:    aa0f        ..      ADD      r2,sp,#0x3c
        0x00019a06:    e9dd0110    ....    LDRD     r0,r1,[sp,#0x40]
        0x00019a0a:    f7fffc01    ....    BL       am_devices_mspi_psram_aps12808l_ddr_init ; 0x19210
        0x00019a0e:    4606        .F      MOV      r6,r0
        0x00019a10:    b126        &.      CBZ      r6,0x19a1c ; am_devices_mspi_psram_ddr_init_timing_check + 96
        0x00019a12:    a04c        L.      ADR      r0,{pc}+0x132 ; 0x19b44
        0x00019a14:    f003fddc    ....    BL       am_util_stdio_printf ; 0x1d5d0
        0x00019a18:    4630        0F      MOV      r0,r6
        0x00019a1a:    e7e7        ..      B        0x199ec ; am_devices_mspi_psram_ddr_init_timing_check + 48
        0x00019a1c:    9802        ..      LDR      r0,[sp,#8]
        0x00019a1e:    8260        `.      STRH     r0,[r4,#0x12]
        0x00019a20:    9801        ..      LDR      r0,[sp,#4]
        0x00019a22:    7520         u      STRB     r0,[r4,#0x14]
        0x00019a24:    980f        ..      LDR      r0,[sp,#0x3c]
        0x00019a26:    f7fffbd3    ....    BL       am_devices_mspi_psram_aps12808l_ddr_enable_xip ; 0x191d0
        0x00019a2a:    4606        .F      MOV      r6,r0
        0x00019a2c:    b126        &.      CBZ      r6,0x19a38 ; am_devices_mspi_psram_ddr_init_timing_check + 124
        0x00019a2e:    a055        U.      ADR      r0,{pc}+0x156 ; 0x19b84
        0x00019a30:    f003fdce    ....    BL       am_util_stdio_printf ; 0x1d5d0
        0x00019a34:    4630        0F      MOV      r0,r6
        0x00019a36:    e7d9        ..      B        0x199ec ; am_devices_mspi_psram_ddr_init_timing_check + 48
        0x00019a38:    2500        .%      MOVS     r5,#0
        0x00019a3a:    e03f        ?.      B        0x19abc ; am_devices_mspi_psram_ddr_init_timing_check + 256
        0x00019a3c:    eb050045    ..E.    ADD      r0,r5,r5,LSL #1
        0x00019a40:    495c        \I      LDR      r1,[pc,#368] ; [0x19bb4] = 0x1f0ac
        0x00019a42:    f8110020    .. .    LDRB     r0,[r1,r0,LSL #2]
        0x00019a46:    f88d0015    ....    STRB     r0,[sp,#0x15]
        0x00019a4a:    f88d0014    ....    STRB     r0,[sp,#0x14]
        0x00019a4e:    eb050045    ..E.    ADD      r0,r5,r5,LSL #1
        0x00019a52:    eb010080    ....    ADD      r0,r1,r0,LSL #2
        0x00019a56:    6840        @h      LDR      r0,[r0,#4]
        0x00019a58:    b108        ..      CBZ      r0,0x19a5e ; am_devices_mspi_psram_ddr_init_timing_check + 162
        0x00019a5a:    2001        .       MOVS     r0,#1
        0x00019a5c:    e000        ..      B        0x19a60 ; am_devices_mspi_psram_ddr_init_timing_check + 164
        0x00019a5e:    2000        .       MOVS     r0,#0
        0x00019a60:    f88d0016    ....    STRB     r0,[sp,#0x16]
        0x00019a64:    f04f0b01    O...    MOV      r11,#1
        0x00019a68:    e023        #.      B        0x19ab2 ; am_devices_mspi_psram_ddr_init_timing_check + 246
        0x00019a6a:    f88db00f    ....    STRB     r11,[sp,#0xf]
        0x00019a6e:    aa03        ..      ADD      r2,sp,#0xc
        0x00019a70:    210b        .!      MOVS     r1,#0xb
        0x00019a72:    980e        ..      LDR      r0,[sp,#0x38]
        0x00019a74:    f001f808    ....    BL       am_hal_mspi_control ; 0x1aa88
        0x00019a78:    4606        .F      MOV      r6,r0
        0x00019a7a:    b10e        ..      CBZ      r6,0x19a80 ; am_devices_mspi_psram_ddr_init_timing_check + 196
        0x00019a7c:    2001        .       MOVS     r0,#1
        0x00019a7e:    e7b5        ..      B        0x199ec ; am_devices_mspi_psram_ddr_init_timing_check + 48
        0x00019a80:    4a4d        MJ      LDR      r2,[pc,#308] ; [0x19bb8] = 0x1f0a0
        0x00019a82:    9810        ..      LDR      r0,[sp,#0x40]
        0x00019a84:    f8520020    R. .    LDR      r0,[r2,r0,LSL #2]
        0x00019a88:    eb00010b    ....    ADD      r1,r0,r11
        0x00019a8c:    f44f3000    O..0    MOV      r0,#0x20000
        0x00019a90:    f004ff86    ....    BL       psram_check ; 0x1e9a0
        0x00019a94:    b948        H.      CBNZ     r0,0x19aaa ; am_devices_mspi_psram_ddr_init_timing_check + 238
        0x00019a96:    a806        ..      ADD      r0,sp,#0x18
        0x00019a98:    f8500025    P.%.    LDR      r0,[r0,r5,LSL #2]
        0x00019a9c:    2101        .!      MOVS     r1,#1
        0x00019a9e:    fa01f10b    ....    LSL      r1,r1,r11
        0x00019aa2:    4308        .C      ORRS     r0,r0,r1
        0x00019aa4:    a906        ..      ADD      r1,sp,#0x18
        0x00019aa6:    f8410025    A.%.    STR      r0,[r1,r5,LSL #2]
        0x00019aaa:    f10b0001    ....    ADD      r0,r11,#1
        0x00019aae:    f0000bff    ....    AND      r11,r0,#0xff
        0x00019ab2:    f1bb0f1f    ....    CMP      r11,#0x1f
        0x00019ab6:    dbd8        ..      BLT      0x19a6a ; am_devices_mspi_psram_ddr_init_timing_check + 174
        0x00019ab8:    1c68        h.      ADDS     r0,r5,#1
        0x00019aba:    b2c5        ..      UXTB     r5,r0
        0x00019abc:    2d08        .-      CMP      r5,#8
        0x00019abe:    dbbd        ..      BLT      0x19a3c ; am_devices_mspi_psram_ddr_init_timing_check + 128
        0x00019ac0:    f04f0800    O...    MOV      r8,#0
        0x00019ac4:    46c1        .F      MOV      r9,r8
        0x00019ac6:    46c2        .F      MOV      r10,r8
        0x00019ac8:    2500        .%      MOVS     r5,#0
        0x00019aca:    e011        ..      B        0x19af0 ; am_devices_mspi_psram_ddr_init_timing_check + 308
        0x00019acc:    a906        ..      ADD      r1,sp,#0x18
        0x00019ace:    eb010085    ....    ADD      r0,r1,r5,LSL #2
        0x00019ad2:    f004f871    ..q.    BL       count_consecutive_ones ; 0x1dbb8
        0x00019ad6:    4682        .F      MOV      r10,r0
        0x00019ad8:    45ca        .E      CMP      r10,r9
        0x00019ada:    d901        ..      BLS      0x19ae0 ; am_devices_mspi_psram_ddr_init_timing_check + 292
        0x00019adc:    46d1        .F      MOV      r9,r10
        0x00019ade:    46a8        .F      MOV      r8,r5
        0x00019ae0:    a806        ..      ADD      r0,sp,#0x18
        0x00019ae2:    f8502025    P.%     LDR      r2,[r0,r5,LSL #2]
        0x00019ae6:    4629        )F      MOV      r1,r5
        0x00019ae8:    a034        4.      ADR      r0,{pc}+0xd4 ; 0x19bbc
        0x00019aea:    f003fd71    ..q.    BL       am_util_stdio_printf ; 0x1d5d0
        0x00019aee:    1c6d        m.      ADDS     r5,r5,#1
        0x00019af0:    2d08        .-      CMP      r5,#8
        0x00019af2:    d3eb        ..      BCC      0x19acc ; am_devices_mspi_psram_ddr_init_timing_check + 272
        0x00019af4:    4649        IF      MOV      r1,r9
        0x00019af6:    a038        8.      ADR      r0,{pc}+0xe2 ; 0x19bd8
        0x00019af8:    f003fd6a    ..j.    BL       am_util_stdio_printf ; 0x1d5d0
        0x00019afc:    f1b90f08    ....    CMP      r9,#8
        0x00019b00:    d201        ..      BCS      0x19b06 ; am_devices_mspi_psram_ddr_init_timing_check + 330
        0x00019b02:    2001        .       MOVS     r0,#1
        0x00019b04:    e772        r.      B        0x199ec ; am_devices_mspi_psram_ddr_init_timing_check + 48
        0x00019b06:    a906        ..      ADD      r1,sp,#0x18
        0x00019b08:    eb010088    ....    ADD      r0,r1,r8,LSL #2
        0x00019b0c:    f004f8e5    ....    BL       find_mid_point ; 0x1dcda
        0x00019b10:    9000        ..      STR      r0,[sp,#0]
        0x00019b12:    980f        ..      LDR      r0,[sp,#0x3c]
        0x00019b14:    f7fffb18    ....    BL       am_devices_mspi_psram_aps12808l_ddr_deinit ; 0x19148
        0x00019b18:    9800        ..      LDR      r0,[sp,#0]
        0x00019b1a:    60b8        .`      STR      r0,[r7,#8]
        0x00019b1c:    eb080048    ..H.    ADD      r0,r8,r8,LSL #1
        0x00019b20:    4924        $I      LDR      r1,[pc,#144] ; [0x19bb4] = 0x1f0ac
        0x00019b22:    eb010080    ....    ADD      r0,r1,r0,LSL #2
        0x00019b26:    6840        @h      LDR      r0,[r0,#4]
        0x00019b28:    6078        x`      STR      r0,[r7,#4]
        0x00019b2a:    eb080048    ..H.    ADD      r0,r8,r8,LSL #1
        0x00019b2e:    f8510020    Q. .    LDR      r0,[r1,r0,LSL #2]
        0x00019b32:    6038        8`      STR      r0,[r7,#0]
        0x00019b34:    2000        .       MOVS     r0,#0
        0x00019b36:    e759        Y.      B        0x199ec ; am_devices_mspi_psram_ddr_init_timing_check + 48
    $d
        0x00019b38:    0001f10c    ....    DCD    127244
        0x00019b3c:    10000148    H...    DCD    268435784
        0x00019b40:    1000015e    ^...    DCD    268435806
        0x00019b44:    20202020            DCD    538976288
        0x00019b48:    6c696146    Fail    DCD    1818845510
        0x00019b4c:    74206465    ed t    DCD    1948279909
        0x00019b50:    6f63206f    o co    DCD    1868767343
        0x00019b54:    6769666e    nfig    DCD    1734960750
        0x00019b58:    20657275    ure     DCD    543519349
        0x00019b5c:    20656874    the     DCD    543516788
        0x00019b60:    4950534d    MSPI    DCD    1230000973
        0x00019b64:    646e6120     and    DCD    1684955424
        0x00019b68:    52535020     PSR    DCD    1381191712
        0x00019b6c:    44204d41    AM D    DCD    1142967617
        0x00019b70:    63697665    evic    DCD    1667855973
        0x00019b74:    6f632065    e co    DCD    1868767333
        0x00019b78:    63657272    rrec    DCD    1667592818
        0x00019b7c:    21796c74    tly!    DCD    561605748
        0x00019b80:    0000000a    ....    DCD    10
        0x00019b84:    20202020            DCD    538976288
        0x00019b88:    6c696146    Fail    DCD    1818845510
        0x00019b8c:    74206465    ed t    DCD    1948279909
        0x00019b90:    6964206f    o di    DCD    1768169583
        0x00019b94:    6c626173    sabl    DCD    1818386803
        0x00019b98:    49582065    e XI    DCD    1230512229
        0x00019b9c:    6f6d2050    P mo    DCD    1869422672
        0x00019ba0:    69206564    de i    DCD    1763730788
        0x00019ba4:    6874206e    n th    DCD    1752440942
        0x00019ba8:    534d2065    e MS    DCD    1397563493
        0x00019bac:    0a214950    PI!.    DCD    169953616
        0x00019bb0:    00000000    ....    DCD    0
        0x00019bb4:    0001f0ac    ....    DCD    127148
        0x00019bb8:    0001f0a0    ....    DCD    127136
        0x00019bbc:    20202020            DCD    538976288
        0x00019bc0:    74746553    Sett    DCD    1953785171
        0x00019bc4:    20676e69    ing     DCD    543649385
        0x00019bc8:    3d206425    %d =    DCD    1025532965
        0x00019bcc:    25783020     0x%    DCD    628633632
        0x00019bd0:    0a583830    08X.    DCD    173553712
        0x00019bd4:    00000000    ....    DCD    0
        0x00019bd8:    20202020            DCD    538976288
        0x00019bdc:    2078614d    Max     DCD    544760141
        0x00019be0:    676e656c    leng    DCD    1735288172
        0x00019be4:    3d206874    th =    DCD    1025534068
        0x00019be8:    20642520     %d     DCD    543434016
        0x00019bec:    0000000a    ....    DCD    10
    $t
    i.am_hal_cachectrl_config
    am_hal_cachectrl_config
        0x00019bf0:    b538        8.      PUSH     {r3-r5,lr}
        0x00019bf2:    4604        .F      MOV      r4,r0
        0x00019bf4:    f7fefbb0    ....    BL       am_hal_interrupt_master_disable ; 0x18358
        0x00019bf8:    f04f4590    O..E    MOV      r5,#0x48000000
        0x00019bfc:    9000        ..      STR      r0,[sp,#0]
        0x00019bfe:    6828        (h      LDR      r0,[r5,#0]
        0x00019c00:    f4207040     .@p    BIC      r0,r0,#0x300
        0x00019c04:    6028        (`      STR      r0,[r5,#0]
        0x00019c06:    9800        ..      LDR      r0,[sp,#0]
        0x00019c08:    f7fefbaa    ....    BL       am_hal_interrupt_master_set ; 0x18360
        0x00019c0c:    78a0        .x      LDRB     r0,[r4,#2]
        0x00019c0e:    2102        .!      MOVS     r1,#2
        0x00019c10:    ea010040    ..@.    AND      r0,r1,r0,LSL #1
        0x00019c14:    7821        !x      LDRB     r1,[r4,#0]
        0x00019c16:    22f0        ."      MOVS     r2,#0xf0
        0x00019c18:    ea021101    ....    AND      r1,r2,r1,LSL #4
        0x00019c1c:    4308        .C      ORRS     r0,r0,r1
        0x00019c1e:    7861        ax      LDRB     r1,[r4,#1]
        0x00019c20:    f44f7240    O.@r    MOV      r2,#0x300
        0x00019c24:    ea022101    ...!    AND      r1,r2,r1,LSL #8
        0x00019c28:    4308        .C      ORRS     r0,r0,r1
        0x00019c2a:    f4406080    @..`    ORR      r0,r0,#0x400
        0x00019c2e:    f4401080    @...    ORR      r0,r0,#0x100000
        0x00019c32:    6028        (`      STR      r0,[r5,#0]
        0x00019c34:    2000        .       MOVS     r0,#0
        0x00019c36:    bd38        8.      POP      {r3-r5,pc}
    i.am_hal_cachectrl_enable
    am_hal_cachectrl_enable
        0x00019c38:    f04f4090    O..@    MOV      r0,#0x48000000
        0x00019c3c:    6801        .h      LDR      r1,[r0,#0]
        0x00019c3e:    f0410101    A...    ORR      r1,r1,#1
        0x00019c42:    6001        .`      STR      r1,[r0,#0]
        0x00019c44:    6881        .h      LDR      r1,[r0,#8]
        0x00019c46:    f0410101    A...    ORR      r1,r1,#1
        0x00019c4a:    6081        .`      STR      r1,[r0,#8]
        0x00019c4c:    2000        .       MOVS     r0,#0
        0x00019c4e:    4770        pG      BX       lr
    i.am_hal_cmdq_alloc_block
    am_hal_cmdq_alloc_block
        0x00019c50:    b5f8        ..      PUSH     {r3-r7,lr}
        0x00019c52:    461e        .F      MOV      r6,r3
        0x00019c54:    4617        .F      MOV      r7,r2
        0x00019c56:    460d        .F      MOV      r5,r1
        0x00019c58:    1e04        ..      SUBS     r4,r0,#0
        0x00019c5a:    bf1c        ..      ITT      NE
        0x00019c5c:    6820         h      LDRNE    r0,[r4,#0]
        0x00019c5e:    f0107f80    ....    TSTNE    r0,#0x1000000
        0x00019c62:    d004        ..      BEQ      0x19c6e ; am_hal_cmdq_alloc_block + 30
        0x00019c64:    492c        ,I      LDR      r1,[pc,#176] ; [0x19d18] = 0xcdcdcd
        0x00019c66:    f020407f     ..@    BIC      r0,r0,#0xff000000
        0x00019c6a:    4288        .B      CMP      r0,r1
        0x00019c6c:    d001        ..      BEQ      0x19c72 ; am_hal_cmdq_alloc_block + 34
        0x00019c6e:    2002        .       MOVS     r0,#2
        0x00019c70:    bdf8        ..      POP      {r3-r7,pc}
        0x00019c72:    2f00        ./      CMP      r7,#0
        0x00019c74:    bf12        ..      ITEE     NE
        0x00019c76:    2e00        ..      CMPNE    r6,#0
        0x00019c78:    2006        .       MOVEQ    r0,#6
        0x00019c7a:    bdf8        ..      POPEQ    {r3-r7,pc}
        0x00019c7c:    e9d40104    ....    LDRD     r0,r1,[r4,#0x10]
        0x00019c80:    4288        .B      CMP      r0,r1
        0x00019c82:    bf1c        ..      ITT      NE
        0x00019c84:    2007        .       MOVNE    r0,#7
        0x00019c86:    bdf8        ..      POPNE    {r3-r7,pc}
        0x00019c88:    f7fefb66    ..f.    BL       am_hal_interrupt_master_disable ; 0x18358
        0x00019c8c:    9000        ..      STR      r0,[sp,#0]
        0x00019c8e:    6a60        `j      LDR      r0,[r4,#0x24]
        0x00019c90:    6880        .h      LDR      r0,[r0,#8]
        0x00019c92:    6800        .h      LDR      r0,[r0,#0]
        0x00019c94:    6a21        !j      LDR      r1,[r4,#0x20]
        0x00019c96:    b2c0        ..      UXTB     r0,r0
        0x00019c98:    f02101ff    !...    BIC      r1,r1,#0xff
        0x00019c9c:    4308        .C      ORRS     r0,r0,r1
        0x00019c9e:    61e0        .a      STR      r0,[r4,#0x1c]
        0x00019ca0:    6a21        !j      LDR      r1,[r4,#0x20]
        0x00019ca2:    1a09        ..      SUBS     r1,r1,r0
        0x00019ca4:    bf44        D.      ITT      MI
        0x00019ca6:    f5a07080    ...p    SUBMI    r0,r0,#0x100
        0x00019caa:    61e0        .a      STRMI    r0,[r4,#0x1c]
        0x00019cac:    6a60        `j      LDR      r0,[r4,#0x24]
        0x00019cae:    6840        @h      LDR      r0,[r0,#4]
        0x00019cb0:    6800        .h      LDR      r0,[r0,#0]
        0x00019cb2:    60e0        .`      STR      r0,[r4,#0xc]
        0x00019cb4:    9800        ..      LDR      r0,[sp,#0]
        0x00019cb6:    f7fefb53    ..S.    BL       am_hal_interrupt_master_set ; 0x18360
        0x00019cba:    e9d40107    ....    LDRD     r0,r1,[r4,#0x1c]
        0x00019cbe:    1a40        @.      SUBS     r0,r0,r1
        0x00019cc0:    f1100ffe    ....    CMN      r0,#0xfe
        0x00019cc4:    d41c        ..      BMI      0x19d00 ; am_hal_cmdq_alloc_block + 176
        0x00019cc6:    e9d42003    ...     LDRD     r2,r0,[r4,#0xc]
        0x00019cca:    2108        .!      MOVS     r1,#8
        0x00019ccc:    eb0101c5    ....    ADD      r1,r1,r5,LSL #3
        0x00019cd0:    4290        .B      CMP      r0,r2
        0x00019cd2:    d312        ..      BCC      0x19cfa ; am_hal_cmdq_alloc_block + 170
        0x00019cd4:    2310        .#      MOVS     r3,#0x10
        0x00019cd6:    eb0303c5    ....    ADD      r3,r3,r5,LSL #3
        0x00019cda:    f8d4c008    ....    LDR      r12,[r4,#8]
        0x00019cde:    4403        .D      ADD      r3,r3,r0
        0x00019ce0:    4563        cE      CMP      r3,r12
        0x00019ce2:    d90f        ..      BLS      0x19d04 ; am_hal_cmdq_alloc_block + 180
        0x00019ce4:    6863        ch      LDR      r3,[r4,#4]
        0x00019ce6:    4419        .D      ADD      r1,r1,r3
        0x00019ce8:    428a        .B      CMP      r2,r1
        0x00019cea:    d909        ..      BLS      0x19d00 ; am_hal_cmdq_alloc_block + 176
        0x00019cec:    6a61        aj      LDR      r1,[r4,#0x24]
        0x00019cee:    6849        Ih      LDR      r1,[r1,#4]
        0x00019cf0:    6001        .`      STR      r1,[r0,#0]
        0x00019cf2:    6861        ah      LDR      r1,[r4,#4]
        0x00019cf4:    6041        A`      STR      r1,[r0,#4]
        0x00019cf6:    6860        `h      LDR      r0,[r4,#4]
        0x00019cf8:    e004        ..      B        0x19d04 ; am_hal_cmdq_alloc_block + 180
        0x00019cfa:    4401        .D      ADD      r1,r1,r0
        0x00019cfc:    4291        .B      CMP      r1,r2
        0x00019cfe:    d301        ..      BCC      0x19d04 ; am_hal_cmdq_alloc_block + 180
        0x00019d00:    2005        .       MOVS     r0,#5
        0x00019d02:    bdf8        ..      POP      {r3-r7,pc}
        0x00019d04:    6038        8`      STR      r0,[r7,#0]
        0x00019d06:    6a21        !j      LDR      r1,[r4,#0x20]
        0x00019d08:    eb0000c5    ....    ADD      r0,r0,r5,LSL #3
        0x00019d0c:    1c49        I.      ADDS     r1,r1,#1
        0x00019d0e:    6221        !b      STR      r1,[r4,#0x20]
        0x00019d10:    6031        1`      STR      r1,[r6,#0]
        0x00019d12:    6160        `a      STR      r0,[r4,#0x14]
        0x00019d14:    2000        .       MOVS     r0,#0
        0x00019d16:    bdf8        ..      POP      {r3-r7,pc}
    $d
        0x00019d18:    00cdcdcd    ....    DCD    13487565
    $t
    i.am_hal_cmdq_disable
    am_hal_cmdq_disable
        0x00019d1c:    2800        .(      CMP      r0,#0
        0x00019d1e:    bf1c        ..      ITT      NE
        0x00019d20:    6801        .h      LDRNE    r1,[r0,#0]
        0x00019d22:    f0117f80    ....    TSTNE    r1,#0x1000000
        0x00019d26:    d004        ..      BEQ      0x19d32 ; am_hal_cmdq_disable + 22
        0x00019d28:    4b0b        .K      LDR      r3,[pc,#44] ; [0x19d58] = 0xcdcdcd
        0x00019d2a:    f021427f    !..B    BIC      r2,r1,#0xff000000
        0x00019d2e:    429a        .B      CMP      r2,r3
        0x00019d30:    d001        ..      BEQ      0x19d36 ; am_hal_cmdq_disable + 26
        0x00019d32:    2002        .       MOVS     r0,#2
        0x00019d34:    4770        pG      BX       lr
        0x00019d36:    f0117f00    ....    TST      r1,#0x2000000
        0x00019d3a:    bf04        ..      ITT      EQ
        0x00019d3c:    2000        .       MOVEQ    r0,#0
        0x00019d3e:    4770        pG      BXEQ     lr
        0x00019d40:    6a41        Aj      LDR      r1,[r0,#0x24]
        0x00019d42:    6809        .h      LDR      r1,[r1,#0]
        0x00019d44:    680a        .h      LDR      r2,[r1,#0]
        0x00019d46:    f0220201    "...    BIC      r2,r2,#1
        0x00019d4a:    600a        .`      STR      r2,[r1,#0]
        0x00019d4c:    6801        .h      LDR      r1,[r0,#0]
        0x00019d4e:    f0217100    !..q    BIC      r1,r1,#0x2000000
        0x00019d52:    6001        .`      STR      r1,[r0,#0]
        0x00019d54:    2000        .       MOVS     r0,#0
        0x00019d56:    4770        pG      BX       lr
    $d
        0x00019d58:    00cdcdcd    ....    DCD    13487565
    $t
    i.am_hal_cmdq_enable
    am_hal_cmdq_enable
        0x00019d5c:    b510        ..      PUSH     {r4,lr}
        0x00019d5e:    1e04        ..      SUBS     r4,r0,#0
        0x00019d60:    bf1c        ..      ITT      NE
        0x00019d62:    6820         h      LDRNE    r0,[r4,#0]
        0x00019d64:    f0107f80    ....    TSTNE    r0,#0x1000000
        0x00019d68:    d004        ..      BEQ      0x19d74 ; am_hal_cmdq_enable + 24
        0x00019d6a:    4a10        .J      LDR      r2,[pc,#64] ; [0x19dac] = 0xcdcdcd
        0x00019d6c:    f020417f     ..A    BIC      r1,r0,#0xff000000
        0x00019d70:    4291        .B      CMP      r1,r2
        0x00019d72:    d001        ..      BEQ      0x19d78 ; am_hal_cmdq_enable + 28
        0x00019d74:    2002        .       MOVS     r0,#2
        0x00019d76:    bd10        ..      POP      {r4,pc}
        0x00019d78:    f0107f00    ....    TST      r0,#0x2000000
        0x00019d7c:    bf1c        ..      ITT      NE
        0x00019d7e:    2000        .       MOVNE    r0,#0
        0x00019d80:    bd10        ..      POPNE    {r4,pc}
        0x00019d82:    490b        .I      LDR      r1,[pc,#44] ; [0x19db0] = 0x10060000
        0x00019d84:    68a0        .h      LDR      r0,[r4,#8]
        0x00019d86:    4288        .B      CMP      r0,r1
        0x00019d88:    d303        ..      BCC      0x19d92 ; am_hal_cmdq_enable + 54
        0x00019d8a:    2100        .!      MOVS     r1,#0
        0x00019d8c:    2002        .       MOVS     r0,#2
        0x00019d8e:    f000fa3b    ..;.    BL       am_hal_daxi_control ; 0x1a208
        0x00019d92:    6a60        `j      LDR      r0,[r4,#0x24]
        0x00019d94:    6800        .h      LDR      r0,[r0,#0]
        0x00019d96:    6801        .h      LDR      r1,[r0,#0]
        0x00019d98:    f0410101    A...    ORR      r1,r1,#1
        0x00019d9c:    6001        .`      STR      r1,[r0,#0]
        0x00019d9e:    6820         h      LDR      r0,[r4,#0]
        0x00019da0:    f0407000    @..p    ORR      r0,r0,#0x2000000
        0x00019da4:    6020         `      STR      r0,[r4,#0]
        0x00019da6:    2000        .       MOVS     r0,#0
        0x00019da8:    bd10        ..      POP      {r4,pc}
    $d
        0x00019daa:    0000        ..      DCW    0
        0x00019dac:    00cdcdcd    ....    DCD    13487565
        0x00019db0:    10060000    ....    DCD    268828672
    $t
    i.am_hal_cmdq_error_resume
    am_hal_cmdq_error_resume
        0x00019db4:    2800        .(      CMP      r0,#0
        0x00019db6:    bf1c        ..      ITT      NE
        0x00019db8:    6801        .h      LDRNE    r1,[r0,#0]
        0x00019dba:    f0117f80    ....    TSTNE    r1,#0x1000000
        0x00019dbe:    d004        ..      BEQ      0x19dca ; am_hal_cmdq_error_resume + 22
        0x00019dc0:    4b18        .K      LDR      r3,[pc,#96] ; [0x19e24] = 0xcdcdcd
        0x00019dc2:    f021427f    !..B    BIC      r2,r1,#0xff000000
        0x00019dc6:    429a        .B      CMP      r2,r3
        0x00019dc8:    d001        ..      BEQ      0x19dce ; am_hal_cmdq_error_resume + 26
        0x00019dca:    2002        .       MOVS     r0,#2
        0x00019dcc:    4770        pG      BX       lr
        0x00019dce:    f0117f00    ....    TST      r1,#0x2000000
        0x00019dd2:    bf04        ..      ITT      EQ
        0x00019dd4:    2000        .       MOVEQ    r0,#0
        0x00019dd6:    4770        pG      BXEQ     lr
        0x00019dd8:    6a41        Aj      LDR      r1,[r0,#0x24]
        0x00019dda:    6809        .h      LDR      r1,[r1,#0]
        0x00019ddc:    680a        .h      LDR      r2,[r1,#0]
        0x00019dde:    f0220201    "...    BIC      r2,r2,#1
        0x00019de2:    600a        .`      STR      r2,[r1,#0]
        0x00019de4:    6a42        Bj      LDR      r2,[r0,#0x24]
        0x00019de6:    6853        Sh      LDR      r3,[r2,#4]
        0x00019de8:    6819        .h      LDR      r1,[r3,#0]
        0x00019dea:    6892        .h      LDR      r2,[r2,#8]
        0x00019dec:    f8d1c000    ....    LDR      r12,[r1,#0]
        0x00019df0:    f02c0c01    ,...    BIC      r12,r12,#1
        0x00019df4:    4594        .E      CMP      r12,r2
        0x00019df6:    d00b        ..      BEQ      0x19e10 ; am_hal_cmdq_error_resume + 92
        0x00019df8:    f8d1c000    ....    LDR      r12,[r1,#0]
        0x00019dfc:    459c        .E      CMP      r12,r3
        0x00019dfe:    bf0c        ..      ITE      EQ
        0x00019e00:    6849        Ih      LDREQ    r1,[r1,#4]
        0x00019e02:    3108        .1      ADDNE    r1,r1,#8
        0x00019e04:    f8d1c000    ....    LDR      r12,[r1,#0]
        0x00019e08:    f02c0c01    ,...    BIC      r12,r12,#1
        0x00019e0c:    4594        .E      CMP      r12,r2
        0x00019e0e:    d1f3        ..      BNE      0x19df8 ; am_hal_cmdq_error_resume + 68
        0x00019e10:    600a        .`      STR      r2,[r1,#0]
        0x00019e12:    6a42        Bj      LDR      r2,[r0,#0x24]
        0x00019e14:    6852        Rh      LDR      r2,[r2,#4]
        0x00019e16:    6011        .`      STR      r1,[r2,#0]
        0x00019e18:    6801        .h      LDR      r1,[r0,#0]
        0x00019e1a:    f0217100    !..q    BIC      r1,r1,#0x2000000
        0x00019e1e:    6001        .`      STR      r1,[r0,#0]
        0x00019e20:    2000        .       MOVS     r0,#0
        0x00019e22:    4770        pG      BX       lr
    $d
        0x00019e24:    00cdcdcd    ....    DCD    13487565
    $t
    i.am_hal_cmdq_get_status
    am_hal_cmdq_get_status
        0x00019e28:    b538        8.      PUSH     {r3-r5,lr}
        0x00019e2a:    460d        .F      MOV      r5,r1
        0x00019e2c:    1e04        ..      SUBS     r4,r0,#0
        0x00019e2e:    bf1c        ..      ITT      NE
        0x00019e30:    6820         h      LDRNE    r0,[r4,#0]
        0x00019e32:    f0107f80    ....    TSTNE    r0,#0x1000000
        0x00019e36:    d004        ..      BEQ      0x19e42 ; am_hal_cmdq_get_status + 26
        0x00019e38:    4923        #I      LDR      r1,[pc,#140] ; [0x19ec8] = 0xcdcdcd
        0x00019e3a:    f020407f     ..@    BIC      r0,r0,#0xff000000
        0x00019e3e:    4288        .B      CMP      r0,r1
        0x00019e40:    d001        ..      BEQ      0x19e46 ; am_hal_cmdq_get_status + 30
        0x00019e42:    2002        .       MOVS     r0,#2
        0x00019e44:    bd38        8.      POP      {r3-r5,pc}
        0x00019e46:    2d00        .-      CMP      r5,#0
        0x00019e48:    bf04        ..      ITT      EQ
        0x00019e4a:    2006        .       MOVEQ    r0,#6
        0x00019e4c:    bd38        8.      POPEQ    {r3-r5,pc}
        0x00019e4e:    f7fefa83    ....    BL       am_hal_interrupt_master_disable ; 0x18358
        0x00019e52:    9000        ..      STR      r0,[sp,#0]
        0x00019e54:    6a60        `j      LDR      r0,[r4,#0x24]
        0x00019e56:    6880        .h      LDR      r0,[r0,#8]
        0x00019e58:    6800        .h      LDR      r0,[r0,#0]
        0x00019e5a:    6a21        !j      LDR      r1,[r4,#0x20]
        0x00019e5c:    b2c0        ..      UXTB     r0,r0
        0x00019e5e:    f02101ff    !...    BIC      r1,r1,#0xff
        0x00019e62:    4308        .C      ORRS     r0,r0,r1
        0x00019e64:    61e0        .a      STR      r0,[r4,#0x1c]
        0x00019e66:    6a21        !j      LDR      r1,[r4,#0x20]
        0x00019e68:    1a09        ..      SUBS     r1,r1,r0
        0x00019e6a:    bf44        D.      ITT      MI
        0x00019e6c:    f5a07080    ...p    SUBMI    r0,r0,#0x100
        0x00019e70:    61e0        .a      STRMI    r0,[r4,#0x1c]
        0x00019e72:    6a60        `j      LDR      r0,[r4,#0x24]
        0x00019e74:    6840        @h      LDR      r0,[r0,#4]
        0x00019e76:    6800        .h      LDR      r0,[r0,#0]
        0x00019e78:    60e0        .`      STR      r0,[r4,#0xc]
        0x00019e7a:    9800        ..      LDR      r0,[sp,#0]
        0x00019e7c:    f7fefa70    ..p.    BL       am_hal_interrupt_master_set ; 0x18360
        0x00019e80:    69e0        .i      LDR      r0,[r4,#0x1c]
        0x00019e82:    6028        (`      STR      r0,[r5,#0]
        0x00019e84:    6a20         j      LDR      r0,[r4,#0x20]
        0x00019e86:    60a8        .`      STR      r0,[r5,#8]
        0x00019e88:    e9d40104    ....    LDRD     r0,r1,[r4,#0x10]
        0x00019e8c:    4281        .B      CMP      r1,r0
        0x00019e8e:    bf14        ..      ITE      NE
        0x00019e90:    2001        .       MOVNE    r0,#1
        0x00019e92:    2000        .       MOVEQ    r0,#0
        0x00019e94:    6a21        !j      LDR      r1,[r4,#0x20]
        0x00019e96:    1a08        ..      SUBS     r0,r1,r0
        0x00019e98:    6068        h`      STR      r0,[r5,#4]
        0x00019e9a:    6a61        aj      LDR      r1,[r4,#0x24]
        0x00019e9c:    6988        .i      LDR      r0,[r1,#0x18]
        0x00019e9e:    6800        .h      LDR      r0,[r0,#0]
        0x00019ea0:    69c9        .i      LDR      r1,[r1,#0x1c]
        0x00019ea2:    4001        .@      ANDS     r1,r1,r0
        0x00019ea4:    bf18        ..      IT       NE
        0x00019ea6:    2101        .!      MOVNE    r1,#1
        0x00019ea8:    7329        )s      STRB     r1,[r5,#0xc]
        0x00019eaa:    6a61        aj      LDR      r1,[r4,#0x24]
        0x00019eac:    6a49        Ij      LDR      r1,[r1,#0x24]
        0x00019eae:    4001        .@      ANDS     r1,r1,r0
        0x00019eb0:    bf18        ..      IT       NE
        0x00019eb2:    2101        .!      MOVNE    r1,#1
        0x00019eb4:    7369        is      STRB     r1,[r5,#0xd]
        0x00019eb6:    6a61        aj      LDR      r1,[r4,#0x24]
        0x00019eb8:    6a09        .j      LDR      r1,[r1,#0x20]
        0x00019eba:    4008        .@      ANDS     r0,r0,r1
        0x00019ebc:    bf18        ..      IT       NE
        0x00019ebe:    2001        .       MOVNE    r0,#1
        0x00019ec0:    73a8        .s      STRB     r0,[r5,#0xe]
        0x00019ec2:    2000        .       MOVS     r0,#0
        0x00019ec4:    bd38        8.      POP      {r3-r5,pc}
    $d
        0x00019ec6:    0000        ..      DCW    0
        0x00019ec8:    00cdcdcd    ....    DCD    13487565
    $t
    i.am_hal_cmdq_init
    am_hal_cmdq_init
        0x00019ecc:    280b        .(      CMP      r0,#0xb
        0x00019ece:    bf24        $.      ITT      CS
        0x00019ed0:    2005        .       MOVCS    r0,#5
        0x00019ed2:    4770        pG      BXCS     lr
        0x00019ed4:    2900        .)      CMP      r1,#0
        0x00019ed6:    bf1e        ..      ITTT     NE
        0x00019ed8:    684b        Kh      LDRNE    r3,[r1,#4]
        0x00019eda:    2b00        .+      CMPNE    r3,#0
        0x00019edc:    2a00        .*      CMPNE    r2,#0
        0x00019ede:    d004        ..      BEQ      0x19eea ; am_hal_cmdq_init + 30
        0x00019ee0:    f8d1c000    ....    LDR      r12,[r1,#0]
        0x00019ee4:    f1bc0f02    ....    CMP      r12,#2
        0x00019ee8:    d201        ..      BCS      0x19eee ; am_hal_cmdq_init + 34
        0x00019eea:    2006        .       MOVS     r0,#6
        0x00019eec:    4770        pG      BX       lr
        0x00019eee:    b430        0.      PUSH     {r4,r5}
        0x00019ef0:    eb000340    ..@.    ADD      r3,r0,r0,LSL #1
        0x00019ef4:    4c2e        .L      LDR      r4,[pc,#184] ; [0x19fb0] = 0x10004b28
        0x00019ef6:    eb0303c0    ....    ADD      r3,r3,r0,LSL #3
        0x00019efa:    f8545023    T.#P    LDR      r5,[r4,r3,LSL #2]
        0x00019efe:    f0157f80    ....    TST      r5,#0x1000000
        0x00019f02:    bf1e        ..      ITTT     NE
        0x00019f04:    2007        .       MOVNE    r0,#7
        0x00019f06:    bc30        0.      POPNE    {r4,r5}
        0x00019f08:    4770        pG      BXNE     lr
        0x00019f0a:    eb040383    ....    ADD      r3,r4,r3,LSL #2
        0x00019f0e:    ea4f0ccc    O...    LSL      r12,r12,#3
        0x00019f12:    f8c3c018    ....    STR      r12,[r3,#0x18]
        0x00019f16:    f8d1c004    ....    LDR      r12,[r1,#4]
        0x00019f1a:    f8c3c004    ....    STR      r12,[r3,#4]
        0x00019f1e:    f8c3c00c    ....    STR      r12,[r3,#0xc]
        0x00019f22:    f8c3c014    ....    STR      r12,[r3,#0x14]
        0x00019f26:    f8c3c010    ....    STR      r12,[r3,#0x10]
        0x00019f2a:    e9d14c00    ...L    LDRD     r4,r12,[r1,#0]
        0x00019f2e:    eb0c0cc4    ....    ADD      r12,r12,r4,LSL #3
        0x00019f32:    f8c3c008    ....    STR      r12,[r3,#8]
        0x00019f36:    f8d3c000    ....    LDR      r12,[r3,#0]
        0x00019f3a:    4c1e        .L      LDR      r4,[pc,#120] ; [0x19fb4] = 0xcdcdcd
        0x00019f3c:    f02c7c00    ,..|    BIC      r12,r12,#0x2000000
        0x00019f40:    f04c7c80    L..|    ORR      r12,r12,#0x1000000
        0x00019f44:    f3640c17    d...    BFI      r12,r4,#0,#24
        0x00019f48:    f8c3c000    ....    STR      r12,[r3,#0]
        0x00019f4c:    f8dfc068    ..h.    LDR      r12,[pc,#104] ; [0x19fb8] = 0x1f380
        0x00019f50:    eb000080    ....    ADD      r0,r0,r0,LSL #2
        0x00019f54:    eb0c00c0    ....    ADD      r0,r12,r0,LSL #3
        0x00019f58:    6258        Xb      STR      r0,[r3,#0x24]
        0x00019f5a:    2000        .       MOVS     r0,#0
        0x00019f5c:    61d8        .a      STR      r0,[r3,#0x1c]
        0x00019f5e:    6218        .b      STR      r0,[r3,#0x20]
        0x00019f60:    f8d3c024    ..$.    LDR      r12,[r3,#0x24]
        0x00019f64:    f8dcc008    ....    LDR      r12,[r12,#8]
        0x00019f68:    f8cc0000    ....    STR      r0,[r12,#0]
        0x00019f6c:    f8d3c024    ..$.    LDR      r12,[r3,#0x24]
        0x00019f70:    f8dcc00c    ....    LDR      r12,[r12,#0xc]
        0x00019f74:    f8cc0000    ....    STR      r0,[r12,#0]
        0x00019f78:    6a58        Xj      LDR      r0,[r3,#0x24]
        0x00019f7a:    f8d0c010    ....    LDR      r12,[r0,#0x10]
        0x00019f7e:    f8dc4000    ...@    LDR      r4,[r12,#0]
        0x00019f82:    6940        @i      LDR      r0,[r0,#0x14]
        0x00019f84:    4320         C      ORRS     r0,r0,r4
        0x00019f86:    f8cc0000    ....    STR      r0,[r12,#0]
        0x00019f8a:    f8d3c024    ..$.    LDR      r12,[r3,#0x24]
        0x00019f8e:    6848        Hh      LDR      r0,[r1,#4]
        0x00019f90:    f8dcc004    ....    LDR      r12,[r12,#4]
        0x00019f94:    f8cc0000    ....    STR      r0,[r12,#0]
        0x00019f98:    7a08        .z      LDRB     r0,[r1,#8]
        0x00019f9a:    2102        .!      MOVS     r1,#2
        0x00019f9c:    ea010040    ..@.    AND      r0,r1,r0,LSL #1
        0x00019fa0:    6a59        Yj      LDR      r1,[r3,#0x24]
        0x00019fa2:    6809        .h      LDR      r1,[r1,#0]
        0x00019fa4:    6008        .`      STR      r0,[r1,#0]
        0x00019fa6:    6013        .`      STR      r3,[r2,#0]
        0x00019fa8:    bc30        0.      POP      {r4,r5}
        0x00019faa:    2000        .       MOVS     r0,#0
        0x00019fac:    4770        pG      BX       lr
    $d
        0x00019fae:    0000        ..      DCW    0
        0x00019fb0:    10004b28    (K..    DCD    268454696
        0x00019fb4:    00cdcdcd    ....    DCD    13487565
        0x00019fb8:    0001f380    ....    DCD    127872
    $t
    i.am_hal_cmdq_post_block
    am_hal_cmdq_post_block
        0x00019fbc:    b510        ..      PUSH     {r4,lr}
        0x00019fbe:    1e04        ..      SUBS     r4,r0,#0
        0x00019fc0:    bf1c        ..      ITT      NE
        0x00019fc2:    6820         h      LDRNE    r0,[r4,#0]
        0x00019fc4:    f0107f80    ....    TSTNE    r0,#0x1000000
        0x00019fc8:    d004        ..      BEQ      0x19fd4 ; am_hal_cmdq_post_block + 24
        0x00019fca:    4a13        .J      LDR      r2,[pc,#76] ; [0x1a018] = 0xcdcdcd
        0x00019fcc:    f020407f     ..@    BIC      r0,r0,#0xff000000
        0x00019fd0:    4290        .B      CMP      r0,r2
        0x00019fd2:    d001        ..      BEQ      0x19fd8 ; am_hal_cmdq_post_block + 28
        0x00019fd4:    2002        .       MOVS     r0,#2
        0x00019fd6:    bd10        ..      POP      {r4,pc}
        0x00019fd8:    e9d42004    ...     LDRD     r2,r0,[r4,#0x10]
        0x00019fdc:    4282        .B      CMP      r2,r0
        0x00019fde:    bf04        ..      ITT      EQ
        0x00019fe0:    2007        .       MOVEQ    r0,#7
        0x00019fe2:    bd10        ..      POPEQ    {r4,pc}
        0x00019fe4:    6a62        bj      LDR      r2,[r4,#0x24]
        0x00019fe6:    6892        .h      LDR      r2,[r2,#8]
        0x00019fe8:    4311        .C      ORRS     r1,r1,r2
        0x00019fea:    f8401b04    @...    STR      r1,[r0],#4
        0x00019fee:    6a21        !j      LDR      r1,[r4,#0x20]
        0x00019ff0:    f8401b04    @...    STR      r1,[r0],#4
        0x00019ff4:    6160        `a      STR      r0,[r4,#0x14]
        0x00019ff6:    6120         a      STR      r0,[r4,#0x10]
        0x00019ff8:    4908        .I      LDR      r1,[pc,#32] ; [0x1a01c] = 0x10060000
        0x00019ffa:    68a0        .h      LDR      r0,[r4,#8]
        0x00019ffc:    4288        .B      CMP      r0,r1
        0x00019ffe:    d303        ..      BCC      0x1a008 ; am_hal_cmdq_post_block + 76
        0x0001a000:    2100        .!      MOVS     r1,#0
        0x0001a002:    2002        .       MOVS     r0,#2
        0x0001a004:    f000f900    ....    BL       am_hal_daxi_control ; 0x1a208
        0x0001a008:    6a61        aj      LDR      r1,[r4,#0x24]
        0x0001a00a:    f8940020    .. .    LDRB     r0,[r4,#0x20]
        0x0001a00e:    68c9        .h      LDR      r1,[r1,#0xc]
        0x0001a010:    6008        .`      STR      r0,[r1,#0]
        0x0001a012:    2000        .       MOVS     r0,#0
        0x0001a014:    bd10        ..      POP      {r4,pc}
    $d
        0x0001a016:    0000        ..      DCW    0
        0x0001a018:    00cdcdcd    ....    DCD    13487565
        0x0001a01c:    10060000    ....    DCD    268828672
    $t
    i.am_hal_cmdq_post_loop_block
    am_hal_cmdq_post_loop_block
        0x0001a020:    b510        ..      PUSH     {r4,lr}
        0x0001a022:    1e04        ..      SUBS     r4,r0,#0
        0x0001a024:    bf1c        ..      ITT      NE
        0x0001a026:    6820         h      LDRNE    r0,[r4,#0]
        0x0001a028:    f0107f80    ....    TSTNE    r0,#0x1000000
        0x0001a02c:    d004        ..      BEQ      0x1a038 ; am_hal_cmdq_post_loop_block + 24
        0x0001a02e:    4a16        .J      LDR      r2,[pc,#88] ; [0x1a088] = 0xcdcdcd
        0x0001a030:    f020407f     ..@    BIC      r0,r0,#0xff000000
        0x0001a034:    4290        .B      CMP      r0,r2
        0x0001a036:    d001        ..      BEQ      0x1a03c ; am_hal_cmdq_post_loop_block + 28
        0x0001a038:    2002        .       MOVS     r0,#2
        0x0001a03a:    bd10        ..      POP      {r4,pc}
        0x0001a03c:    e9d42004    ...     LDRD     r2,r0,[r4,#0x10]
        0x0001a040:    4282        .B      CMP      r2,r0
        0x0001a042:    bf04        ..      ITT      EQ
        0x0001a044:    2007        .       MOVEQ    r0,#7
        0x0001a046:    bd10        ..      POPEQ    {r4,pc}
        0x0001a048:    6a62        bj      LDR      r2,[r4,#0x24]
        0x0001a04a:    6892        .h      LDR      r2,[r2,#8]
        0x0001a04c:    f8402b04    @..+    STR      r2,[r0],#4
        0x0001a050:    2200        ."      MOVS     r2,#0
        0x0001a052:    f8402b04    @..+    STR      r2,[r0],#4
        0x0001a056:    6a62        bj      LDR      r2,[r4,#0x24]
        0x0001a058:    6852        Rh      LDR      r2,[r2,#4]
        0x0001a05a:    4311        .C      ORRS     r1,r1,r2
        0x0001a05c:    f8401b04    @...    STR      r1,[r0],#4
        0x0001a060:    6861        ah      LDR      r1,[r4,#4]
        0x0001a062:    f8401b04    @...    STR      r1,[r0],#4
        0x0001a066:    6160        `a      STR      r0,[r4,#0x14]
        0x0001a068:    6120         a      STR      r0,[r4,#0x10]
        0x0001a06a:    4908        .I      LDR      r1,[pc,#32] ; [0x1a08c] = 0x10060000
        0x0001a06c:    68a0        .h      LDR      r0,[r4,#8]
        0x0001a06e:    4288        .B      CMP      r0,r1
        0x0001a070:    d303        ..      BCC      0x1a07a ; am_hal_cmdq_post_loop_block + 90
        0x0001a072:    2100        .!      MOVS     r1,#0
        0x0001a074:    2002        .       MOVS     r0,#2
        0x0001a076:    f000f8c7    ....    BL       am_hal_daxi_control ; 0x1a208
        0x0001a07a:    6a61        aj      LDR      r1,[r4,#0x24]
        0x0001a07c:    f8940020    .. .    LDRB     r0,[r4,#0x20]
        0x0001a080:    68c9        .h      LDR      r1,[r1,#0xc]
        0x0001a082:    6008        .`      STR      r0,[r1,#0]
        0x0001a084:    2000        .       MOVS     r0,#0
        0x0001a086:    bd10        ..      POP      {r4,pc}
    $d
        0x0001a088:    00cdcdcd    ....    DCD    13487565
        0x0001a08c:    10060000    ....    DCD    268828672
    $t
    i.am_hal_cmdq_release_block
    am_hal_cmdq_release_block
        0x0001a090:    2800        .(      CMP      r0,#0
        0x0001a092:    bf1c        ..      ITT      NE
        0x0001a094:    6801        .h      LDRNE    r1,[r0,#0]
        0x0001a096:    f0117f80    ....    TSTNE    r1,#0x1000000
        0x0001a09a:    d004        ..      BEQ      0x1a0a6 ; am_hal_cmdq_release_block + 22
        0x0001a09c:    4a09        .J      LDR      r2,[pc,#36] ; [0x1a0c4] = 0xcdcdcd
        0x0001a09e:    f021417f    !..A    BIC      r1,r1,#0xff000000
        0x0001a0a2:    4291        .B      CMP      r1,r2
        0x0001a0a4:    d001        ..      BEQ      0x1a0aa ; am_hal_cmdq_release_block + 26
        0x0001a0a6:    2002        .       MOVS     r0,#2
        0x0001a0a8:    4770        pG      BX       lr
        0x0001a0aa:    e9d01204    ....    LDRD     r1,r2,[r0,#0x10]
        0x0001a0ae:    4291        .B      CMP      r1,r2
        0x0001a0b0:    bf04        ..      ITT      EQ
        0x0001a0b2:    2007        .       MOVEQ    r0,#7
        0x0001a0b4:    4770        pG      BXEQ     lr
        0x0001a0b6:    6141        Aa      STR      r1,[r0,#0x14]
        0x0001a0b8:    6a01        .j      LDR      r1,[r0,#0x20]
        0x0001a0ba:    1e49        I.      SUBS     r1,r1,#1
        0x0001a0bc:    6201        .b      STR      r1,[r0,#0x20]
        0x0001a0be:    2000        .       MOVS     r0,#0
        0x0001a0c0:    4770        pG      BX       lr
    $d
        0x0001a0c2:    0000        ..      DCW    0
        0x0001a0c4:    00cdcdcd    ....    DCD    13487565
    $t
    i.am_hal_cmdq_reset
    am_hal_cmdq_reset
        0x0001a0c8:    2800        .(      CMP      r0,#0
        0x0001a0ca:    bf1c        ..      ITT      NE
        0x0001a0cc:    6801        .h      LDRNE    r1,[r0,#0]
        0x0001a0ce:    f0117f80    ....    TSTNE    r1,#0x1000000
        0x0001a0d2:    d004        ..      BEQ      0x1a0de ; am_hal_cmdq_reset + 22
        0x0001a0d4:    4b14        .K      LDR      r3,[pc,#80] ; [0x1a128] = 0xcdcdcd
        0x0001a0d6:    f021427f    !..B    BIC      r2,r1,#0xff000000
        0x0001a0da:    429a        .B      CMP      r2,r3
        0x0001a0dc:    d001        ..      BEQ      0x1a0e2 ; am_hal_cmdq_reset + 26
        0x0001a0de:    2002        .       MOVS     r0,#2
        0x0001a0e0:    4770        pG      BX       lr
        0x0001a0e2:    f0117f00    ....    TST      r1,#0x2000000
        0x0001a0e6:    bf1c        ..      ITT      NE
        0x0001a0e8:    2007        .       MOVNE    r0,#7
        0x0001a0ea:    4770        pG      BXNE     lr
        0x0001a0ec:    6a41        Aj      LDR      r1,[r0,#0x24]
        0x0001a0ee:    6809        .h      LDR      r1,[r1,#0]
        0x0001a0f0:    680a        .h      LDR      r2,[r1,#0]
        0x0001a0f2:    f0220201    "...    BIC      r2,r2,#1
        0x0001a0f6:    600a        .`      STR      r2,[r1,#0]
        0x0001a0f8:    6841        Ah      LDR      r1,[r0,#4]
        0x0001a0fa:    60c1        .`      STR      r1,[r0,#0xc]
        0x0001a0fc:    6141        Aa      STR      r1,[r0,#0x14]
        0x0001a0fe:    6101        .a      STR      r1,[r0,#0x10]
        0x0001a100:    2100        .!      MOVS     r1,#0
        0x0001a102:    61c1        .a      STR      r1,[r0,#0x1c]
        0x0001a104:    6201        .b      STR      r1,[r0,#0x20]
        0x0001a106:    6a42        Bj      LDR      r2,[r0,#0x24]
        0x0001a108:    6892        .h      LDR      r2,[r2,#8]
        0x0001a10a:    6011        .`      STR      r1,[r2,#0]
        0x0001a10c:    6a42        Bj      LDR      r2,[r0,#0x24]
        0x0001a10e:    68d2        .h      LDR      r2,[r2,#0xc]
        0x0001a110:    6011        .`      STR      r1,[r2,#0]
        0x0001a112:    6a42        Bj      LDR      r2,[r0,#0x24]
        0x0001a114:    6841        Ah      LDR      r1,[r0,#4]
        0x0001a116:    6852        Rh      LDR      r2,[r2,#4]
        0x0001a118:    6011        .`      STR      r1,[r2,#0]
        0x0001a11a:    6801        .h      LDR      r1,[r0,#0]
        0x0001a11c:    f0217100    !..q    BIC      r1,r1,#0x2000000
        0x0001a120:    6001        .`      STR      r1,[r0,#0]
        0x0001a122:    2000        .       MOVS     r0,#0
        0x0001a124:    4770        pG      BX       lr
    $d
        0x0001a126:    0000        ..      DCW    0
        0x0001a128:    00cdcdcd    ....    DCD    13487565
    $t
    i.am_hal_cmdq_term
    am_hal_cmdq_term
        0x0001a12c:    b538        8.      PUSH     {r3-r5,lr}
        0x0001a12e:    460d        .F      MOV      r5,r1
        0x0001a130:    1e04        ..      SUBS     r4,r0,#0
        0x0001a132:    bf1c        ..      ITT      NE
        0x0001a134:    6820         h      LDRNE    r0,[r4,#0]
        0x0001a136:    f0107f80    ....    TSTNE    r0,#0x1000000
        0x0001a13a:    d004        ..      BEQ      0x1a146 ; am_hal_cmdq_term + 26
        0x0001a13c:    491c        .I      LDR      r1,[pc,#112] ; [0x1a1b0] = 0xcdcdcd
        0x0001a13e:    f020407f     ..@    BIC      r0,r0,#0xff000000
        0x0001a142:    4288        .B      CMP      r0,r1
        0x0001a144:    d001        ..      BEQ      0x1a14a ; am_hal_cmdq_term + 30
        0x0001a146:    2002        .       MOVS     r0,#2
        0x0001a148:    bd38        8.      POP      {r3-r5,pc}
        0x0001a14a:    f7fef905    ....    BL       am_hal_interrupt_master_disable ; 0x18358
        0x0001a14e:    9000        ..      STR      r0,[sp,#0]
        0x0001a150:    6a60        `j      LDR      r0,[r4,#0x24]
        0x0001a152:    6880        .h      LDR      r0,[r0,#8]
        0x0001a154:    6800        .h      LDR      r0,[r0,#0]
        0x0001a156:    6a21        !j      LDR      r1,[r4,#0x20]
        0x0001a158:    b2c0        ..      UXTB     r0,r0
        0x0001a15a:    f02101ff    !...    BIC      r1,r1,#0xff
        0x0001a15e:    4308        .C      ORRS     r0,r0,r1
        0x0001a160:    61e0        .a      STR      r0,[r4,#0x1c]
        0x0001a162:    6a21        !j      LDR      r1,[r4,#0x20]
        0x0001a164:    1a09        ..      SUBS     r1,r1,r0
        0x0001a166:    bf44        D.      ITT      MI
        0x0001a168:    f5a07080    ...p    SUBMI    r0,r0,#0x100
        0x0001a16c:    61e0        .a      STRMI    r0,[r4,#0x1c]
        0x0001a16e:    6a60        `j      LDR      r0,[r4,#0x24]
        0x0001a170:    6840        @h      LDR      r0,[r0,#4]
        0x0001a172:    6800        .h      LDR      r0,[r0,#0]
        0x0001a174:    60e0        .`      STR      r0,[r4,#0xc]
        0x0001a176:    9800        ..      LDR      r0,[sp,#0]
        0x0001a178:    f7fef8f2    ....    BL       am_hal_interrupt_master_set ; 0x18360
        0x0001a17c:    b92d        -.      CBNZ     r5,0x1a18a ; am_hal_cmdq_term + 94
        0x0001a17e:    e9d40107    ....    LDRD     r0,r1,[r4,#0x1c]
        0x0001a182:    4288        .B      CMP      r0,r1
        0x0001a184:    bf1c        ..      ITT      NE
        0x0001a186:    2003        .       MOVNE    r0,#3
        0x0001a188:    bd38        8.      POPNE    {r3-r5,pc}
        0x0001a18a:    6820         h      LDR      r0,[r4,#0]
        0x0001a18c:    f0207080     ..p    BIC      r0,r0,#0x1000000
        0x0001a190:    6020         `      STR      r0,[r4,#0]
        0x0001a192:    6a60        `j      LDR      r0,[r4,#0x24]
        0x0001a194:    6800        .h      LDR      r0,[r0,#0]
        0x0001a196:    6801        .h      LDR      r1,[r0,#0]
        0x0001a198:    f0210101    !...    BIC      r1,r1,#1
        0x0001a19c:    6001        .`      STR      r1,[r0,#0]
        0x0001a19e:    6a60        `j      LDR      r0,[r4,#0x24]
        0x0001a1a0:    6901        .i      LDR      r1,[r0,#0x10]
        0x0001a1a2:    680a        .h      LDR      r2,[r1,#0]
        0x0001a1a4:    6940        @i      LDR      r0,[r0,#0x14]
        0x0001a1a6:    ea220000    "...    BIC      r0,r2,r0
        0x0001a1aa:    6008        .`      STR      r0,[r1,#0]
        0x0001a1ac:    2000        .       MOVS     r0,#0
        0x0001a1ae:    bd38        8.      POP      {r3-r5,pc}
    $d
        0x0001a1b0:    00cdcdcd    ....    DCD    13487565
    $t
    i.am_hal_daxi_config
    am_hal_daxi_config
        0x0001a1b4:    2800        .(      CMP      r0,#0
        0x0001a1b6:    bf04        ..      ITT      EQ
        0x0001a1b8:    2006        .       MOVEQ    r0,#6
        0x0001a1ba:    4770        pG      BXEQ     lr
        0x0001a1bc:    b538        8.      PUSH     {r3-r5,lr}
        0x0001a1be:    4604        .F      MOV      r4,r0
        0x0001a1c0:    f7fef8ca    ....    BL       am_hal_interrupt_master_disable ; 0x18358
        0x0001a1c4:    9000        ..      STR      r0,[sp,#0]
        0x0001a1c6:    2100        .!      MOVS     r1,#0
        0x0001a1c8:    2002        .       MOVS     r0,#2
        0x0001a1ca:    f000f81d    ....    BL       am_hal_daxi_control ; 0x1a208
        0x0001a1ce:    78a0        .x      LDRB     r0,[r4,#2]
        0x0001a1d0:    7861        ax      LDRB     r1,[r4,#1]
        0x0001a1d2:    f44f7240    O.@r    MOV      r2,#0x300
        0x0001a1d6:    f0000001    ....    AND      r0,r0,#1
        0x0001a1da:    ea022101    ...!    AND      r1,r2,r1,LSL #8
        0x0001a1de:    4308        .C      ORRS     r0,r0,r1
        0x0001a1e0:    7821        !x      LDRB     r1,[r4,#0]
        0x0001a1e2:    ea404001    @..@    ORR      r0,r0,r1,LSL #16
        0x0001a1e6:    f04f4190    O..A    MOV      r1,#0x48000000
        0x0001a1ea:    6508        .e      STR      r0,[r1,#0x50]
        0x0001a1ec:    4804        .H      LDR      r0,[pc,#16] ; [0x1a200] = 0x47ff0000
        0x0001a1ee:    4905        .I      LDR      r1,[pc,#20] ; [0x1a204] = 0x100001fc
        0x0001a1f0:    6800        .h      LDR      r0,[r0,#0]
        0x0001a1f2:    6008        .`      STR      r0,[r1,#0]
        0x0001a1f4:    9800        ..      LDR      r0,[sp,#0]
        0x0001a1f6:    f7fef8b3    ....    BL       am_hal_interrupt_master_set ; 0x18360
        0x0001a1fa:    2000        .       MOVS     r0,#0
        0x0001a1fc:    bd38        8.      POP      {r3-r5,pc}
    $d
        0x0001a1fe:    0000        ..      DCW    0
        0x0001a200:    47ff0000    ...G    DCD    1207894016
        0x0001a204:    100001fc    ....    DCD    268435964
    $t
    i.am_hal_daxi_control
    am_hal_daxi_control
        0x0001a208:    e92d43f0    -..C    PUSH     {r4-r9,lr}
        0x0001a20c:    4e4c        LN      LDR      r6,[pc,#304] ; [0x1a340] = 0x47ff0000
        0x0001a20e:    4f4d        MO      LDR      r7,[pc,#308] ; [0x1a344] = 0x100001fc
        0x0001a210:    b083        ..      SUB      sp,sp,#0xc
        0x0001a212:    f04f4590    O..E    MOV      r5,#0x48000000
        0x0001a216:    2801        .(      CMP      r0,#1
        0x0001a218:    d059        Y.      BEQ      0x1a2ce ; am_hal_daxi_control + 198
        0x0001a21a:    4c4b        KL      LDR      r4,[pc,#300] ; [0x1a348] = 0x1000018c
        0x0001a21c:    2802        .(      CMP      r0,#2
        0x0001a21e:    d002        ..      BEQ      0x1a226 ; am_hal_daxi_control + 30
        0x0001a220:    2803        .(      CMP      r0,#3
        0x0001a222:    d05d        ].      BEQ      0x1a2e0 ; am_hal_daxi_control + 216
        0x0001a224:    e060        `.      B        0x1a2e8 ; am_hal_daxi_control + 224
        0x0001a226:    4849        IH      LDR      r0,[pc,#292] ; [0x1a34c] = 0xf0000004
        0x0001a228:    4468        hD      ADD      r0,sp,r0
        0x0001a22a:    f5b02fc0    .../    CMP      r0,#0x60000
        0x0001a22e:    d300        ..      BCC      0x1a232 ; am_hal_daxi_control + 42
        0x0001a230:    e7fe        ..      B        0x1a230 ; am_hal_daxi_control + 40
        0x0001a232:    f7fef891    ....    BL       am_hal_interrupt_master_disable ; 0x18358
        0x0001a236:    9000        ..      STR      r0,[sp,#0]
        0x0001a238:    f3bf8f4f    ..O.    DSB      
        0x0001a23c:    6d68        hm      LDR      r0,[r5,#0x54]
        0x0001a23e:    f0400001    @...    ORR      r0,r0,#1
        0x0001a242:    6568        he      STR      r0,[r5,#0x54]
        0x0001a244:    6831        1h      LDR      r1,[r6,#0]
        0x0001a246:    6039        9`      STR      r1,[r7,#0]
        0x0001a248:    6d68        hm      LDR      r0,[r5,#0x54]
        0x0001a24a:    f0400002    @...    ORR      r0,r0,#2
        0x0001a24e:    6568        he      STR      r0,[r5,#0x54]
        0x0001a250:    6039        9`      STR      r1,[r7,#0]
        0x0001a252:    6821        !h      LDR      r1,[r4,#0]
        0x0001a254:    2900        .)      CMP      r1,#0
        0x0001a256:    d036        6.      BEQ      0x1a2c6 ; am_hal_daxi_control + 190
        0x0001a258:    68a0        .h      LDR      r0,[r4,#8]
        0x0001a25a:    6800        .h      LDR      r0,[r0,#0]
        0x0001a25c:    6862        bh      LDR      r2,[r4,#4]
        0x0001a25e:    ea320000    2...    BICS     r0,r2,r0
        0x0001a262:    d130        0.      BNE      0x1a2c6 ; am_hal_daxi_control + 190
        0x0001a264:    483a        :H      LDR      r0,[pc,#232] ; [0x1a350] = 0x100001f8
        0x0001a266:    6800        .h      LDR      r0,[r0,#0]
        0x0001a268:    b1d0        ..      CBZ      r0,0x1a2a0 ; am_hal_daxi_control + 152
        0x0001a26a:    2000        .       MOVS     r0,#0
        0x0001a26c:    6008        .`      STR      r0,[r1,#0]
        0x0001a26e:    6108        .a      STR      r0,[r1,#0x10]
        0x0001a270:    6208        .b      STR      r0,[r1,#0x20]
        0x0001a272:    6308        .c      STR      r0,[r1,#0x30]
        0x0001a274:    f3bf8f4f    ..O.    DSB      
        0x0001a278:    6d68        hm      LDR      r0,[r5,#0x54]
        0x0001a27a:    f0400001    @...    ORR      r0,r0,#1
        0x0001a27e:    6568        he      STR      r0,[r5,#0x54]
        0x0001a280:    6830        0h      LDR      r0,[r6,#0]
        0x0001a282:    6038        8`      STR      r0,[r7,#0]
        0x0001a284:    6d69        im      LDR      r1,[r5,#0x54]
        0x0001a286:    f0410102    A...    ORR      r1,r1,#2
        0x0001a28a:    6569        ie      STR      r1,[r5,#0x54]
        0x0001a28c:    6038        8`      STR      r0,[r7,#0]
        0x0001a28e:    f8d41000    ....    LDR.W    r1,[r4,#0]
        0x0001a292:    2000        .       MOVS     r0,#0
        0x0001a294:    eb011200    ....    ADD      r2,r1,r0,LSL #4
        0x0001a298:    6812        .h      LDR      r2,[r2,#0]
        0x0001a29a:    1c40        @.      ADDS     r0,r0,#1
        0x0001a29c:    2804        .(      CMP      r0,#4
        0x0001a29e:    d3f9        ..      BCC      0x1a294 ; am_hal_daxi_control + 140
        0x0001a2a0:    6820         h      LDR      r0,[r4,#0]
        0x0001a2a2:    2100        .!      MOVS     r1,#0
        0x0001a2a4:    6802        .h      LDR      r2,[r0,#0]
        0x0001a2a6:    6802        .h      LDR      r2,[r0,#0]
        0x0001a2a8:    6802        .h      LDR      r2,[r0,#0]
        0x0001a2aa:    6802        .h      LDR      r2,[r0,#0]
        0x0001a2ac:    6802        .h      LDR      r2,[r0,#0]
        0x0001a2ae:    6802        .h      LDR      r2,[r0,#0]
        0x0001a2b0:    1c49        I.      ADDS     r1,r1,#1
        0x0001a2b2:    291e        .)      CMP      r1,#0x1e
        0x0001a2b4:    d3f6        ..      BCC      0x1a2a4 ; am_hal_daxi_control + 156
        0x0001a2b6:    f3bf8f4f    ..O.    DSB      
        0x0001a2ba:    6d68        hm      LDR      r0,[r5,#0x54]
        0x0001a2bc:    f0400002    @...    ORR      r0,r0,#2
        0x0001a2c0:    6568        he      STR      r0,[r5,#0x54]
        0x0001a2c2:    6830        0h      LDR      r0,[r6,#0]
        0x0001a2c4:    6038        8`      STR      r0,[r7,#0]
        0x0001a2c6:    9800        ..      LDR      r0,[sp,#0]
        0x0001a2c8:    f7fef84a    ..J.    BL       am_hal_interrupt_master_set ; 0x18360
        0x0001a2cc:    e034        4.      B        0x1a338 ; am_hal_daxi_control + 304
        0x0001a2ce:    f3bf8f4f    ..O.    DSB      
        0x0001a2d2:    6d68        hm      LDR      r0,[r5,#0x54]
        0x0001a2d4:    f0400002    @...    ORR      r0,r0,#2
        0x0001a2d8:    6568        he      STR      r0,[r5,#0x54]
        0x0001a2da:    6830        0h      LDR      r0,[r6,#0]
        0x0001a2dc:    6038        8`      STR      r0,[r7,#0]
        0x0001a2de:    e02b        +.      B        0x1a338 ; am_hal_daxi_control + 304
        0x0001a2e0:    b111        ..      CBZ      r1,0x1a2e8 ; am_hal_daxi_control + 224
        0x0001a2e2:    f0110f0f    ....    TST      r1,#0xf
        0x0001a2e6:    d003        ..      BEQ      0x1a2f0 ; am_hal_daxi_control + 232
        0x0001a2e8:    b003        ..      ADD      sp,sp,#0xc
        0x0001a2ea:    2006        .       MOVS     r0,#6
        0x0001a2ec:    e8bd83f0    ....    POP      {r4-r9,pc}
        0x0001a2f0:    e9d45701    ...W    LDRD     r5,r7,[r4,#4]
        0x0001a2f4:    4a17        .J      LDR      r2,[pc,#92] ; [0x1a354] = 0x10000198
        0x0001a2f6:    f8d4c000    ....    LDR      r12,[r4,#0]
        0x0001a2fa:    2000        .       MOVS     r0,#0
        0x0001a2fc:    f1010840    ..@.    ADD      r8,r1,#0x40
        0x0001a300:    eb021300    ....    ADD      r3,r2,r0,LSL #4
        0x0001a304:    681e        .h      LDR      r6,[r3,#0]
        0x0001a306:    428e        .B      CMP      r6,r1
        0x0001a308:    d80a        ..      BHI      0x1a320 ; am_hal_daxi_control + 280
        0x0001a30a:    f8d39004    ....    LDR      r9,[r3,#4]
        0x0001a30e:    444e        ND      ADD      r6,r6,r9
        0x0001a310:    45b0        .E      CMP      r8,r6
        0x0001a312:    d205        ..      BCS      0x1a320 ; am_hal_daxi_control + 280
        0x0001a314:    eb021200    ....    ADD      r2,r2,r0,LSL #4
        0x0001a318:    468c        .F      MOV      r12,r1
        0x0001a31a:    6897        .h      LDR      r7,[r2,#8]
        0x0001a31c:    68dd        .h      LDR      r5,[r3,#0xc]
        0x0001a31e:    e002        ..      B        0x1a326 ; am_hal_daxi_control + 286
        0x0001a320:    1c40        @.      ADDS     r0,r0,#1
        0x0001a322:    2806        .(      CMP      r0,#6
        0x0001a324:    d3ec        ..      BCC      0x1a300 ; am_hal_daxi_control + 248
        0x0001a326:    f8c4c000    ....    STR      r12,[r4,#0]
        0x0001a32a:    e9c45701    ...W    STRD     r5,r7,[r4,#4]
        0x0001a32e:    2806        .(      CMP      r0,#6
        0x0001a330:    bf04        ..      ITT      EQ
        0x0001a332:    b003        ..      ADDEQ    sp,sp,#0xc
        0x0001a334:    e8bd83f0    ....    POPEQ    {r4-r9,pc}
        0x0001a338:    2000        .       MOVS     r0,#0
        0x0001a33a:    b003        ..      ADD      sp,sp,#0xc
        0x0001a33c:    e8bd83f0    ....    POP      {r4-r9,pc}
    $d
        0x0001a340:    47ff0000    ...G    DCD    1207894016
        0x0001a344:    100001fc    ....    DCD    268435964
        0x0001a348:    1000018c    ....    DCD    268435852
        0x0001a34c:    f0000004    ....    DCD    4026531844
        0x0001a350:    100001f8    ....    DCD    268435960
        0x0001a354:    10000198    ....    DCD    268435864
    $t
    i.am_hal_dcu_get
    am_hal_dcu_get
        0x0001a358:    e92d43f0    -..C    PUSH     {r4-r9,lr}
        0x0001a35c:    4680        .F      MOV      r8,r0
        0x0001a35e:    481f        .H      LDR      r0,[pc,#124] ; [0x1a3dc] = 0x40021000
        0x0001a360:    b083        ..      SUB      sp,sp,#0xc
        0x0001a362:    6880        .h      LDR      r0,[r0,#8]
        0x0001a364:    f4101f80    ....    TST      r0,#0x100000
        0x0001a368:    d023        #.      BEQ      0x1a3b2 ; am_hal_dcu_get + 90
        0x0001a36a:    481d        .H      LDR      r0,[pc,#116] ; [0x1a3e0] = 0x400c0a7c
        0x0001a36c:    6800        .h      LDR      r0,[r0,#0]
        0x0001a36e:    f0100f01    ....    TST      r0,#1
        0x0001a372:    d01e        ..      BEQ      0x1a3b2 ; am_hal_dcu_get + 90
        0x0001a374:    f8df906c    ..l.    LDR      r9,[pc,#108] ; [0x1a3e4] = 0x10000450
        0x0001a378:    4668        hF      MOV      r0,sp
        0x0001a37a:    2202        ."      MOVS     r2,#2
        0x0001a37c:    f8d91004    ....    LDR      r1,[r9,#4]
        0x0001a380:    f003fbe2    ....    BL       copy_words ; 0x1db48
        0x0001a384:    e9dd0100    ....    LDRD     r0,r1,[sp,#0]
        0x0001a388:    2400        .$      MOVS     r4,#0
        0x0001a38a:    4627        'F      MOV      r7,r4
        0x0001a38c:    2605        .&      MOVS     r6,#5
        0x0001a38e:    4625        %F      MOV      r5,r4
        0x0001a390:    f8d92000    ...     LDR      r2,[r9,#0]
        0x0001a394:    f7fef807    ....    BL       __aeabi_llsr ; 0x183a6
        0x0001a398:    2214        ."      MOVS     r2,#0x14
        0x0001a39a:    f04f0c01    O...    MOV      r12,#1
        0x0001a39e:    bf00        ..      NOP      
        0x0001a3a0:    f0000307    ....    AND      r3,r0,#7
        0x0001a3a4:    4073        s@      EORS     r3,r3,r6
        0x0001a3a6:    ea840904    ....    EOR      r9,r4,r4
        0x0001a3aa:    ea530309    S...    ORRS     r3,r3,r9
        0x0001a3ae:    d109        ..      BNE      0x1a3c4 ; am_hal_dcu_get + 108
        0x0001a3b0:    e003        ..      B        0x1a3ba ; am_hal_dcu_get + 98
        0x0001a3b2:    b003        ..      ADD      sp,sp,#0xc
        0x0001a3b4:    2007        .       MOVS     r0,#7
        0x0001a3b6:    e8bd83f0    ....    POP      {r4-r9,pc}
        0x0001a3ba:    f1c20314    ....    RSB      r3,r2,#0x14
        0x0001a3be:    fa0cf303    ....    LSL      r3,r12,r3
        0x0001a3c2:    431d        .C      ORRS     r5,r5,r3
        0x0001a3c4:    08c0        ..      LSRS     r0,r0,#3
        0x0001a3c6:    ea407041    @.Ap    ORR      r0,r0,r1,LSL #29
        0x0001a3ca:    08c9        ..      LSRS     r1,r1,#3
        0x0001a3cc:    1e52        R.      SUBS     r2,r2,#1
        0x0001a3ce:    d1e7        ..      BNE      0x1a3a0 ; am_hal_dcu_get + 72
        0x0001a3d0:    f8c85000    ...P    STR      r5,[r8,#0]
        0x0001a3d4:    b003        ..      ADD      sp,sp,#0xc
        0x0001a3d6:    4638        8F      MOV      r0,r7
        0x0001a3d8:    e8bd83f0    ....    POP      {r4-r9,pc}
    $d
        0x0001a3dc:    40021000    ...@    DCD    1073876992
        0x0001a3e0:    400c0a7c    |..@    DCD    1074530940
        0x0001a3e4:    10000450    P...    DCD    268436560
    $t
    i.am_hal_dcu_update
    am_hal_dcu_update
        0x0001a3e8:    e92d4ff0    -..O    PUSH     {r4-r11,lr}
        0x0001a3ec:    4681        .F      MOV      r9,r0
        0x0001a3ee:    4834        4H      LDR      r0,[pc,#208] ; [0x1a4c0] = 0x40021000
        0x0001a3f0:    b085        ..      SUB      sp,sp,#0x14
        0x0001a3f2:    6880        .h      LDR      r0,[r0,#8]
        0x0001a3f4:    f4101f80    ....    TST      r0,#0x100000
        0x0001a3f8:    d02a        *.      BEQ      0x1a450 ; am_hal_dcu_update + 104
        0x0001a3fa:    f8dfa0c8    ....    LDR      r10,[pc,#200] ; [0x1a4c4] = 0x400c0a7c
        0x0001a3fe:    f8da0000    ....    LDR      r0,[r10,#0]
        0x0001a402:    f0100f01    ....    TST      r0,#1
        0x0001a406:    d023        #.      BEQ      0x1a450 ; am_hal_dcu_update + 104
        0x0001a408:    f8df80bc    ....    LDR      r8,[pc,#188] ; [0x1a4c8] = 0x10000450
        0x0001a40c:    2700        .'      MOVS     r7,#0
        0x0001a40e:    084d        M.      LSRS     r5,r1,#1
        0x0001a410:    f8d8b000    ....    LDR      r11,[r8,#0]
        0x0001a414:    463e        >F      MOV      r6,r7
        0x0001a416:    2414        .$      MOVS     r4,#0x14
        0x0001a418:    f0150f01    ....    TST      r5,#1
        0x0001a41c:    d006        ..      BEQ      0x1a42c ; am_hal_dcu_update + 68
        0x0001a41e:    465a        ZF      MOV      r2,r11
        0x0001a420:    2007        .       MOVS     r0,#7
        0x0001a422:    2100        .!      MOVS     r1,#0
        0x0001a424:    f7fdffac    ....    BL       __aeabi_llsl ; 0x18380
        0x0001a428:    4307        .C      ORRS     r7,r7,r0
        0x0001a42a:    430e        .C      ORRS     r6,r6,r1
        0x0001a42c:    086d        m.      LSRS     r5,r5,#1
        0x0001a42e:    1e64        d.      SUBS     r4,r4,#1
        0x0001a430:    f10b0b03    ....    ADD      r11,r11,#3
        0x0001a434:    2c00        .,      CMP      r4,#0
        0x0001a436:    dcef        ..      BGT      0x1a418 ; am_hal_dcu_update + 48
        0x0001a438:    2202        ."      MOVS     r2,#2
        0x0001a43a:    a802        ..      ADD      r0,sp,#8
        0x0001a43c:    f8d81008    ....    LDR      r1,[r8,#8]
        0x0001a440:    f003fb82    ....    BL       copy_words ; 0x1db48
        0x0001a444:    e9dd1002    ....    LDRD     r1,r0,[sp,#8]
        0x0001a448:    4039        9@      ANDS     r1,r1,r7
        0x0001a44a:    4030        0@      ANDS     r0,r0,r6
        0x0001a44c:    4308        .C      ORRS     r0,r0,r1
        0x0001a44e:    d003        ..      BEQ      0x1a458 ; am_hal_dcu_update + 112
        0x0001a450:    b005        ..      ADD      sp,sp,#0x14
        0x0001a452:    2007        .       MOVS     r0,#7
        0x0001a454:    e8bd8ff0    ....    POP      {r4-r11,pc}
        0x0001a458:    2202        ."      MOVS     r2,#2
        0x0001a45a:    4668        hF      MOV      r0,sp
        0x0001a45c:    f8d81004    ....    LDR      r1,[r8,#4]
        0x0001a460:    f003fb72    ..r.    BL       copy_words ; 0x1db48
        0x0001a464:    f1b90f00    ....    CMP      r9,#0
        0x0001a468:    d00d        ..      BEQ      0x1a486 ; am_hal_dcu_update + 158
        0x0001a46a:    e9dd1000    ....    LDRD     r1,r0,[sp,#0]
        0x0001a46e:    ea210207    !...    BIC      r2,r1,r7
        0x0001a472:    e9d83104    ...1    LDRD     r3,r1,[r8,#0x10]
        0x0001a476:    403b        ;@      ANDS     r3,r3,r7
        0x0001a478:    43b0        .C      BICS     r0,r0,r6
        0x0001a47a:    4031        1@      ANDS     r1,r1,r6
        0x0001a47c:    431a        .C      ORRS     r2,r2,r3
        0x0001a47e:    4308        .C      ORRS     r0,r0,r1
        0x0001a480:    e9cd2000    ...     STRD     r2,r0,[sp,#0]
        0x0001a484:    e00c        ..      B        0x1a4a0 ; am_hal_dcu_update + 184
        0x0001a486:    e9dd0100    ....    LDRD     r0,r1,[sp,#0]
        0x0001a48a:    ea210206    !...    BIC      r2,r1,r6
        0x0001a48e:    e9d83106    ...1    LDRD     r3,r1,[r8,#0x18]
        0x0001a492:    43b8        .C      BICS     r0,r0,r7
        0x0001a494:    403b        ;@      ANDS     r3,r3,r7
        0x0001a496:    4031        1@      ANDS     r1,r1,r6
        0x0001a498:    4318        .C      ORRS     r0,r0,r3
        0x0001a49a:    4311        .C      ORRS     r1,r1,r2
        0x0001a49c:    e9cd0100    ....    STRD     r0,r1,[sp,#0]
        0x0001a4a0:    2202        ."      MOVS     r2,#2
        0x0001a4a2:    4669        iF      MOV      r1,sp
        0x0001a4a4:    f8d80004    ....    LDR      r0,[r8,#4]
        0x0001a4a8:    f003fb4e    ..N.    BL       copy_words ; 0x1db48
        0x0001a4ac:    f8da0000    ....    LDR      r0,[r10,#0]
        0x0001a4b0:    f0100f01    ....    TST      r0,#1
        0x0001a4b4:    d0fa        ..      BEQ      0x1a4ac ; am_hal_dcu_update + 196
        0x0001a4b6:    b005        ..      ADD      sp,sp,#0x14
        0x0001a4b8:    2000        .       MOVS     r0,#0
        0x0001a4ba:    e8bd8ff0    ....    POP      {r4-r11,pc}
    $d
        0x0001a4be:    0000        ..      DCW    0
        0x0001a4c0:    40021000    ...@    DCD    1073876992
        0x0001a4c4:    400c0a7c    |..@    DCD    1074530940
        0x0001a4c8:    10000450    P...    DCD    268436560
    $t
    i.am_hal_delay_us
    am_hal_delay_us
        0x0001a4cc:    4908        .I      LDR      r1,[pc,#32] ; [0x1a4f0] = 0x40021000
        0x0001a4ce:    0140        @.      LSLS     r0,r0,#5
        0x0001a4d0:    6809        .h      LDR      r1,[r1,#0]
        0x0001a4d2:    f3c101c1    ....    UBFX     r1,r1,#3,#2
        0x0001a4d6:    2902        .)      CMP      r1,#2
        0x0001a4d8:    bf06        ..      ITTE     EQ
        0x0001a4da:    0040        @.      LSLEQ    r0,r0,#1
        0x0001a4dc:    2115        .!      MOVEQ    r1,#0x15
        0x0001a4de:    210f        .!      MOVNE    r1,#0xf
        0x0001a4e0:    4288        .B      CMP      r0,r1
        0x0001a4e2:    bf98        ..      IT       LS
        0x0001a4e4:    4770        pG      BXLS     lr
        0x0001a4e6:    1a40        @.      SUBS     r0,r0,r1
        0x0001a4e8:    4902        .I      LDR      r1,[pc,#8] ; [0x1a4f4] = 0x1f358
        0x0001a4ea:    6a49        Ij      LDR      r1,[r1,#0x24]
        0x0001a4ec:    4708        .G      BX       r1
    $d
        0x0001a4ee:    0000        ..      DCW    0
        0x0001a4f0:    40021000    ...@    DCD    1073876992
        0x0001a4f4:    0001f358    X...    DCD    127832
    $t
    i.am_hal_delay_us_status_change
    am_hal_delay_us_status_change
        0x0001a4f8:    e92d47f0    -..G    PUSH     {r4-r10,lr}
        0x0001a4fc:    f8df8048    ..H.    LDR      r8,[pc,#72] ; [0x1a548] = 0x40021000
        0x0001a500:    f8df9048    ..H.    LDR      r9,[pc,#72] ; [0x1a54c] = 0x1f358
        0x0001a504:    461d        .F      MOV      r5,r3
        0x0001a506:    4616        .F      MOV      r6,r2
        0x0001a508:    460f        .F      MOV      r7,r1
        0x0001a50a:    4604        .F      MOV      r4,r0
        0x0001a50c:    6838        8h      LDR      r0,[r7,#0]
        0x0001a50e:    4030        0@      ANDS     r0,r0,r6
        0x0001a510:    42a8        .B      CMP      r0,r5
        0x0001a512:    d102        ..      BNE      0x1a51a ; am_hal_delay_us_status_change + 34
        0x0001a514:    2000        .       MOVS     r0,#0
        0x0001a516:    e8bd87f0    ....    POP      {r4-r10,pc}
        0x0001a51a:    1e64        d.      SUBS     r4,r4,#1
        0x0001a51c:    d311        ..      BCC      0x1a542 ; am_hal_delay_us_status_change + 74
        0x0001a51e:    f8d81000    ....    LDR      r1,[r8,#0]
        0x0001a522:    2020                MOVS     r0,#0x20
        0x0001a524:    f3c101c1    ....    UBFX     r1,r1,#3,#2
        0x0001a528:    2902        .)      CMP      r1,#2
        0x0001a52a:    bf06        ..      ITTE     EQ
        0x0001a52c:    2040        @       MOVEQ    r0,#0x40
        0x0001a52e:    f04f0c15    O...    MOVEQ    r12,#0x15
        0x0001a532:    f04f0c0f    O...    MOVNE    r12,#0xf
        0x0001a536:    eba0000c    ....    SUB      r0,r0,r12
        0x0001a53a:    f8d91024    ..$.    LDR      r1,[r9,#0x24]
        0x0001a53e:    4788        .G      BLX      r1
        0x0001a540:    e7e4        ..      B        0x1a50c ; am_hal_delay_us_status_change + 20
        0x0001a542:    2004        .       MOVS     r0,#4
        0x0001a544:    e8bd87f0    ....    POP      {r4-r10,pc}
    $d
        0x0001a548:    40021000    ...@    DCD    1073876992
        0x0001a54c:    0001f358    X...    DCD    127832
    $t
    i.am_hal_delay_us_status_check
    am_hal_delay_us_status_check
        0x0001a550:    e92d47f0    -..G    PUSH     {r4-r10,lr}
        0x0001a554:    f8df9054    ..T.    LDR      r9,[pc,#84] ; [0x1a5ac] = 0x40021000
        0x0001a558:    f8dfa054    ..T.    LDR      r10,[pc,#84] ; [0x1a5b0] = 0x1f358
        0x0001a55c:    f8dd8020    .. .    LDR      r8,[sp,#0x20]
        0x0001a560:    461c        .F      MOV      r4,r3
        0x0001a562:    4615        .F      MOV      r5,r2
        0x0001a564:    460e        .F      MOV      r6,r1
        0x0001a566:    4607        .F      MOV      r7,r0
        0x0001a568:    6830        0h      LDR      r0,[r6,#0]
        0x0001a56a:    f1b80f00    ....    CMP      r8,#0
        0x0001a56e:    ea000005    ....    AND      r0,r0,r5
        0x0001a572:    d002        ..      BEQ      0x1a57a ; am_hal_delay_us_status_check + 42
        0x0001a574:    42a0        .B      CMP      r0,r4
        0x0001a576:    d002        ..      BEQ      0x1a57e ; am_hal_delay_us_status_check + 46
        0x0001a578:    e004        ..      B        0x1a584 ; am_hal_delay_us_status_check + 52
        0x0001a57a:    42a0        .B      CMP      r0,r4
        0x0001a57c:    d002        ..      BEQ      0x1a584 ; am_hal_delay_us_status_check + 52
        0x0001a57e:    2000        .       MOVS     r0,#0
        0x0001a580:    e8bd87f0    ....    POP      {r4-r10,pc}
        0x0001a584:    1e7f        ..      SUBS     r7,r7,#1
        0x0001a586:    d30e        ..      BCC      0x1a5a6 ; am_hal_delay_us_status_check + 86
        0x0001a588:    f8d91000    ....    LDR      r1,[r9,#0]
        0x0001a58c:    2020                MOVS     r0,#0x20
        0x0001a58e:    f3c101c1    ....    UBFX     r1,r1,#3,#2
        0x0001a592:    2902        .)      CMP      r1,#2
        0x0001a594:    bf06        ..      ITTE     EQ
        0x0001a596:    2040        @       MOVEQ    r0,#0x40
        0x0001a598:    2115        .!      MOVEQ    r1,#0x15
        0x0001a59a:    210f        .!      MOVNE    r1,#0xf
        0x0001a59c:    1a40        @.      SUBS     r0,r0,r1
        0x0001a59e:    f8da1024    ..$.    LDR      r1,[r10,#0x24]
        0x0001a5a2:    4788        .G      BLX      r1
        0x0001a5a4:    e7e0        ..      B        0x1a568 ; am_hal_delay_us_status_check + 24
        0x0001a5a6:    2004        .       MOVS     r0,#4
        0x0001a5a8:    e8bd87f0    ....    POP      {r4-r10,pc}
    $d
        0x0001a5ac:    40021000    ...@    DCD    1073876992
        0x0001a5b0:    0001f358    X...    DCD    127832
    $t
    i.am_hal_fault_capture_enable
    am_hal_fault_capture_enable
        0x0001a5b4:    f04f4090    O..@    MOV      r0,#0x48000000
        0x0001a5b8:    f8501f90    P...    LDR      r1,[r0,#0x90]!
        0x0001a5bc:    f0410101    A...    ORR      r1,r1,#1
        0x0001a5c0:    6001        .`      STR      r1,[r0,#0]
        0x0001a5c2:    2000        .       MOVS     r0,#0
        0x0001a5c4:    4770        pG      BX       lr
        0x0001a5c6:    0000        ..      MOVS     r0,r0
    i.am_hal_gpio_pinconfig
    am_hal_gpio_pinconfig
        0x0001a5c8:    b403        ..      PUSH     {r0,r1}
        0x0001a5ca:    4912        .I      LDR      r1,[pc,#72] ; [0x1a614] = 0x40010000
        0x0001a5cc:    2880        .(      CMP      r0,#0x80
        0x0001a5ce:    bf82        ..      ITTT     HI
        0x0001a5d0:    2005        .       MOVHI    r0,#5
        0x0001a5d2:    b002        ..      ADDHI    sp,sp,#8
        0x0001a5d4:    4770        pG      BXHI     lr
        0x0001a5d6:    9a01        ..      LDR      r2,[sp,#4]
        0x0001a5d8:    f3c22281    ..."    UBFX     r2,r2,#10,#2
        0x0001a5dc:    2a01        .*      CMP      r2,#1
        0x0001a5de:    d90e        ..      BLS      0x1a5fe ; am_hal_gpio_pinconfig + 54
        0x0001a5e0:    4b0d        .K      LDR      r3,[pc,#52] ; [0x1a618] = 0x1f538
        0x0001a5e2:    0942        B.      LSRS     r2,r0,#5
        0x0001a5e4:    f04f0c01    O...    MOV      r12,#1
        0x0001a5e8:    f8532022    S."     LDR      r2,[r3,r2,LSL #2]
        0x0001a5ec:    f000031f    ....    AND      r3,r0,#0x1f
        0x0001a5f0:    fa0cf303    ....    LSL      r3,r12,r3
        0x0001a5f4:    421a        .B      TST      r2,r3
        0x0001a5f6:    bf02        ..      ITTT     EQ
        0x0001a5f8:    2007        .       MOVEQ    r0,#7
        0x0001a5fa:    b002        ..      ADDEQ    sp,sp,#8
        0x0001a5fc:    4770        pG      BXEQ     lr
        0x0001a5fe:    2273        s"      MOVS     r2,#0x73
        0x0001a600:    f8c12200    ..."    STR      r2,[r1,#0x200]
        0x0001a604:    9a01        ..      LDR      r2,[sp,#4]
        0x0001a606:    f8412020    A.      STR      r2,[r1,r0,LSL #2]
        0x0001a60a:    2000        .       MOVS     r0,#0
        0x0001a60c:    f8c10200    ....    STR      r0,[r1,#0x200]
        0x0001a610:    b002        ..      ADD      sp,sp,#8
        0x0001a612:    4770        pG      BX       lr
    $d
        0x0001a614:    40010000    ...@    DCD    1073807360
        0x0001a618:    0001f538    8...    DCD    128312
    $t
    i.am_hal_itm_enable
    am_hal_itm_enable
        0x0001a61c:    480a        .H      LDR      r0,[pc,#40] ; [0x1a648] = 0xe000edfc
        0x0001a61e:    6801        .h      LDR      r1,[r0,#0]
        0x0001a620:    f0417180    A..q    ORR      r1,r1,#0x1000000
        0x0001a624:    6001        .`      STR      r1,[r0,#0]
        0x0001a626:    6801        .h      LDR      r1,[r0,#0]
        0x0001a628:    f0117f80    ....    TST      r1,#0x1000000
        0x0001a62c:    d0fb        ..      BEQ      0x1a626 ; am_hal_itm_enable + 10
        0x0001a62e:    4908        .I      LDR      r1,[pc,#32] ; [0x1a650] = 0xe0000fb0
        0x0001a630:    4806        .H      LDR      r0,[pc,#24] ; [0x1a64c] = 0xc5acce55
        0x0001a632:    6008        .`      STR      r0,[r1,#0]
        0x0001a634:    4907        .I      LDR      r1,[pc,#28] ; [0x1a654] = 0xe0000e40
        0x0001a636:    200f        .       MOVS     r0,#0xf
        0x0001a638:    6008        .`      STR      r0,[r1,#0]
        0x0001a63a:    1748        H.      ASRS     r0,r1,#29
        0x0001a63c:    4906        .I      LDR      r1,[pc,#24] ; [0x1a658] = 0xe0000e00
        0x0001a63e:    6008        .`      STR      r0,[r1,#0]
        0x0001a640:    4907        .I      LDR      r1,[pc,#28] ; [0x1a660] = 0xe0000e80
        0x0001a642:    4806        .H      LDR      r0,[pc,#24] ; [0x1a65c] = 0x150511
        0x0001a644:    6008        .`      STR      r0,[r1,#0]
        0x0001a646:    4770        pG      BX       lr
    $d
        0x0001a648:    e000edfc    ....    DCD    3758157308
        0x0001a64c:    c5acce55    U...    DCD    3316436565
        0x0001a650:    e0000fb0    ....    DCD    3758100400
        0x0001a654:    e0000e40    @...    DCD    3758100032
        0x0001a658:    e0000e00    ....    DCD    3758099968
        0x0001a65c:    00150511    ....    DCD    1377553
        0x0001a660:    e0000e80    ....    DCD    3758100096
    $t
    i.am_hal_itm_print
    am_hal_itm_print
        0x0001a664:    7802        .x      LDRB     r2,[r0,#0]
        0x0001a666:    2100        .!      MOVS     r1,#0
        0x0001a668:    2a00        .*      CMP      r2,#0
        0x0001a66a:    bf08        ..      IT       EQ
        0x0001a66c:    4770        pG      BXEQ     lr
        0x0001a66e:    1c49        I.      ADDS     r1,r1,#1
        0x0001a670:    5c42        B\      LDRB     r2,[r0,r1]
        0x0001a672:    2a00        .*      CMP      r2,#0
        0x0001a674:    d1fb        ..      BNE      0x1a66e ; am_hal_itm_print + 10
        0x0001a676:    2900        .)      CMP      r1,#0
        0x0001a678:    bf08        ..      IT       EQ
        0x0001a67a:    4770        pG      BXEQ     lr
        0x0001a67c:    f810cb01    ....    LDRB     r12,[r0],#1
        0x0001a680:    f04f4260    O.`B    MOV      r2,#0xe0000000
        0x0001a684:    6813        .h      LDR      r3,[r2,#0]
        0x0001a686:    2b00        .+      CMP      r3,#0
        0x0001a688:    d0fc        ..      BEQ      0x1a684 ; am_hal_itm_print + 32
        0x0001a68a:    f882c000    ....    STRB     r12,[r2,#0]
        0x0001a68e:    1e49        I.      SUBS     r1,r1,#1
        0x0001a690:    d1f4        ..      BNE      0x1a67c ; am_hal_itm_print + 24
        0x0001a692:    4770        pG      BX       lr
    i.am_hal_load_ui32
    am_hal_load_ui32
        0x0001a694:    4901        .I      LDR      r1,[pc,#4] ; [0x1a69c] = 0x1f358
        0x0001a696:    6949        Ii      LDR      r1,[r1,#0x14]
        0x0001a698:    4708        .G      BX       r1
    $d
        0x0001a69a:    0000        ..      DCW    0
        0x0001a69c:    0001f358    X...    DCD    127832
    $t
    i.am_hal_mram_ds_init
    am_hal_mram_ds_init
        0x0001a6a0:    4802        .H      LDR      r0,[pc,#8] ; [0x1a6ac] = 0x10000448
        0x0001a6a2:    b510        ..      PUSH     {r4,lr}
        0x0001a6a4:    6840        @h      LDR      r0,[r0,#4]
        0x0001a6a6:    4780        .G      BLX      r0
        0x0001a6a8:    2000        .       MOVS     r0,#0
        0x0001a6aa:    bd10        ..      POP      {r4,pc}
    $d
        0x0001a6ac:    10000448    H...    DCD    268436552
    $t
    i.am_hal_mram_info_read
    am_hal_mram_info_read
        0x0001a6b0:    e92d43f8    -..C    PUSH     {r3-r9,lr}
        0x0001a6b4:    4617        .F      MOV      r7,r2
        0x0001a6b6:    0002        ..      MOVS     r2,r0
        0x0001a6b8:    461d        .F      MOV      r5,r3
        0x0001a6ba:    f04f0800    O...    MOV      r8,#0
        0x0001a6be:    eb010007    ....    ADD      r0,r1,r7
        0x0001a6c2:    d011        ..      BEQ      0x1a6e8 ; am_hal_mram_info_read + 56
        0x0001a6c4:    2a01        .*      CMP      r2,#1
        0x0001a6c6:    bf1c        ..      ITT      NE
        0x0001a6c8:    2001        .       MOVNE    r0,#1
        0x0001a6ca:    e8bd83f8    ....    POPNE    {r3-r9,pc}
        0x0001a6ce:    f5a16290    ...b    SUB      r2,r1,#0x480
        0x0001a6d2:    f5b27fc0    ....    CMP      r2,#0x180
        0x0001a6d6:    d204        ..      BCS      0x1a6e2 ; am_hal_mram_info_read + 50
        0x0001a6d8:    f5b06fc0    ...o    CMP      r0,#0x600
        0x0001a6dc:    bf98        ..      IT       LS
        0x0001a6de:    4817        .H      LDRLS    r0,[pc,#92] ; [0x1a73c] = 0x42002000
        0x0001a6e0:    d90b        ..      BLS      0x1a6fa ; am_hal_mram_info_read + 74
        0x0001a6e2:    2002        .       MOVS     r0,#2
        0x0001a6e4:    e8bd83f8    ....    POP      {r3-r9,pc}
        0x0001a6e8:    f5b17f00    ....    CMP      r1,#0x200
        0x0001a6ec:    d2f9        ..      BCS      0x1a6e2 ; am_hal_mram_info_read + 50
        0x0001a6ee:    f5b07f00    ....    CMP      r0,#0x200
        0x0001a6f2:    bf98        ..      IT       LS
        0x0001a6f4:    f04f4084    O..@    MOVLS    r0,#0x42000000
        0x0001a6f8:    d8f3        ..      BHI      0x1a6e2 ; am_hal_mram_info_read + 50
        0x0001a6fa:    f8df9044    ..D.    LDR      r9,[pc,#68] ; [0x1a740] = 0x10000448
        0x0001a6fe:    eb000481    ....    ADD      r4,r0,r1,LSL #2
        0x0001a702:    2001        .       MOVS     r0,#1
        0x0001a704:    f8d91000    ....    LDR      r1,[r9,#0]
        0x0001a708:    4788        .G      BLX      r1
        0x0001a70a:    f7fdfe25    ..%.    BL       am_hal_interrupt_master_disable ; 0x18358
        0x0001a70e:    2600        .&      MOVS     r6,#0
        0x0001a710:    9000        ..      STR      r0,[sp,#0]
        0x0001a712:    2f00        ./      CMP      r7,#0
        0x0001a714:    d908        ..      BLS      0x1a728 ; am_hal_mram_info_read + 120
        0x0001a716:    4620         F      MOV      r0,r4
        0x0001a718:    1d24        $.      ADDS     r4,r4,#4
        0x0001a71a:    f7ffffbb    ....    BL       am_hal_load_ui32 ; 0x1a694
        0x0001a71e:    1c76        v.      ADDS     r6,r6,#1
        0x0001a720:    f8450b04    E...    STR      r0,[r5],#4
        0x0001a724:    42b7        .B      CMP      r7,r6
        0x0001a726:    d8f6        ..      BHI      0x1a716 ; am_hal_mram_info_read + 102
        0x0001a728:    9800        ..      LDR      r0,[sp,#0]
        0x0001a72a:    f7fdfe19    ....    BL       am_hal_interrupt_master_set ; 0x18360
        0x0001a72e:    f8d91000    ....    LDR      r1,[r9,#0]
        0x0001a732:    2000        .       MOVS     r0,#0
        0x0001a734:    4788        .G      BLX      r1
        0x0001a736:    4640        @F      MOV      r0,r8
        0x0001a738:    e8bd83f8    ....    POP      {r3-r9,pc}
    $d
        0x0001a73c:    42002000    . .B    DCD    1107304448
        0x0001a740:    10000448    H...    DCD    268436552
    $t
    i.am_hal_mspi_blocking_transfer
    am_hal_mspi_blocking_transfer
        0x0001a744:    e92d4ff7    -..O    PUSH     {r0-r2,r4-r11,lr}
        0x0001a748:    b08e        ..      SUB      sp,sp,#0x38
        0x0001a74a:    1e02        ..      SUBS     r2,r0,#0
        0x0001a74c:    f04f0300    O...    MOV      r3,#0
        0x0001a750:    bf1c        ..      ITT      NE
        0x0001a752:    6810        .h      LDRNE    r0,[r2,#0]
        0x0001a754:    f0107f80    ....    TSTNE    r0,#0x1000000
        0x0001a758:    d005        ..      BEQ      0x1a766 ; am_hal_mspi_blocking_transfer + 34
        0x0001a75a:    f8dfc20c    ....    LDR      r12,[pc,#524] ; [0x1a968] = 0xbebebe
        0x0001a75e:    f020407f     ..@    BIC      r0,r0,#0xff000000
        0x0001a762:    4560        `E      CMP      r0,r12
        0x0001a764:    d003        ..      BEQ      0x1a76e ; am_hal_mspi_blocking_transfer + 42
        0x0001a766:    b011        ..      ADD      sp,sp,#0x44
        0x0001a768:    2002        .       MOVS     r0,#2
        0x0001a76a:    e8bd8ff0    ....    POP      {r4-r11,pc}
        0x0001a76e:    6a10        .j      LDR      r0,[r2,#0x20]
        0x0001a770:    6855        Uh      LDR      r5,[r2,#4]
        0x0001a772:    2800        .(      CMP      r0,#0
        0x0001a774:    bf04        ..      ITT      EQ
        0x0001a776:    f8d20840    ..@.    LDREQ    r0,[r2,#0x840]
        0x0001a77a:    2800        .(      CMPEQ    r0,#0
        0x0001a77c:    d15c        \.      BNE      0x1a838 ; am_hal_mspi_blocking_transfer + 244
        0x0001a77e:    6808        .h      LDR      r0,[r1,#0]
        0x0001a780:    287f        .(      CMP      r0,#0x7f
        0x0001a782:    d859        Y.      BHI      0x1a838 ; am_hal_mspi_blocking_transfer + 244
        0x0001a784:    f892c82c    ..,.    LDRB     r12,[r2,#0x82c]
        0x0001a788:    f1bc0f02    ....    CMP      r12,#2
        0x0001a78c:    d054        T.      BEQ      0x1a838 ; am_hal_mspi_blocking_transfer + 244
        0x0001a78e:    ea434000    C..@    ORR      r0,r3,r0,LSL #16
        0x0001a792:    790b        .y      LDRB     r3,[r1,#4]
        0x0001a794:    f44f7c00    O..|    MOV      r12,#0x200
        0x0001a798:    ea0c2343    ..C#    AND      r3,r12,r3,LSL #9
        0x0001a79c:    4318        .C      ORRS     r0,r0,r3
        0x0001a79e:    798b        .y      LDRB     r3,[r1,#6]
        0x0001a7a0:    f04f0c80    O...    MOV      r12,#0x80
        0x0001a7a4:    ea0c13c3    ....    AND      r3,r12,r3,LSL #7
        0x0001a7a8:    4318        .C      ORRS     r0,r0,r3
        0x0001a7aa:    7b0b        .{      LDRB     r3,[r1,#0xc]
        0x0001a7ac:    b153        S.      CBZ      r3,0x1a7c4 ; am_hal_mspi_blocking_transfer + 128
        0x0001a7ae:    ea4f3c05    O..<    LSL      r12,r5,#12
        0x0001a7b2:    f10c4c80    ...L    ADD      r12,r12,#0x40000000
        0x0001a7b6:    f50c2cc0    ...,    ADD      r12,r12,#0x60000
        0x0001a7ba:    89cb        ..      LDRH     r3,[r1,#0xe]
        0x0001a7bc:    f0400040    @.@.    ORR      r0,r0,#0x40
        0x0001a7c0:    f8cc300c    ...0    STR      r3,[r12,#0xc]
        0x0001a7c4:    79cb        .y      LDRB     r3,[r1,#7]
        0x0001a7c6:    b153        S.      CBZ      r3,0x1a7de ; am_hal_mspi_blocking_transfer + 154
        0x0001a7c8:    ea4f3c05    O..<    LSL      r12,r5,#12
        0x0001a7cc:    f10c4c80    ...L    ADD      r12,r12,#0x40000000
        0x0001a7d0:    f50c2cc0    ...,    ADD      r12,r12,#0x60000
        0x0001a7d4:    688b        .h      LDR      r3,[r1,#8]
        0x0001a7d6:    f0400020    @. .    ORR      r0,r0,#0x20
        0x0001a7da:    f8cc3008    ...0    STR      r3,[r12,#8]
        0x0001a7de:    7c0b        .|      LDRB     r3,[r1,#0x10]
        0x0001a7e0:    2b00        .+      CMP      r3,#0
        0x0001a7e2:    bf18        ..      IT       NE
        0x0001a7e4:    f4406080    @..`    ORRNE    r0,r0,#0x400
        0x0001a7e8:    7b53        S{      LDRB     r3,[r2,#0xd]
        0x0001a7ea:    f44f7c80    O..|    MOV      r12,#0x100
        0x0001a7ee:    ea0c2303    ...#    AND      r3,r12,r3,LSL #8
        0x0001a7f2:    4318        .C      ORRS     r0,r0,r3
        0x0001a7f4:    7c4b        K|      LDRB     r3,[r1,#0x11]
        0x0001a7f6:    f44f5c80    O..\    MOV      r12,#0x1000
        0x0001a7fa:    ea0c3303    ...3    AND      r3,r12,r3,LSL #12
        0x0001a7fe:    4318        .C      ORRS     r0,r0,r3
        0x0001a800:    794b        Ky      LDRB     r3,[r1,#5]
        0x0001a802:    2b00        .+      CMP      r3,#0
        0x0001a804:    bf18        ..      IT       NE
        0x0001a806:    f4406000    @..`    ORRNE    r0,r0,#0x800
        0x0001a80a:    f0400001    @...    ORR      r0,r0,#1
        0x0001a80e:    032b        +.      LSLS     r3,r5,#12
        0x0001a810:    f1034680    ...F    ADD      r6,r3,#0x40000000
        0x0001a814:    f50626c0    ...&    ADD      r6,r6,#0x60000
        0x0001a818:    f8d63200    ...2    LDR      r3,[r6,#0x200]
        0x0001a81c:    9304        ..      STR      r3,[sp,#0x10]
        0x0001a81e:    2300        .#      MOVS     r3,#0
        0x0001a820:    f8c63200    ...2    STR      r3,[r6,#0x200]
        0x0001a824:    1e5b        [.      SUBS     r3,r3,#1
        0x0001a826:    f8c63208    ...2    STR      r3,[r6,#0x208]
        0x0001a82a:    6030        0`      STR      r0,[r6,#0]
        0x0001a82c:    798b        .y      LDRB     r3,[r1,#6]
        0x0001a82e:    2005        .       MOVS     r0,#5
        0x0001a830:    b133        3.      CBZ      r3,0x1a840 ; am_hal_mspi_blocking_transfer + 252
        0x0001a832:    2b01        .+      CMP      r3,#1
        0x0001a834:    d05a        Z.      BEQ      0x1a8ec ; am_hal_mspi_blocking_transfer + 424
        0x0001a836:    e08c        ..      B        0x1a952 ; am_hal_mspi_blocking_transfer + 526
        0x0001a838:    b011        ..      ADD      sp,sp,#0x44
        0x0001a83a:    2007        .       MOVS     r0,#7
        0x0001a83c:    e8bd8ff0    ....    POP      {r4-r11,pc}
        0x0001a840:    f8d1a014    ....    LDR      r10,[r1,#0x14]
        0x0001a844:    6809        .h      LDR      r1,[r1,#0]
        0x0001a846:    6912        .i      LDR      r2,[r2,#0x10]
        0x0001a848:    9203        ..      STR      r2,[sp,#0xc]
        0x0001a84a:    2d03        .-      CMP      r5,#3
        0x0001a84c:    d277        w.      BCS      0x1a93e ; am_hal_mspi_blocking_transfer + 506
        0x0001a84e:    ea5f0891    _...    LSRS     r8,r1,#2
        0x0001a852:    f1c80000    ....    RSB      r0,r8,#0
        0x0001a856:    eb010980    ....    ADD      r9,r1,r0,LSL #2
        0x0001a85a:    f04f0400    O...    MOV      r4,#0
        0x0001a85e:    d018        ..      BEQ      0x1a892 ; am_hal_mspi_blocking_transfer + 334
        0x0001a860:    4842        BH      LDR      r0,[pc,#264] ; [0x1a96c] = 0x4006001c
        0x0001a862:    eb003705    ...7    ADD      r7,r0,r5,LSL #12
        0x0001a866:    0328        (.      LSLS     r0,r5,#12
        0x0001a868:    f1004b80    ...K    ADD      r11,r0,#0x40000000
        0x0001a86c:    f50b2bc0    ...+    ADD      r11,r11,#0x60000
        0x0001a870:    2000        .       MOVS     r0,#0
        0x0001a872:    4603        .F      MOV      r3,r0
        0x0001a874:    9000        ..      STR      r0,[sp,#0]
        0x0001a876:    223f        ?"      MOVS     r2,#0x3f
        0x0001a878:    4639        9F      MOV      r1,r7
        0x0001a87a:    9803        ..      LDR      r0,[sp,#0xc]
        0x0001a87c:    f7fffe68    ..h.    BL       am_hal_delay_us_status_check ; 0x1a550
        0x0001a880:    2800        .(      CMP      r0,#0
        0x0001a882:    d15c        \.      BNE      0x1a93e ; am_hal_mspi_blocking_transfer + 506
        0x0001a884:    f8db0014    ....    LDR      r0,[r11,#0x14]
        0x0001a888:    f84a0024    J.$.    STR      r0,[r10,r4,LSL #2]
        0x0001a88c:    1c64        d.      ADDS     r4,r4,#1
        0x0001a88e:    4544        DE      CMP      r4,r8
        0x0001a890:    d3ee        ..      BCC      0x1a870 ; am_hal_mspi_blocking_transfer + 300
        0x0001a892:    f1b90f00    ....    CMP      r9,#0
        0x0001a896:    d05c        \.      BEQ      0x1a952 ; am_hal_mspi_blocking_transfer + 526
        0x0001a898:    2000        .       MOVS     r0,#0
        0x0001a89a:    9000        ..      STR      r0,[sp,#0]
        0x0001a89c:    4833        3H      LDR      r0,[pc,#204] ; [0x1a96c] = 0x4006001c
        0x0001a89e:    2300        .#      MOVS     r3,#0
        0x0001a8a0:    eb003105    ...1    ADD      r1,r0,r5,LSL #12
        0x0001a8a4:    223f        ?"      MOVS     r2,#0x3f
        0x0001a8a6:    9803        ..      LDR      r0,[sp,#0xc]
        0x0001a8a8:    f7fffe52    ..R.    BL       am_hal_delay_us_status_check ; 0x1a550
        0x0001a8ac:    bbf0        ..      CBNZ     r0,0x1a92c ; am_hal_mspi_blocking_transfer + 488
        0x0001a8ae:    0328        (.      LSLS     r0,r5,#12
        0x0001a8b0:    f1004080    ...@    ADD      r0,r0,#0x40000000
        0x0001a8b4:    f50020c0    ...     ADD      r0,r0,#0x60000
        0x0001a8b8:    6940        @i      LDR      r0,[r0,#0x14]
        0x0001a8ba:    900a        ..      STR      r0,[sp,#0x28]
        0x0001a8bc:    eb0a0084    ....    ADD      r0,r10,r4,LSL #2
        0x0001a8c0:    1e41        A.      SUBS     r1,r0,#1
        0x0001a8c2:    f10d0027    ..'.    ADD      r0,sp,#0x27
        0x0001a8c6:    f0190f01    ....    TST      r9,#1
        0x0001a8ca:    d003        ..      BEQ      0x1a8d4 ; am_hal_mspi_blocking_transfer + 400
        0x0001a8cc:    f8102f01    .../    LDRB     r2,[r0,#1]!
        0x0001a8d0:    f8012f01    .../    STRB     r2,[r1,#1]!
        0x0001a8d4:    ea5f0259    _.Y.    LSRS     r2,r9,#1
        0x0001a8d8:    d03b        ;.      BEQ      0x1a952 ; am_hal_mspi_blocking_transfer + 526
        0x0001a8da:    7843        Cx      LDRB     r3,[r0,#1]
        0x0001a8dc:    704b        Kp      STRB     r3,[r1,#1]
        0x0001a8de:    f8103f02    ...?    LDRB     r3,[r0,#2]!
        0x0001a8e2:    f8013f02    ...?    STRB     r3,[r1,#2]!
        0x0001a8e6:    1e52        R.      SUBS     r2,r2,#1
        0x0001a8e8:    d1f7        ..      BNE      0x1a8da ; am_hal_mspi_blocking_transfer + 406
        0x0001a8ea:    e032        2.      B        0x1a952 ; am_hal_mspi_blocking_transfer + 526
        0x0001a8ec:    f8d1a014    ....    LDR      r10,[r1,#0x14]
        0x0001a8f0:    f8d18000    ....    LDR      r8,[r1,#0]
        0x0001a8f4:    6911        .i      LDR      r1,[r2,#0x10]
        0x0001a8f6:    9101        ..      STR      r1,[sp,#4]
        0x0001a8f8:    2d03        .-      CMP      r5,#3
        0x0001a8fa:    d220         .      BCS      0x1a93e ; am_hal_mspi_blocking_transfer + 506
        0x0001a8fc:    2400        .$      MOVS     r4,#0
        0x0001a8fe:    f1b80f00    ....    CMP      r8,#0
        0x0001a902:    d926        &.      BLS      0x1a952 ; am_hal_mspi_blocking_transfer + 526
        0x0001a904:    0328        (.      LSLS     r0,r5,#12
        0x0001a906:    491a        .I      LDR      r1,[pc,#104] ; [0x1a970] = 0x40060018
        0x0001a908:    f1004980    ...I    ADD      r9,r0,#0x40000000
        0x0001a90c:    46a3        .F      MOV      r11,r4
        0x0001a90e:    f50929c0    ...)    ADD      r9,r9,#0x60000
        0x0001a912:    eb013705    ...7    ADD      r7,r1,r5,LSL #12
        0x0001a916:    bf00        ..      NOP      
        0x0001a918:    f85a0024    Z.$.    LDR      r0,[r10,r4,LSL #2]
        0x0001a91c:    f8c90010    ....    STR      r0,[r9,#0x10]
        0x0001a920:    2310        .#      MOVS     r3,#0x10
        0x0001a922:    223f        ?"      MOVS     r2,#0x3f
        0x0001a924:    4639        9F      MOV      r1,r7
        0x0001a926:    f8cdb000    ....    STR      r11,[sp,#0]
        0x0001a92a:    e000        ..      B        0x1a92e ; am_hal_mspi_blocking_transfer + 490
        0x0001a92c:    e007        ..      B        0x1a93e ; am_hal_mspi_blocking_transfer + 506
        0x0001a92e:    9801        ..      LDR      r0,[sp,#4]
        0x0001a930:    f7fffe0e    ....    BL       am_hal_delay_us_status_check ; 0x1a550
        0x0001a934:    1c64        d.      ADDS     r4,r4,#1
        0x0001a936:    ebb80f84    ....    CMP      r8,r4,LSL #2
        0x0001a93a:    d8ed        ..      BHI      0x1a918 ; am_hal_mspi_blocking_transfer + 468
        0x0001a93c:    b148        H.      CBZ      r0,0x1a952 ; am_hal_mspi_blocking_transfer + 526
        0x0001a93e:    f04f31ff    O..1    MOV      r1,#0xffffffff
        0x0001a942:    f8c61208    ....    STR      r1,[r6,#0x208]
        0x0001a946:    9904        ..      LDR      r1,[sp,#0x10]
        0x0001a948:    f8c61200    ....    STR      r1,[r6,#0x200]
        0x0001a94c:    b011        ..      ADD      sp,sp,#0x44
        0x0001a94e:    e8bd8ff0    ....    POP      {r4-r11,pc}
        0x0001a952:    2001        .       MOVS     r0,#1
        0x0001a954:    9000        ..      STR      r0,[sp,#0]
        0x0001a956:    4807        .H      LDR      r0,[pc,#28] ; [0x1a974] = 0x40060000
        0x0001a958:    2302        .#      MOVS     r3,#2
        0x0001a95a:    eb003105    ...1    ADD      r1,r0,r5,LSL #12
        0x0001a95e:    461a        .F      MOV      r2,r3
        0x0001a960:    9810        ..      LDR      r0,[sp,#0x40]
        0x0001a962:    f7fffdf5    ....    BL       am_hal_delay_us_status_check ; 0x1a550
        0x0001a966:    e7ea        ..      B        0x1a93e ; am_hal_mspi_blocking_transfer + 506
    $d
        0x0001a968:    00bebebe    ....    DCD    12500670
        0x0001a96c:    4006001c    ...@    DCD    1074135068
        0x0001a970:    40060018    ...@    DCD    1074135064
        0x0001a974:    40060000    ...@    DCD    1074135040
    $t
    i.am_hal_mspi_configure
    am_hal_mspi_configure
        0x0001a978:    e92d43f8    -..C    PUSH     {r3-r9,lr}
        0x0001a97c:    6845        Eh      LDR      r5,[r0,#4]
        0x0001a97e:    460e        .F      MOV      r6,r1
        0x0001a980:    1e04        ..      SUBS     r4,r0,#0
        0x0001a982:    bf1c        ..      ITT      NE
        0x0001a984:    6820         h      LDRNE    r0,[r4,#0]
        0x0001a986:    f0107f80    ....    TSTNE    r0,#0x1000000
        0x0001a98a:    d004        ..      BEQ      0x1a996 ; am_hal_mspi_configure + 30
        0x0001a98c:    4a39        9J      LDR      r2,[pc,#228] ; [0x1aa74] = 0xbebebe
        0x0001a98e:    f020417f     ..A    BIC      r1,r0,#0xff000000
        0x0001a992:    4291        .B      CMP      r1,r2
        0x0001a994:    d002        ..      BEQ      0x1a99c ; am_hal_mspi_configure + 36
        0x0001a996:    2002        .       MOVS     r0,#2
        0x0001a998:    e8bd83f8    ....    POP      {r3-r9,pc}
        0x0001a99c:    f0107f00    ....    TST      r0,#0x2000000
        0x0001a9a0:    bf1c        ..      ITT      NE
        0x0001a9a2:    2007        .       MOVNE    r0,#7
        0x0001a9a4:    e8bd83f8    ....    POPNE    {r3-r9,pc}
        0x0001a9a8:    0328        (.      LSLS     r0,r5,#12
        0x0001a9aa:    f1004780    ...G    ADD      r7,r0,#0x40000000
        0x0001a9ae:    f50727c0    ...'    ADD      r7,r7,#0x60000
        0x0001a9b2:    f8d70090    ....    LDR      r0,[r7,#0x90]
        0x0001a9b6:    f0200001     ...    BIC      r0,r0,#1
        0x0001a9ba:    f8c70090    ....    STR      r0,[r7,#0x90]
        0x0001a9be:    f04f0900    O...    MOV      r9,#0
        0x0001a9c2:    f7fdfcc9    ....    BL       am_hal_interrupt_master_disable ; 0x18358
        0x0001a9c6:    9000        ..      STR      r0,[sp,#0]
        0x0001a9c8:    482b        +H      LDR      r0,[pc,#172] ; [0x1aa78] = 0x100001f8
        0x0001a9ca:    f04f0801    O...    MOV      r8,#1
        0x0001a9ce:    fa08f105    ....    LSL      r1,r8,r5
        0x0001a9d2:    6802        .h      LDR      r2,[r0,#0]
        0x0001a9d4:    ea220101    "...    BIC      r1,r2,r1
        0x0001a9d8:    fa09f205    ....    LSL      r2,r9,r5
        0x0001a9dc:    4311        .C      ORRS     r1,r1,r2
        0x0001a9de:    6001        .`      STR      r1,[r0,#0]
        0x0001a9e0:    9800        ..      LDR      r0,[sp,#0]
        0x0001a9e2:    f7fdfcbd    ....    BL       am_hal_interrupt_master_set ; 0x18360
        0x0001a9e6:    2000        .       MOVS     r0,#0
        0x0001a9e8:    f8c7009c    ....    STR      r0,[r7,#0x9c]
        0x0001a9ec:    f8c70080    ....    STR      r0,[r7,#0x80]
        0x0001a9f0:    f240202f    @./     MOV      r0,#0x22f
        0x0001a9f4:    fb05f200    ....    MUL      r2,r5,r0
        0x0001a9f8:    4820         H      LDR      r0,[pc,#128] ; [0x1aa7c] = 0x100030a0
        0x0001a9fa:    6871        qh      LDR      r1,[r6,#4]
        0x0001a9fc:    eb000082    ....    ADD      r0,r0,r2,LSL #2
        0x0001aa00:    6181        .a      STR      r1,[r0,#0x18]
        0x0001aa02:    6831        1h      LDR      r1,[r6,#0]
        0x0001aa04:    6141        Aa      STR      r1,[r0,#0x14]
        0x0001aa06:    69a1        .i      LDR      r1,[r4,#0x18]
        0x0001aa08:    b351        Q.      CBZ      r1,0x1aa60 ; am_hal_mspi_configure + 232
        0x0001aa0a:    6962        bi      LDR      r2,[r4,#0x14]
        0x0001aa0c:    eb010182    ....    ADD      r1,r1,r2,LSL #2
        0x0001aa10:    4a1b        .J      LDR      r2,[pc,#108] ; [0x1aa80] = 0x10060000
        0x0001aa12:    4291        .B      CMP      r1,r2
        0x0001aa14:    bf2c        ,.      ITE      CS
        0x0001aa16:    2100        .!      MOVCS    r1,#0
        0x0001aa18:    2101        .!      MOVCC    r1,#1
        0x0001aa1a:    f88418b8    ....    STRB     r1,[r4,#0x8b8]
        0x0001aa1e:    2900        .)      CMP      r1,#0
        0x0001aa20:    bf18        ..      IT       NE
        0x0001aa22:    6961        ai      LDRNE    r1,[r4,#0x14]
        0x0001aa24:    d10d        ..      BNE      0x1aa42 ; am_hal_mspi_configure + 202
        0x0001aa26:    69a2        .i      LDR      r2,[r4,#0x18]
        0x0001aa28:    6963        ci      LDR      r3,[r4,#0x14]
        0x0001aa2a:    f102010f    ....    ADD      r1,r2,#0xf
        0x0001aa2e:    f021010f    !...    BIC      r1,r1,#0xf
        0x0001aa32:    f002020f    ....    AND      r2,r2,#0xf
        0x0001aa36:    ebc20283    ....    RSB      r2,r2,r3,LSL #2
        0x0001aa3a:    61a1        .a      STR      r1,[r4,#0x18]
        0x0001aa3c:    0911        ..      LSRS     r1,r2,#4
        0x0001aa3e:    0089        ..      LSLS     r1,r1,#2
        0x0001aa40:    6161        aa      STR      r1,[r4,#0x14]
        0x0001aa42:    0089        ..      LSLS     r1,r1,#2
        0x0001aa44:    4a0f        .J      LDR      r2,[pc,#60] ; [0x1aa84] = 0xba2e8ba3
        0x0001aa46:    3920         9      SUBS     r1,r1,#0x20
        0x0001aa48:    fba22101    ...!    UMULL    r2,r1,r2,r1
        0x0001aa4c:    098a        ..      LSRS     r2,r1,#6
        0x0001aa4e:    f8c02858    ..X(    STR      r2,[r0,#0x858]
        0x0001aa52:    f5b27f80    ....    CMP      r2,#0x100
        0x0001aa56:    bf88        ..      IT       HI
        0x0001aa58:    f44f7280    O..r    MOVHI    r2,#0x100
        0x0001aa5c:    f8c02858    ..X(    STR      r2,[r0,#0x858]
        0x0001aa60:    7a31        1z      LDRB     r1,[r6,#8]
        0x0001aa62:    7241        Ar      STRB     r1,[r0,#9]
        0x0001aa64:    f8808008    ....    STRB     r8,[r0,#8]
        0x0001aa68:    2114        .!      MOVS     r1,#0x14
        0x0001aa6a:    7281        .r      STRB     r1,[r0,#0xa]
        0x0001aa6c:    2000        .       MOVS     r0,#0
        0x0001aa6e:    e8bd83f8    ....    POP      {r3-r9,pc}
    $d
        0x0001aa72:    0000        ..      DCW    0
        0x0001aa74:    00bebebe    ....    DCD    12500670
        0x0001aa78:    100001f8    ....    DCD    268435960
        0x0001aa7c:    100030a0    .0..    DCD    268447904
        0x0001aa80:    10060000    ....    DCD    268828672
        0x0001aa84:    ba2e8ba3    ....    DCD    3123612579
    $t
    i.am_hal_mspi_control
    am_hal_mspi_control
        0x0001aa88:    e92d43f0    -..C    PUSH     {r4-r9,lr}
        0x0001aa8c:    b083        ..      SUB      sp,sp,#0xc
        0x0001aa8e:    0004        ..      MOVS     r4,r0
        0x0001aa90:    f04f0600    O...    MOV      r6,#0
        0x0001aa94:    bf1c        ..      ITT      NE
        0x0001aa96:    6820         h      LDRNE    r0,[r4,#0]
        0x0001aa98:    f0107f80    ....    TSTNE    r0,#0x1000000
        0x0001aa9c:    d004        ..      BEQ      0x1aaa8 ; am_hal_mspi_control + 32
        0x0001aa9e:    f020437f     ..C    BIC      r3,r0,#0xff000000
        0x0001aaa2:    48f7        .H      LDR      r0,[pc,#988] ; [0x1ae80] = 0xbebebe
        0x0001aaa4:    4283        .B      CMP      r3,r0
        0x0001aaa6:    d003        ..      BEQ      0x1aab0 ; am_hal_mspi_control + 40
        0x0001aaa8:    b003        ..      ADD      sp,sp,#0xc
        0x0001aaaa:    2002        .       MOVS     r0,#2
        0x0001aaac:    e8bd83f0    ....    POP      {r4-r9,pc}
        0x0001aab0:    291e        .)      CMP      r1,#0x1e
        0x0001aab2:    f20085db    ....    BHI.W    0x1b66c ; am_hal_mspi_control + 3044
        0x0001aab6:    7a20         z      LDRB     r0,[r4,#8]
        0x0001aab8:    2800        .(      CMP      r0,#0
        0x0001aaba:    f00084fe    ....    BEQ.W    0x1b4ba ; am_hal_mspi_control + 2610
        0x0001aabe:    6865        eh      LDR      r5,[r4,#4]
        0x0001aac0:    291e        .)      CMP      r1,#0x1e
        0x0001aac2:    f08085d3    ....    BCS.W    0x1b66c ; am_hal_mspi_control + 3044
        0x0001aac6:    e8dff001    ....    TBB      [pc,r1]
    $d
        0x0001aaca:    1c0f        ..      DCW    7183
        0x0001aacc:    5e543e2d    ->T^    DCD    1582579245
        0x0001aad0:    9382756b    ku..    DCD    2474800491
        0x0001aad4:    fcfdaa9d    ....    DCD    4244482717
        0x0001aad8:    f8f9fafb    ....    DCD    4177132283
        0x0001aadc:    f4f5f6f7    ....    DCD    4109760247
        0x0001aae0:    f0f1f2f3    ....    DCD    4042388211
        0x0001aae4:    ecedeeef    ....    DCD    3975016175
    $t
        0x0001aae8:    2a00        .*      CMP      r2,#0
        0x0001aaea:    f00085bf    ....    BEQ.W    0x1b66c ; am_hal_mspi_control + 3044
        0x0001aaee:    0329        ).      LSLS     r1,r5,#12
        0x0001aaf0:    f1014180    ...A    ADD      r1,r1,#0x40000000
        0x0001aaf4:    f50121c0    ...!    ADD      r1,r1,#0x60000
        0x0001aaf8:    7810        .x      LDRB     r0,[r2,#0]
        0x0001aafa:    6b0a        .k      LDR      r2,[r1,#0x30]
        0x0001aafc:    f3600200    `...    BFI      r2,r0,#0,#1
        0x0001ab00:    e01e        ..      B        0x1ab40 ; am_hal_mspi_control + 184
        0x0001ab02:    2a00        .*      CMP      r2,#0
        0x0001ab04:    f00085b2    ....    BEQ.W    0x1b66c ; am_hal_mspi_control + 3044
        0x0001ab08:    49de        .I      LDR      r1,[pc,#888] ; [0x1ae84] = 0xe0e0e0
        0x0001ab0a:    6810        .h      LDR      r0,[r2,#0]
        0x0001ab0c:    4208        .B      TST      r0,r1
        0x0001ab0e:    f04085ad    @...    BNE.W    0x1b66c ; am_hal_mspi_control + 3044
        0x0001ab12:    0329        ).      LSLS     r1,r5,#12
        0x0001ab14:    f1014180    ...A    ADD      r1,r1,#0x40000000
        0x0001ab18:    f50121c0    ...!    ADD      r1,r1,#0x60000
        0x0001ab1c:    f8c102b4    ....    STR      r0,[r1,#0x2b4]
        0x0001ab20:    f000bda2    ....    B.W      0x1b668 ; am_hal_mspi_control + 3040
        0x0001ab24:    2a00        .*      CMP      r2,#0
        0x0001ab26:    bf1c        ..      ITT      NE
        0x0001ab28:    6810        .h      LDRNE    r0,[r2,#0]
        0x0001ab2a:    2808        .(      CMPNE    r0,#8
        0x0001ab2c:    f080859e    ....    BCS.W    0x1b66c ; am_hal_mspi_control + 3044
        0x0001ab30:    0329        ).      LSLS     r1,r5,#12
        0x0001ab32:    f1014180    ...A    ADD      r1,r1,#0x40000000
        0x0001ab36:    f50121c0    ...!    ADD      r1,r1,#0x60000
        0x0001ab3a:    6b0a        .k      LDR      r2,[r1,#0x30]
        0x0001ab3c:    f3601207    `...    BFI      r2,r0,#4,#4
        0x0001ab40:    630a        .c      STR      r2,[r1,#0x30]
        0x0001ab42:    f000bd91    ....    B.W      0x1b668 ; am_hal_mspi_control + 3040
        0x0001ab46:    2a00        .*      CMP      r2,#0
        0x0001ab48:    f0008590    ....    BEQ.W    0x1b66c ; am_hal_mspi_control + 3044
        0x0001ab4c:    6810        .h      LDR      r0,[r2,#0]
        0x0001ab4e:    2803        .(      CMP      r0,#3
        0x0001ab50:    d302        ..      BCC      0x1ab58 ; am_hal_mspi_control + 208
        0x0001ab52:    2807        .(      CMP      r0,#7
        0x0001ab54:    f040858a    @...    BNE.W    0x1b66c ; am_hal_mspi_control + 3044
        0x0001ab58:    f1000208    ....    ADD      r2,r0,#8
        0x0001ab5c:    0328        (.      LSLS     r0,r5,#12
        0x0001ab5e:    f1004080    ...@    ADD      r0,r0,#0x40000000
        0x0001ab62:    f50020c0    ...     ADD      r0,r0,#0x60000
        0x0001ab66:    6b01        .k      LDR      r1,[r0,#0x30]
        0x0001ab68:    f3621107    b...    BFI      r1,r2,#4,#4
        0x0001ab6c:    6301        .c      STR      r1,[r0,#0x30]
        0x0001ab6e:    f000bd7b    ..{.    B.W      0x1b668 ; am_hal_mspi_control + 3040
        0x0001ab72:    0328        (.      LSLS     r0,r5,#12
        0x0001ab74:    f1004080    ...@    ADD      r0,r0,#0x40000000
        0x0001ab78:    f50020c0    ...     ADD      r0,r0,#0x60000
        0x0001ab7c:    f8d01090    ....    LDR      r1,[r0,#0x90]
        0x0001ab80:    f4216100    !..a    BIC      r1,r1,#0x800
        0x0001ab84:    e008        ..      B        0x1ab98 ; am_hal_mspi_control + 272
        0x0001ab86:    0328        (.      LSLS     r0,r5,#12
        0x0001ab88:    f1004080    ...@    ADD      r0,r0,#0x40000000
        0x0001ab8c:    f50020c0    ...     ADD      r0,r0,#0x60000
        0x0001ab90:    f8d01090    ....    LDR      r1,[r0,#0x90]
        0x0001ab94:    f4416100    A..a    ORR      r1,r1,#0x800
        0x0001ab98:    f8c01090    ....    STR      r1,[r0,#0x90]
        0x0001ab9c:    f000bd64    ..d.    B.W      0x1b668 ; am_hal_mspi_control + 3040
        0x0001aba0:    0328        (.      LSLS     r0,r5,#12
        0x0001aba2:    f1004080    ...@    ADD      r0,r0,#0x40000000
        0x0001aba6:    f50020c0    ...     ADD      r0,r0,#0x60000
        0x0001abaa:    f8d0109c    ....    LDR      r1,[r0,#0x9c]
        0x0001abae:    f0214100    !..A    BIC      r1,r1,#0x80000000
        0x0001abb2:    e008        ..      B        0x1abc6 ; am_hal_mspi_control + 318
        0x0001abb4:    0328        (.      LSLS     r0,r5,#12
        0x0001abb6:    f1004080    ...@    ADD      r0,r0,#0x40000000
        0x0001abba:    f50020c0    ...     ADD      r0,r0,#0x60000
        0x0001abbe:    f8d0109c    ....    LDR      r1,[r0,#0x9c]
        0x0001abc2:    f0414100    A..A    ORR      r1,r1,#0x80000000
        0x0001abc6:    f8c0109c    ....    STR      r1,[r0,#0x9c]
        0x0001abca:    f000bd4d    ..M.    B.W      0x1b668 ; am_hal_mspi_control + 3040
        0x0001abce:    2a00        .*      CMP      r2,#0
        0x0001abd0:    f000854c    ..L.    BEQ.W    0x1b66c ; am_hal_mspi_control + 3044
        0x0001abd4:    0328        (.      LSLS     r0,r5,#12
        0x0001abd6:    f1004080    ...@    ADD      r0,r0,#0x40000000
        0x0001abda:    f50020c0    ...     ADD      r0,r0,#0x60000
        0x0001abde:    7812        .x      LDRB     r2,[r2,#0]
        0x0001abe0:    f8d01090    ....    LDR      r1,[r0,#0x90]
        0x0001abe4:    f3620183    b...    BFI      r1,r2,#2,#2
        0x0001abe8:    f8c01090    ....    STR      r1,[r0,#0x90]
        0x0001abec:    f000bd3c    ..<.    B.W      0x1b668 ; am_hal_mspi_control + 3040
        0x0001abf0:    0328        (.      LSLS     r0,r5,#12
        0x0001abf2:    f1004080    ...@    ADD      r0,r0,#0x40000000
        0x0001abf6:    f50020c0    ...     ADD      r0,r0,#0x60000
        0x0001abfa:    f8d01088    ....    LDR      r1,[r0,#0x88]
        0x0001abfe:    f0210101    !...    BIC      r1,r1,#1
        0x0001ac02:    e008        ..      B        0x1ac16 ; am_hal_mspi_control + 398
        0x0001ac04:    0328        (.      LSLS     r0,r5,#12
        0x0001ac06:    f1004080    ...@    ADD      r0,r0,#0x40000000
        0x0001ac0a:    f50020c0    ...     ADD      r0,r0,#0x60000
        0x0001ac0e:    f8d01088    ....    LDR      r1,[r0,#0x88]
        0x0001ac12:    f0410101    A...    ORR      r1,r1,#1
        0x0001ac16:    f8c01088    ....    STR      r1,[r0,#0x88]
        0x0001ac1a:    f000bd25    ..%.    B.W      0x1b668 ; am_hal_mspi_control + 3040
        0x0001ac1e:    2a00        .*      CMP      r2,#0
        0x0001ac20:    f0008524    ..$.    BEQ.W    0x1b66c ; am_hal_mspi_control + 3044
        0x0001ac24:    7890        .x      LDRB     r0,[r2,#2]
        0x0001ac26:    2801        .(      CMP      r0,#1
        0x0001ac28:    bf04        ..      ITT      EQ
        0x0001ac2a:    7810        .x      LDRBEQ   r0,[r2,#0]
        0x0001ac2c:    2801        .(      CMPEQ    r0,#1
        0x0001ac2e:    f000851d    ....    BEQ.W    0x1b66c ; am_hal_mspi_control + 3044
        0x0001ac32:    78d0        .x      LDRB     r0,[r2,#3]
        0x0001ac34:    2800        .(      CMP      r0,#0
        0x0001ac36:    bf18        ..      IT       NE
        0x0001ac38:    281f        .(      CMPNE    r0,#0x1f
        0x0001ac3a:    f0008517    ....    BEQ.W    0x1b66c ; am_hal_mspi_control + 3044
        0x0001ac3e:    ea4f3005    O..0    LSL      r0,r5,#12
        0x0001ac42:    f1004080    ...@    ADD      r0,r0,#0x40000000
        0x0001ac46:    f50020c0    ...     ADD      r0,r0,#0x60000
        0x0001ac4a:    7811        .x      LDRB     r1,[r2,#0]
        0x0001ac4c:    f8d03088    ...0    LDR      r3,[r0,#0x88]
        0x0001ac50:    f3610382    a...    BFI      r3,r1,#2,#1
        0x0001ac54:    f8c03088    ...0    STR      r3,[r0,#0x88]
        0x0001ac58:    7893        .x      LDRB     r3,[r2,#2]
        0x0001ac5a:    f8d01088    ....    LDR      r1,[r0,#0x88]
        0x0001ac5e:    f3631186    c...    BFI      r1,r3,#6,#1
        0x0001ac62:    f8c01088    ....    STR      r1,[r0,#0x88]
        0x0001ac66:    7853        Sx      LDRB     r3,[r2,#1]
        0x0001ac68:    f8d01088    ....    LDR      r1,[r0,#0x88]
        0x0001ac6c:    f3631104    c...    BFI      r1,r3,#4,#1
        0x0001ac70:    f8c01088    ....    STR      r1,[r0,#0x88]
        0x0001ac74:    78d3        .x      LDRB     r3,[r2,#3]
        0x0001ac76:    f8d01088    ....    LDR      r1,[r0,#0x88]
        0x0001ac7a:    f363210c    c..!    BFI      r1,r3,#8,#5
        0x0001ac7e:    f8c01088    ....    STR      r1,[r0,#0x88]
        0x0001ac82:    7913        .y      LDRB     r3,[r2,#4]
        0x0001ac84:    f8d01088    ....    LDR      r1,[r0,#0x88]
        0x0001ac88:    f3631145    c.E.    BFI      r1,r3,#5,#1
        0x0001ac8c:    f8c01088    ....    STR      r1,[r0,#0x88]
        0x0001ac90:    7951        Qy      LDRB     r1,[r2,#5]
        0x0001ac92:    f8d03088    ...0    LDR      r3,[r0,#0x88]
        0x0001ac96:    f3614314    a..C    BFI      r3,r1,#16,#5
        0x0001ac9a:    f8c03088    ...0    STR      r3,[r0,#0x88]
        0x0001ac9e:    7991        .y      LDRB     r1,[r2,#6]
        0x0001aca0:    e011        ..      B        0x1acc6 ; am_hal_mspi_control + 574
        0x0001aca2:    e3e3        ..      B        0x1b46c ; am_hal_mspi_control + 2532
        0x0001aca4:    e3e3        ..      B        0x1b46e ; am_hal_mspi_control + 2534
        0x0001aca6:    e3c5        ..      B        0x1b434 ; am_hal_mspi_control + 2476
        0x0001aca8:    e3b4        ..      B        0x1b414 ; am_hal_mspi_control + 2444
        0x0001acaa:    e39b        ..      B        0x1b3e4 ; am_hal_mspi_control + 2396
        0x0001acac:    e2c8        ..      B        0x1b240 ; am_hal_mspi_control + 1976
        0x0001acae:    e252        R.      B        0x1b156 ; am_hal_mspi_control + 1742
        0x0001acb0:    e248        H.      B        0x1b144 ; am_hal_mspi_control + 1724
        0x0001acb2:    e1fc        ..      B        0x1b0ae ; am_hal_mspi_control + 1574
        0x0001acb4:    e157        W.      B        0x1af66 ; am_hal_mspi_control + 1246
        0x0001acb6:    e14a        J.      B        0x1af4e ; am_hal_mspi_control + 1222
        0x0001acb8:    e0fd        ..      B        0x1aeb6 ; am_hal_mspi_control + 1070
        0x0001acba:    e0e9        ..      B        0x1ae90 ; am_hal_mspi_control + 1032
        0x0001acbc:    e0cf        ..      B        0x1ae5e ; am_hal_mspi_control + 982
        0x0001acbe:    e0b3        ..      B        0x1ae28 ; am_hal_mspi_control + 928
        0x0001acc0:    e020         .      B        0x1ad04 ; am_hal_mspi_control + 636
        0x0001acc2:    e085        ..      B        0x1add0 ; am_hal_mspi_control + 840
        0x0001acc4:    e041        A.      B        0x1ad4a ; am_hal_mspi_control + 706
        0x0001acc6:    f8d03088    ...0    LDR      r3,[r0,#0x88]
        0x0001acca:    f36103c3    a...    BFI      r3,r1,#3,#1
        0x0001acce:    f8c03088    ...0    STR      r3,[r0,#0x88]
        0x0001acd2:    7891        .x      LDRB     r1,[r2,#2]
        0x0001acd4:    2900        .)      CMP      r1,#0
        0x0001acd6:    f00084c7    ....    BEQ.W    0x1b668 ; am_hal_mspi_control + 3040
        0x0001acda:    7a13        .z      LDRB     r3,[r2,#8]
        0x0001acdc:    f8d01084    ....    LDR      r1,[r0,#0x84]
        0x0001ace0:    f363210d    c..!    BFI      r1,r3,#8,#6
        0x0001ace4:    f8c01084    ....    STR      r1,[r0,#0x84]
        0x0001ace8:    7a53        Sz      LDRB     r3,[r2,#9]
        0x0001acea:    f8d01090    ....    LDR      r1,[r0,#0x90]
        0x0001acee:    f3633152    c.R1    BFI      r1,r3,#13,#6
        0x0001acf2:    f8c01090    ....    STR      r1,[r0,#0x90]
        0x0001acf6:    7a92        .z      LDRB     r2,[r2,#0xa]
        0x0001acf8:    f8d01084    ....    LDR      r1,[r0,#0x84]
        0x0001acfc:    f36251d7    b..Q    BFI      r1,r2,#23,#1
        0x0001ad00:    f000bcb0    ....    B.W      0x1b664 ; am_hal_mspi_control + 3036
        0x0001ad04:    2100        .!      MOVS     r1,#0
        0x0001ad06:    2002        .       MOVS     r0,#2
        0x0001ad08:    f7fffa7e    ..~.    BL       am_hal_daxi_control ; 0x1a208
        0x0001ad0c:    0328        (.      LSLS     r0,r5,#12
        0x0001ad0e:    f1004080    ...@    ADD      r0,r0,#0x40000000
        0x0001ad12:    f50020c0    ...     ADD      r0,r0,#0x60000
        0x0001ad16:    f8d01090    ....    LDR      r1,[r0,#0x90]
        0x0001ad1a:    f0210101    !...    BIC      r1,r1,#1
        0x0001ad1e:    f8c01090    ....    STR      r1,[r0,#0x90]
        0x0001ad22:    2400        .$      MOVS     r4,#0
        0x0001ad24:    f7fdfb18    ....    BL       am_hal_interrupt_master_disable ; 0x18358
        0x0001ad28:    9000        ..      STR      r0,[sp,#0]
        0x0001ad2a:    2001        .       MOVS     r0,#1
        0x0001ad2c:    fa00f105    ....    LSL      r1,r0,r5
        0x0001ad30:    4855        UH      LDR      r0,[pc,#340] ; [0x1ae88] = 0x100001f8
        0x0001ad32:    6802        .h      LDR      r2,[r0,#0]
        0x0001ad34:    ea220101    "...    BIC      r1,r2,r1
        0x0001ad38:    fa04f205    ....    LSL      r2,r4,r5
        0x0001ad3c:    4311        .C      ORRS     r1,r1,r2
        0x0001ad3e:    6001        .`      STR      r1,[r0,#0]
        0x0001ad40:    9800        ..      LDR      r0,[sp,#0]
        0x0001ad42:    f7fdfb0d    ....    BL       am_hal_interrupt_master_set ; 0x18360
        0x0001ad46:    f000bc8f    ....    B.W      0x1b668 ; am_hal_mspi_control + 3040
        0x0001ad4a:    b125        %.      CBZ      r5,0x1ad56 ; am_hal_mspi_control + 718
        0x0001ad4c:    2d01        .-      CMP      r5,#1
        0x0001ad4e:    d00a        ..      BEQ      0x1ad66 ; am_hal_mspi_control + 734
        0x0001ad50:    2d02        .-      CMP      r5,#2
        0x0001ad52:    d010        ..      BEQ      0x1ad76 ; am_hal_mspi_control + 750
        0x0001ad54:    e016        ..      B        0x1ad84 ; am_hal_mspi_control + 764
        0x0001ad56:    6890        .h      LDR      r0,[r2,#8]
        0x0001ad58:    f1a050a0    ...P    SUB      r0,r0,#0x14000000
        0x0001ad5c:    f1b06f80    ...o    CMP      r0,#0x4000000
        0x0001ad60:    f080839a    ....    BCS.W    0x1b498 ; am_hal_mspi_control + 2576
        0x0001ad64:    e00e        ..      B        0x1ad84 ; am_hal_mspi_control + 764
        0x0001ad66:    6890        .h      LDR      r0,[r2,#8]
        0x0001ad68:    f1a050c0    ...P    SUB      r0,r0,#0x18000000
        0x0001ad6c:    f1b06f80    ...o    CMP      r0,#0x4000000
        0x0001ad70:    f0808392    ....    BCS.W    0x1b498 ; am_hal_mspi_control + 2576
        0x0001ad74:    e006        ..      B        0x1ad84 ; am_hal_mspi_control + 764
        0x0001ad76:    6890        .h      LDR      r0,[r2,#8]
        0x0001ad78:    f1a050e0    ...P    SUB      r0,r0,#0x1c000000
        0x0001ad7c:    f1b06f80    ...o    CMP      r0,#0x4000000
        0x0001ad80:    f080838a    ....    BCS.W    0x1b498 ; am_hal_mspi_control + 2576
        0x0001ad84:    4941        AI      LDR      r1,[pc,#260] ; [0x1ae8c] = 0x3ff0000
        0x0001ad86:    6890        .h      LDR      r0,[r2,#8]
        0x0001ad88:    2310        .#      MOVS     r3,#0x10
        0x0001ad8a:    4008        .@      ANDS     r0,r0,r1
        0x0001ad8c:    7b11        .{      LDRB     r1,[r2,#0xc]
        0x0001ad8e:    ea031101    ....    AND      r1,r3,r1,LSL #4
        0x0001ad92:    4301        .C      ORRS     r1,r1,r0
        0x0001ad94:    7b50        P{      LDRB     r0,[r2,#0xd]
        0x0001ad96:    f000000f    ....    AND      r0,r0,#0xf
        0x0001ad9a:    ea400301    @...    ORR      r3,r0,r1
        0x0001ad9e:    6810        .h      LDR      r0,[r2,#0]
        0x0001ada0:    0c01        ..      LSRS     r1,r0,#16
        0x0001ada2:    0328        (.      LSLS     r0,r5,#12
        0x0001ada4:    f1004080    ...@    ADD      r0,r0,#0x40000000
        0x0001ada8:    f50020c0    ...     ADD      r0,r0,#0x60000
        0x0001adac:    f8d0c09c    ....    LDR      r12,[r0,#0x9c]
        0x0001adb0:    f3610c09    a...    BFI      r12,r1,#0,#10
        0x0001adb4:    f8c0c09c    ....    STR      r12,[r0,#0x9c]
        0x0001adb8:    6851        Qh      LDR      r1,[r2,#4]
        0x0001adba:    0c0a        ..      LSRS     r2,r1,#16
        0x0001adbc:    f8d0109c    ....    LDR      r1,[r0,#0x9c]
        0x0001adc0:    f3624119    b..A    BFI      r1,r2,#16,#10
        0x0001adc4:    f8c0109c    ....    STR      r1,[r0,#0x9c]
        0x0001adc8:    f8c03080    ...0    STR      r3,[r0,#0x80]
        0x0001adcc:    f000bc4c    ..L.    B.W      0x1b668 ; am_hal_mspi_control + 3040
        0x0001add0:    2a00        .*      CMP      r2,#0
        0x0001add2:    f000844b    ..K.    BEQ.W    0x1b66c ; am_hal_mspi_control + 3044
        0x0001add6:    7990        .y      LDRB     r0,[r2,#6]
        0x0001add8:    f44f1100    O...    MOV      r1,#0x200000
        0x0001addc:    ea015040    ..@P    AND      r0,r1,r0,LSL #21
        0x0001ade0:    7911        .y      LDRB     r1,[r2,#4]
        0x0001ade2:    f44f4300    O..C    MOV      r3,#0x8000
        0x0001ade6:    f4401080    @...    ORR      r0,r0,#0x100000
        0x0001adea:    ea0331c1    ...1    AND      r1,r3,r1,LSL #15
        0x0001adee:    4308        .C      ORRS     r0,r0,r1
        0x0001adf0:    79d1        .y      LDRB     r1,[r2,#7]
        0x0001adf2:    105b        [.      ASRS     r3,r3,#1
        0x0001adf4:    ea033181    ...1    AND      r1,r3,r1,LSL #14
        0x0001adf8:    4308        .C      ORRS     r0,r0,r1
        0x0001adfa:    7a11        .z      LDRB     r1,[r2,#8]
        0x0001adfc:    105b        [.      ASRS     r3,r3,#1
        0x0001adfe:    ea033141    ..A1    AND      r1,r3,r1,LSL #13
        0x0001ae02:    4308        .C      ORRS     r0,r0,r1
        0x0001ae04:    7951        Qy      LDRB     r1,[r2,#5]
        0x0001ae06:    105b        [.      ASRS     r3,r3,#1
        0x0001ae08:    ea033101    ...1    AND      r1,r3,r1,LSL #12
        0x0001ae0c:    4308        .C      ORRS     r0,r0,r1
        0x0001ae0e:    8811        ..      LDRH     r1,[r2,#0]
        0x0001ae10:    f3c1010b    ....    UBFX     r1,r1,#0,#12
        0x0001ae14:    4308        .C      ORRS     r0,r0,r1
        0x0001ae16:    0329        ).      LSLS     r1,r5,#12
        0x0001ae18:    f1014180    ...A    ADD      r1,r1,#0x40000000
        0x0001ae1c:    f50121c0    ...!    ADD      r1,r1,#0x60000
        0x0001ae20:    f8c100a0    ....    STR      r0,[r1,#0xa0]
        0x0001ae24:    f000bc20    .. .    B.W      0x1b668 ; am_hal_mspi_control + 3040
        0x0001ae28:    0328        (.      LSLS     r0,r5,#12
        0x0001ae2a:    f1004180    ...A    ADD      r1,r0,#0x40000000
        0x0001ae2e:    f50121c0    ...!    ADD      r1,r1,#0x60000
        0x0001ae32:    f8d10090    ....    LDR      r0,[r1,#0x90]
        0x0001ae36:    f0400001    @...    ORR      r0,r0,#1
        0x0001ae3a:    f8c10090    ....    STR      r0,[r1,#0x90]
        0x0001ae3e:    f7fdfa8b    ....    BL       am_hal_interrupt_master_disable ; 0x18358
        0x0001ae42:    9000        ..      STR      r0,[sp,#0]
        0x0001ae44:    2001        .       MOVS     r0,#1
        0x0001ae46:    fa00f105    ....    LSL      r1,r0,r5
        0x0001ae4a:    480f        .H      LDR      r0,[pc,#60] ; [0x1ae88] = 0x100001f8
        0x0001ae4c:    6802        .h      LDR      r2,[r0,#0]
        0x0001ae4e:    438a        .C      BICS     r2,r2,r1
        0x0001ae50:    4311        .C      ORRS     r1,r1,r2
        0x0001ae52:    6001        .`      STR      r1,[r0,#0]
        0x0001ae54:    9800        ..      LDR      r0,[sp,#0]
        0x0001ae56:    f7fdfa83    ....    BL       am_hal_interrupt_master_set ; 0x18360
        0x0001ae5a:    f000bc05    ....    B.W      0x1b668 ; am_hal_mspi_control + 3040
        0x0001ae5e:    0328        (.      LSLS     r0,r5,#12
        0x0001ae60:    f1004080    ...@    ADD      r0,r0,#0x40000000
        0x0001ae64:    f50020c0    ...     ADD      r0,r0,#0x60000
        0x0001ae68:    6801        .h      LDR      r1,[r0,#0]
        0x0001ae6a:    f4417180    A..q    ORR      r1,r1,#0x100
        0x0001ae6e:    6001        .`      STR      r1,[r0,#0]
        0x0001ae70:    f8d01090    ....    LDR      r1,[r0,#0x90]
        0x0001ae74:    f0410110    A...    ORR      r1,r1,#0x10
        0x0001ae78:    f8c01090    ....    STR      r1,[r0,#0x90]
        0x0001ae7c:    2001        .       MOVS     r0,#1
        0x0001ae7e:    e017        ..      B        0x1aeb0 ; am_hal_mspi_control + 1064
    $d
        0x0001ae80:    00bebebe    ....    DCD    12500670
        0x0001ae84:    00e0e0e0    ....    DCD    14737632
        0x0001ae88:    100001f8    ....    DCD    268435960
        0x0001ae8c:    03ff0000    ....    DCD    67043328
    $t
        0x0001ae90:    0328        (.      LSLS     r0,r5,#12
        0x0001ae92:    f1004080    ...@    ADD      r0,r0,#0x40000000
        0x0001ae96:    f50020c0    ...     ADD      r0,r0,#0x60000
        0x0001ae9a:    6801        .h      LDR      r1,[r0,#0]
        0x0001ae9c:    f4217180    !..q    BIC      r1,r1,#0x100
        0x0001aea0:    6001        .`      STR      r1,[r0,#0]
        0x0001aea2:    f8d01090    ....    LDR      r1,[r0,#0x90]
        0x0001aea6:    f0210110    !...    BIC      r1,r1,#0x10
        0x0001aeaa:    f8c01090    ....    STR      r1,[r0,#0x90]
        0x0001aeae:    2000        .       MOVS     r0,#0
        0x0001aeb0:    7360        `s      STRB     r0,[r4,#0xd]
        0x0001aeb2:    f000bbd9    ....    B.W      0x1b668 ; am_hal_mspi_control + 3040
        0x0001aeb6:    2a00        .*      CMP      r2,#0
        0x0001aeb8:    bf1c        ..      ITT      NE
        0x0001aeba:    7811        .x      LDRBNE   r1,[r2,#0]
        0x0001aebc:    72e1        .r      STRBNE   r1,[r4,#0xb]
        0x0001aebe:    f00083d5    ....    BEQ.W    0x1b66c ; am_hal_mspi_control + 3044
        0x0001aec2:    6860        `h      LDR      r0,[r4,#4]
        0x0001aec4:    2914        .)      CMP      r1,#0x14
        0x0001aec6:    d216        ..      BCS      0x1aef6 ; am_hal_mspi_control + 1134
        0x0001aec8:    e8dff001    ....    TBB      [pc,r1]
    $d
        0x0001aecc:    38383838    8888    DCD    943208504
        0x0001aed0:    38383838    8888    DCD    943208504
        0x0001aed4:    0a0a3838    88..    DCD    168441912
        0x0001aed8:    24241919    ..$$    DCD    606345497
        0x0001aedc:    38382f2f    //88    DCD    943206191
    $t
        0x0001aee0:    0300        ..      LSLS     r0,r0,#12
        0x0001aee2:    f1004080    ...@    ADD      r0,r0,#0x40000000
        0x0001aee6:    f50020c0    ...     ADD      r0,r0,#0x60000
        0x0001aeea:    6801        .h      LDR      r1,[r0,#0]
        0x0001aeec:    f4214160    !.`A    BIC      r1,r1,#0xe000
        0x0001aef0:    f5015100    ...Q    ADD      r1,r1,#0x2000
        0x0001aef4:    6001        .`      STR      r1,[r0,#0]
        0x0001aef6:    b003        ..      ADD      sp,sp,#0xc
        0x0001aef8:    2000        .       MOVS     r0,#0
        0x0001aefa:    e8bd83f0    ....    POP      {r4-r9,pc}
        0x0001aefe:    0300        ..      LSLS     r0,r0,#12
        0x0001af00:    f1004080    ...@    ADD      r0,r0,#0x40000000
        0x0001af04:    f50020c0    ...     ADD      r0,r0,#0x60000
        0x0001af08:    6801        .h      LDR      r1,[r0,#0]
        0x0001af0a:    f4214160    !.`A    BIC      r1,r1,#0xe000
        0x0001af0e:    f50141c0    ...A    ADD      r1,r1,#0x6000
        0x0001af12:    e7ef        ..      B        0x1aef4 ; am_hal_mspi_control + 1132
        0x0001af14:    0300        ..      LSLS     r0,r0,#12
        0x0001af16:    f1004080    ...@    ADD      r0,r0,#0x40000000
        0x0001af1a:    f50020c0    ...     ADD      r0,r0,#0x60000
        0x0001af1e:    6801        .h      LDR      r1,[r0,#0]
        0x0001af20:    f4214160    !.`A    BIC      r1,r1,#0xe000
        0x0001af24:    f5014120    .. A    ADD      r1,r1,#0xa000
        0x0001af28:    e7e4        ..      B        0x1aef4 ; am_hal_mspi_control + 1132
        0x0001af2a:    0300        ..      LSLS     r0,r0,#12
        0x0001af2c:    f1004080    ...@    ADD      r0,r0,#0x40000000
        0x0001af30:    f50020c0    ...     ADD      r0,r0,#0x60000
        0x0001af34:    6801        .h      LDR      r1,[r0,#0]
        0x0001af36:    f4414160    A.`A    ORR      r1,r1,#0xe000
        0x0001af3a:    e7db        ..      B        0x1aef4 ; am_hal_mspi_control + 1132
        0x0001af3c:    0300        ..      LSLS     r0,r0,#12
        0x0001af3e:    f1004080    ...@    ADD      r0,r0,#0x40000000
        0x0001af42:    f50020c0    ...     ADD      r0,r0,#0x60000
        0x0001af46:    6801        .h      LDR      r1,[r0,#0]
        0x0001af48:    f4214160    !.`A    BIC      r1,r1,#0xe000
        0x0001af4c:    e7d2        ..      B        0x1aef4 ; am_hal_mspi_control + 1132
        0x0001af4e:    2a00        .*      CMP      r2,#0
        0x0001af50:    f000838c    ....    BEQ.W    0x1b66c ; am_hal_mspi_control + 3044
        0x0001af54:    7810        .x      LDRB     r0,[r2,#0]
        0x0001af56:    72a0        .r      STRB     r0,[r4,#0xa]
        0x0001af58:    4620         F      MOV      r0,r4
        0x0001af5a:    f003fa2b    ..+.    BL       mspi_device_configure ; 0x1e3b4
        0x0001af5e:    b003        ..      ADD      sp,sp,#0xc
        0x0001af60:    2000        .       MOVS     r0,#0
        0x0001af62:    e8bd83f0    ....    POP      {r4-r9,pc}
        0x0001af66:    0328        (.      LSLS     r0,r5,#12
        0x0001af68:    f1004080    ...@    ADD      r0,r0,#0x40000000
        0x0001af6c:    f50020c0    ...     ADD      r0,r0,#0x60000
        0x0001af70:    7811        .x      LDRB     r1,[r2,#0]
        0x0001af72:    f8d02084    ...     LDR      r2,[r0,#0x84]
        0x0001af76:    f3614215    a..B    BFI      r2,r1,#16,#6
        0x0001af7a:    f8c02084    ...     STR      r2,[r0,#0x84]
        0x0001af7e:    2908        .)      CMP      r1,#8
        0x0001af80:    d037        7.      BEQ      0x1aff2 ; am_hal_mspi_control + 1386
        0x0001af82:    dc08        ..      BGT      0x1af96 ; am_hal_mspi_control + 1294
        0x0001af84:    2907        .)      CMP      r1,#7
        0x0001af86:    f0808287    ....    BCS.W    0x1b498 ; am_hal_mspi_control + 2576
        0x0001af8a:    e8dff001    ....    TBB      [pc,r1]
    $d
        0x0001af8e:    0efd        ..      DCW    3837
        0x0001af90:    fd32321f    .22.    DCD    4247925279
        0x0001af94:    0032        2.      DCW    50
    $t
        0x0001af96:    290c        .)      CMP      r1,#0xc
        0x0001af98:    bf18        ..      IT       NE
        0x0001af9a:    2910        .)      CMPNE    r1,#0x10
        0x0001af9c:    d029        ).      BEQ      0x1aff2 ; am_hal_mspi_control + 1386
        0x0001af9e:    2918        .)      CMP      r1,#0x18
        0x0001afa0:    bf18        ..      IT       NE
        0x0001afa2:    2920         )      CMPNE    r1,#0x20
        0x0001afa4:    d025        %.      BEQ      0x1aff2 ; am_hal_mspi_control + 1386
        0x0001afa6:    f000ba77    ..w.    B.W      0x1b498 ; am_hal_mspi_control + 2576
        0x0001afaa:    f8d02084    ...     LDR      r2,[r0,#0x84]
        0x0001afae:    f0427280    B..r    ORR      r2,r2,#0x1000000
        0x0001afb2:    f8c02084    ...     STR      r2,[r0,#0x84]
        0x0001afb6:    f8d02084    ...     LDR      r2,[r0,#0x84]
        0x0001afba:    f4220200    "...    BIC      r2,r2,#0x800000
        0x0001afbe:    f8c02084    ...     STR      r2,[r0,#0x84]
        0x0001afc2:    f8d02084    ...     LDR      r2,[r0,#0x84]
        0x0001afc6:    f4220280    "...    BIC      r2,r2,#0x400000
        0x0001afca:    e00f        ..      B        0x1afec ; am_hal_mspi_control + 1380
        0x0001afcc:    f8d02084    ...     LDR      r2,[r0,#0x84]
        0x0001afd0:    f0427280    B..r    ORR      r2,r2,#0x1000000
        0x0001afd4:    f8c02084    ...     STR      r2,[r0,#0x84]
        0x0001afd8:    f8d02084    ...     LDR      r2,[r0,#0x84]
        0x0001afdc:    f4220200    "...    BIC      r2,r2,#0x800000
        0x0001afe0:    f8c02084    ...     STR      r2,[r0,#0x84]
        0x0001afe4:    f8d02084    ...     LDR      r2,[r0,#0x84]
        0x0001afe8:    f4420280    B...    ORR      r2,r2,#0x400000
        0x0001afec:    f8c02084    ...     STR      r2,[r0,#0x84]
        0x0001aff0:    e011        ..      B        0x1b016 ; am_hal_mspi_control + 1422
        0x0001aff2:    f8d02084    ...     LDR      r2,[r0,#0x84]
        0x0001aff6:    f0227280    "..r    BIC      r2,r2,#0x1000000
        0x0001affa:    f8c02084    ...     STR      r2,[r0,#0x84]
        0x0001affe:    f8d02084    ...     LDR      r2,[r0,#0x84]
        0x0001b002:    f4220200    "...    BIC      r2,r2,#0x800000
        0x0001b006:    f8c02084    ...     STR      r2,[r0,#0x84]
        0x0001b00a:    f8d02084    ...     LDR      r2,[r0,#0x84]
        0x0001b00e:    f4220280    "...    BIC      r2,r2,#0x400000
        0x0001b012:    f8c02084    ...     STR      r2,[r0,#0x84]
        0x0001b016:    69a2        .i      LDR      r2,[r4,#0x18]
        0x0001b018:    b37a        z.      CBZ      r2,0x1b07a ; am_hal_mspi_control + 1522
        0x0001b01a:    f04f0220    O. .    MOV      r2,#0x20
        0x0001b01e:    f8c02114    ...!    STR      r2,[r0,#0x114]
        0x0001b022:    2908        .)      CMP      r1,#8
        0x0001b024:    d02a        *.      BEQ      0x1b07c ; am_hal_mspi_control + 1524
        0x0001b026:    dc08        ..      BGT      0x1b03a ; am_hal_mspi_control + 1458
        0x0001b028:    2907        .)      CMP      r1,#7
        0x0001b02a:    f0808235    ..5.    BCS.W    0x1b498 ; am_hal_mspi_control + 2576
        0x0001b02e:    e8dff001    ....    TBB      [pc,r1]
    $d
        0x0001b032:    0eab        ..      DCW    3755
        0x0001b034:    ab25250e    .%%.    DCD    2871338254
        0x0001b038:    0025        %.      DCW    37
    $t
        0x0001b03a:    290c        .)      CMP      r1,#0xc
        0x0001b03c:    bf18        ..      IT       NE
        0x0001b03e:    2910        .)      CMPNE    r1,#0x10
        0x0001b040:    d01c        ..      BEQ      0x1b07c ; am_hal_mspi_control + 1524
        0x0001b042:    2918        .)      CMP      r1,#0x18
        0x0001b044:    bf18        ..      IT       NE
        0x0001b046:    2920         )      CMPNE    r1,#0x20
        0x0001b048:    d018        ..      BEQ      0x1b07c ; am_hal_mspi_control + 1524
        0x0001b04a:    f000ba25    ..%.    B.W      0x1b498 ; am_hal_mspi_control + 2576
        0x0001b04e:    f8d02118    ...!    LDR      r2,[r0,#0x118]
        0x0001b052:    f022021f    "...    BIC      r2,r2,#0x1f
        0x0001b056:    f102020c    ....    ADD      r2,r2,#0xc
        0x0001b05a:    f8c02118    ...!    STR      r2,[r0,#0x118]
        0x0001b05e:    6a02        .j      LDR      r2,[r0,#0x20]
        0x0001b060:    f422527c    ".|R    BIC      r2,r2,#0x3f00
        0x0001b064:    f50252f0    ...R    ADD      r2,r2,#0x1e00
        0x0001b068:    6202        .b      STR      r2,[r0,#0x20]
        0x0001b06a:    f8d02118    ...!    LDR      r2,[r0,#0x118]
        0x0001b06e:    f42252f8    "..R    BIC      r2,r2,#0x1f00
        0x0001b072:    f5026200    ...b    ADD      r2,r2,#0x800
        0x0001b076:    f8c02118    ...!    STR      r2,[r0,#0x118]
        0x0001b07a:    e015        ..      B        0x1b0a8 ; am_hal_mspi_control + 1568
        0x0001b07c:    f8d02118    ...!    LDR      r2,[r0,#0x118]
        0x0001b080:    f022021f    "...    BIC      r2,r2,#0x1f
        0x0001b084:    f1020208    ....    ADD      r2,r2,#8
        0x0001b088:    f8c02118    ...!    STR      r2,[r0,#0x118]
        0x0001b08c:    6a02        .j      LDR      r2,[r0,#0x20]
        0x0001b08e:    f422527c    ".|R    BIC      r2,r2,#0x3f00
        0x0001b092:    f50252f0    ...R    ADD      r2,r2,#0x1e00
        0x0001b096:    6202        .b      STR      r2,[r0,#0x20]
        0x0001b098:    f8d02118    ...!    LDR      r2,[r0,#0x118]
        0x0001b09c:    f42252f8    "..R    BIC      r2,r2,#0x1f00
        0x0001b0a0:    f5026200    ...b    ADD      r2,r2,#0x800
        0x0001b0a4:    f8c02118    ...!    STR      r2,[r0,#0x118]
        0x0001b0a8:    7321        !s      STRB     r1,[r4,#0xc]
        0x0001b0aa:    f000badd    ....    B.W      0x1b668 ; am_hal_mspi_control + 3040
        0x0001b0ae:    6860        `h      LDR      r0,[r4,#4]
        0x0001b0b0:    4efa        .N      LDR      r6,[pc,#1000] ; [0x1b49c] = 0x186a0
        0x0001b0b2:    ea4f3000    O..0    LSL      r0,r0,#12
        0x0001b0b6:    f1004080    ...@    ADD      r0,r0,#0x40000000
        0x0001b0ba:    f50020c0    ...     ADD      r0,r0,#0x60000
        0x0001b0be:    f44f0100    O...    MOV      r1,#0x800000
        0x0001b0c2:    4635        5F      MOV      r5,r6
        0x0001b0c4:    f8c012b4    ....    STR      r1,[r0,#0x2b4]
        0x0001b0c8:    6860        `h      LDR      r0,[r4,#4]
        0x0001b0ca:    ea4f3000    O..0    LSL      r0,r0,#12
        0x0001b0ce:    f1004080    ...@    ADD      r0,r0,#0x40000000
        0x0001b0d2:    f50020c0    ...     ADD      r0,r0,#0x60000
        0x0001b0d6:    f8d002a0    ....    LDR      r0,[r0,#0x2a0]
        0x0001b0da:    f0100f01    ....    TST      r0,#1
        0x0001b0de:    d020         .      BEQ      0x1b122 ; am_hal_mspi_control + 1690
        0x0001b0e0:    6860        `h      LDR      r0,[r4,#4]
        0x0001b0e2:    ea4f3000    O..0    LSL      r0,r0,#12
        0x0001b0e6:    f1004080    ...@    ADD      r0,r0,#0x40000000
        0x0001b0ea:    f50020c0    ...     ADD      r0,r0,#0x60000
        0x0001b0ee:    f8d012ac    ....    LDR      r1,[r0,#0x2ac]
        0x0001b0f2:    f0110f08    ....    TST      r1,#8
        0x0001b0f6:    bf1c        ..      ITT      NE
        0x0001b0f8:    f8d002b8    ....    LDRNE    r0,[r0,#0x2b8]
        0x0001b0fc:    f0100f80    ....    TSTNE    r0,#0x80
        0x0001b100:    d10f        ..      BNE      0x1b122 ; am_hal_mspi_control + 1690
        0x0001b102:    1e6d        m.      SUBS     r5,r5,#1
        0x0001b104:    d31b        ..      BCC      0x1b13e ; am_hal_mspi_control + 1718
        0x0001b106:    2001        .       MOVS     r0,#1
        0x0001b108:    f7fff9e0    ....    BL       am_hal_delay_us ; 0x1a4cc
        0x0001b10c:    6860        `h      LDR      r0,[r4,#4]
        0x0001b10e:    0300        ..      LSLS     r0,r0,#12
        0x0001b110:    f1004080    ...@    ADD      r0,r0,#0x40000000
        0x0001b114:    f50020c0    ...     ADD      r0,r0,#0x60000
        0x0001b118:    f8d002a0    ....    LDR      r0,[r0,#0x2a0]
        0x0001b11c:    f0100f01    ....    TST      r0,#1
        0x0001b120:    d1de        ..      BNE      0x1b0e0 ; am_hal_mspi_control + 1624
        0x0001b122:    2001        .       MOVS     r0,#1
        0x0001b124:    9000        ..      STR      r0,[sp,#0]
        0x0001b126:    49de        .I      LDR      r1,[pc,#888] ; [0x1b4a0] = 0x40060104
        0x0001b128:    6860        `h      LDR      r0,[r4,#4]
        0x0001b12a:    2300        .#      MOVS     r3,#0
        0x0001b12c:    eb013100    ...1    ADD      r1,r1,r0,LSL #12
        0x0001b130:    2201        ."      MOVS     r2,#1
        0x0001b132:    4630        0F      MOV      r0,r6
        0x0001b134:    f7fffa0c    ....    BL       am_hal_delay_us_status_check ; 0x1a550
        0x0001b138:    4606        .F      MOV      r6,r0
        0x0001b13a:    f000ba95    ....    B.W      0x1b668 ; am_hal_mspi_control + 3040
        0x0001b13e:    2604        .&      MOVS     r6,#4
        0x0001b140:    f000ba92    ....    B.W      0x1b668 ; am_hal_mspi_control + 3040
        0x0001b144:    f89408b8    ....    LDRB     r0,[r4,#0x8b8]
        0x0001b148:    b918        ..      CBNZ     r0,0x1b152 ; am_hal_mspi_control + 1738
        0x0001b14a:    2100        .!      MOVS     r1,#0
        0x0001b14c:    2002        .       MOVS     r0,#2
        0x0001b14e:    f7fff85b    ..[.    BL       am_hal_daxi_control ; 0x1a208
        0x0001b152:    2080        .       MOVS     r0,#0x80
        0x0001b154:    e4dd        ..      B        0x1ab12 ; am_hal_mspi_control + 138
        0x0001b156:    2a00        .*      CMP      r2,#0
        0x0001b158:    f0008288    ....    BEQ.W    0x1b66c ; am_hal_mspi_control + 3044
        0x0001b15c:    69a0        .i      LDR      r0,[r4,#0x18]
        0x0001b15e:    2800        .(      CMP      r0,#0
        0x0001b160:    f00081ab    ....    BEQ.W    0x1b4ba ; am_hal_mspi_control + 2610
        0x0001b164:    7810        .x      LDRB     r0,[r2,#0]
        0x0001b166:    1c07        ..      ADDS     r7,r0,#0
        0x0001b168:    bf18        ..      IT       NE
        0x0001b16a:    2701        .'      MOVNE    r7,#1
        0x0001b16c:    f894082c    ..,.    LDRB     r0,[r4,#0x82c]
        0x0001b170:    42b8        .B      CMP      r0,r7
        0x0001b172:    f43faec0    ?...    BEQ      0x1aef6 ; am_hal_mspi_control + 1134
        0x0001b176:    b3e8        ..      CBZ      r0,0x1b1f4 ; am_hal_mspi_control + 1900
        0x0001b178:    2802        .(      CMP      r0,#2
        0x0001b17a:    d14f        O.      BNE      0x1b21c ; am_hal_mspi_control + 1940
        0x0001b17c:    4ec7        .N      LDR      r6,[pc,#796] ; [0x1b49c] = 0x186a0
        0x0001b17e:    f44f0100    O...    MOV      r1,#0x800000
        0x0001b182:    4635        5F      MOV      r5,r6
        0x0001b184:    6860        `h      LDR      r0,[r4,#4]
        0x0001b186:    e000        ..      B        0x1b18a ; am_hal_mspi_control + 1794
        0x0001b188:    e186        ..      B        0x1b498 ; am_hal_mspi_control + 2576
        0x0001b18a:    ea4f3000    O..0    LSL      r0,r0,#12
        0x0001b18e:    f1004080    ...@    ADD      r0,r0,#0x40000000
        0x0001b192:    f50020c0    ...     ADD      r0,r0,#0x60000
        0x0001b196:    f8c012b4    ....    STR      r1,[r0,#0x2b4]
        0x0001b19a:    6860        `h      LDR      r0,[r4,#4]
        0x0001b19c:    ea4f3000    O..0    LSL      r0,r0,#12
        0x0001b1a0:    f1004080    ...@    ADD      r0,r0,#0x40000000
        0x0001b1a4:    f50020c0    ...     ADD      r0,r0,#0x60000
        0x0001b1a8:    f8d002a0    ....    LDR      r0,[r0,#0x2a0]
        0x0001b1ac:    f0100f01    ....    TST      r0,#1
        0x0001b1b0:    d022        ".      BEQ      0x1b1f8 ; am_hal_mspi_control + 1904
        0x0001b1b2:    6860        `h      LDR      r0,[r4,#4]
        0x0001b1b4:    ea4f3000    O..0    LSL      r0,r0,#12
        0x0001b1b8:    f1004080    ...@    ADD      r0,r0,#0x40000000
        0x0001b1bc:    f50020c0    ...     ADD      r0,r0,#0x60000
        0x0001b1c0:    f8d012ac    ....    LDR      r1,[r0,#0x2ac]
        0x0001b1c4:    f0110f08    ....    TST      r1,#8
        0x0001b1c8:    bf1c        ..      ITT      NE
        0x0001b1ca:    f8d002b8    ....    LDRNE    r0,[r0,#0x2b8]
        0x0001b1ce:    f0100f80    ....    TSTNE    r0,#0x80
        0x0001b1d2:    d111        ..      BNE      0x1b1f8 ; am_hal_mspi_control + 1904
        0x0001b1d4:    1e6d        m.      SUBS     r5,r5,#1
        0x0001b1d6:    d3b2        ..      BCC      0x1b13e ; am_hal_mspi_control + 1718
        0x0001b1d8:    2001        .       MOVS     r0,#1
        0x0001b1da:    f7fff977    ..w.    BL       am_hal_delay_us ; 0x1a4cc
        0x0001b1de:    6860        `h      LDR      r0,[r4,#4]
        0x0001b1e0:    0300        ..      LSLS     r0,r0,#12
        0x0001b1e2:    f1004080    ...@    ADD      r0,r0,#0x40000000
        0x0001b1e6:    f50020c0    ...     ADD      r0,r0,#0x60000
        0x0001b1ea:    f8d002a0    ....    LDR      r0,[r0,#0x2a0]
        0x0001b1ee:    f0100f01    ....    TST      r0,#1
        0x0001b1f2:    e000        ..      B        0x1b1f6 ; am_hal_mspi_control + 1902
        0x0001b1f4:    e00f        ..      B        0x1b216 ; am_hal_mspi_control + 1934
        0x0001b1f6:    d1dc        ..      BNE      0x1b1b2 ; am_hal_mspi_control + 1834
        0x0001b1f8:    2001        .       MOVS     r0,#1
        0x0001b1fa:    9000        ..      STR      r0,[sp,#0]
        0x0001b1fc:    49a8        .I      LDR      r1,[pc,#672] ; [0x1b4a0] = 0x40060104
        0x0001b1fe:    6860        `h      LDR      r0,[r4,#4]
        0x0001b200:    2300        .#      MOVS     r3,#0
        0x0001b202:    eb013100    ...1    ADD      r1,r1,r0,LSL #12
        0x0001b206:    2201        ."      MOVS     r2,#1
        0x0001b208:    4630        0F      MOV      r0,r6
        0x0001b20a:    f7fff9a1    ....    BL       am_hal_delay_us_status_check ; 0x1a550
        0x0001b20e:    0006        ..      MOVS     r6,r0
        0x0001b210:    f040822a    @.*.    BNE.W    0x1b668 ; am_hal_mspi_control + 3040
        0x0001b214:    e002        ..      B        0x1b21c ; am_hal_mspi_control + 1940
        0x0001b216:    6a20         j      LDR      r0,[r4,#0x20]
        0x0001b218:    2800        .(      CMP      r0,#0
        0x0001b21a:    d174        t.      BNE      0x1b306 ; am_hal_mspi_control + 2174
        0x0001b21c:    f8d40828    ..(.    LDR      r0,[r4,#0x828]
        0x0001b220:    f7feff52    ..R.    BL       am_hal_cmdq_reset ; 0x1a0c8
        0x0001b224:    2000        .       MOVS     r0,#0
        0x0001b226:    61e0        .a      STR      r0,[r4,#0x1c]
        0x0001b228:    f8c40830    ..0.    STR      r0,[r4,#0x830]
        0x0001b22c:    6220         b      STR      r0,[r4,#0x20]
        0x0001b22e:    f884782c    ..,x    STRB     r7,[r4,#0x82c]
        0x0001b232:    2101        .!      MOVS     r1,#1
        0x0001b234:    f884182d    ..-.    STRB     r1,[r4,#0x82d]
        0x0001b238:    f8c4085c    ..\.    STR      r0,[r4,#0x85c]
        0x0001b23c:    f000ba14    ....    B.W      0x1b668 ; am_hal_mspi_control + 3040
        0x0001b240:    f04f0800    O...    MOV      r8,#0
        0x0001b244:    0016        ..      MOVS     r6,r2
        0x0001b246:    4647        GF      MOV      r7,r8
        0x0001b248:    f0008210    ....    BEQ.W    0x1b66c ; am_hal_mspi_control + 3044
        0x0001b24c:    7930        0y      LDRB     r0,[r6,#4]
        0x0001b24e:    f0100fe0    ....    TST      r0,#0xe0
        0x0001b252:    f040820b    @...    BNE.W    0x1b66c ; am_hal_mspi_control + 3044
        0x0001b256:    4993        .I      LDR      r1,[pc,#588] ; [0x1b4a4] = 0xe0e0e0
        0x0001b258:    68b0        .h      LDR      r0,[r6,#8]
        0x0001b25a:    4208        .B      TST      r0,r1
        0x0001b25c:    f0408206    @...    BNE.W    0x1b66c ; am_hal_mspi_control + 3044
        0x0001b260:    f894082c    ..,.    LDRB     r0,[r4,#0x82c]
        0x0001b264:    2801        .(      CMP      r0,#1
        0x0001b266:    d14e        N.      BNE      0x1b306 ; am_hal_mspi_control + 2174
        0x0001b268:    f8d40838    ..8.    LDR      r0,[r4,#0x838]
        0x0001b26c:    b188        ..      CBZ      r0,0x1b292 ; am_hal_mspi_control + 2058
        0x0001b26e:    2000        .       MOVS     r0,#0
        0x0001b270:    f8c40838    ..8.    STR      r0,[r4,#0x838]
        0x0001b274:    f89408b8    ....    LDRB     r0,[r4,#0x8b8]
        0x0001b278:    b918        ..      CBNZ     r0,0x1b282 ; am_hal_mspi_control + 2042
        0x0001b27a:    2100        .!      MOVS     r1,#0
        0x0001b27c:    2002        .       MOVS     r0,#2
        0x0001b27e:    f7feffc3    ....    BL       am_hal_daxi_control ; 0x1a208
        0x0001b282:    2020                MOVS     r0,#0x20
        0x0001b284:    0329        ).      LSLS     r1,r5,#12
        0x0001b286:    f1014180    ...A    ADD      r1,r1,#0x40000000
        0x0001b28a:    f50121c0    ...!    ADD      r1,r1,#0x60000
        0x0001b28e:    f8c102b4    ....    STR      r0,[r1,#0x2b4]
        0x0001b292:    7830        0x      LDRB     r0,[r6,#0]
        0x0001b294:    b3b0        ..      CBZ      r0,0x1b304 ; am_hal_mspi_control + 2172
        0x0001b296:    f894082d    ..-.    LDRB     r0,[r4,#0x82d]
        0x0001b29a:    bb98        ..      CBNZ     r0,0x1b304 ; am_hal_mspi_control + 2172
        0x0001b29c:    ab01        ..      ADD      r3,sp,#4
        0x0001b29e:    466a        jF      MOV      r2,sp
        0x0001b2a0:    2101        .!      MOVS     r1,#1
        0x0001b2a2:    f8d40828    ..(.    LDR      r0,[r4,#0x828]
        0x0001b2a6:    f7fefcd3    ....    BL       am_hal_cmdq_alloc_block ; 0x19c50
        0x0001b2aa:    2800        .(      CMP      r0,#0
        0x0001b2ac:    bf1c        ..      ITT      NE
        0x0001b2ae:    b003        ..      ADDNE    sp,sp,#0xc
        0x0001b2b0:    e8bd83f0    ....    POPNE    {r4-r9,pc}
        0x0001b2b4:    497c        |I      LDR      r1,[pc,#496] ; [0x1b4a8] = 0x1e821
        0x0001b2b6:    9801        ..      LDR      r0,[sp,#4]
        0x0001b2b8:    b2c2        ..      UXTB     r2,r0
        0x0001b2ba:    eb040082    ....    ADD      r0,r4,r2,LSL #2
        0x0001b2be:    6281        .b      STR      r1,[r0,#0x28]
        0x0001b2c0:    9901        ..      LDR      r1,[sp,#4]
        0x0001b2c2:    487a        zH      LDR      r0,[pc,#488] ; [0x1b4ac] = 0x400602b4
        0x0001b2c4:    b2c9        ..      UXTB     r1,r1
        0x0001b2c6:    eb040181    ....    ADD      r1,r4,r1,LSL #2
        0x0001b2ca:    f8c14428    ..(D    STR      r4,[r1,#0x428]
        0x0001b2ce:    eb003105    ...1    ADD      r1,r0,r5,LSL #12
        0x0001b2d2:    9800        ..      LDR      r0,[sp,#0]
        0x0001b2d4:    6001        .`      STR      r1,[r0,#0]
        0x0001b2d6:    2100        .!      MOVS     r1,#0
        0x0001b2d8:    6041        A`      STR      r1,[r0,#4]
        0x0001b2da:    f7fdf83d    ..=.    BL       am_hal_interrupt_master_disable ; 0x18358
        0x0001b2de:    4680        .F      MOV      r8,r0
        0x0001b2e0:    2101        .!      MOVS     r1,#1
        0x0001b2e2:    f8d40828    ..(.    LDR      r0,[r4,#0x828]
        0x0001b2e6:    f7fefe69    ..i.    BL       am_hal_cmdq_post_block ; 0x19fbc
        0x0001b2ea:    0007        ..      MOVS     r7,r0
        0x0001b2ec:    d00c        ..      BEQ      0x1b308 ; am_hal_mspi_control + 2176
        0x0001b2ee:    4640        @F      MOV      r0,r8
        0x0001b2f0:    f7fdf836    ..6.    BL       am_hal_interrupt_master_set ; 0x18360
        0x0001b2f4:    f8d40828    ..(.    LDR      r0,[r4,#0x828]
        0x0001b2f8:    f7fefeca    ....    BL       am_hal_cmdq_release_block ; 0x1a090
        0x0001b2fc:    4638        8F      MOV      r0,r7
        0x0001b2fe:    b003        ..      ADD      sp,sp,#0xc
        0x0001b300:    e8bd83f0    ....    POP      {r4-r9,pc}
        0x0001b304:    e011        ..      B        0x1b32a ; am_hal_mspi_control + 2210
        0x0001b306:    e0b0        ..      B        0x1b46a ; am_hal_mspi_control + 2530
        0x0001b308:    6a27        'j      LDR      r7,[r4,#0x20]
        0x0001b30a:    4640        @F      MOV      r0,r8
        0x0001b30c:    1c79        y.      ADDS     r1,r7,#1
        0x0001b30e:    6221        !b      STR      r1,[r4,#0x20]
        0x0001b310:    f7fdf826    ..&.    BL       am_hal_interrupt_master_set ; 0x18360
        0x0001b314:    b92f        /.      CBNZ     r7,0x1b322 ; am_hal_mspi_control + 2202
        0x0001b316:    f8d40828    ..(.    LDR      r0,[r4,#0x828]
        0x0001b31a:    f7fefd1f    ....    BL       am_hal_cmdq_enable ; 0x19d5c
        0x0001b31e:    2800        .(      CMP      r0,#0
        0x0001b320:    d1ed        ..      BNE      0x1b2fe ; am_hal_mspi_control + 2166
        0x0001b322:    f04f0840    O.@.    MOV      r8,#0x40
        0x0001b326:    f44f0780    O...    MOV      r7,#0x400000
        0x0001b32a:    ab01        ..      ADD      r3,sp,#4
        0x0001b32c:    466a        jF      MOV      r2,sp
        0x0001b32e:    2103        .!      MOVS     r1,#3
        0x0001b330:    f8d40828    ..(.    LDR      r0,[r4,#0x828]
        0x0001b334:    f7fefc8c    ....    BL       am_hal_cmdq_alloc_block ; 0x19c50
        0x0001b338:    2800        .(      CMP      r0,#0
        0x0001b33a:    d1e0        ..      BNE      0x1b2fe ; am_hal_mspi_control + 2166
        0x0001b33c:    495c        \I      LDR      r1,[pc,#368] ; [0x1b4b0] = 0x400602b8
        0x0001b33e:    9800        ..      LDR      r0,[sp,#0]
        0x0001b340:    eb013105    ...1    ADD      r1,r1,r5,LSL #12
        0x0001b344:    6081        .`      STR      r1,[r0,#8]
        0x0001b346:    6001        .`      STR      r1,[r0,#0]
        0x0001b348:    4958        XI      LDR      r1,[pc,#352] ; [0x1b4ac] = 0x400602b4
        0x0001b34a:    eb013105    ...1    ADD      r1,r1,r5,LSL #12
        0x0001b34e:    6101        .a      STR      r1,[r0,#0x10]
        0x0001b350:    6871        qh      LDR      r1,[r6,#4]
        0x0001b352:    f8d42838    ..8(    LDR      r2,[r4,#0x838]
        0x0001b356:    ea410108    A...    ORR      r1,r1,r8
        0x0001b35a:    2a01        .*      CMP      r2,#1
        0x0001b35c:    d019        ..      BEQ      0x1b392 ; am_hal_mspi_control + 2314
        0x0001b35e:    2a02        .*      CMP      r2,#2
        0x0001b360:    bf0c        ..      ITE      EQ
        0x0001b362:    f44f4180    O..A    MOVEQ    r1,#0x4000
        0x0001b366:    f4414181    A..A    ORRNE    r1,r1,#0x4080
        0x0001b36a:    6041        A`      STR      r1,[r0,#4]
        0x0001b36c:    f44f4180    O..A    MOV      r1,#0x4000
        0x0001b370:    60c1        .`      STR      r1,[r0,#0xc]
        0x0001b372:    68b1        .h      LDR      r1,[r6,#8]
        0x0001b374:    4339        9C      ORRS     r1,r1,r7
        0x0001b376:    6141        Aa      STR      r1,[r0,#0x14]
        0x0001b378:    f7fcffee    ....    BL       am_hal_interrupt_master_disable ; 0x18358
        0x0001b37c:    4680        .F      MOV      r8,r0
        0x0001b37e:    7830        0x      LDRB     r0,[r6,#0]
        0x0001b380:    f04f0100    O...    MOV      r1,#0
        0x0001b384:    2800        .(      CMP      r0,#0
        0x0001b386:    f8d40828    ..(.    LDR      r0,[r4,#0x828]
        0x0001b38a:    d009        ..      BEQ      0x1b3a0 ; am_hal_mspi_control + 2328
        0x0001b38c:    f7fefe48    ..H.    BL       am_hal_cmdq_post_loop_block ; 0x1a020
        0x0001b390:    e008        ..      B        0x1b3a4 ; am_hal_mspi_control + 2332
        0x0001b392:    f24402a0    D...    MOV      r2,#0x40a0
        0x0001b396:    4311        .C      ORRS     r1,r1,r2
        0x0001b398:    2302        .#      MOVS     r3,#2
        0x0001b39a:    f8c43838    ..88    STR      r3,[r4,#0x838]
        0x0001b39e:    e7e4        ..      B        0x1b36a ; am_hal_mspi_control + 2274
        0x0001b3a0:    f7fefe0c    ....    BL       am_hal_cmdq_post_block ; 0x19fbc
        0x0001b3a4:    0005        ..      MOVS     r5,r0
        0x0001b3a6:    d007        ..      BEQ      0x1b3b8 ; am_hal_mspi_control + 2352
        0x0001b3a8:    4640        @F      MOV      r0,r8
        0x0001b3aa:    f7fcffd9    ....    BL       am_hal_interrupt_master_set ; 0x18360
        0x0001b3ae:    f8d40828    ..(.    LDR      r0,[r4,#0x828]
        0x0001b3b2:    f7fefe6d    ..m.    BL       am_hal_cmdq_release_block ; 0x1a090
        0x0001b3b6:    e013        ..      B        0x1b3e0 ; am_hal_mspi_control + 2392
        0x0001b3b8:    6a27        'j      LDR      r7,[r4,#0x20]
        0x0001b3ba:    1c79        y.      ADDS     r1,r7,#1
        0x0001b3bc:    6221        !b      STR      r1,[r4,#0x20]
        0x0001b3be:    7830        0x      LDRB     r0,[r6,#0]
        0x0001b3c0:    2800        .(      CMP      r0,#0
        0x0001b3c2:    bf14        ..      ITE      NE
        0x0001b3c4:    2102        .!      MOVNE    r1,#2
        0x0001b3c6:    2100        .!      MOVEQ    r1,#0
        0x0001b3c8:    f884182c    ..,.    STRB     r1,[r4,#0x82c]
        0x0001b3cc:    4640        @F      MOV      r0,r8
        0x0001b3ce:    f7fcffc7    ....    BL       am_hal_interrupt_master_set ; 0x18360
        0x0001b3d2:    b92f        /.      CBNZ     r7,0x1b3e0 ; am_hal_mspi_control + 2392
        0x0001b3d4:    f8d40828    ..(.    LDR      r0,[r4,#0x828]
        0x0001b3d8:    f7fefcc0    ....    BL       am_hal_cmdq_enable ; 0x19d5c
        0x0001b3dc:    0005        ..      MOVS     r5,r0
        0x0001b3de:    d18e        ..      BNE      0x1b2fe ; am_hal_mspi_control + 2166
        0x0001b3e0:    4628        (F      MOV      r0,r5
        0x0001b3e2:    e78c        ..      B        0x1b2fe ; am_hal_mspi_control + 2166
        0x0001b3e4:    2a00        .*      CMP      r2,#0
        0x0001b3e6:    d067        g.      BEQ      0x1b4b8 ; am_hal_mspi_control + 2608
        0x0001b3e8:    f8d40854    ..T.    LDR      r0,[r4,#0x854]
        0x0001b3ec:    bbe8        ..      CBNZ     r0,0x1b46a ; am_hal_mspi_control + 2530
        0x0001b3ee:    2000        .       MOVS     r0,#0
        0x0001b3f0:    f8c40850    ..P.    STR      r0,[r4,#0x850]
        0x0001b3f4:    f8c40840    ..@.    STR      r0,[r4,#0x840]
        0x0001b3f8:    2001        .       MOVS     r0,#1
        0x0001b3fa:    f8c4084c    ..L.    STR      r0,[r4,#0x84c]
        0x0001b3fe:    6810        .h      LDR      r0,[r2,#0]
        0x0001b400:    f8c40854    ..T.    STR      r0,[r4,#0x854]
        0x0001b404:    492b        +I      LDR      r1,[pc,#172] ; [0x1b4b4] = 0xaaaaaaab
        0x0001b406:    6850        Ph      LDR      r0,[r2,#4]
        0x0001b408:    fba11000    ....    UMULL    r1,r0,r1,r0
        0x0001b40c:    0900        ..      LSRS     r0,r0,#4
        0x0001b40e:    f8c40848    ..H.    STR      r0,[r4,#0x848]
        0x0001b412:    e129        ).      B        0x1b668 ; am_hal_mspi_control + 3040
        0x0001b414:    0329        ).      LSLS     r1,r5,#12
        0x0001b416:    f1014180    ...A    ADD      r1,r1,#0x40000000
        0x0001b41a:    f50121c0    ...!    ADD      r1,r1,#0x60000
        0x0001b41e:    f44f1000    O...    MOV      r0,#0x200000
        0x0001b422:    f8c102b4    ....    STR      r0,[r1,#0x2b4]
        0x0001b426:    2001        .       MOVS     r0,#1
        0x0001b428:    f8c40838    ..8.    STR      r0,[r4,#0x838]
        0x0001b42c:    2000        .       MOVS     r0,#0
        0x0001b42e:    f8c40844    ..D.    STR      r0,[r4,#0x844]
        0x0001b432:    e119        ..      B        0x1b668 ; am_hal_mspi_control + 3040
        0x0001b434:    f89408b8    ....    LDRB     r0,[r4,#0x8b8]
        0x0001b438:    b918        ..      CBNZ     r0,0x1b442 ; am_hal_mspi_control + 2490
        0x0001b43a:    2100        .!      MOVS     r1,#0
        0x0001b43c:    2002        .       MOVS     r0,#2
        0x0001b43e:    f7fefee3    ....    BL       am_hal_daxi_control ; 0x1a208
        0x0001b442:    2020                MOVS     r0,#0x20
        0x0001b444:    0329        ).      LSLS     r1,r5,#12
        0x0001b446:    f1014180    ...A    ADD      r1,r1,#0x40000000
        0x0001b44a:    f50121c0    ...!    ADD      r1,r1,#0x60000
        0x0001b44e:    f8c102b4    ....    STR      r0,[r1,#0x2b4]
        0x0001b452:    2500        .%      MOVS     r5,#0
        0x0001b454:    f8c45838    ..8X    STR      r5,[r4,#0x838]
        0x0001b458:    f8d41844    ..D.    LDR      r1,[r4,#0x844]
        0x0001b45c:    2900        .)      CMP      r1,#0
        0x0001b45e:    d17d        }.      BNE      0x1b55c ; am_hal_mspi_control + 2772
        0x0001b460:    4620         F      MOV      r0,r4
        0x0001b462:    f003fae9    ....    BL       sched_hiprio ; 0x1ea38
        0x0001b466:    0006        ..      MOVS     r6,r0
        0x0001b468:    e002        ..      B        0x1b470 ; am_hal_mspi_control + 2536
        0x0001b46a:    e026        &.      B        0x1b4ba ; am_hal_mspi_control + 2610
        0x0001b46c:    e0e3        ..      B        0x1b636 ; am_hal_mspi_control + 2990
        0x0001b46e:    e003        ..      B        0x1b478 ; am_hal_mspi_control + 2544
        0x0001b470:    bf08        ..      IT       EQ
        0x0001b472:    f8c45844    ..DX    STREQ    r5,[r4,#0x844]
        0x0001b476:    e0f7        ..      B        0x1b668 ; am_hal_mspi_control + 3040
        0x0001b478:    0017        ..      MOVS     r7,r2
        0x0001b47a:    d01d        ..      BEQ      0x1b4b8 ; am_hal_mspi_control + 2608
        0x0001b47c:    f8d40828    ..(.    LDR      r0,[r4,#0x828]
        0x0001b480:    b1d8        ..      CBZ      r0,0x1b4ba ; am_hal_mspi_control + 2610
        0x0001b482:    6a21        !j      LDR      r1,[r4,#0x20]
        0x0001b484:    f5b17f80    ....    CMP      r1,#0x100
        0x0001b488:    d006        ..      BEQ      0x1b498 ; am_hal_mspi_control + 2576
        0x0001b48a:    68f9        .h      LDR      r1,[r7,#0xc]
        0x0001b48c:    ab01        ..      ADD      r3,sp,#4
        0x0001b48e:    466a        jF      MOV      r2,sp
        0x0001b490:    1cc9        ..      ADDS     r1,r1,#3
        0x0001b492:    f7fefbdd    ....    BL       am_hal_cmdq_alloc_block ; 0x19c50
        0x0001b496:    b190        ..      CBZ      r0,0x1b4be ; am_hal_mspi_control + 2614
        0x0001b498:    2005        .       MOVS     r0,#5
        0x0001b49a:    e730        0.      B        0x1b2fe ; am_hal_mspi_control + 2166
    $d
        0x0001b49c:    000186a0    ....    DCD    100000
        0x0001b4a0:    40060104    ...@    DCD    1074135300
        0x0001b4a4:    00e0e0e0    ....    DCD    14737632
        0x0001b4a8:    0001e821    !...    DCD    124961
        0x0001b4ac:    400602b4    ...@    DCD    1074135732
        0x0001b4b0:    400602b8    ...@    DCD    1074135736
        0x0001b4b4:    aaaaaaab    ....    DCD    2863311531
    $t
        0x0001b4b8:    e0d8        ..      B        0x1b66c ; am_hal_mspi_control + 3044
        0x0001b4ba:    2007        .       MOVS     r0,#7
        0x0001b4bc:    e71f        ..      B        0x1b2fe ; am_hal_mspi_control + 2166
        0x0001b4be:    486c        lH      LDR      r0,[pc,#432] ; [0x1b670] = 0x400602b8
        0x0001b4c0:    eb003805    ...8    ADD      r8,r0,r5,LSL #12
        0x0001b4c4:    9800        ..      LDR      r0,[sp,#0]
        0x0001b4c6:    f8c08000    ....    STR      r8,[r0,#0]
        0x0001b4ca:    f8d42838    ..8(    LDR      r2,[r4,#0x838]
        0x0001b4ce:    6839        9h      LDR      r1,[r7,#0]
        0x0001b4d0:    2a01        .*      CMP      r2,#1
        0x0001b4d2:    d055        U.      BEQ      0x1b580 ; am_hal_mspi_control + 2808
        0x0001b4d4:    2a02        .*      CMP      r2,#2
        0x0001b4d6:    bf0c        ..      ITE      EQ
        0x0001b4d8:    f44f4180    O..A    MOVEQ    r1,#0x4000
        0x0001b4dc:    f4414181    A..A    ORRNE    r1,r1,#0x4080
        0x0001b4e0:    f1000208    ....    ADD      r2,r0,#8
        0x0001b4e4:    6041        A`      STR      r1,[r0,#4]
        0x0001b4e6:    9200        ..      STR      r2,[sp,#0]
        0x0001b4e8:    68fe        .h      LDR      r6,[r7,#0xc]
        0x0001b4ea:    b35e        ^.      CBZ      r6,0x1b544 ; am_hal_mspi_control + 2748
        0x0001b4ec:    68b8        .h      LDR      r0,[r7,#8]
        0x0001b4ee:    f1a20308    ....    SUB      r3,r2,#8
        0x0001b4f2:    1f01        ..      SUBS     r1,r0,#4
        0x0001b4f4:    1f12        ..      SUBS     r2,r2,#4
        0x0001b4f6:    f1a00c08    ....    SUB      r12,r0,#8
        0x0001b4fa:    f0160f01    ....    TST      r6,#1
        0x0001b4fe:    d007        ..      BEQ      0x1b510 ; am_hal_mspi_control + 2696
        0x0001b500:    f85c0f08    \...    LDR      r0,[r12,#8]!
        0x0001b504:    f8430f08    C...    STR      r0,[r3,#8]!
        0x0001b508:    f8510f08    Q...    LDR      r0,[r1,#8]!
        0x0001b50c:    f8420f08    B...    STR      r0,[r2,#8]!
        0x0001b510:    68f8        .h      LDR      r0,[r7,#0xc]
        0x0001b512:    0840        @.      LSRS     r0,r0,#1
        0x0001b514:    d011        ..      BEQ      0x1b53a ; am_hal_mspi_control + 2738
        0x0001b516:    bf00        ..      NOP      
        0x0001b518:    f8d19008    ....    LDR      r9,[r1,#8]
        0x0001b51c:    f8dc6008    ...`    LDR      r6,[r12,#8]
        0x0001b520:    609e        .`      STR      r6,[r3,#8]
        0x0001b522:    f8c29008    ....    STR      r9,[r2,#8]
        0x0001b526:    f8519f10    Q...    LDR      r9,[r1,#0x10]!
        0x0001b52a:    f85c6f10    \..o    LDR      r6,[r12,#0x10]!
        0x0001b52e:    f8436f10    C..o    STR      r6,[r3,#0x10]!
        0x0001b532:    f8429f10    B...    STR      r9,[r2,#0x10]!
        0x0001b536:    1e40        @.      SUBS     r0,r0,#1
        0x0001b538:    d1ee        ..      BNE      0x1b518 ; am_hal_mspi_control + 2704
        0x0001b53a:    68f9        .h      LDR      r1,[r7,#0xc]
        0x0001b53c:    9800        ..      LDR      r0,[sp,#0]
        0x0001b53e:    eb0000c1    ....    ADD      r0,r0,r1,LSL #3
        0x0001b542:    9000        ..      STR      r0,[sp,#0]
        0x0001b544:    69b8        .i      LDR      r0,[r7,#0x18]
        0x0001b546:    2800        .(      CMP      r0,#0
        0x0001b548:    bf1c        ..      ITT      NE
        0x0001b54a:    9900        ..      LDRNE    r1,[sp,#0]
        0x0001b54c:    6001        .`      STRNE    r1,[r0,#0]
        0x0001b54e:    f44f4180    O..A    MOV      r1,#0x4000
        0x0001b552:    9800        ..      LDR      r0,[sp,#0]
        0x0001b554:    e8e08102    ....    STRD     r8,r1,[r0],#8
        0x0001b558:    4946        FI      LDR      r1,[pc,#280] ; [0x1b674] = 0x400602b4
        0x0001b55a:    e000        ..      B        0x1b55e ; am_hal_mspi_control + 2774
        0x0001b55c:    e084        ..      B        0x1b668 ; am_hal_mspi_control + 3040
        0x0001b55e:    eb013105    ...1    ADD      r1,r1,r5,LSL #12
        0x0001b562:    9000        ..      STR      r0,[sp,#0]
        0x0001b564:    6001        .`      STR      r1,[r0,#0]
        0x0001b566:    6879        yh      LDR      r1,[r7,#4]
        0x0001b568:    6041        A`      STR      r1,[r0,#4]
        0x0001b56a:    693d        =i      LDR      r5,[r7,#0x10]
        0x0001b56c:    2d00        .-      CMP      r5,#0
        0x0001b56e:    bf01        ..      ITTTT    EQ
        0x0001b570:    f8d40838    ..8.    LDREQ    r0,[r4,#0x838]
        0x0001b574:    2800        .(      CMPEQ    r0,#0
        0x0001b576:    f894082c    ..,.    LDRBEQ   r0,[r4,#0x82c]
        0x0001b57a:    2800        .(      CMPEQ    r0,#0
        0x0001b57c:    d111        ..      BNE      0x1b5a2 ; am_hal_mspi_control + 2842
        0x0001b57e:    e008        ..      B        0x1b592 ; am_hal_mspi_control + 2826
        0x0001b580:    f24402a0    D...    MOV      r2,#0x40a0
        0x0001b584:    f04f0302    O...    MOV      r3,#2
        0x0001b588:    ea410102    A...    ORR      r1,r1,r2
        0x0001b58c:    f8c43838    ..88    STR      r3,[r4,#0x838]
        0x0001b590:    e7a6        ..      B        0x1b4e0 ; am_hal_mspi_control + 2648
        0x0001b592:    f8d4185c    ..\.    LDR      r1,[r4,#0x85c]
        0x0001b596:    f8d40858    ..X.    LDR      r0,[r4,#0x858]
        0x0001b59a:    ebb10f50    ..P.    CMP      r1,r0,LSR #1
        0x0001b59e:    bf28        (.      IT       CS
        0x0001b5a0:    4d35        5M      LDRCS    r5,[pc,#212] ; [0x1b678] = 0x1e81f
        0x0001b5a2:    9801        ..      LDR      r0,[sp,#4]
        0x0001b5a4:    b2c0        ..      UXTB     r0,r0
        0x0001b5a6:    eb040080    ....    ADD      r0,r4,r0,LSL #2
        0x0001b5aa:    6285        .b      STR      r5,[r0,#0x28]
        0x0001b5ac:    9801        ..      LDR      r0,[sp,#4]
        0x0001b5ae:    6979        yi      LDR      r1,[r7,#0x14]
        0x0001b5b0:    b2c0        ..      UXTB     r0,r0
        0x0001b5b2:    eb040080    ....    ADD      r0,r4,r0,LSL #2
        0x0001b5b6:    f8c01428    ..(.    STR      r1,[r0,#0x428]
        0x0001b5ba:    f7fcfecd    ....    BL       am_hal_interrupt_master_disable ; 0x18358
        0x0001b5be:    4681        .F      MOV      r9,r0
        0x0001b5c0:    2d00        .-      CMP      r5,#0
        0x0001b5c2:    bf14        ..      ITE      NE
        0x0001b5c4:    2101        .!      MOVNE    r1,#1
        0x0001b5c6:    2100        .!      MOVEQ    r1,#0
        0x0001b5c8:    f8d40828    ..(.    LDR      r0,[r4,#0x828]
        0x0001b5cc:    f7fefcf6    ....    BL       am_hal_cmdq_post_block ; 0x19fbc
        0x0001b5d0:    0006        ..      MOVS     r6,r0
        0x0001b5d2:    d007        ..      BEQ      0x1b5e4 ; am_hal_mspi_control + 2908
        0x0001b5d4:    4648        HF      MOV      r0,r9
        0x0001b5d6:    f7fcfec3    ....    BL       am_hal_interrupt_master_set ; 0x18360
        0x0001b5da:    f8d40828    ..(.    LDR      r0,[r4,#0x828]
        0x0001b5de:    f7fefd57    ..W.    BL       am_hal_cmdq_release_block ; 0x1a090
        0x0001b5e2:    e041        A.      B        0x1b668 ; am_hal_mspi_control + 3040
        0x0001b5e4:    f8d48020    .. .    LDR      r8,[r4,#0x20]
        0x0001b5e8:    f1080001    ....    ADD      r0,r8,#1
        0x0001b5ec:    6220         b      STR      r0,[r4,#0x20]
        0x0001b5ee:    f8d40830    ..0.    LDR      r0,[r4,#0x830]
        0x0001b5f2:    1c41        A.      ADDS     r1,r0,#1
        0x0001b5f4:    f8c41830    ..0.    STR      r1,[r4,#0x830]
        0x0001b5f8:    6938        8i      LDR      r0,[r7,#0x10]
        0x0001b5fa:    b158        X.      CBZ      r0,0x1b614 ; am_hal_mspi_control + 2956
        0x0001b5fc:    2000        .       MOVS     r0,#0
        0x0001b5fe:    f884082d    ..-.    STRB     r0,[r4,#0x82d]
        0x0001b602:    f8c4085c    ..\.    STR      r0,[r4,#0x85c]
        0x0001b606:    4648        HF      MOV      r0,r9
        0x0001b608:    f7fcfeaa    ....    BL       am_hal_interrupt_master_set ; 0x18360
        0x0001b60c:    f1b80f00    ....    CMP      r8,#0
        0x0001b610:    d12a        *.      BNE      0x1b668 ; am_hal_mspi_control + 3040
        0x0001b612:    e008        ..      B        0x1b626 ; am_hal_mspi_control + 2974
        0x0001b614:    2d00        .-      CMP      r5,#0
        0x0001b616:    bf12        ..      ITEE     NE
        0x0001b618:    2100        .!      MOVNE    r1,#0
        0x0001b61a:    f8d4085c    ..\.    LDREQ    r0,[r4,#0x85c]
        0x0001b61e:    1c41        A.      ADDEQ    r1,r0,#1
        0x0001b620:    f8c4185c    ..\.    STR      r1,[r4,#0x85c]
        0x0001b624:    e7ef        ..      B        0x1b606 ; am_hal_mspi_control + 2942
        0x0001b626:    f8d40828    ..(.    LDR      r0,[r4,#0x828]
        0x0001b62a:    f7fefb97    ....    BL       am_hal_cmdq_enable ; 0x19d5c
        0x0001b62e:    0006        ..      MOVS     r6,r0
        0x0001b630:    f47fae65    ..e.    BNE      0x1b2fe ; am_hal_mspi_control + 2166
        0x0001b634:    e018        ..      B        0x1b668 ; am_hal_mspi_control + 3040
        0x0001b636:    b1ca        ..      CBZ      r2,0x1b66c ; am_hal_mspi_control + 3044
        0x0001b638:    7810        .x      LDRB     r0,[r2,#0]
        0x0001b63a:    2803        .(      CMP      r0,#3
        0x0001b63c:    bf9c        ..      ITT      LS
        0x0001b63e:    7851        Qx      LDRBLS   r1,[r2,#1]
        0x0001b640:    2901        .)      CMPLS    r1,#1
        0x0001b642:    d813        ..      BHI      0x1b66c ; am_hal_mspi_control + 3044
        0x0001b644:    0328        (.      LSLS     r0,r5,#12
        0x0001b646:    f1004080    ...@    ADD      r0,r0,#0x40000000
        0x0001b64a:    f50020c0    ...     ADD      r0,r0,#0x60000
        0x0001b64e:    f8d03084    ...0    LDR      r3,[r0,#0x84]
        0x0001b652:    f3611386    a...    BFI      r3,r1,#6,#1
        0x0001b656:    f8c03084    ...0    STR      r3,[r0,#0x84]
        0x0001b65a:    7812        .x      LDRB     r2,[r2,#0]
        0x0001b65c:    f8d01084    ....    LDR      r1,[r0,#0x84]
        0x0001b660:    f3621105    b...    BFI      r1,r2,#4,#2
        0x0001b664:    f8c01084    ....    STR      r1,[r0,#0x84]
        0x0001b668:    4630        0F      MOV      r0,r6
        0x0001b66a:    e648        H.      B        0x1b2fe ; am_hal_mspi_control + 2166
        0x0001b66c:    2006        .       MOVS     r0,#6
        0x0001b66e:    e646        F.      B        0x1b2fe ; am_hal_mspi_control + 2166
    $d
        0x0001b670:    400602b8    ...@    DCD    1074135736
        0x0001b674:    400602b4    ...@    DCD    1074135732
        0x0001b678:    0001e81f    ....    DCD    124959
    $t
    i.am_hal_mspi_deinitialize
    am_hal_mspi_deinitialize
        0x0001b67c:    e92d41f0    -..A    PUSH     {r4-r8,lr}
        0x0001b680:    1e05        ..      SUBS     r5,r0,#0
        0x0001b682:    bf1c        ..      ITT      NE
        0x0001b684:    6801        .h      LDRNE    r1,[r0,#0]
        0x0001b686:    f0117f80    ....    TSTNE    r1,#0x1000000
        0x0001b68a:    d004        ..      BEQ      0x1b696 ; am_hal_mspi_deinitialize + 26
        0x0001b68c:    4b25        %K      LDR      r3,[pc,#148] ; [0x1b724] = 0xbebebe
        0x0001b68e:    f021427f    !..B    BIC      r2,r1,#0xff000000
        0x0001b692:    429a        .B      CMP      r2,r3
        0x0001b694:    d002        ..      BEQ      0x1b69c ; am_hal_mspi_deinitialize + 32
        0x0001b696:    2002        .       MOVS     r0,#2
        0x0001b698:    e8bd81f0    ....    POP      {r4-r8,pc}
        0x0001b69c:    f0117f00    ....    TST      r1,#0x2000000
        0x0001b6a0:    f04f0600    O...    MOV      r6,#0
        0x0001b6a4:    d036        6.      BEQ      0x1b714 ; am_hal_mspi_deinitialize + 152
        0x0001b6a6:    f8d50840    ..@.    LDR      r0,[r5,#0x840]
        0x0001b6aa:    462c        ,F      MOV      r4,r5
        0x0001b6ac:    2800        .(      CMP      r0,#0
        0x0001b6ae:    bf04        ..      ITT      EQ
        0x0001b6b0:    6a20         j      LDREQ    r0,[r4,#0x20]
        0x0001b6b2:    2800        .(      CMPEQ    r0,#0
        0x0001b6b4:    d12e        ..      BNE      0x1b714 ; am_hal_mspi_deinitialize + 152
        0x0001b6b6:    69a0        .i      LDR      r0,[r4,#0x18]
        0x0001b6b8:    b1b8        ..      CBZ      r0,0x1b6ea ; am_hal_mspi_deinitialize + 110
        0x0001b6ba:    f8d40828    ..(.    LDR      r0,[r4,#0x828]
        0x0001b6be:    f7fefb2d    ..-.    BL       am_hal_cmdq_disable ; 0x19d1c
        0x0001b6c2:    bb38        8.      CBNZ     r0,0x1b714 ; am_hal_mspi_deinitialize + 152
        0x0001b6c4:    6860        `h      LDR      r0,[r4,#4]
        0x0001b6c6:    f240212f    @./!    MOV      r1,#0x22f
        0x0001b6ca:    f8df805c    ..\.    LDR      r8,[pc,#92] ; [0x1b728] = 0x100030a0
        0x0001b6ce:    fb00f701    ....    MUL      r7,r0,r1
        0x0001b6d2:    eb080087    ....    ADD      r0,r8,r7,LSL #2
        0x0001b6d6:    f8d00828    ..(.    LDR      r0,[r0,#0x828]
        0x0001b6da:    b130        0.      CBZ      r0,0x1b6ea ; am_hal_mspi_deinitialize + 110
        0x0001b6dc:    2101        .!      MOVS     r1,#1
        0x0001b6de:    f7fefd25    ..%.    BL       am_hal_cmdq_term ; 0x1a12c
        0x0001b6e2:    eb080087    ....    ADD      r0,r8,r7,LSL #2
        0x0001b6e6:    f8c06828    ..(h    STR      r6,[r0,#0x828]
        0x0001b6ea:    6820         h      LDR      r0,[r4,#0]
        0x0001b6ec:    f0207000     ..p    BIC      r0,r0,#0x2000000
        0x0001b6f0:    6020         `      STR      r0,[r4,#0]
        0x0001b6f2:    6860        `h      LDR      r0,[r4,#4]
        0x0001b6f4:    0300        ..      LSLS     r0,r0,#12
        0x0001b6f6:    f1004080    ...@    ADD      r0,r0,#0x40000000
        0x0001b6fa:    f50020c0    ...     ADD      r0,r0,#0x60000
        0x0001b6fe:    f8d00090    ....    LDR      r0,[r0,#0x90]
        0x0001b702:    f0100f01    ....    TST      r0,#1
        0x0001b706:    d005        ..      BEQ      0x1b714 ; am_hal_mspi_deinitialize + 152
        0x0001b708:    f04f0100    O...    MOV      r1,#0
        0x0001b70c:    f04f0002    O...    MOV      r0,#2
        0x0001b710:    f7fefd7a    ..z.    BL       am_hal_daxi_control ; 0x1a208
        0x0001b714:    6828        (h      LDR      r0,[r5,#0]
        0x0001b716:    f0207080     ..p    BIC      r0,r0,#0x1000000
        0x0001b71a:    e9c50600    ....    STRD     r0,r6,[r5,#0]
        0x0001b71e:    2000        .       MOVS     r0,#0
        0x0001b720:    e8bd81f0    ....    POP      {r4-r8,pc}
    $d
        0x0001b724:    00bebebe    ....    DCD    12500670
        0x0001b728:    100030a0    .0..    DCD    268447904
    $t
    i.am_hal_mspi_device_configure
    am_hal_mspi_device_configure
        0x0001b72c:    b570        p.      PUSH     {r4-r6,lr}
        0x0001b72e:    6842        Bh      LDR      r2,[r0,#4]
        0x0001b730:    460c        .F      MOV      r4,r1
        0x0001b732:    1e05        ..      SUBS     r5,r0,#0
        0x0001b734:    bf1c        ..      ITT      NE
        0x0001b736:    6828        (h      LDRNE    r0,[r5,#0]
        0x0001b738:    f0107f80    ....    TSTNE    r0,#0x1000000
        0x0001b73c:    d004        ..      BEQ      0x1b748 ; am_hal_mspi_device_configure + 28
        0x0001b73e:    4980        .I      LDR      r1,[pc,#512] ; [0x1b940] = 0xbebebe
        0x0001b740:    f020407f     ..@    BIC      r0,r0,#0xff000000
        0x0001b744:    4288        .B      CMP      r0,r1
        0x0001b746:    d001        ..      BEQ      0x1b74c ; am_hal_mspi_device_configure + 32
        0x0001b748:    2002        .       MOVS     r0,#2
        0x0001b74a:    bd70        p.      POP      {r4-r6,pc}
        0x0001b74c:    7a28        (z      LDRB     r0,[r5,#8]
        0x0001b74e:    2800        .(      CMP      r0,#0
        0x0001b750:    bf04        ..      ITT      EQ
        0x0001b752:    2007        .       MOVEQ    r0,#7
        0x0001b754:    bd70        p.      POPEQ    {r4-r6,pc}
        0x0001b756:    7860        `x      LDRB     r0,[r4,#1]
        0x0001b758:    2130        0!      MOVS     r1,#0x30
        0x0001b75a:    ea011000    ....    AND      r0,r1,r0,LSL #4
        0x0001b75e:    78a1        .x      LDRB     r1,[r4,#2]
        0x0001b760:    2340        @#      MOVS     r3,#0x40
        0x0001b762:    ea031181    ....    AND      r1,r3,r1,LSL #6
        0x0001b766:    4308        .C      ORRS     r0,r0,r1
        0x0001b768:    7821        !x      LDRB     r1,[r4,#0]
        0x0001b76a:    f44f537c    O.|S    MOV      r3,#0x3f00
        0x0001b76e:    ea032101    ...!    AND      r1,r3,r1,LSL #8
        0x0001b772:    4308        .C      ORRS     r0,r0,r1
        0x0001b774:    7aa1        .z      LDRB     r1,[r4,#0xa]
        0x0001b776:    b169        i.      CBZ      r1,0x1b794 ; am_hal_mspi_device_configure + 104
        0x0001b778:    2901        .)      CMP      r1,#1
        0x0001b77a:    bf08        ..      IT       EQ
        0x0001b77c:    f4404000    @..@    ORREQ    r0,r0,#0x8000
        0x0001b780:    d008        ..      BEQ      0x1b794 ; am_hal_mspi_device_configure + 104
        0x0001b782:    2902        .)      CMP      r1,#2
        0x0001b784:    bf08        ..      IT       EQ
        0x0001b786:    f4404080    @..@    ORREQ    r0,r0,#0x4000
        0x0001b78a:    d003        ..      BEQ      0x1b794 ; am_hal_mspi_device_configure + 104
        0x0001b78c:    2903        .)      CMP      r1,#3
        0x0001b78e:    bf08        ..      IT       EQ
        0x0001b790:    f4404040    @.@@    ORREQ    r0,r0,#0xc000
        0x0001b794:    7ae1        .z      LDRB     r1,[r4,#0xb]
        0x0001b796:    f44f137c    O.|.    MOV      r3,#0x3f0000
        0x0001b79a:    ea034301    ...C    AND      r3,r3,r1,LSL #16
        0x0001b79e:    4318        .C      ORRS     r0,r0,r3
        0x0001b7a0:    2908        .)      CMP      r1,#8
        0x0001b7a2:    d016        ..      BEQ      0x1b7d2 ; am_hal_mspi_device_configure + 166
        0x0001b7a4:    dc07        ..      BGT      0x1b7b6 ; am_hal_mspi_device_configure + 138
        0x0001b7a6:    2907        .)      CMP      r1,#7
        0x0001b7a8:    d27e        ~.      BCS      0x1b8a8 ; am_hal_mspi_device_configure + 380
        0x0001b7aa:    e8dff001    ....    TBB      [pc,r1]
    $d
        0x0001b7ae:    0d8c        ..      DCW    3468
        0x0001b7b0:    8c121210    ....    DCD    2349994512
        0x0001b7b4:    0012        ..      DCW    18
    $t
        0x0001b7b6:    290c        .)      CMP      r1,#0xc
        0x0001b7b8:    bf18        ..      IT       NE
        0x0001b7ba:    2910        .)      CMPNE    r1,#0x10
        0x0001b7bc:    d009        ..      BEQ      0x1b7d2 ; am_hal_mspi_device_configure + 166
        0x0001b7be:    2918        .)      CMP      r1,#0x18
        0x0001b7c0:    bf18        ..      IT       NE
        0x0001b7c2:    2920         )      CMPNE    r1,#0x20
        0x0001b7c4:    d005        ..      BEQ      0x1b7d2 ; am_hal_mspi_device_configure + 166
        0x0001b7c6:    e07e        ~.      B        0x1b8c6 ; am_hal_mspi_device_configure + 410
        0x0001b7c8:    f0407080    @..p    ORR      r0,r0,#0x1000000
        0x0001b7cc:    e001        ..      B        0x1b7d2 ; am_hal_mspi_device_configure + 166
        0x0001b7ce:    f04070a0    @..p    ORR      r0,r0,#0x1400000
        0x0001b7d2:    7a61        az      LDRB     r1,[r4,#9]
        0x0001b7d4:    ea406081    @..`    ORR      r0,r0,r1,LSL #26
        0x0001b7d8:    ea4f3102    O..1    LSL      r1,r2,#12
        0x0001b7dc:    f1014280    ...B    ADD      r2,r1,#0x40000000
        0x0001b7e0:    f50222c0    ..."    ADD      r2,r2,#0x60000
        0x0001b7e4:    f8c20084    ....    STR      r0,[r2,#0x84]
        0x0001b7e8:    7c20         |      LDRB     r0,[r4,#0x10]
        0x0001b7ea:    2800        .(      CMP      r0,#0
        0x0001b7ec:    f8d20088    ....    LDR      r0,[r2,#0x88]
        0x0001b7f0:    bf14        ..      ITE      NE
        0x0001b7f2:    f0400001    @...    ORRNE    r0,r0,#1
        0x0001b7f6:    f0200001     ...    BICEQ    r0,r0,#1
        0x0001b7fa:    f8c20088    ....    STR      r0,[r2,#0x88]
        0x0001b7fe:    6b10        .k      LDR      r0,[r2,#0x30]
        0x0001b800:    f0200001     ...    BIC      r0,r0,#1
        0x0001b804:    6310        .c      STR      r0,[r2,#0x30]
        0x0001b806:    f8d20090    ....    LDR      r0,[r2,#0x90]
        0x0001b80a:    494e        NI      LDR      r1,[pc,#312] ; [0x1b944] = 0xfe000f03
        0x0001b80c:    2310        .#      MOVS     r3,#0x10
        0x0001b80e:    4008        .@      ANDS     r0,r0,r1
        0x0001b810:    7b69        i{      LDRB     r1,[r5,#0xd]
        0x0001b812:    f040000c    @...    ORR      r0,r0,#0xc
        0x0001b816:    ea031101    ....    AND      r1,r3,r1,LSL #4
        0x0001b81a:    4308        .C      ORRS     r0,r0,r1
        0x0001b81c:    7be1        .{      LDRB     r1,[r4,#0xf]
        0x0001b81e:    b139        9.      CBZ      r1,0x1b830 ; am_hal_mspi_device_configure + 260
        0x0001b820:    7821        !x      LDRB     r1,[r4,#0]
        0x0001b822:    f44f23fc    O..#    MOV      r3,#0x7e000
        0x0001b826:    f0400020    @. .    ORR      r0,r0,#0x20
        0x0001b82a:    ea033141    ..A1    AND      r1,r3,r1,LSL #13
        0x0001b82e:    4308        .C      ORRS     r0,r0,r1
        0x0001b830:    7b61        a{      LDRB     r1,[r4,#0xd]
        0x0001b832:    2900        .)      CMP      r1,#0
        0x0001b834:    bf18        ..      IT       NE
        0x0001b836:    f0400040    @.@.    ORRNE    r0,r0,#0x40
        0x0001b83a:    7ba1        .{      LDRB     r1,[r4,#0xe]
        0x0001b83c:    2900        .)      CMP      r1,#0
        0x0001b83e:    bf18        ..      IT       NE
        0x0001b840:    f0400080    @...    ORRNE    r0,r0,#0x80
        0x0001b844:    7b21        !{      LDRB     r1,[r4,#0xc]
        0x0001b846:    f44f5380    O..S    MOV      r3,#0x1000
        0x0001b84a:    ea033101    ...1    AND      r1,r3,r1,LSL #12
        0x0001b84e:    4308        .C      ORRS     r0,r0,r1
        0x0001b850:    7a61        az      LDRB     r1,[r4,#9]
        0x0001b852:    f04f73fc    O..s    MOV      r3,#0x1f80000
        0x0001b856:    ea0341c1    ...A    AND      r1,r3,r1,LSL #19
        0x0001b85a:    4308        .C      ORRS     r0,r0,r1
        0x0001b85c:    f8c20090    ....    STR      r0,[r2,#0x90]
        0x0001b860:    88e0        ..      LDRH     r0,[r4,#6]
        0x0001b862:    88a1        ..      LDRH     r1,[r4,#4]
        0x0001b864:    ea404001    @..@    ORR      r0,r0,r1,LSL #16
        0x0001b868:    f8c20094    ....    STR      r0,[r2,#0x94]
        0x0001b86c:    8a60        `.      LDRH     r0,[r4,#0x12]
        0x0001b86e:    7d21        !}      LDRB     r1,[r4,#0x14]
        0x0001b870:    f44f4370    O.pC    MOV      r3,#0xf000
        0x0001b874:    f3c0000b    ....    UBFX     r0,r0,#0,#12
        0x0001b878:    ea033101    ...1    AND      r1,r3,r1,LSL #12
        0x0001b87c:    4308        .C      ORRS     r0,r0,r1
        0x0001b87e:    f8c20098    ....    STR      r0,[r2,#0x98]
        0x0001b882:    6b10        .k      LDR      r0,[r2,#0x30]
        0x0001b884:    f02000f0     ...    BIC      r0,r0,#0xf0
        0x0001b888:    3070        p0      ADDS     r0,r0,#0x70
        0x0001b88a:    6310        .c      STR      r0,[r2,#0x30]
        0x0001b88c:    2600        .&      MOVS     r6,#0
        0x0001b88e:    736e        ns      STRB     r6,[r5,#0xd]
        0x0001b890:    69a8        .i      LDR      r0,[r5,#0x18]
        0x0001b892:    b388        ..      CBZ      r0,0x1b8f8 ; am_hal_mspi_device_configure + 460
        0x0001b894:    2020                MOVS     r0,#0x20
        0x0001b896:    f8c20114    ....    STR      r0,[r2,#0x114]
        0x0001b89a:    7ae0        .z      LDRB     r0,[r4,#0xb]
        0x0001b89c:    2808        .(      CMP      r0,#8
        0x0001b89e:    d02c        ,.      BEQ      0x1b8fa ; am_hal_mspi_device_configure + 462
        0x0001b8a0:    dc09        ..      BGT      0x1b8b6 ; am_hal_mspi_device_configure + 394
        0x0001b8a2:    2807        .(      CMP      r0,#7
        0x0001b8a4:    d20f        ..      BCS      0x1b8c6 ; am_hal_mspi_device_configure + 410
        0x0001b8a6:    e000        ..      B        0x1b8aa ; am_hal_mspi_device_configure + 382
        0x0001b8a8:    e00d        ..      B        0x1b8c6 ; am_hal_mspi_device_configure + 410
        0x0001b8aa:    e8dff000    ....    TBB      [pc,r0]
    $d
        0x0001b8ae:    0f0c        ..      DCW    3852
        0x0001b8b0:    0c26260f    .&&.    DCD    203826703
        0x0001b8b4:    0026        &.      DCW    38
    $t
        0x0001b8b6:    280c        .(      CMP      r0,#0xc
        0x0001b8b8:    bf18        ..      IT       NE
        0x0001b8ba:    2810        .(      CMPNE    r0,#0x10
        0x0001b8bc:    d01d        ..      BEQ      0x1b8fa ; am_hal_mspi_device_configure + 462
        0x0001b8be:    2818        .(      CMP      r0,#0x18
        0x0001b8c0:    bf18        ..      IT       NE
        0x0001b8c2:    2820         (      CMPNE    r0,#0x20
        0x0001b8c4:    d019        ..      BEQ      0x1b8fa ; am_hal_mspi_device_configure + 462
        0x0001b8c6:    f04f0005    O...    MOV      r0,#5
        0x0001b8ca:    bd70        p.      POP      {r4-r6,pc}
        0x0001b8cc:    f8d20118    ....    LDR      r0,[r2,#0x118]
        0x0001b8d0:    f020001f     ...    BIC      r0,r0,#0x1f
        0x0001b8d4:    f100000c    ....    ADD      r0,r0,#0xc
        0x0001b8d8:    f8c20118    ....    STR      r0,[r2,#0x118]
        0x0001b8dc:    6a10        .j      LDR      r0,[r2,#0x20]
        0x0001b8de:    f420507c     .|P    BIC      r0,r0,#0x3f00
        0x0001b8e2:    f50050f0    ...P    ADD      r0,r0,#0x1e00
        0x0001b8e6:    6210        .b      STR      r0,[r2,#0x20]
        0x0001b8e8:    f8d20118    ....    LDR      r0,[r2,#0x118]
        0x0001b8ec:    f42050f8     ..P    BIC      r0,r0,#0x1f00
        0x0001b8f0:    f5006000    ...`    ADD      r0,r0,#0x800
        0x0001b8f4:    f8c20118    ....    STR      r0,[r2,#0x118]
        0x0001b8f8:    e015        ..      B        0x1b926 ; am_hal_mspi_device_configure + 506
        0x0001b8fa:    f8d20118    ....    LDR      r0,[r2,#0x118]
        0x0001b8fe:    f020001f     ...    BIC      r0,r0,#0x1f
        0x0001b902:    f1000008    ....    ADD      r0,r0,#8
        0x0001b906:    f8c20118    ....    STR      r0,[r2,#0x118]
        0x0001b90a:    6a10        .j      LDR      r0,[r2,#0x20]
        0x0001b90c:    f420507c     .|P    BIC      r0,r0,#0x3f00
        0x0001b910:    f50050f0    ...P    ADD      r0,r0,#0x1e00
        0x0001b914:    6210        .b      STR      r0,[r2,#0x20]
        0x0001b916:    f8d20118    ....    LDR      r0,[r2,#0x118]
        0x0001b91a:    f42050f8     ..P    BIC      r0,r0,#0x1f00
        0x0001b91e:    f5006000    ...`    ADD      r0,r0,#0x800
        0x0001b922:    f8c20118    ....    STR      r0,[r2,#0x118]
        0x0001b926:    7a20         z      LDRB     r0,[r4,#8]
        0x0001b928:    72a8        .r      STRB     r0,[r5,#0xa]
        0x0001b92a:    4628        (F      MOV      r0,r5
        0x0001b92c:    f002fd42    ..B.    BL       mspi_device_configure ; 0x1e3b4
        0x0001b930:    736e        ns      STRB     r6,[r5,#0xd]
        0x0001b932:    7ae0        .z      LDRB     r0,[r4,#0xb]
        0x0001b934:    7328        (s      STRB     r0,[r5,#0xc]
        0x0001b936:    f2427010    B..p    MOV      r0,#0x2710
        0x0001b93a:    6128        (a      STR      r0,[r5,#0x10]
        0x0001b93c:    2000        .       MOVS     r0,#0
        0x0001b93e:    bd70        p.      POP      {r4-r6,pc}
    $d
        0x0001b940:    00bebebe    ....    DCD    12500670
        0x0001b944:    fe000f03    ....    DCD    4261416707
    $t
    i.am_hal_mspi_disable
    am_hal_mspi_disable
        0x0001b948:    b570        p.      PUSH     {r4-r6,lr}
        0x0001b94a:    0004        ..      MOVS     r4,r0
        0x0001b94c:    bf1c        ..      ITT      NE
        0x0001b94e:    6820         h      LDRNE    r0,[r4,#0]
        0x0001b950:    f0107f80    ....    TSTNE    r0,#0x1000000
        0x0001b954:    d004        ..      BEQ      0x1b960 ; am_hal_mspi_disable + 24
        0x0001b956:    4a21        !J      LDR      r2,[pc,#132] ; [0x1b9dc] = 0xbebebe
        0x0001b958:    f020417f     ..A    BIC      r1,r0,#0xff000000
        0x0001b95c:    4291        .B      CMP      r1,r2
        0x0001b95e:    d001        ..      BEQ      0x1b964 ; am_hal_mspi_disable + 28
        0x0001b960:    2002        .       MOVS     r0,#2
        0x0001b962:    bd70        p.      POP      {r4-r6,pc}
        0x0001b964:    f0107000    ...p    ANDS     r0,r0,#0x2000000
        0x0001b968:    bf08        ..      IT       EQ
        0x0001b96a:    bd70        p.      POPEQ    {r4-r6,pc}
        0x0001b96c:    f8d40840    ..@.    LDR      r0,[r4,#0x840]
        0x0001b970:    2800        .(      CMP      r0,#0
        0x0001b972:    bf07        ..      ITTEE    EQ
        0x0001b974:    6a20         j      LDREQ    r0,[r4,#0x20]
        0x0001b976:    2800        .(      CMPEQ    r0,#0
        0x0001b978:    2003        .       MOVNE    r0,#3
        0x0001b97a:    bd70        p.      POPNE    {r4-r6,pc}
        0x0001b97c:    69a0        .i      LDR      r0,[r4,#0x18]
        0x0001b97e:    b1b0        ..      CBZ      r0,0x1b9ae ; am_hal_mspi_disable + 102
        0x0001b980:    f8d40828    ..(.    LDR      r0,[r4,#0x828]
        0x0001b984:    f7fef9ca    ....    BL       am_hal_cmdq_disable ; 0x19d1c
        0x0001b988:    2800        .(      CMP      r0,#0
        0x0001b98a:    bf18        ..      IT       NE
        0x0001b98c:    bd70        p.      POPNE    {r4-r6,pc}
        0x0001b98e:    f240212f    @./!    MOV      r1,#0x22f
        0x0001b992:    6860        `h      LDR      r0,[r4,#4]
        0x0001b994:    4341        AC      MULS     r1,r0,r1
        0x0001b996:    4812        .H      LDR      r0,[pc,#72] ; [0x1b9e0] = 0x100030a0
        0x0001b998:    eb000581    ....    ADD      r5,r0,r1,LSL #2
        0x0001b99c:    f8d50828    ..(.    LDR      r0,[r5,#0x828]
        0x0001b9a0:    b128        (.      CBZ      r0,0x1b9ae ; am_hal_mspi_disable + 102
        0x0001b9a2:    2101        .!      MOVS     r1,#1
        0x0001b9a4:    f7fefbc2    ....    BL       am_hal_cmdq_term ; 0x1a12c
        0x0001b9a8:    2000        .       MOVS     r0,#0
        0x0001b9aa:    f8c50828    ..(.    STR      r0,[r5,#0x828]
        0x0001b9ae:    6820         h      LDR      r0,[r4,#0]
        0x0001b9b0:    f0207000     ..p    BIC      r0,r0,#0x2000000
        0x0001b9b4:    6020         `      STR      r0,[r4,#0]
        0x0001b9b6:    6860        `h      LDR      r0,[r4,#4]
        0x0001b9b8:    0300        ..      LSLS     r0,r0,#12
        0x0001b9ba:    f1004080    ...@    ADD      r0,r0,#0x40000000
        0x0001b9be:    f50020c0    ...     ADD      r0,r0,#0x60000
        0x0001b9c2:    f8d00090    ....    LDR      r0,[r0,#0x90]
        0x0001b9c6:    f0100f01    ....    TST      r0,#1
        0x0001b9ca:    d005        ..      BEQ      0x1b9d8 ; am_hal_mspi_disable + 144
        0x0001b9cc:    f04f0100    O...    MOV      r1,#0
        0x0001b9d0:    f04f0002    O...    MOV      r0,#2
        0x0001b9d4:    f7fefc18    ....    BL       am_hal_daxi_control ; 0x1a208
        0x0001b9d8:    2000        .       MOVS     r0,#0
        0x0001b9da:    bd70        p.      POP      {r4-r6,pc}
    $d
        0x0001b9dc:    00bebebe    ....    DCD    12500670
        0x0001b9e0:    100030a0    .0..    DCD    268447904
    $t
    i.am_hal_mspi_enable
    am_hal_mspi_enable
        0x0001b9e4:    b570        p.      PUSH     {r4-r6,lr}
        0x0001b9e6:    b084        ..      SUB      sp,sp,#0x10
        0x0001b9e8:    1e04        ..      SUBS     r4,r0,#0
        0x0001b9ea:    bf1c        ..      ITT      NE
        0x0001b9ec:    6820         h      LDRNE    r0,[r4,#0]
        0x0001b9ee:    f0107f80    ....    TSTNE    r0,#0x1000000
        0x0001b9f2:    d004        ..      BEQ      0x1b9fe ; am_hal_mspi_enable + 26
        0x0001b9f4:    4925        %I      LDR      r1,[pc,#148] ; [0x1ba8c] = 0xbebebe
        0x0001b9f6:    f020407f     ..@    BIC      r0,r0,#0xff000000
        0x0001b9fa:    4288        .B      CMP      r0,r1
        0x0001b9fc:    d002        ..      BEQ      0x1ba04 ; am_hal_mspi_enable + 32
        0x0001b9fe:    b004        ..      ADD      sp,sp,#0x10
        0x0001ba00:    2002        .       MOVS     r0,#2
        0x0001ba02:    bd70        p.      POP      {r4-r6,pc}
        0x0001ba04:    7a20         z      LDRB     r0,[r4,#8]
        0x0001ba06:    2800        .(      CMP      r0,#0
        0x0001ba08:    bf02        ..      ITTT     EQ
        0x0001ba0a:    2007        .       MOVEQ    r0,#7
        0x0001ba0c:    b004        ..      ADDEQ    sp,sp,#0x10
        0x0001ba0e:    bd70        p.      POPEQ    {r4-r6,pc}
        0x0001ba10:    69a0        .i      LDR      r0,[r4,#0x18]
        0x0001ba12:    b398        ..      CBZ      r0,0x1ba7c ; am_hal_mspi_enable + 152
        0x0001ba14:    2500        .%      MOVS     r5,#0
        0x0001ba16:    61e5        .a      STR      r5,[r4,#0x1c]
        0x0001ba18:    6225        %b      STR      r5,[r4,#0x20]
        0x0001ba1a:    e9d41205    ....    LDRD     r1,r2,[r4,#0x14]
        0x0001ba1e:    6860        `h      LDR      r0,[r4,#4]
        0x0001ba20:    0849        I.      LSRS     r1,r1,#1
        0x0001ba22:    e9cd1200    ....    STRD     r1,r2,[sp,#0]
        0x0001ba26:    f240212f    @./!    MOV      r1,#0x22f
        0x0001ba2a:    4341        AC      MULS     r1,r0,r1
        0x0001ba2c:    4a18        .J      LDR      r2,[pc,#96] ; [0x1ba90] = 0x100030a0
        0x0001ba2e:    2601        .&      MOVS     r6,#1
        0x0001ba30:    eb020181    ....    ADD      r1,r2,r1,LSL #2
        0x0001ba34:    f6010228    ..(.    ADD      r2,r1,#0x828
        0x0001ba38:    3008        .0      ADDS     r0,r0,#8
        0x0001ba3a:    f88d6008    ...`    STRB     r6,[sp,#8]
        0x0001ba3e:    b2c0        ..      UXTB     r0,r0
        0x0001ba40:    4669        iF      MOV      r1,sp
        0x0001ba42:    f7fefa43    ..C.    BL       am_hal_cmdq_init ; 0x19ecc
        0x0001ba46:    6861        ah      LDR      r1,[r4,#4]
        0x0001ba48:    4812        .H      LDR      r0,[pc,#72] ; [0x1ba94] = 0x400080
        0x0001ba4a:    0309        ..      LSLS     r1,r1,#12
        0x0001ba4c:    f1014180    ...A    ADD      r1,r1,#0x40000000
        0x0001ba50:    f50121c0    ...!    ADD      r1,r1,#0x60000
        0x0001ba54:    f8c102b4    ....    STR      r0,[r1,#0x2b4]
        0x0001ba58:    f8c45854    ..TX    STR      r5,[r4,#0x854]
        0x0001ba5c:    f884583c    ..<X    STRB     r5,[r4,#0x83c]
        0x0001ba60:    f8c45844    ..DX    STR      r5,[r4,#0x844]
        0x0001ba64:    f8c45838    ..8X    STR      r5,[r4,#0x838]
        0x0001ba68:    f8c45840    ..@X    STR      r5,[r4,#0x840]
        0x0001ba6c:    f884582c    ..,X    STRB     r5,[r4,#0x82c]
        0x0001ba70:    f8c45830    ..0X    STR      r5,[r4,#0x830]
        0x0001ba74:    f884682d    ..-h    STRB     r6,[r4,#0x82d]
        0x0001ba78:    f8c4585c    ..\X    STR      r5,[r4,#0x85c]
        0x0001ba7c:    6820         h      LDR      r0,[r4,#0]
        0x0001ba7e:    f0407000    @..p    ORR      r0,r0,#0x2000000
        0x0001ba82:    6020         `      STR      r0,[r4,#0]
        0x0001ba84:    b004        ..      ADD      sp,sp,#0x10
        0x0001ba86:    2000        .       MOVS     r0,#0
        0x0001ba88:    bd70        p.      POP      {r4-r6,pc}
    $d
        0x0001ba8a:    0000        ..      DCW    0
        0x0001ba8c:    00bebebe    ....    DCD    12500670
        0x0001ba90:    100030a0    .0..    DCD    268447904
        0x0001ba94:    00400080    ..@.    DCD    4194432
    $t
    i.am_hal_mspi_initialize
    am_hal_mspi_initialize
        0x0001ba98:    2803        .(      CMP      r0,#3
        0x0001ba9a:    bf24        $.      ITT      CS
        0x0001ba9c:    2005        .       MOVCS    r0,#5
        0x0001ba9e:    4770        pG      BXCS     lr
        0x0001baa0:    2900        .)      CMP      r1,#0
        0x0001baa2:    bf04        ..      ITT      EQ
        0x0001baa4:    2006        .       MOVEQ    r0,#6
        0x0001baa6:    4770        pG      BXEQ     lr
        0x0001baa8:    b410        ..      PUSH     {r4}
        0x0001baaa:    f240222f    @./"    MOV      r2,#0x22f
        0x0001baae:    fb00f302    ....    MUL      r3,r0,r2
        0x0001bab2:    4a0c        .J      LDR      r2,[pc,#48] ; [0x1bae4] = 0x100030a0
        0x0001bab4:    f852c023    R.#.    LDR      r12,[r2,r3,LSL #2]
        0x0001bab8:    f01c7f80    ....    TST      r12,#0x1000000
        0x0001babc:    bf1e        ..      ITTT     NE
        0x0001babe:    2007        .       MOVNE    r0,#7
        0x0001bac0:    bc10        ..      POPNE    {r4}
        0x0001bac2:    4770        pG      BXNE     lr
        0x0001bac4:    f04c7c80    L..|    ORR      r12,r12,#0x1000000
        0x0001bac8:    4c07        .L      LDR      r4,[pc,#28] ; [0x1bae8] = 0xbebebe
        0x0001baca:    f3640c17    d...    BFI      r12,r4,#0,#24
        0x0001bace:    f842c023    B.#.    STR      r12,[r2,r3,LSL #2]
        0x0001bad2:    eb020283    ....    ADD      r2,r2,r3,LSL #2
        0x0001bad6:    6050        P`      STR      r0,[r2,#4]
        0x0001bad8:    2000        .       MOVS     r0,#0
        0x0001bada:    7310        .s      STRB     r0,[r2,#0xc]
        0x0001badc:    6190        .a      STR      r0,[r2,#0x18]
        0x0001bade:    600a        .`      STR      r2,[r1,#0]
        0x0001bae0:    bc10        ..      POP      {r4}
        0x0001bae2:    4770        pG      BX       lr
    $d
        0x0001bae4:    100030a0    .0..    DCD    268447904
        0x0001bae8:    00bebebe    ....    DCD    12500670
    $t
    i.am_hal_mspi_interrupt_clear
    am_hal_mspi_interrupt_clear
        0x0001baec:    2800        .(      CMP      r0,#0
        0x0001baee:    bf1c        ..      ITT      NE
        0x0001baf0:    6802        .h      LDRNE    r2,[r0,#0]
        0x0001baf2:    f0127f80    ....    TSTNE    r2,#0x1000000
        0x0001baf6:    d004        ..      BEQ      0x1bb02 ; am_hal_mspi_interrupt_clear + 22
        0x0001baf8:    4b08        .K      LDR      r3,[pc,#32] ; [0x1bb1c] = 0xbebebe
        0x0001bafa:    f022427f    "..B    BIC      r2,r2,#0xff000000
        0x0001bafe:    429a        .B      CMP      r2,r3
        0x0001bb00:    d001        ..      BEQ      0x1bb06 ; am_hal_mspi_interrupt_clear + 26
        0x0001bb02:    2002        .       MOVS     r0,#2
        0x0001bb04:    4770        pG      BX       lr
        0x0001bb06:    6840        @h      LDR      r0,[r0,#4]
        0x0001bb08:    0300        ..      LSLS     r0,r0,#12
        0x0001bb0a:    f1004080    ...@    ADD      r0,r0,#0x40000000
        0x0001bb0e:    f50020c0    ...     ADD      r0,r0,#0x60000
        0x0001bb12:    f8c01208    ....    STR      r1,[r0,#0x208]
        0x0001bb16:    2000        .       MOVS     r0,#0
        0x0001bb18:    4770        pG      BX       lr
    $d
        0x0001bb1a:    0000        ..      DCW    0
        0x0001bb1c:    00bebebe    ....    DCD    12500670
    $t
    i.am_hal_mspi_interrupt_disable
    am_hal_mspi_interrupt_disable
        0x0001bb20:    2800        .(      CMP      r0,#0
        0x0001bb22:    bf1c        ..      ITT      NE
        0x0001bb24:    6802        .h      LDRNE    r2,[r0,#0]
        0x0001bb26:    f0127f80    ....    TSTNE    r2,#0x1000000
        0x0001bb2a:    d004        ..      BEQ      0x1bb36 ; am_hal_mspi_interrupt_disable + 22
        0x0001bb2c:    4b0a        .K      LDR      r3,[pc,#40] ; [0x1bb58] = 0xbebebe
        0x0001bb2e:    f022427f    "..B    BIC      r2,r2,#0xff000000
        0x0001bb32:    429a        .B      CMP      r2,r3
        0x0001bb34:    d001        ..      BEQ      0x1bb3a ; am_hal_mspi_interrupt_disable + 26
        0x0001bb36:    2002        .       MOVS     r0,#2
        0x0001bb38:    4770        pG      BX       lr
        0x0001bb3a:    6840        @h      LDR      r0,[r0,#4]
        0x0001bb3c:    0300        ..      LSLS     r0,r0,#12
        0x0001bb3e:    f1004080    ...@    ADD      r0,r0,#0x40000000
        0x0001bb42:    f50020c0    ...     ADD      r0,r0,#0x60000
        0x0001bb46:    f8d02200    ..."    LDR      r2,[r0,#0x200]
        0x0001bb4a:    ea220101    "...    BIC      r1,r2,r1
        0x0001bb4e:    f8c01200    ....    STR      r1,[r0,#0x200]
        0x0001bb52:    2000        .       MOVS     r0,#0
        0x0001bb54:    4770        pG      BX       lr
    $d
        0x0001bb56:    0000        ..      DCW    0
        0x0001bb58:    00bebebe    ....    DCD    12500670
    $t
    i.am_hal_mspi_interrupt_enable
    am_hal_mspi_interrupt_enable
        0x0001bb5c:    2800        .(      CMP      r0,#0
        0x0001bb5e:    bf1c        ..      ITT      NE
        0x0001bb60:    6802        .h      LDRNE    r2,[r0,#0]
        0x0001bb62:    f0127f80    ....    TSTNE    r2,#0x1000000
        0x0001bb66:    d004        ..      BEQ      0x1bb72 ; am_hal_mspi_interrupt_enable + 22
        0x0001bb68:    4b09        .K      LDR      r3,[pc,#36] ; [0x1bb90] = 0xbebebe
        0x0001bb6a:    f022427f    "..B    BIC      r2,r2,#0xff000000
        0x0001bb6e:    429a        .B      CMP      r2,r3
        0x0001bb70:    d001        ..      BEQ      0x1bb76 ; am_hal_mspi_interrupt_enable + 26
        0x0001bb72:    2002        .       MOVS     r0,#2
        0x0001bb74:    4770        pG      BX       lr
        0x0001bb76:    6840        @h      LDR      r0,[r0,#4]
        0x0001bb78:    0300        ..      LSLS     r0,r0,#12
        0x0001bb7a:    f1004080    ...@    ADD      r0,r0,#0x40000000
        0x0001bb7e:    f50020c0    ...     ADD      r0,r0,#0x60000
        0x0001bb82:    f8d02200    ..."    LDR      r2,[r0,#0x200]
        0x0001bb86:    4311        .C      ORRS     r1,r1,r2
        0x0001bb88:    f8c01200    ....    STR      r1,[r0,#0x200]
        0x0001bb8c:    2000        .       MOVS     r0,#0
        0x0001bb8e:    4770        pG      BX       lr
    $d
        0x0001bb90:    00bebebe    ....    DCD    12500670
    $t
    i.am_hal_mspi_interrupt_service
    am_hal_mspi_interrupt_service
        0x0001bb94:    e92d43f0    -..C    PUSH     {r4-r9,lr}
        0x0001bb98:    b085        ..      SUB      sp,sp,#0x14
        0x0001bb9a:    4689        .F      MOV      r9,r1
        0x0001bb9c:    1e04        ..      SUBS     r4,r0,#0
        0x0001bb9e:    bf1c        ..      ITT      NE
        0x0001bba0:    6820         h      LDRNE    r0,[r4,#0]
        0x0001bba2:    f0107f80    ....    TSTNE    r0,#0x1000000
        0x0001bba6:    d004        ..      BEQ      0x1bbb2 ; am_hal_mspi_interrupt_service + 30
        0x0001bba8:    49ab        .I      LDR      r1,[pc,#684] ; [0x1be58] = 0xbebebe
        0x0001bbaa:    f020407f     ..@    BIC      r0,r0,#0xff000000
        0x0001bbae:    4288        .B      CMP      r0,r1
        0x0001bbb0:    d003        ..      BEQ      0x1bbba ; am_hal_mspi_interrupt_service + 38
        0x0001bbb2:    b005        ..      ADD      sp,sp,#0x14
        0x0001bbb4:    2002        .       MOVS     r0,#2
        0x0001bbb6:    e8bd83f0    ....    POP      {r4-r9,pc}
        0x0001bbba:    f894083c    ..<.    LDRB     r0,[r4,#0x83c]
        0x0001bbbe:    6865        eh      LDR      r5,[r4,#4]
        0x0001bbc0:    2600        .&      MOVS     r6,#0
        0x0001bbc2:    2800        .(      CMP      r0,#0
        0x0001bbc4:    d07c        |.      BEQ      0x1bcc0 ; am_hal_mspi_interrupt_service + 300
        0x0001bbc6:    6a60        `j      LDR      r0,[r4,#0x24]
        0x0001bbc8:    ea400109    @...    ORR      r1,r0,r9
        0x0001bbcc:    f4115fc6    ..._    TST      r1,#0x18c0
        0x0001bbd0:    6261        ab      STR      r1,[r4,#0x24]
        0x0001bbd2:    f000813c    ..<.    BEQ.W    0x1be4e ; am_hal_mspi_interrupt_service + 698
        0x0001bbd6:    0328        (.      LSLS     r0,r5,#12
        0x0001bbd8:    f1004080    ...@    ADD      r0,r0,#0x40000000
        0x0001bbdc:    f50020c0    ...     ADD      r0,r0,#0x60000
        0x0001bbe0:    f8d02104    ...!    LDR      r2,[r0,#0x104]
        0x0001bbe4:    f0120f01    ....    TST      r2,#1
        0x0001bbe8:    d1fa        ..      BNE      0x1bbe0 ; am_hal_mspi_interrupt_service + 76
        0x0001bbea:    0328        (.      LSLS     r0,r5,#12
        0x0001bbec:    f1004580    ...E    ADD      r5,r0,#0x40000000
        0x0001bbf0:    f50525c0    ...%    ADD      r5,r5,#0x60000
        0x0001bbf4:    f8d50204    ....    LDR      r0,[r5,#0x204]
        0x0001bbf8:    4308        .C      ORRS     r0,r0,r1
        0x0001bbfa:    6260        `b      STR      r0,[r4,#0x24]
        0x0001bbfc:    f04f30ff    O..0    MOV      r0,#0xffffffff
        0x0001bc00:    f8c50208    ....    STR      r0,[r5,#0x208]
        0x0001bc04:    8ca0        ..      LDRH     r0,[r4,#0x24]
        0x0001bc06:    f4105fc4    ..._    TST      r0,#0x1880
        0x0001bc0a:    bf08        ..      IT       EQ
        0x0001bc0c:    f04f0800    O...    MOVEQ    r8,#0
        0x0001bc10:    d00f        ..      BEQ      0x1bc32 ; am_hal_mspi_interrupt_service + 158
        0x0001bc12:    f8d50100    ....    LDR      r0,[r5,#0x100]
        0x0001bc16:    f04f0801    O...    MOV      r8,#1
        0x0001bc1a:    f0200003     ...    BIC      r0,r0,#3
        0x0001bc1e:    f8c50100    ....    STR      r0,[r5,#0x100]
        0x0001bc22:    6b28        (k      LDR      r0,[r5,#0x30]
        0x0001bc24:    f0204080     ..@    BIC      r0,r0,#0x40000000
        0x0001bc28:    6328        (c      STR      r0,[r5,#0x30]
        0x0001bc2a:    6b28        (k      LDR      r0,[r5,#0x30]
        0x0001bc2c:    f0404080    @..@    ORR      r0,r0,#0x40000000
        0x0001bc30:    6328        (c      STR      r0,[r5,#0x30]
        0x0001bc32:    f8d40850    ..P.    LDR      r0,[r4,#0x850]
        0x0001bc36:    1c40        @.      ADDS     r0,r0,#1
        0x0001bc38:    f8c40850    ..P.    STR      r0,[r4,#0x850]
        0x0001bc3c:    f8d41840    ..@.    LDR      r1,[r4,#0x840]
        0x0001bc40:    1e49        I.      SUBS     r1,r1,#1
        0x0001bc42:    f8c41840    ..@.    STR      r1,[r4,#0x840]
        0x0001bc46:    f8d41848    ..H.    LDR      r1,[r4,#0x848]
        0x0001bc4a:    fbb0f2f1    ....    UDIV     r2,r0,r1
        0x0001bc4e:    fb010012    ....    MLS      r0,r1,r2,r0
        0x0001bc52:    f8d41854    ..T.    LDR      r1,[r4,#0x854]
        0x0001bc56:    eb000040    ..@.    ADD      r0,r0,r0,LSL #1
        0x0001bc5a:    eb0107c0    ....    ADD      r7,r1,r0,LSL #3
        0x0001bc5e:    6938        8i      LDR      r0,[r7,#0x10]
        0x0001bc60:    b140        @.      CBZ      r0,0x1bc74 ; am_hal_mspi_interrupt_service + 224
        0x0001bc62:    2100        .!      MOVS     r1,#0
        0x0001bc64:    2001        .       MOVS     r0,#1
        0x0001bc66:    f7fefacf    ....    BL       am_hal_daxi_control ; 0x1a208
        0x0001bc6a:    e9d72004    ...     LDRD     r2,r0,[r7,#0x10]
        0x0001bc6e:    4641        AF      MOV      r1,r8
        0x0001bc70:    4790        .G      BLX      r2
        0x0001bc72:    613e        >a      STR      r6,[r7,#0x10]
        0x0001bc74:    f8d40840    ..@.    LDR      r0,[r4,#0x840]
        0x0001bc78:    b318        ..      CBZ      r0,0x1bcc2 ; am_hal_mspi_interrupt_service + 302
        0x0001bc7a:    6266        fb      STR      r6,[r4,#0x24]
        0x0001bc7c:    f8d41850    ..P.    LDR      r1,[r4,#0x850]
        0x0001bc80:    f8d42848    ..H(    LDR      r2,[r4,#0x848]
        0x0001bc84:    1c49        I.      ADDS     r1,r1,#1
        0x0001bc86:    fbb1f3f2    ....    UDIV     r3,r1,r2
        0x0001bc8a:    6860        `h      LDR      r0,[r4,#4]
        0x0001bc8c:    fb021113    ....    MLS      r1,r2,r3,r1
        0x0001bc90:    0300        ..      LSLS     r0,r0,#12
        0x0001bc92:    f1004080    ...@    ADD      r0,r0,#0x40000000
        0x0001bc96:    f8d42854    ..T(    LDR      r2,[r4,#0x854]
        0x0001bc9a:    f50020c0    ...     ADD      r0,r0,#0x60000
        0x0001bc9e:    eb010141    ..A.    ADD      r1,r1,r1,LSL #1
        0x0001bca2:    eb0201c1    ....    ADD      r1,r2,r1,LSL #3
        0x0001bca6:    f8c06100    ...a    STR      r6,[r0,#0x100]
        0x0001bcaa:    680a        .h      LDR      r2,[r1,#0]
        0x0001bcac:    f8c02108    ...!    STR      r2,[r0,#0x108]
        0x0001bcb0:    684a        Jh      LDR      r2,[r1,#4]
        0x0001bcb2:    f8c0210c    ...!    STR      r2,[r0,#0x10c]
        0x0001bcb6:    688a        .h      LDR      r2,[r1,#8]
        0x0001bcb8:    f8c02110    ...!    STR      r2,[r0,#0x110]
        0x0001bcbc:    68c9        .h      LDR      r1,[r1,#0xc]
        0x0001bcbe:    e0c4        ..      B        0x1be4a ; am_hal_mspi_interrupt_service + 694
        0x0001bcc0:    e00d        ..      B        0x1bcde ; am_hal_mspi_interrupt_service + 330
        0x0001bcc2:    f884683c    ..<h    STRB     r6,[r4,#0x83c]
        0x0001bcc6:    f8c56100    ...a    STR      r6,[r5,#0x100]
        0x0001bcca:    f8d50200    ....    LDR      r0,[r5,#0x200]
        0x0001bcce:    f0200040     .@.    BIC      r0,r0,#0x40
        0x0001bcd2:    f8c50200    ....    STR      r0,[r5,#0x200]
        0x0001bcd6:    2080        .       MOVS     r0,#0x80
        0x0001bcd8:    f8c502b4    ....    STR      r0,[r5,#0x2b4]
        0x0001bcdc:    e0b7        ..      B        0x1be4e ; am_hal_mspi_interrupt_service + 698
        0x0001bcde:    6a20         j      LDR      r0,[r4,#0x20]
        0x0001bce0:    2800        .(      CMP      r0,#0
        0x0001bce2:    d07d        }.      BEQ      0x1bde0 ; am_hal_mspi_interrupt_service + 588
        0x0001bce4:    f240202f    @./     MOV      r0,#0x22f
        0x0001bce8:    495c        \I      LDR      r1,[pc,#368] ; [0x1be5c] = 0x100030a0
        0x0001bcea:    4368        hC      MULS     r0,r5,r0
        0x0001bcec:    eb010780    ....    ADD      r7,r1,r0,LSL #2
        0x0001bcf0:    6a60        `j      LDR      r0,[r4,#0x24]
        0x0001bcf2:    ea400009    @...    ORR      r0,r0,r9
        0x0001bcf6:    6260        `b      STR      r0,[r4,#0x24]
        0x0001bcf8:    f8d70828    ..(.    LDR      r0,[r7,#0x828]
        0x0001bcfc:    f6070728    ..(.    ADD      r7,r7,#0x828
        0x0001bd00:    2800        .(      CMP      r0,#0
        0x0001bd02:    d06d        m.      BEQ      0x1bde0 ; am_hal_mspi_interrupt_service + 588
        0x0001bd04:    4669        iF      MOV      r1,sp
        0x0001bd06:    f7fef88f    ....    BL       am_hal_cmdq_get_status ; 0x19e28
        0x0001bd0a:    2800        .(      CMP      r0,#0
        0x0001bd0c:    bf08        ..      IT       EQ
        0x0001bd0e:    f8846834    ..4h    STRBEQ   r6,[r4,#0x834]
        0x0001bd12:    d022        ".      BEQ      0x1bd5a ; am_hal_mspi_interrupt_service + 454
        0x0001bd14:    e08e        ..      B        0x1be34 ; am_hal_mspi_interrupt_service + 672
        0x0001bd16:    1c40        @.      ADDS     r0,r0,#1
        0x0001bd18:    61e0        .a      STR      r0,[r4,#0x1c]
        0x0001bd1a:    6a21        !j      LDR      r1,[r4,#0x20]
        0x0001bd1c:    b2c0        ..      UXTB     r0,r0
        0x0001bd1e:    1e49        I.      SUBS     r1,r1,#1
        0x0001bd20:    eb040880    ....    ADD      r8,r4,r0,LSL #2
        0x0001bd24:    6221        !b      STR      r1,[r4,#0x20]
        0x0001bd26:    f8d80028    ..(.    LDR      r0,[r8,#0x28]
        0x0001bd2a:    b1b0        ..      CBZ      r0,0x1bd5a ; am_hal_mspi_interrupt_service + 454
        0x0001bd2c:    2100        .!      MOVS     r1,#0
        0x0001bd2e:    2001        .       MOVS     r0,#1
        0x0001bd30:    f7fefa6a    ..j.    BL       am_hal_daxi_control ; 0x1a208
        0x0001bd34:    f8940024    ..$.    LDRB     r0,[r4,#0x24]
        0x0001bd38:    f8d82028    ..(     LDR      r2,[r8,#0x28]
        0x0001bd3c:    f0100f20    .. .    TST      r0,#0x20
        0x0001bd40:    f8d80428    ..(.    LDR      r0,[r8,#0x428]
        0x0001bd44:    bf0c        ..      ITE      EQ
        0x0001bd46:    2100        .!      MOVEQ    r1,#0
        0x0001bd48:    f04f6100    O..a    MOVNE    r1,#0x8000000
        0x0001bd4c:    4790        .G      BLX      r2
        0x0001bd4e:    f894082c    ..,.    LDRB     r0,[r4,#0x82c]
        0x0001bd52:    2802        .(      CMP      r0,#2
        0x0001bd54:    bf18        ..      IT       NE
        0x0001bd56:    f8c86028    ..(`    STRNE    r6,[r8,#0x28]
        0x0001bd5a:    f8940834    ..4.    LDRB     r0,[r4,#0x834]
        0x0001bd5e:    b918        ..      CBNZ     r0,0x1bd68 ; am_hal_mspi_interrupt_service + 468
        0x0001bd60:    69e0        .i      LDR      r0,[r4,#0x1c]
        0x0001bd62:    9900        ..      LDR      r1,[sp,#0]
        0x0001bd64:    4288        .B      CMP      r0,r1
        0x0001bd66:    d1d6        ..      BNE      0x1bd16 ; am_hal_mspi_interrupt_service + 386
        0x0001bd68:    f8940834    ..4.    LDRB     r0,[r4,#0x834]
        0x0001bd6c:    2800        .(      CMP      r0,#0
        0x0001bd6e:    d161        a.      BNE      0x1be34 ; am_hal_mspi_interrupt_service + 672
        0x0001bd70:    f4195fc4    ..._    TST      r9,#0x1880
        0x0001bd74:    bf04        ..      ITT      EQ
        0x0001bd76:    f89d000e    ....    LDRBEQ   r0,[sp,#0xe]
        0x0001bd7a:    2800        .(      CMPEQ    r0,#0
        0x0001bd7c:    d04f        O.      BEQ      0x1be1e ; am_hal_mspi_interrupt_service + 650
        0x0001bd7e:    69e0        .i      LDR      r0,[r4,#0x1c]
        0x0001bd80:    f1000001    ....    ADD      r0,r0,#1
        0x0001bd84:    61e0        .a      STR      r0,[r4,#0x1c]
        0x0001bd86:    6a21        !j      LDR      r1,[r4,#0x20]
        0x0001bd88:    b2c0        ..      UXTB     r0,r0
        0x0001bd8a:    f1a10101    ....    SUB      r1,r1,#1
        0x0001bd8e:    eb040880    ....    ADD      r8,r4,r0,LSL #2
        0x0001bd92:    6221        !b      STR      r1,[r4,#0x20]
        0x0001bd94:    f8d80028    ..(.    LDR      r0,[r8,#0x28]
        0x0001bd98:    b188        ..      CBZ      r0,0x1bdbe ; am_hal_mspi_interrupt_service + 554
        0x0001bd9a:    f04f0100    O...    MOV      r1,#0
        0x0001bd9e:    f04f0001    O...    MOV      r0,#1
        0x0001bda2:    f7fefa31    ..1.    BL       am_hal_daxi_control ; 0x1a208
        0x0001bda6:    f8d82028    ..(     LDR      r2,[r8,#0x28]
        0x0001bdaa:    2101        .!      MOVS     r1,#1
        0x0001bdac:    f8d80428    ..(.    LDR      r0,[r8,#0x428]
        0x0001bdb0:    4790        .G      BLX      r2
        0x0001bdb2:    f894082c    ..,.    LDRB     r0,[r4,#0x82c]
        0x0001bdb6:    2802        .(      CMP      r0,#2
        0x0001bdb8:    bf18        ..      IT       NE
        0x0001bdba:    f8c86028    ..(`    STRNE    r6,[r8,#0x28]
        0x0001bdbe:    f8d40828    ..(.    LDR      r0,[r4,#0x828]
        0x0001bdc2:    f7fdffab    ....    BL       am_hal_cmdq_disable ; 0x19d1c
        0x0001bdc6:    2800        .(      CMP      r0,#0
        0x0001bdc8:    bf1c        ..      ITT      NE
        0x0001bdca:    b005        ..      ADDNE    sp,sp,#0x14
        0x0001bdcc:    e8bd83f0    ....    POPNE    {r4-r9,pc}
        0x0001bdd0:    0328        (.      LSLS     r0,r5,#12
        0x0001bdd2:    f1004080    ...@    ADD      r0,r0,#0x40000000
        0x0001bdd6:    f50020c0    ...     ADD      r0,r0,#0x60000
        0x0001bdda:    f8d01100    ....    LDR      r1,[r0,#0x100]
        0x0001bdde:    e000        ..      B        0x1bde2 ; am_hal_mspi_interrupt_service + 590
        0x0001bde0:    e035        5.      B        0x1be4e ; am_hal_mspi_interrupt_service + 698
        0x0001bde2:    f0210103    !...    BIC      r1,r1,#3
        0x0001bde6:    f8c01100    ....    STR      r1,[r0,#0x100]
        0x0001bdea:    6b01        .k      LDR      r1,[r0,#0x30]
        0x0001bdec:    f0214180    !..A    BIC      r1,r1,#0x40000000
        0x0001bdf0:    6301        .c      STR      r1,[r0,#0x30]
        0x0001bdf2:    6b01        .k      LDR      r1,[r0,#0x30]
        0x0001bdf4:    f0414180    A..A    ORR      r1,r1,#0x40000000
        0x0001bdf8:    6301        .c      STR      r1,[r0,#0x30]
        0x0001bdfa:    f8d012ac    ....    LDR      r1,[r0,#0x2ac]
        0x0001bdfe:    f8c012ac    ....    STR      r1,[r0,#0x2ac]
        0x0001be02:    6838        8h      LDR      r0,[r7,#0]
        0x0001be04:    f7fdffd6    ....    BL       am_hal_cmdq_error_resume ; 0x19db4
        0x0001be08:    6a20         j      LDR      r0,[r4,#0x20]
        0x0001be0a:    b150        P.      CBZ      r0,0x1be22 ; am_hal_mspi_interrupt_service + 654
        0x0001be0c:    f8d40828    ..(.    LDR      r0,[r4,#0x828]
        0x0001be10:    f7fdffa4    ....    BL       am_hal_cmdq_enable ; 0x19d5c
        0x0001be14:    2800        .(      CMP      r0,#0
        0x0001be16:    bf1c        ..      ITT      NE
        0x0001be18:    b005        ..      ADDNE    sp,sp,#0x14
        0x0001be1a:    e8bd83f0    ....    POPNE    {r4-r9,pc}
        0x0001be1e:    6a20         j      LDR      r0,[r4,#0x20]
        0x0001be20:    b9a8        ..      CBNZ     r0,0x1be4e ; am_hal_mspi_interrupt_service + 698
        0x0001be22:    f8d40828    ..(.    LDR      r0,[r4,#0x828]
        0x0001be26:    f7fdff79    ..y.    BL       am_hal_cmdq_disable ; 0x19d1c
        0x0001be2a:    2800        .(      CMP      r0,#0
        0x0001be2c:    bf1c        ..      ITT      NE
        0x0001be2e:    b005        ..      ADDNE    sp,sp,#0x14
        0x0001be30:    e8bd83f0    ....    POPNE    {r4-r9,pc}
        0x0001be34:    6a20         j      LDR      r0,[r4,#0x20]
        0x0001be36:    b950        P.      CBNZ     r0,0x1be4e ; am_hal_mspi_interrupt_service + 698
        0x0001be38:    0328        (.      LSLS     r0,r5,#12
        0x0001be3a:    f1004080    ...@    ADD      r0,r0,#0x40000000
        0x0001be3e:    f50020c0    ...     ADD      r0,r0,#0x60000
        0x0001be42:    f8d01100    ....    LDR      r1,[r0,#0x100]
        0x0001be46:    f0210103    !...    BIC      r1,r1,#3
        0x0001be4a:    f8c01100    ....    STR      r1,[r0,#0x100]
        0x0001be4e:    b005        ..      ADD      sp,sp,#0x14
        0x0001be50:    2000        .       MOVS     r0,#0
        0x0001be52:    e8bd83f0    ....    POP      {r4-r9,pc}
    $d
        0x0001be56:    0000        ..      DCW    0
        0x0001be58:    00bebebe    ....    DCD    12500670
        0x0001be5c:    100030a0    .0..    DCD    268447904
    $t
    i.am_hal_mspi_interrupt_status_get
    am_hal_mspi_interrupt_status_get
        0x0001be60:    2800        .(      CMP      r0,#0
        0x0001be62:    bf1c        ..      ITT      NE
        0x0001be64:    6803        .h      LDRNE    r3,[r0,#0]
        0x0001be66:    f0137f80    ....    TSTNE    r3,#0x1000000
        0x0001be6a:    d005        ..      BEQ      0x1be78 ; am_hal_mspi_interrupt_status_get + 24
        0x0001be6c:    f8dfc034    ..4.    LDR      r12,[pc,#52] ; [0x1bea4] = 0xbebebe
        0x0001be70:    f023437f    #..C    BIC      r3,r3,#0xff000000
        0x0001be74:    4563        cE      CMP      r3,r12
        0x0001be76:    d001        ..      BEQ      0x1be7c ; am_hal_mspi_interrupt_status_get + 28
        0x0001be78:    2002        .       MOVS     r0,#2
        0x0001be7a:    4770        pG      BX       lr
        0x0001be7c:    6840        @h      LDR      r0,[r0,#4]
        0x0001be7e:    2a00        .*      CMP      r2,#0
        0x0001be80:    ea4f3000    O..0    LSL      r0,r0,#12
        0x0001be84:    f1004080    ...@    ADD      r0,r0,#0x40000000
        0x0001be88:    f50020c0    ...     ADD      r0,r0,#0x60000
        0x0001be8c:    bf1d        ..      ITTTE    NE
        0x0001be8e:    f8d02204    ..."    LDRNE    r2,[r0,#0x204]
        0x0001be92:    f8d00200    ....    LDRNE    r0,[r0,#0x200]
        0x0001be96:    4010        .@      ANDNE    r0,r0,r2
        0x0001be98:    f8d00204    ....    LDREQ    r0,[r0,#0x204]
        0x0001be9c:    6008        .`      STR      r0,[r1,#0]
        0x0001be9e:    2000        .       MOVS     r0,#0
        0x0001bea0:    4770        pG      BX       lr
    $d
        0x0001bea2:    0000        ..      DCW    0
        0x0001bea4:    00bebebe    ....    DCD    12500670
    $t
    i.am_hal_mspi_power_control
    am_hal_mspi_power_control
        0x0001bea8:    e92d43f8    -..C    PUSH     {r3-r9,lr}
        0x0001beac:    4617        .F      MOV      r7,r2
        0x0001beae:    1e04        ..      SUBS     r4,r0,#0
        0x0001beb0:    bf1c        ..      ITT      NE
        0x0001beb2:    6802        .h      LDRNE    r2,[r0,#0]
        0x0001beb4:    f0127f80    ....    TSTNE    r2,#0x1000000
        0x0001beb8:    d004        ..      BEQ      0x1bec4 ; am_hal_mspi_power_control + 28
        0x0001beba:    f022437f    "..C    BIC      r3,r2,#0xff000000
        0x0001bebe:    4afe        .J      LDR      r2,[pc,#1016] ; [0x1c2b8] = 0xbebebe
        0x0001bec0:    4293        .B      CMP      r3,r2
        0x0001bec2:    d002        ..      BEQ      0x1beca ; am_hal_mspi_power_control + 34
        0x0001bec4:    2002        .       MOVS     r0,#2
        0x0001bec6:    e8bd83f8    ....    POP      {r3-r9,pc}
        0x0001beca:    4dfc        .M      LDR      r5,[pc,#1008] ; [0x1c2bc] = 0x100001f8
        0x0001becc:    2601        .&      MOVS     r6,#1
        0x0001bece:    2900        .)      CMP      r1,#0
        0x0001bed0:    f000811f    ....    BEQ.W    0x1c112 ; am_hal_mspi_power_control + 618
        0x0001bed4:    2901        .)      CMP      r1,#1
        0x0001bed6:    bf1e        ..      ITTT     NE
        0x0001bed8:    2902        .)      CMPNE    r1,#2
        0x0001beda:    2006        .       MOVNE    r0,#6
        0x0001bedc:    e8bd83f8    ....    POPNE    {r3-r9,pc}
        0x0001bee0:    f8d41840    ..@.    LDR      r1,[r4,#0x840]
        0x0001bee4:    2900        .)      CMP      r1,#0
        0x0001bee6:    bf07        ..      ITTEE    EQ
        0x0001bee8:    6a21        !j      LDREQ    r1,[r4,#0x20]
        0x0001beea:    2900        .)      CMPEQ    r1,#0
        0x0001beec:    2003        .       MOVNE    r0,#3
        0x0001beee:    e8bd83f8    ....    POPNE    {r3-r9,pc}
        0x0001bef2:    2f00        ./      CMP      r7,#0
        0x0001bef4:    d07e        ~.      BEQ      0x1bff4 ; am_hal_mspi_power_control + 332
        0x0001bef6:    6861        ah      LDR      r1,[r4,#4]
        0x0001bef8:    0309        ..      LSLS     r1,r1,#12
        0x0001befa:    f1014180    ...A    ADD      r1,r1,#0x40000000
        0x0001befe:    f50121c0    ...!    ADD      r1,r1,#0x60000
        0x0001bf02:    f8d11080    ....    LDR      r1,[r1,#0x80]
        0x0001bf06:    f8c41864    ..d.    STR      r1,[r4,#0x864]
        0x0001bf0a:    6861        ah      LDR      r1,[r4,#4]
        0x0001bf0c:    0309        ..      LSLS     r1,r1,#12
        0x0001bf0e:    f1014180    ...A    ADD      r1,r1,#0x40000000
        0x0001bf12:    f50121c0    ...!    ADD      r1,r1,#0x60000
        0x0001bf16:    f8d11084    ....    LDR      r1,[r1,#0x84]
        0x0001bf1a:    f8c41868    ..h.    STR      r1,[r4,#0x868]
        0x0001bf1e:    6861        ah      LDR      r1,[r4,#4]
        0x0001bf20:    0309        ..      LSLS     r1,r1,#12
        0x0001bf22:    f1014180    ...A    ADD      r1,r1,#0x40000000
        0x0001bf26:    f50121c0    ...!    ADD      r1,r1,#0x60000
        0x0001bf2a:    f8d11088    ....    LDR      r1,[r1,#0x88]
        0x0001bf2e:    f8c4186c    ..l.    STR      r1,[r4,#0x86c]
        0x0001bf32:    6861        ah      LDR      r1,[r4,#4]
        0x0001bf34:    0309        ..      LSLS     r1,r1,#12
        0x0001bf36:    f1014180    ...A    ADD      r1,r1,#0x40000000
        0x0001bf3a:    f50121c0    ...!    ADD      r1,r1,#0x60000
        0x0001bf3e:    f8d11090    ....    LDR      r1,[r1,#0x90]
        0x0001bf42:    f8c41870    ..p.    STR      r1,[r4,#0x870]
        0x0001bf46:    6861        ah      LDR      r1,[r4,#4]
        0x0001bf48:    0309        ..      LSLS     r1,r1,#12
        0x0001bf4a:    f1014180    ...A    ADD      r1,r1,#0x40000000
        0x0001bf4e:    f50121c0    ...!    ADD      r1,r1,#0x60000
        0x0001bf52:    f8d11094    ....    LDR      r1,[r1,#0x94]
        0x0001bf56:    f8c41874    ..t.    STR      r1,[r4,#0x874]
        0x0001bf5a:    6861        ah      LDR      r1,[r4,#4]
        0x0001bf5c:    0309        ..      LSLS     r1,r1,#12
        0x0001bf5e:    f1014180    ...A    ADD      r1,r1,#0x40000000
        0x0001bf62:    f50121c0    ...!    ADD      r1,r1,#0x60000
        0x0001bf66:    f8d11098    ....    LDR      r1,[r1,#0x98]
        0x0001bf6a:    f8c41878    ..x.    STR      r1,[r4,#0x878]
        0x0001bf6e:    6861        ah      LDR      r1,[r4,#4]
        0x0001bf70:    0309        ..      LSLS     r1,r1,#12
        0x0001bf72:    f1014180    ...A    ADD      r1,r1,#0x40000000
        0x0001bf76:    f50121c0    ...!    ADD      r1,r1,#0x60000
        0x0001bf7a:    f8d1109c    ....    LDR      r1,[r1,#0x9c]
        0x0001bf7e:    f8c4187c    ..|.    STR      r1,[r4,#0x87c]
        0x0001bf82:    6861        ah      LDR      r1,[r4,#4]
        0x0001bf84:    0309        ..      LSLS     r1,r1,#12
        0x0001bf86:    f1014180    ...A    ADD      r1,r1,#0x40000000
        0x0001bf8a:    f50121c0    ...!    ADD      r1,r1,#0x60000
        0x0001bf8e:    f8d110a0    ....    LDR      r1,[r1,#0xa0]
        0x0001bf92:    f8c41880    ....    STR      r1,[r4,#0x880]
        0x0001bf96:    6861        ah      LDR      r1,[r4,#4]
        0x0001bf98:    0309        ..      LSLS     r1,r1,#12
        0x0001bf9a:    f1014180    ...A    ADD      r1,r1,#0x40000000
        0x0001bf9e:    f50121c0    ...!    ADD      r1,r1,#0x60000
        0x0001bfa2:    6b09        .k      LDR      r1,[r1,#0x30]
        0x0001bfa4:    f8c41884    ....    STR      r1,[r4,#0x884]
        0x0001bfa8:    6861        ah      LDR      r1,[r4,#4]
        0x0001bfaa:    0309        ..      LSLS     r1,r1,#12
        0x0001bfac:    f1014180    ...A    ADD      r1,r1,#0x40000000
        0x0001bfb0:    f50121c0    ...!    ADD      r1,r1,#0x60000
        0x0001bfb4:    6c49        Il      LDR      r1,[r1,#0x44]
        0x0001bfb6:    f8c4188c    ....    STR      r1,[r4,#0x88c]
        0x0001bfba:    6861        ah      LDR      r1,[r4,#4]
        0x0001bfbc:    0309        ..      LSLS     r1,r1,#12
        0x0001bfbe:    f1014180    ...A    ADD      r1,r1,#0x40000000
        0x0001bfc2:    f50121c0    ...!    ADD      r1,r1,#0x60000
        0x0001bfc6:    6c89        .l      LDR      r1,[r1,#0x48]
        0x0001bfc8:    f8c41890    ....    STR      r1,[r4,#0x890]
        0x0001bfcc:    6861        ah      LDR      r1,[r4,#4]
        0x0001bfce:    0309        ..      LSLS     r1,r1,#12
        0x0001bfd0:    f1014180    ...A    ADD      r1,r1,#0x40000000
        0x0001bfd4:    f50121c0    ...!    ADD      r1,r1,#0x60000
        0x0001bfd8:    6cc9        .l      LDR      r1,[r1,#0x4c]
        0x0001bfda:    f8c41894    ....    STR      r1,[r4,#0x894]
        0x0001bfde:    6861        ah      LDR      r1,[r4,#4]
        0x0001bfe0:    0309        ..      LSLS     r1,r1,#12
        0x0001bfe2:    f1014180    ...A    ADD      r1,r1,#0x40000000
        0x0001bfe6:    f50121c0    ...!    ADD      r1,r1,#0x60000
        0x0001bfea:    f8d112a0    ....    LDR      r1,[r1,#0x2a0]
        0x0001bfee:    f8c41898    ....    STR      r1,[r4,#0x898]
        0x0001bff2:    e000        ..      B        0x1bff6 ; am_hal_mspi_power_control + 334
        0x0001bff4:    e051        Q.      B        0x1c09a ; am_hal_mspi_power_control + 498
        0x0001bff6:    6861        ah      LDR      r1,[r4,#4]
        0x0001bff8:    0309        ..      LSLS     r1,r1,#12
        0x0001bffa:    f1014180    ...A    ADD      r1,r1,#0x40000000
        0x0001bffe:    f50121c0    ...!    ADD      r1,r1,#0x60000
        0x0001c002:    f8d112a8    ....    LDR      r1,[r1,#0x2a8]
        0x0001c006:    f8c4189c    ....    STR      r1,[r4,#0x89c]
        0x0001c00a:    6861        ah      LDR      r1,[r4,#4]
        0x0001c00c:    0309        ..      LSLS     r1,r1,#12
        0x0001c00e:    f1014180    ...A    ADD      r1,r1,#0x40000000
        0x0001c012:    f50121c0    ...!    ADD      r1,r1,#0x60000
        0x0001c016:    f8d112b8    ....    LDR      r1,[r1,#0x2b8]
        0x0001c01a:    f8c418a0    ....    STR      r1,[r4,#0x8a0]
        0x0001c01e:    6861        ah      LDR      r1,[r4,#4]
        0x0001c020:    0309        ..      LSLS     r1,r1,#12
        0x0001c022:    f1014180    ...A    ADD      r1,r1,#0x40000000
        0x0001c026:    f50121c0    ...!    ADD      r1,r1,#0x60000
        0x0001c02a:    f8d112c0    ....    LDR      r1,[r1,#0x2c0]
        0x0001c02e:    f8c418a4    ....    STR      r1,[r4,#0x8a4]
        0x0001c032:    6861        ah      LDR      r1,[r4,#4]
        0x0001c034:    0309        ..      LSLS     r1,r1,#12
        0x0001c036:    f1014180    ...A    ADD      r1,r1,#0x40000000
        0x0001c03a:    f50121c0    ...!    ADD      r1,r1,#0x60000
        0x0001c03e:    f8d112c4    ....    LDR      r1,[r1,#0x2c4]
        0x0001c042:    f8c418a8    ....    STR      r1,[r4,#0x8a8]
        0x0001c046:    6861        ah      LDR      r1,[r4,#4]
        0x0001c048:    0309        ..      LSLS     r1,r1,#12
        0x0001c04a:    f1014180    ...A    ADD      r1,r1,#0x40000000
        0x0001c04e:    f50121c0    ...!    ADD      r1,r1,#0x60000
        0x0001c052:    f8d11200    ....    LDR      r1,[r1,#0x200]
        0x0001c056:    f8c418ac    ....    STR      r1,[r4,#0x8ac]
        0x0001c05a:    6861        ah      LDR      r1,[r4,#4]
        0x0001c05c:    0309        ..      LSLS     r1,r1,#12
        0x0001c05e:    f1014180    ...A    ADD      r1,r1,#0x40000000
        0x0001c062:    f50121c0    ...!    ADD      r1,r1,#0x60000
        0x0001c066:    f8d11114    ....    LDR      r1,[r1,#0x114]
        0x0001c06a:    f8c418b0    ....    STR      r1,[r4,#0x8b0]
        0x0001c06e:    6861        ah      LDR      r1,[r4,#4]
        0x0001c070:    0309        ..      LSLS     r1,r1,#12
        0x0001c072:    f1014180    ...A    ADD      r1,r1,#0x40000000
        0x0001c076:    f50121c0    ...!    ADD      r1,r1,#0x60000
        0x0001c07a:    f8d11118    ....    LDR      r1,[r1,#0x118]
        0x0001c07e:    f8c418b4    ....    STR      r1,[r4,#0x8b4]
        0x0001c082:    6861        ah      LDR      r1,[r4,#4]
        0x0001c084:    0309        ..      LSLS     r1,r1,#12
        0x0001c086:    f1014180    ...A    ADD      r1,r1,#0x40000000
        0x0001c08a:    f50121c0    ...!    ADD      r1,r1,#0x60000
        0x0001c08e:    f8d112a0    ....    LDR      r1,[r1,#0x2a0]
        0x0001c092:    f8c41898    ....    STR      r1,[r4,#0x898]
        0x0001c096:    f8846860    ..`h    STRB     r6,[r4,#0x860]
        0x0001c09a:    6801        .h      LDR      r1,[r0,#0]
        0x0001c09c:    f0117f80    ....    TST      r1,#0x1000000
        0x0001c0a0:    d00f        ..      BEQ      0x1c0c2 ; am_hal_mspi_power_control + 538
        0x0001c0a2:    f021417f    !..A    BIC      r1,r1,#0xff000000
        0x0001c0a6:    4291        .B      CMP      r1,r2
        0x0001c0a8:    d10b        ..      BNE      0x1c0c2 ; am_hal_mspi_power_control + 538
        0x0001c0aa:    6860        `h      LDR      r0,[r4,#4]
        0x0001c0ac:    0300        ..      LSLS     r0,r0,#12
        0x0001c0ae:    f1004080    ...@    ADD      r0,r0,#0x40000000
        0x0001c0b2:    f50020c0    ...     ADD      r0,r0,#0x60000
        0x0001c0b6:    f8d01200    ....    LDR      r1,[r0,#0x200]
        0x0001c0ba:    f36f010c    o...    BFC      r1,#0,#13
        0x0001c0be:    f8c01200    ....    STR      r1,[r0,#0x200]
        0x0001c0c2:    6860        `h      LDR      r0,[r4,#4]
        0x0001c0c4:    0300        ..      LSLS     r0,r0,#12
        0x0001c0c6:    f1004080    ...@    ADD      r0,r0,#0x40000000
        0x0001c0ca:    f50020c0    ...     ADD      r0,r0,#0x60000
        0x0001c0ce:    f8d00090    ....    LDR      r0,[r0,#0x90]
        0x0001c0d2:    f0100f01    ....    TST      r0,#1
        0x0001c0d6:    d003        ..      BEQ      0x1c0e0 ; am_hal_mspi_power_control + 568
        0x0001c0d8:    2100        .!      MOVS     r1,#0
        0x0001c0da:    2002        .       MOVS     r0,#2
        0x0001c0dc:    f7fef894    ....    BL       am_hal_daxi_control ; 0x1a208
        0x0001c0e0:    7920         y      LDRB     r0,[r4,#4]
        0x0001c0e2:    300e        .0      ADDS     r0,r0,#0xe
        0x0001c0e4:    b2c0        ..      UXTB     r0,r0
        0x0001c0e6:    f000fe27    ..'.    BL       am_hal_pwrctrl_periph_disable ; 0x1cd38
        0x0001c0ea:    7924        $y      LDRB     r4,[r4,#4]
        0x0001c0ec:    2700        .'      MOVS     r7,#0
        0x0001c0ee:    f7fcf933    ..3.    BL       am_hal_interrupt_master_disable ; 0x18358
        0x0001c0f2:    9000        ..      STR      r0,[sp,#0]
        0x0001c0f4:    6829        )h      LDR      r1,[r5,#0]
        0x0001c0f6:    fa06f004    ....    LSL      r0,r6,r4
        0x0001c0fa:    ea210000    !...    BIC      r0,r1,r0
        0x0001c0fe:    fa07f104    ....    LSL      r1,r7,r4
        0x0001c102:    4308        .C      ORRS     r0,r0,r1
        0x0001c104:    6028        (`      STR      r0,[r5,#0]
        0x0001c106:    9800        ..      LDR      r0,[sp,#0]
        0x0001c108:    f7fcf92a    ..*.    BL       am_hal_interrupt_master_set ; 0x18360
        0x0001c10c:    2000        .       MOVS     r0,#0
        0x0001c10e:    e8bd83f8    ....    POP      {r3-r9,pc}
        0x0001c112:    b137        7.      CBZ      r7,0x1c122 ; am_hal_mspi_power_control + 634
        0x0001c114:    f8940860    ..`.    LDRB     r0,[r4,#0x860]
        0x0001c118:    2800        .(      CMP      r0,#0
        0x0001c11a:    bf04        ..      ITT      EQ
        0x0001c11c:    2007        .       MOVEQ    r0,#7
        0x0001c11e:    e8bd83f8    ....    POPEQ    {r3-r9,pc}
        0x0001c122:    7920         y      LDRB     r0,[r4,#4]
        0x0001c124:    300e        .0      ADDS     r0,r0,#0xe
        0x0001c126:    b2c0        ..      UXTB     r0,r0
        0x0001c128:    f000fe3e    ..>.    BL       am_hal_pwrctrl_periph_enable ; 0x1cda8
        0x0001c12c:    2f00        ./      CMP      r7,#0
        0x0001c12e:    d0ed        ..      BEQ      0x1c10c ; am_hal_mspi_power_control + 612
        0x0001c130:    6861        ah      LDR      r1,[r4,#4]
        0x0001c132:    f8d40864    ..d.    LDR      r0,[r4,#0x864]
        0x0001c136:    0309        ..      LSLS     r1,r1,#12
        0x0001c138:    f1014180    ...A    ADD      r1,r1,#0x40000000
        0x0001c13c:    f50121c0    ...!    ADD      r1,r1,#0x60000
        0x0001c140:    f8c10080    ....    STR      r0,[r1,#0x80]
        0x0001c144:    6861        ah      LDR      r1,[r4,#4]
        0x0001c146:    f8d40868    ..h.    LDR      r0,[r4,#0x868]
        0x0001c14a:    0309        ..      LSLS     r1,r1,#12
        0x0001c14c:    f1014180    ...A    ADD      r1,r1,#0x40000000
        0x0001c150:    f50121c0    ...!    ADD      r1,r1,#0x60000
        0x0001c154:    f8c10084    ....    STR      r0,[r1,#0x84]
        0x0001c158:    6861        ah      LDR      r1,[r4,#4]
        0x0001c15a:    f8d4086c    ..l.    LDR      r0,[r4,#0x86c]
        0x0001c15e:    0309        ..      LSLS     r1,r1,#12
        0x0001c160:    f1014180    ...A    ADD      r1,r1,#0x40000000
        0x0001c164:    f50121c0    ...!    ADD      r1,r1,#0x60000
        0x0001c168:    f8c10088    ....    STR      r0,[r1,#0x88]
        0x0001c16c:    6861        ah      LDR      r1,[r4,#4]
        0x0001c16e:    f8d40870    ..p.    LDR      r0,[r4,#0x870]
        0x0001c172:    0309        ..      LSLS     r1,r1,#12
        0x0001c174:    f1014180    ...A    ADD      r1,r1,#0x40000000
        0x0001c178:    f50121c0    ...!    ADD      r1,r1,#0x60000
        0x0001c17c:    f8c10090    ....    STR      r0,[r1,#0x90]
        0x0001c180:    6861        ah      LDR      r1,[r4,#4]
        0x0001c182:    f8d40874    ..t.    LDR      r0,[r4,#0x874]
        0x0001c186:    0309        ..      LSLS     r1,r1,#12
        0x0001c188:    f1014180    ...A    ADD      r1,r1,#0x40000000
        0x0001c18c:    f50121c0    ...!    ADD      r1,r1,#0x60000
        0x0001c190:    f8c10094    ....    STR      r0,[r1,#0x94]
        0x0001c194:    6861        ah      LDR      r1,[r4,#4]
        0x0001c196:    f8d40878    ..x.    LDR      r0,[r4,#0x878]
        0x0001c19a:    0309        ..      LSLS     r1,r1,#12
        0x0001c19c:    f1014180    ...A    ADD      r1,r1,#0x40000000
        0x0001c1a0:    f50121c0    ...!    ADD      r1,r1,#0x60000
        0x0001c1a4:    f8c10098    ....    STR      r0,[r1,#0x98]
        0x0001c1a8:    6861        ah      LDR      r1,[r4,#4]
        0x0001c1aa:    f8d4087c    ..|.    LDR      r0,[r4,#0x87c]
        0x0001c1ae:    0309        ..      LSLS     r1,r1,#12
        0x0001c1b0:    f1014180    ...A    ADD      r1,r1,#0x40000000
        0x0001c1b4:    f50121c0    ...!    ADD      r1,r1,#0x60000
        0x0001c1b8:    f8c1009c    ....    STR      r0,[r1,#0x9c]
        0x0001c1bc:    6861        ah      LDR      r1,[r4,#4]
        0x0001c1be:    f8d40880    ....    LDR      r0,[r4,#0x880]
        0x0001c1c2:    0309        ..      LSLS     r1,r1,#12
        0x0001c1c4:    f1014180    ...A    ADD      r1,r1,#0x40000000
        0x0001c1c8:    f50121c0    ...!    ADD      r1,r1,#0x60000
        0x0001c1cc:    f8c100a0    ....    STR      r0,[r1,#0xa0]
        0x0001c1d0:    6861        ah      LDR      r1,[r4,#4]
        0x0001c1d2:    f8d40884    ....    LDR      r0,[r4,#0x884]
        0x0001c1d6:    0309        ..      LSLS     r1,r1,#12
        0x0001c1d8:    f1014180    ...A    ADD      r1,r1,#0x40000000
        0x0001c1dc:    f50121c0    ...!    ADD      r1,r1,#0x60000
        0x0001c1e0:    6308        .c      STR      r0,[r1,#0x30]
        0x0001c1e2:    6861        ah      LDR      r1,[r4,#4]
        0x0001c1e4:    f8d4088c    ....    LDR      r0,[r4,#0x88c]
        0x0001c1e8:    0309        ..      LSLS     r1,r1,#12
        0x0001c1ea:    f1014180    ...A    ADD      r1,r1,#0x40000000
        0x0001c1ee:    f50121c0    ...!    ADD      r1,r1,#0x60000
        0x0001c1f2:    6448        Hd      STR      r0,[r1,#0x44]
        0x0001c1f4:    6861        ah      LDR      r1,[r4,#4]
        0x0001c1f6:    f8d40890    ....    LDR      r0,[r4,#0x890]
        0x0001c1fa:    0309        ..      LSLS     r1,r1,#12
        0x0001c1fc:    f1014180    ...A    ADD      r1,r1,#0x40000000
        0x0001c200:    f50121c0    ...!    ADD      r1,r1,#0x60000
        0x0001c204:    6488        .d      STR      r0,[r1,#0x48]
        0x0001c206:    6861        ah      LDR      r1,[r4,#4]
        0x0001c208:    f8d40894    ....    LDR      r0,[r4,#0x894]
        0x0001c20c:    0309        ..      LSLS     r1,r1,#12
        0x0001c20e:    f1014180    ...A    ADD      r1,r1,#0x40000000
        0x0001c212:    f50121c0    ...!    ADD      r1,r1,#0x60000
        0x0001c216:    64c8        .d      STR      r0,[r1,#0x4c]
        0x0001c218:    6861        ah      LDR      r1,[r4,#4]
        0x0001c21a:    f8d4089c    ....    LDR      r0,[r4,#0x89c]
        0x0001c21e:    0309        ..      LSLS     r1,r1,#12
        0x0001c220:    f1014180    ...A    ADD      r1,r1,#0x40000000
        0x0001c224:    f50121c0    ...!    ADD      r1,r1,#0x60000
        0x0001c228:    f8c102a8    ....    STR      r0,[r1,#0x2a8]
        0x0001c22c:    6861        ah      LDR      r1,[r4,#4]
        0x0001c22e:    f8d408a0    ....    LDR      r0,[r4,#0x8a0]
        0x0001c232:    0309        ..      LSLS     r1,r1,#12
        0x0001c234:    f1014180    ...A    ADD      r1,r1,#0x40000000
        0x0001c238:    f50121c0    ...!    ADD      r1,r1,#0x60000
        0x0001c23c:    f8c102b8    ....    STR      r0,[r1,#0x2b8]
        0x0001c240:    6861        ah      LDR      r1,[r4,#4]
        0x0001c242:    f8d408a4    ....    LDR      r0,[r4,#0x8a4]
        0x0001c246:    0309        ..      LSLS     r1,r1,#12
        0x0001c248:    f1014180    ...A    ADD      r1,r1,#0x40000000
        0x0001c24c:    f50121c0    ...!    ADD      r1,r1,#0x60000
        0x0001c250:    f8c102c0    ....    STR      r0,[r1,#0x2c0]
        0x0001c254:    6861        ah      LDR      r1,[r4,#4]
        0x0001c256:    f8d408a8    ....    LDR      r0,[r4,#0x8a8]
        0x0001c25a:    0309        ..      LSLS     r1,r1,#12
        0x0001c25c:    f1014180    ...A    ADD      r1,r1,#0x40000000
        0x0001c260:    f50121c0    ...!    ADD      r1,r1,#0x60000
        0x0001c264:    f8c102c4    ....    STR      r0,[r1,#0x2c4]
        0x0001c268:    6861        ah      LDR      r1,[r4,#4]
        0x0001c26a:    f8d408ac    ....    LDR      r0,[r4,#0x8ac]
        0x0001c26e:    0309        ..      LSLS     r1,r1,#12
        0x0001c270:    f1014180    ...A    ADD      r1,r1,#0x40000000
        0x0001c274:    f50121c0    ...!    ADD      r1,r1,#0x60000
        0x0001c278:    f8c10200    ....    STR      r0,[r1,#0x200]
        0x0001c27c:    6861        ah      LDR      r1,[r4,#4]
        0x0001c27e:    f8d408b0    ....    LDR      r0,[r4,#0x8b0]
        0x0001c282:    0309        ..      LSLS     r1,r1,#12
        0x0001c284:    f1014180    ...A    ADD      r1,r1,#0x40000000
        0x0001c288:    f50121c0    ...!    ADD      r1,r1,#0x60000
        0x0001c28c:    f8c10114    ....    STR      r0,[r1,#0x114]
        0x0001c290:    6861        ah      LDR      r1,[r4,#4]
        0x0001c292:    f8d408b4    ....    LDR      r0,[r4,#0x8b4]
        0x0001c296:    0309        ..      LSLS     r1,r1,#12
        0x0001c298:    f1014180    ...A    ADD      r1,r1,#0x40000000
        0x0001c29c:    f50121c0    ...!    ADD      r1,r1,#0x60000
        0x0001c2a0:    f8c10118    ....    STR      r0,[r1,#0x118]
        0x0001c2a4:    6861        ah      LDR      r1,[r4,#4]
        0x0001c2a6:    f8d40898    ....    LDR      r0,[r4,#0x898]
        0x0001c2aa:    0309        ..      LSLS     r1,r1,#12
        0x0001c2ac:    f1014180    ...A    ADD      r1,r1,#0x40000000
        0x0001c2b0:    f50121c0    ...!    ADD      r1,r1,#0x60000
        0x0001c2b4:    e004        ..      B        0x1c2c0 ; am_hal_mspi_power_control + 1048
    $d
        0x0001c2b6:    0000        ..      DCW    0
        0x0001c2b8:    00bebebe    ....    DCD    12500670
        0x0001c2bc:    100001f8    ....    DCD    268435960
    $t
        0x0001c2c0:    f8c102a0    ....    STR      r0,[r1,#0x2a0]
        0x0001c2c4:    f8940870    ..p.    LDRB     r0,[r4,#0x870]
        0x0001c2c8:    7927        'y      LDRB     r7,[r4,#4]
        0x0001c2ca:    f0000801    ....    AND      r8,r0,#1
        0x0001c2ce:    f7fcf843    ..C.    BL       am_hal_interrupt_master_disable ; 0x18358
        0x0001c2d2:    9000        ..      STR      r0,[sp,#0]
        0x0001c2d4:    6829        )h      LDR      r1,[r5,#0]
        0x0001c2d6:    fa06f007    ....    LSL      r0,r6,r7
        0x0001c2da:    ea210000    !...    BIC      r0,r1,r0
        0x0001c2de:    fa08f107    ....    LSL      r1,r8,r7
        0x0001c2e2:    4308        .C      ORRS     r0,r0,r1
        0x0001c2e4:    6028        (`      STR      r0,[r5,#0]
        0x0001c2e6:    9800        ..      LDR      r0,[sp,#0]
        0x0001c2e8:    f7fcf83a    ..:.    BL       am_hal_interrupt_master_set ; 0x18360
        0x0001c2ec:    2000        .       MOVS     r0,#0
        0x0001c2ee:    f8840860    ..`.    STRB     r0,[r4,#0x860]
        0x0001c2f2:    e70b        ..      B        0x1c10c ; am_hal_mspi_power_control + 612
    i.am_hal_pwrctrl_control
    am_hal_pwrctrl_control
        0x0001c2f4:    e92d4ff0    -..O    PUSH     {r4-r11,lr}
        0x0001c2f8:    b08f        ..      SUB      sp,sp,#0x3c
        0x0001c2fa:    f04f0800    O...    MOV      r8,#0
        0x0001c2fe:    46c1        .F      MOV      r9,r8
        0x0001c300:    f8cd8018    ....    STR      r8,[sp,#0x18]
        0x0001c304:    2601        .&      MOVS     r6,#1
        0x0001c306:    4ffe        .O      LDR      r7,[pc,#1016] ; [0x1c700] = 0x40021000
        0x0001c308:    4cfe        .L      LDR      r4,[pc,#1016] ; [0x1c704] = 0x40020000
        0x0001c30a:    f8cd8020    .. .    STR      r8,[sp,#0x20]
        0x0001c30e:    b178        x.      CBZ      r0,0x1c330 ; am_hal_pwrctrl_control + 60
        0x0001c310:    2801        .(      CMP      r0,#1
        0x0001c312:    f00081c8    ....    BEQ.W    0x1c6a6 ; am_hal_pwrctrl_control + 946
        0x0001c316:    2802        .(      CMP      r0,#2
        0x0001c318:    f000820e    ....    BEQ.W    0x1c738 ; am_hal_pwrctrl_control + 1092
        0x0001c31c:    2803        .(      CMP      r0,#3
        0x0001c31e:    bf0c        ..      ITE      EQ
        0x0001c320:    f8c79004    ....    STREQ    r9,[r7,#4]
        0x0001c324:    f04f0806    O...    MOVNE    r8,#6
        0x0001c328:    4640        @F      MOV      r0,r8
        0x0001c32a:    b00f        ..      ADD      sp,sp,#0x3c
        0x0001c32c:    e8bd8ff0    ....    POP      {r4-r11,pc}
        0x0001c330:    f8d40378    ..x.    LDR      r0,[r4,#0x378]
        0x0001c334:    f02050f8     ..P    BIC      r0,r0,#0x1f000000
        0x0001c338:    f8c40378    ..x.    STR      r0,[r4,#0x378]
        0x0001c33c:    f8d40358    ..X.    LDR      r0,[r4,#0x358]
        0x0001c340:    f42000f8     ...    BIC      r0,r0,#0x7c0000
        0x0001c344:    f8c40358    ..X.    STR      r0,[r4,#0x358]
        0x0001c348:    f8d40344    ..D.    LDR      r0,[r4,#0x344]
        0x0001c34c:    f0206070     .p`    BIC      r0,r0,#0xf000000
        0x0001c350:    f1006020    .. `    ADD      r0,r0,#0xa000000
        0x0001c354:    f8c40344    ..D.    STR      r0,[r4,#0x344]
        0x0001c358:    f8d40344    ..D.    LDR      r0,[r4,#0x344]
        0x0001c35c:    f42040f0     ..@    BIC      r0,r0,#0x7800
        0x0001c360:    f50040a0    ...@    ADD      r0,r0,#0x5000
        0x0001c364:    f8c40344    ..D.    STR      r0,[r4,#0x344]
        0x0001c368:    f8d40358    ..X.    LDR      r0,[r4,#0x358]
        0x0001c36c:    f44050f0    @..P    ORR      r0,r0,#0x1e00
        0x0001c370:    f8c40358    ..X.    STR      r0,[r4,#0x358]
        0x0001c374:    f8d40354    ..T.    LDR      r0,[r4,#0x354]
        0x0001c378:    f44010f0    @...    ORR      r0,r0,#0x1e0000
        0x0001c37c:    f8c40354    ..T.    STR      r0,[r4,#0x354]
        0x0001c380:    f8d40360    ..`.    LDR      r0,[r4,#0x360]
        0x0001c384:    f0407070    @.pp    ORR      r0,r0,#0x3c00000
        0x0001c388:    f8c40360    ..`.    STR      r0,[r4,#0x360]
        0x0001c38c:    f8d40360    ..`.    LDR      r0,[r4,#0x360]
        0x0001c390:    f44010f0    @...    ORR      r0,r0,#0x1e0000
        0x0001c394:    f8c40360    ..`.    STR      r0,[r4,#0x360]
        0x0001c398:    f8d4036c    ..l.    LDR      r0,[r4,#0x36c]
        0x0001c39c:    0e81        ..      LSRS     r1,r0,#26
        0x0001c39e:    f8d40370    ..p.    LDR      r0,[r4,#0x370]
        0x0001c3a2:    f361609f    a..`    BFI      r0,r1,#26,#6
        0x0001c3a6:    f8c40370    ..p.    STR      r0,[r4,#0x370]
        0x0001c3aa:    f8d40380    ....    LDR      r0,[r4,#0x380]
        0x0001c3ae:    f0404000    @..@    ORR      r0,r0,#0x80000000
        0x0001c3b2:    f8c40380    ....    STR      r0,[r4,#0x380]
        0x0001c3b6:    f8d40380    ....    LDR      r0,[r4,#0x380]
        0x0001c3ba:    f0404080    @..@    ORR      r0,r0,#0x40000000
        0x0001c3be:    f8c40380    ....    STR      r0,[r4,#0x380]
        0x0001c3c2:    f8d40370    ..p.    LDR      r0,[r4,#0x370]
        0x0001c3c6:    4dd0        .M      LDR      r5,[pc,#832] ; [0x1c708] = 0x10000200
        0x0001c3c8:    f3c05005    ...P    UBFX     r0,r0,#20,#6
        0x0001c3cc:    6168        ha      STR      r0,[r5,#0x14]
        0x0001c3ce:    f8d40370    ..p.    LDR      r0,[r4,#0x370]
        0x0001c3d2:    f020707c     .|p    BIC      r0,r0,#0x3f00000
        0x0001c3d6:    f8c40370    ..p.    STR      r0,[r4,#0x370]
        0x0001c3da:    2007        .       MOVS     r0,#7
        0x0001c3dc:    f8c4033c    ..<.    STR      r0,[r4,#0x33c]
        0x0001c3e0:    f8d40340    ..@.    LDR      r0,[r4,#0x340]
        0x0001c3e4:    f0207070     .pp    BIC      r0,r0,#0x3c00000
        0x0001c3e8:    f8c40340    ..@.    STR      r0,[r4,#0x340]
        0x0001c3ec:    f8d40340    ..@.    LDR      r0,[r4,#0x340]
        0x0001c3f0:    f42060f8     ..`    BIC      r0,r0,#0x7c0
        0x0001c3f4:    3040        @0      ADDS     r0,r0,#0x40
        0x0001c3f6:    f8c40340    ..@.    STR      r0,[r4,#0x340]
        0x0001c3fa:    6868        hh      LDR      r0,[r5,#4]
        0x0001c3fc:    f1b03fff    ...?    CMP      r0,#0xffffffff
        0x0001c400:    d10d        ..      BNE      0x1c41e ; am_hal_pwrctrl_control + 298
        0x0001c402:    2201        ."      MOVS     r2,#1
        0x0001c404:    1d2b        +.      ADDS     r3,r5,#4
        0x0001c406:    f24041c4    @..A    MOV      r1,#0x4c4
        0x0001c40a:    4610        .F      MOV      r0,r2
        0x0001c40c:    f7fef950    ..P.    BL       am_hal_mram_info_read ; 0x1a6b0
        0x0001c410:    b918        ..      CBNZ     r0,0x1c41a ; am_hal_pwrctrl_control + 294
        0x0001c412:    6868        hh      LDR      r0,[r5,#4]
        0x0001c414:    f1b03fff    ...?    CMP      r0,#0xffffffff
        0x0001c418:    d101        ..      BNE      0x1c41e ; am_hal_pwrctrl_control + 298
        0x0001c41a:    f8c59004    ....    STR      r9,[r5,#4]
        0x0001c41e:    6868        hh      LDR      r0,[r5,#4]
        0x0001c420:    2806        .(      CMP      r0,#6
        0x0001c422:    bf24        $.      ITT      CS
        0x0001c424:    68e8        .h      LDRCS    r0,[r5,#0xc]
        0x0001c426:    f1b03fff    ...?    CMPCS    r0,#0xffffffff
        0x0001c42a:    d124        $.      BNE      0x1c476 ; am_hal_pwrctrl_control + 386
        0x0001c42c:    7868        hx      LDRB     r0,[r5,#1]
        0x0001c42e:    2800        .(      CMP      r0,#0
        0x0001c430:    bf08        ..      IT       EQ
        0x0001c432:    706e        np      STRBEQ   r6,[r5,#1]
        0x0001c434:    6c60        `l      LDR      r0,[r4,#0x44]
        0x0001c436:    f3c010c6    ....    UBFX     r0,r0,#7,#7
        0x0001c43a:    60e8        .`      STR      r0,[r5,#0xc]
        0x0001c43c:    f8d41378    ..x.    LDR      r1,[r4,#0x378]
        0x0001c440:    f0414100    A..A    ORR      r1,r1,#0x80000000
        0x0001c444:    f8c41378    ..x.    STR      r1,[r4,#0x378]
        0x0001c448:    2869        i(      CMP      r0,#0x69
        0x0001c44a:    bf94        ..      ITE      LS
        0x0001c44c:    f1000616    ....    ADDLS    r6,r0,#0x16
        0x0001c450:    267f        .&      MOVHI    r6,#0x7f
        0x0001c452:    6c60        `l      LDR      r0,[r4,#0x44]
        0x0001c454:    f3c010c6    ....    UBFX     r0,r0,#7,#7
        0x0001c458:    42b0        .B      CMP      r0,r6
        0x0001c45a:    d00c        ..      BEQ      0x1c476 ; am_hal_pwrctrl_control + 386
        0x0001c45c:    f7fbff7c    ..|.    BL       am_hal_interrupt_master_disable ; 0x18358
        0x0001c460:    9001        ..      STR      r0,[sp,#4]
        0x0001c462:    6c60        `l      LDR      r0,[r4,#0x44]
        0x0001c464:    f36610cd    f...    BFI      r0,r6,#7,#7
        0x0001c468:    6460        `d      STR      r0,[r4,#0x44]
        0x0001c46a:    2014        .       MOVS     r0,#0x14
        0x0001c46c:    f7fef82e    ....    BL       am_hal_delay_us ; 0x1a4cc
        0x0001c470:    9801        ..      LDR      r0,[sp,#4]
        0x0001c472:    f7fbff75    ..u.    BL       am_hal_interrupt_master_set ; 0x18360
        0x0001c476:    2100        .!      MOVS     r1,#0
        0x0001c478:    460a        .F      MOV      r2,r1
        0x0001c47a:    2001        .       MOVS     r0,#1
        0x0001c47c:    f7fcf974    ..t.    BL       VDDF_simobuck_boost ; 0x18768
        0x0001c480:    f8d70100    ....    LDR      r0,[r7,#0x100]
        0x0001c484:    f0400001    @...    ORR      r0,r0,#1
        0x0001c488:    f8c70100    ....    STR      r0,[r7,#0x100]
        0x0001c48c:    f2413088    A..0    MOV      r0,#0x1388
        0x0001c490:    f7fef81c    ....    BL       am_hal_delay_us ; 0x1a4cc
        0x0001c494:    2100        .!      MOVS     r1,#0
        0x0001c496:    a806        ..      ADD      r0,sp,#0x18
        0x0001c498:    f001faa8    ....    BL       buck_interval_check ; 0x1d9ec
        0x0001c49c:    2800        .(      CMP      r0,#0
        0x0001c49e:    f47faf43    ..C.    BNE      0x1c328 ; am_hal_pwrctrl_control + 52
        0x0001c4a2:    2101        .!      MOVS     r1,#1
        0x0001c4a4:    a808        ..      ADD      r0,sp,#0x20
        0x0001c4a6:    f001faa1    ....    BL       buck_interval_check ; 0x1d9ec
        0x0001c4aa:    2800        .(      CMP      r0,#0
        0x0001c4ac:    f47faf3c    ..<.    BNE      0x1c328 ; am_hal_pwrctrl_control + 52
        0x0001c4b0:    f8d40080    ....    LDR      r0,[r4,#0x80]
        0x0001c4b4:    f4205070     .pP    BIC      r0,r0,#0x3c00
        0x0001c4b8:    f5005080    ...P    ADD      r0,r0,#0x1000
        0x0001c4bc:    f8c40080    ....    STR      r0,[r4,#0x80]
        0x0001c4c0:    6e20         n      LDR      r0,[r4,#0x60]
        0x0001c4c2:    f0200010     ...    BIC      r0,r0,#0x10
        0x0001c4c6:    6620         f      STR      r0,[r4,#0x60]
        0x0001c4c8:    6e20         n      LDR      r0,[r4,#0x60]
        0x0001c4ca:    f040000e    @...    ORR      r0,r0,#0xe
        0x0001c4ce:    6620         f      STR      r0,[r4,#0x60]
        0x0001c4d0:    6e20         n      LDR      r0,[r4,#0x60]
        0x0001c4d2:    f0400001    @...    ORR      r0,r0,#1
        0x0001c4d6:    6620         f      STR      r0,[r4,#0x60]
        0x0001c4d8:    6e20         n      LDR      r0,[r4,#0x60]
        0x0001c4da:    f4207000     ..p    BIC      r0,r0,#0x200
        0x0001c4de:    6620         f      STR      r0,[r4,#0x60]
        0x0001c4e0:    6e20         n      LDR      r0,[r4,#0x60]
        0x0001c4e2:    f44070e0    @..p    ORR      r0,r0,#0x1c0
        0x0001c4e6:    6620         f      STR      r0,[r4,#0x60]
        0x0001c4e8:    6e20         n      LDR      r0,[r4,#0x60]
        0x0001c4ea:    f0400020    @. .    ORR      r0,r0,#0x20
        0x0001c4ee:    6620         f      STR      r0,[r4,#0x60]
        0x0001c4f0:    f64010c4    @...    MOV      r0,#0x9c4
        0x0001c4f4:    f7fdffea    ....    BL       am_hal_delay_us ; 0x1a4cc
        0x0001c4f8:    a809        ..      ADD      r0,sp,#0x24
        0x0001c4fa:    f8dda018    ....    LDR      r10,[sp,#0x18]
        0x0001c4fe:    f000fe37    ..7.    BL       am_hal_timer_default_config_set ; 0x1d170
        0x0001c502:    201c        .       MOVS     r0,#0x1c
        0x0001c504:    f88d0024    ..$.    STRB     r0,[sp,#0x24]
        0x0001c508:    2702        .'      MOVS     r7,#2
        0x0001c50a:    f88d7025    ..%p    STRB     r7,[sp,#0x25]
        0x0001c50e:    a909        ..      ADD      r1,sp,#0x24
        0x0001c510:    200d        .       MOVS     r0,#0xd
        0x0001c512:    f002fbaf    ....    BL       timer_config_b1 ; 0x1ec74
        0x0001c516:    200d        .       MOVS     r0,#0xd
        0x0001c518:    f000ff02    ....    BL       am_hal_timer_start ; 0x1d320
        0x0001c51c:    200d        .       MOVS     r0,#0xd
        0x0001c51e:    f000fe77    ..w.    BL       am_hal_timer_read ; 0x1d210
        0x0001c522:    4681        .F      MOV      r9,r0
        0x0001c524:    4650        PF      MOV      r0,r10
        0x0001c526:    f7fdffd1    ....    BL       am_hal_delay_us ; 0x1a4cc
        0x0001c52a:    200d        .       MOVS     r0,#0xd
        0x0001c52c:    f000fe70    ..p.    BL       am_hal_timer_read ; 0x1d210
        0x0001c530:    4601        .F      MOV      r1,r0
        0x0001c532:    4589        .E      CMP      r9,r1
        0x0001c534:    bf14        ..      ITE      NE
        0x0001c536:    2601        .&      MOVNE    r6,#1
        0x0001c538:    f04f36ff    O..6    MOVEQ    r6,#0xffffffff
        0x0001c53c:    f8d40080    ....    LDR      r0,[r4,#0x80]
        0x0001c540:    f3c00009    ....    UBFX     r0,r0,#0,#10
        0x0001c544:    d00e        ..      BEQ      0x1c564 ; am_hal_pwrctrl_control + 624
        0x0001c546:    bf00        ..      NOP      
        0x0001c548:    f24032ff    @..2    MOV      r2,#0x3ff
        0x0001c54c:    4290        .B      CMP      r0,r2
        0x0001c54e:    d030        0.      BEQ      0x1c5b2 ; am_hal_pwrctrl_control + 702
        0x0001c550:    4589        .E      CMP      r9,r1
        0x0001c552:    d02a        *.      BEQ      0x1c5aa ; am_hal_pwrctrl_control + 694
        0x0001c554:    1b92        ..      SUBS     r2,r2,r6
        0x0001c556:    4282        .B      CMP      r2,r0
        0x0001c558:    bf2c        ,.      ITE      CS
        0x0001c55a:    4430        0D      ADDCS    r0,r6
        0x0001c55c:    f24030ff    @..0    MOVCC    r0,#0x3ff
        0x0001c560:    2e00        ..      CMP      r6,#0
        0x0001c562:    da09        ..      BGE      0x1c578 ; am_hal_pwrctrl_control + 644
        0x0001c564:    2801        .(      CMP      r0,#1
        0x0001c566:    d920         .      BLS      0x1c5aa ; am_hal_pwrctrl_control + 694
        0x0001c568:    4589        .E      CMP      r9,r1
        0x0001c56a:    d11e        ..      BNE      0x1c5aa ; am_hal_pwrctrl_control + 694
        0x0001c56c:    f1c60101    ....    RSB      r1,r6,#1
        0x0001c570:    4281        .B      CMP      r1,r0
        0x0001c572:    bf94        ..      ITE      LS
        0x0001c574:    4430        0D      ADDLS    r0,r6
        0x0001c576:    2001        .       MOVHI    r0,#1
        0x0001c578:    b1be        ..      CBZ      r6,0x1c5aa ; am_hal_pwrctrl_control + 694
        0x0001c57a:    f8d41080    ....    LDR      r1,[r4,#0x80]
        0x0001c57e:    f3600109    `...    BFI      r1,r0,#0,#10
        0x0001c582:    f8c41080    ....    STR      r1,[r4,#0x80]
        0x0001c586:    200d        .       MOVS     r0,#0xd
        0x0001c588:    f000fe42    ..B.    BL       am_hal_timer_read ; 0x1d210
        0x0001c58c:    4681        .F      MOV      r9,r0
        0x0001c58e:    4650        PF      MOV      r0,r10
        0x0001c590:    f7fdff9c    ....    BL       am_hal_delay_us ; 0x1a4cc
        0x0001c594:    200d        .       MOVS     r0,#0xd
        0x0001c596:    f000fe3b    ..;.    BL       am_hal_timer_read ; 0x1d210
        0x0001c59a:    4601        .F      MOV      r1,r0
        0x0001c59c:    f8d40080    ....    LDR      r0,[r4,#0x80]
        0x0001c5a0:    2e00        ..      CMP      r6,#0
        0x0001c5a2:    f3c00009    ....    UBFX     r0,r0,#0,#10
        0x0001c5a6:    dddb        ..      BLE      0x1c560 ; am_hal_pwrctrl_control + 620
        0x0001c5a8:    e7ce        ..      B        0x1c548 ; am_hal_pwrctrl_control + 596
        0x0001c5aa:    280d        .(      CMP      r0,#0xd
        0x0001c5ac:    bf98        ..      IT       LS
        0x0001c5ae:    2001        .       MOVLS    r0,#1
        0x0001c5b0:    d900        ..      BLS      0x1c5b4 ; am_hal_pwrctrl_control + 704
        0x0001c5b2:    380c        .8      SUBS     r0,r0,#0xc
        0x0001c5b4:    f8d41080    ....    LDR      r1,[r4,#0x80]
        0x0001c5b8:    f3600109    `...    BFI      r1,r0,#0,#10
        0x0001c5bc:    f8c41080    ....    STR      r1,[r4,#0x80]
        0x0001c5c0:    200d        .       MOVS     r0,#0xd
        0x0001c5c2:    f000fda9    ....    BL       am_hal_timer_clear_stop ; 0x1d118
        0x0001c5c6:    200d        .       MOVS     r0,#0xd
        0x0001c5c8:    f000fecc    ....    BL       am_hal_timer_stop ; 0x1d364
        0x0001c5cc:    200d        .       MOVS     r0,#0xd
        0x0001c5ce:    f000fe31    ..1.    BL       am_hal_timer_reset_config ; 0x1d234
        0x0001c5d2:    a809        ..      ADD      r0,sp,#0x24
        0x0001c5d4:    f8ddb020    .. .    LDR      r11,[sp,#0x20]
        0x0001c5d8:    f000fdca    ....    BL       am_hal_timer_default_config_set ; 0x1d170
        0x0001c5dc:    201d        .       MOVS     r0,#0x1d
        0x0001c5de:    f88d0024    ..$.    STRB     r0,[sp,#0x24]
        0x0001c5e2:    f88d7025    ..%p    STRB     r7,[sp,#0x25]
        0x0001c5e6:    a909        ..      ADD      r1,sp,#0x24
        0x0001c5e8:    200d        .       MOVS     r0,#0xd
        0x0001c5ea:    f002fb43    ..C.    BL       timer_config_b1 ; 0x1ec74
        0x0001c5ee:    200d        .       MOVS     r0,#0xd
        0x0001c5f0:    f000fe96    ....    BL       am_hal_timer_start ; 0x1d320
        0x0001c5f4:    200d        .       MOVS     r0,#0xd
        0x0001c5f6:    f000fe0b    ....    BL       am_hal_timer_read ; 0x1d210
        0x0001c5fa:    4607        .F      MOV      r7,r0
        0x0001c5fc:    4658        XF      MOV      r0,r11
        0x0001c5fe:    f7fdff65    ..e.    BL       am_hal_delay_us ; 0x1a4cc
        0x0001c602:    200d        .       MOVS     r0,#0xd
        0x0001c604:    f000fe04    ....    BL       am_hal_timer_read ; 0x1d210
        0x0001c608:    4601        .F      MOV      r1,r0
        0x0001c60a:    428f        .B      CMP      r7,r1
        0x0001c60c:    bf0c        ..      ITE      EQ
        0x0001c60e:    f04f36ff    O..6    MOVEQ    r6,#0xffffffff
        0x0001c612:    2601        .&      MOVNE    r6,#1
        0x0001c614:    f1c6093f    ..?.    RSB      r9,r6,#0x3f
        0x0001c618:    f1c60a01    ....    RSB      r10,r6,#1
        0x0001c61c:    f8d40088    ....    LDR      r0,[r4,#0x88]
        0x0001c620:    692a        *i      LDR      r2,[r5,#0x10]
        0x0001c622:    f000003f    ..?.    AND      r0,r0,#0x3f
        0x0001c626:    f1b23fff    ...?    CMP      r2,#0xffffffff
        0x0001c62a:    bf08        ..      IT       EQ
        0x0001c62c:    6128        (a      STREQ    r0,[r5,#0x10]
        0x0001c62e:    2e00        ..      CMP      r6,#0
        0x0001c630:    dd08        ..      BLE      0x1c644 ; am_hal_pwrctrl_control + 848
        0x0001c632:    283f        ?(      CMP      r0,#0x3f
        0x0001c634:    d026        &.      BEQ      0x1c684 ; am_hal_pwrctrl_control + 912
        0x0001c636:    428f        .B      CMP      r7,r1
        0x0001c638:    d020         .      BEQ      0x1c67c ; am_hal_pwrctrl_control + 904
        0x0001c63a:    4581        .E      CMP      r9,r0
        0x0001c63c:    bf38        8.      IT       CC
        0x0001c63e:    203f        ?       MOVCC    r0,#0x3f
        0x0001c640:    d209        ..      BCS      0x1c656 ; am_hal_pwrctrl_control + 866
        0x0001c642:    e009        ..      B        0x1c658 ; am_hal_pwrctrl_control + 868
        0x0001c644:    da08        ..      BGE      0x1c658 ; am_hal_pwrctrl_control + 868
        0x0001c646:    2801        .(      CMP      r0,#1
        0x0001c648:    d918        ..      BLS      0x1c67c ; am_hal_pwrctrl_control + 904
        0x0001c64a:    428f        .B      CMP      r7,r1
        0x0001c64c:    d116        ..      BNE      0x1c67c ; am_hal_pwrctrl_control + 904
        0x0001c64e:    4582        .E      CMP      r10,r0
        0x0001c650:    bf88        ..      IT       HI
        0x0001c652:    2001        .       MOVHI    r0,#1
        0x0001c654:    d800        ..      BHI      0x1c658 ; am_hal_pwrctrl_control + 868
        0x0001c656:    4430        0D      ADD      r0,r0,r6
        0x0001c658:    f8d41088    ....    LDR      r1,[r4,#0x88]
        0x0001c65c:    f3600105    `...    BFI      r1,r0,#0,#6
        0x0001c660:    f8c41088    ....    STR      r1,[r4,#0x88]
        0x0001c664:    200d        .       MOVS     r0,#0xd
        0x0001c666:    f000fdd3    ....    BL       am_hal_timer_read ; 0x1d210
        0x0001c66a:    4607        .F      MOV      r7,r0
        0x0001c66c:    4658        XF      MOV      r0,r11
        0x0001c66e:    f7fdff2d    ..-.    BL       am_hal_delay_us ; 0x1a4cc
        0x0001c672:    200d        .       MOVS     r0,#0xd
        0x0001c674:    f000fdcc    ....    BL       am_hal_timer_read ; 0x1d210
        0x0001c678:    4601        .F      MOV      r1,r0
        0x0001c67a:    e7cf        ..      B        0x1c61c ; am_hal_pwrctrl_control + 808
        0x0001c67c:    2804        .(      CMP      r0,#4
        0x0001c67e:    bf98        ..      IT       LS
        0x0001c680:    2001        .       MOVLS    r0,#1
        0x0001c682:    d900        ..      BLS      0x1c686 ; am_hal_pwrctrl_control + 914
        0x0001c684:    1ec0        ..      SUBS     r0,r0,#3
        0x0001c686:    f8d41088    ....    LDR      r1,[r4,#0x88]
        0x0001c68a:    f3600105    `...    BFI      r1,r0,#0,#6
        0x0001c68e:    f8c41088    ....    STR      r1,[r4,#0x88]
        0x0001c692:    200d        .       MOVS     r0,#0xd
        0x0001c694:    f000fd40    ..@.    BL       am_hal_timer_clear_stop ; 0x1d118
        0x0001c698:    200d        .       MOVS     r0,#0xd
        0x0001c69a:    f000fe63    ..c.    BL       am_hal_timer_stop ; 0x1d364
        0x0001c69e:    200d        .       MOVS     r0,#0xd
        0x0001c6a0:    f000fdc8    ....    BL       am_hal_timer_reset_config ; 0x1d234
        0x0001c6a4:    e640        @.      B        0x1c328 ; am_hal_pwrctrl_control + 52
        0x0001c6a6:    4819        .H      LDR      r0,[pc,#100] ; [0x1c70c] = 0x1f138
        0x0001c6a8:    e9d01052    ..R.    LDRD     r1,r0,[r0,#0x148]
        0x0001c6ac:    6809        .h      LDR      r1,[r1,#0]
        0x0001c6ae:    4008        .@      ANDS     r0,r0,r1
        0x0001c6b0:    bf18        ..      IT       NE
        0x0001c6b2:    2001        .       MOVNE    r0,#1
        0x0001c6b4:    2800        .(      CMP      r0,#0
        0x0001c6b6:    f43fae37    ?.7.    BEQ      0x1c328 ; am_hal_pwrctrl_control + 52
        0x0001c6ba:    2301        .#      MOVS     r3,#1
        0x0001c6bc:    461a        .F      MOV      r2,r3
        0x0001c6be:    4914        .I      LDR      r1,[pc,#80] ; [0x1c710] = 0x400c0a7c
        0x0001c6c0:    2064        d       MOVS     r0,#0x64
        0x0001c6c2:    f7fdff19    ....    BL       am_hal_delay_us_status_change ; 0x1a4f8
        0x0001c6c6:    2800        .(      CMP      r0,#0
        0x0001c6c8:    bf1c        ..      ITT      NE
        0x0001c6ca:    b00f        ..      ADDNE    sp,sp,#0x3c
        0x0001c6cc:    e8bd8ff0    ....    POPNE    {r4-r11,pc}
        0x0001c6d0:    2301        .#      MOVS     r3,#1
        0x0001c6d2:    461a        .F      MOV      r2,r3
        0x0001c6d4:    490f        .I      LDR      r1,[pc,#60] ; [0x1c714] = 0x400c1f10
        0x0001c6d6:    2064        d       MOVS     r0,#0x64
        0x0001c6d8:    f7fdff0e    ....    BL       am_hal_delay_us_status_change ; 0x1a4f8
        0x0001c6dc:    2800        .(      CMP      r0,#0
        0x0001c6de:    bf1c        ..      ITT      NE
        0x0001c6e0:    b00f        ..      ADDNE    sp,sp,#0x3c
        0x0001c6e2:    e8bd8ff0    ....    POPNE    {r4-r11,pc}
        0x0001c6e6:    480c        .H      LDR      r0,[pc,#48] ; [0x1c718] = 0x400c0a80
        0x0001c6e8:    6801        .h      LDR      r1,[r0,#0]
        0x0001c6ea:    f0410101    A...    ORR      r1,r1,#1
        0x0001c6ee:    6001        .`      STR      r1,[r0,#0]
        0x0001c6f0:    200f        .       MOVS     r0,#0xf
        0x0001c6f2:    f7fdfeeb    ....    BL       am_hal_delay_us ; 0x1a4cc
        0x0001c6f6:    2310        .#      MOVS     r3,#0x10
        0x0001c6f8:    2200        ."      MOVS     r2,#0
        0x0001c6fa:    4804        .H      LDR      r0,[pc,#16] ; [0x1c70c] = 0x1f138
        0x0001c6fc:    0419        ..      LSLS     r1,r3,#16
        0x0001c6fe:    e00d        ..      B        0x1c71c ; am_hal_pwrctrl_control + 1064
    $d
        0x0001c700:    40021000    ...@    DCD    1073876992
        0x0001c704:    40020000    ...@    DCD    1073872896
        0x0001c708:    10000200    ....    DCD    268435968
        0x0001c70c:    0001f138    8...    DCD    127288
        0x0001c710:    400c0a7c    |..@    DCD    1074530940
        0x0001c714:    400c1f10    ...@    DCD    1074536208
        0x0001c718:    400c0a80    ...@    DCD    1074530944
    $t
        0x0001c71c:    e9d04552    ..RE    LDRD     r4,r5,[r0,#0x148]
        0x0001c720:    480a        .H      LDR      r0,[pc,#40] ; [0x1c74c] = 0x40021004
        0x0001c722:    f000fe63    ..c.    BL       am_hal_util_write_and_wait ; 0x1d3ec
        0x0001c726:    6820         h      LDR      r0,[r4,#0]
        0x0001c728:    4228        (B      TST      r0,r5
        0x0001c72a:    bf1e        ..      ITTT     NE
        0x0001c72c:    4630        0F      MOVNE    r0,r6
        0x0001c72e:    b00f        ..      ADDNE    sp,sp,#0x3c
        0x0001c730:    e8bd8ff0    ....    POPNE    {r4-r11,pc}
        0x0001c734:    e5f8        ..      B        0x1c328 ; am_hal_pwrctrl_control + 52
        0x0001c736:    bf00        ..      NOP      
        0x0001c738:    f8d40124    ..$.    LDR      r0,[r4,#0x124]
        0x0001c73c:    f02000fc     ...    BIC      r0,r0,#0xfc
        0x0001c740:    3080        .0      ADDS     r0,r0,#0x80
        0x0001c742:    f8c40124    ..$.    STR      r0,[r4,#0x124]
        0x0001c746:    f8c46120    .. a    STR      r6,[r4,#0x120]
        0x0001c74a:    e5ed        ..      B        0x1c328 ; am_hal_pwrctrl_control + 52
    $d
        0x0001c74c:    40021004    ...@    DCD    1073876996
    $t
    i.am_hal_pwrctrl_dsp_memory_config
    am_hal_pwrctrl_dsp_memory_config
        0x0001c750:    b5f8        ..      PUSH     {r3-r7,lr}
        0x0001c752:    460e        .F      MOV      r6,r1
        0x0001c754:    0001        ..      MOVS     r1,r0
        0x0001c756:    f04f0000    O...    MOV      r0,#0
        0x0001c75a:    4c51        QL      LDR      r4,[pc,#324] ; [0x1c8a0] = 0x40021000
        0x0001c75c:    4607        .F      MOV      r7,r0
        0x0001c75e:    f04f0501    O...    MOV      r5,#1
        0x0001c762:    d02f        /.      BEQ      0x1c7c4 ; am_hal_pwrctrl_dsp_memory_config + 116
        0x0001c764:    2901        .)      CMP      r1,#1
        0x0001c766:    bf18        ..      IT       NE
        0x0001c768:    bdf8        ..      POPNE    {r3-r7,pc}
        0x0001c76a:    7830        0x      LDRB     r0,[r6,#0]
        0x0001c76c:    2800        .(      CMP      r0,#0
        0x0001c76e:    6fa0        .o      LDR      r0,[r4,#0x78]
        0x0001c770:    bf14        ..      ITE      NE
        0x0001c772:    f0400002    @...    ORRNE    r0,r0,#2
        0x0001c776:    f0200002     ...    BICEQ    r0,r0,#2
        0x0001c77a:    67a0        .g      STR      r0,[r4,#0x78]
        0x0001c77c:    78b0        .x      LDRB     r0,[r6,#2]
        0x0001c77e:    2800        .(      CMP      r0,#0
        0x0001c780:    6fa0        .o      LDR      r0,[r4,#0x78]
        0x0001c782:    bf14        ..      ITE      NE
        0x0001c784:    f0400001    @...    ORRNE    r0,r0,#1
        0x0001c788:    f0200001     ...    BICEQ    r0,r0,#1
        0x0001c78c:    67a0        .g      STR      r0,[r4,#0x78]
        0x0001c78e:    9500        ..      STR      r5,[sp,#0]
        0x0001c790:    6fa3        .o      LDR      r3,[r4,#0x78]
        0x0001c792:    2203        ."      MOVS     r2,#3
        0x0001c794:    4943        CI      LDR      r1,[pc,#268] ; [0x1c8a4] = 0x4002107c
        0x0001c796:    2005        .       MOVS     r0,#5
        0x0001c798:    f7fdfeda    ....    BL       am_hal_delay_us_status_check ; 0x1a550
        0x0001c79c:    2800        .(      CMP      r0,#0
        0x0001c79e:    bf18        ..      IT       NE
        0x0001c7a0:    bdf8        ..      POPNE    {r3-r7,pc}
        0x0001c7a2:    6fe0        .o      LDR      r0,[r4,#0x7c]
        0x0001c7a4:    6fa1        .o      LDR      r1,[r4,#0x78]
        0x0001c7a6:    f3c00040    ..@.    UBFX     r0,r0,#1,#1
        0x0001c7aa:    f3c10140    ..@.    UBFX     r1,r1,#1,#1
        0x0001c7ae:    4288        .B      CMP      r0,r1
        0x0001c7b0:    d134        4.      BNE      0x1c81c ; am_hal_pwrctrl_dsp_memory_config + 204
        0x0001c7b2:    6fe0        .o      LDR      r0,[r4,#0x7c]
        0x0001c7b4:    6fa1        .o      LDR      r1,[r4,#0x78]
        0x0001c7b6:    f0000001    ....    AND      r0,r0,#1
        0x0001c7ba:    f0010101    ....    AND      r1,r1,#1
        0x0001c7be:    4288        .B      CMP      r0,r1
        0x0001c7c0:    d12c        ,.      BNE      0x1c81c ; am_hal_pwrctrl_dsp_memory_config + 204
        0x0001c7c2:    e04a        J.      B        0x1c85a ; am_hal_pwrctrl_dsp_memory_config + 266
        0x0001c7c4:    7830        0x      LDRB     r0,[r6,#0]
        0x0001c7c6:    2800        .(      CMP      r0,#0
        0x0001c7c8:    6da0        .m      LDR      r0,[r4,#0x58]
        0x0001c7ca:    bf14        ..      ITE      NE
        0x0001c7cc:    f0400002    @...    ORRNE    r0,r0,#2
        0x0001c7d0:    f0200002     ...    BICEQ    r0,r0,#2
        0x0001c7d4:    65a0        .e      STR      r0,[r4,#0x58]
        0x0001c7d6:    78b0        .x      LDRB     r0,[r6,#2]
        0x0001c7d8:    2800        .(      CMP      r0,#0
        0x0001c7da:    6da0        .m      LDR      r0,[r4,#0x58]
        0x0001c7dc:    bf14        ..      ITE      NE
        0x0001c7de:    f0400001    @...    ORRNE    r0,r0,#1
        0x0001c7e2:    f0200001     ...    BICEQ    r0,r0,#1
        0x0001c7e6:    65a0        .e      STR      r0,[r4,#0x58]
        0x0001c7e8:    9500        ..      STR      r5,[sp,#0]
        0x0001c7ea:    6da3        .m      LDR      r3,[r4,#0x58]
        0x0001c7ec:    2203        ."      MOVS     r2,#3
        0x0001c7ee:    492e        .I      LDR      r1,[pc,#184] ; [0x1c8a8] = 0x4002105c
        0x0001c7f0:    2005        .       MOVS     r0,#5
        0x0001c7f2:    f7fdfead    ....    BL       am_hal_delay_us_status_check ; 0x1a550
        0x0001c7f6:    2800        .(      CMP      r0,#0
        0x0001c7f8:    bf18        ..      IT       NE
        0x0001c7fa:    bdf8        ..      POPNE    {r3-r7,pc}
        0x0001c7fc:    6de0        .m      LDR      r0,[r4,#0x5c]
        0x0001c7fe:    6da1        .m      LDR      r1,[r4,#0x58]
        0x0001c800:    f3c00040    ..@.    UBFX     r0,r0,#1,#1
        0x0001c804:    f3c10140    ..@.    UBFX     r1,r1,#1,#1
        0x0001c808:    4288        .B      CMP      r0,r1
        0x0001c80a:    d107        ..      BNE      0x1c81c ; am_hal_pwrctrl_dsp_memory_config + 204
        0x0001c80c:    6de0        .m      LDR      r0,[r4,#0x5c]
        0x0001c80e:    6da1        .m      LDR      r1,[r4,#0x58]
        0x0001c810:    f0000001    ....    AND      r0,r0,#1
        0x0001c814:    f0010101    ....    AND      r1,r1,#1
        0x0001c818:    4288        .B      CMP      r0,r1
        0x0001c81a:    d001        ..      BEQ      0x1c820 ; am_hal_pwrctrl_dsp_memory_config + 208
        0x0001c81c:    4628        (F      MOV      r0,r5
        0x0001c81e:    bdf8        ..      POP      {r3-r7,pc}
        0x0001c820:    7870        px      LDRB     r0,[r6,#1]
        0x0001c822:    2800        .(      CMP      r0,#0
        0x0001c824:    6e20         n      LDR      r0,[r4,#0x60]
        0x0001c826:    bf14        ..      ITE      NE
        0x0001c828:    f0200004     ...    BICNE    r0,r0,#4
        0x0001c82c:    f0400004    @...    ORREQ    r0,r0,#4
        0x0001c830:    6620         f      STR      r0,[r4,#0x60]
        0x0001c832:    78f0        .x      LDRB     r0,[r6,#3]
        0x0001c834:    2800        .(      CMP      r0,#0
        0x0001c836:    6e20         n      LDR      r0,[r4,#0x60]
        0x0001c838:    bf14        ..      ITE      NE
        0x0001c83a:    f0400002    @...    ORRNE    r0,r0,#2
        0x0001c83e:    f0200002     ...    BICEQ    r0,r0,#2
        0x0001c842:    6620         f      STR      r0,[r4,#0x60]
        0x0001c844:    7930        0y      LDRB     r0,[r6,#4]
        0x0001c846:    2800        .(      CMP      r0,#0
        0x0001c848:    6e20         n      LDR      r0,[r4,#0x60]
        0x0001c84a:    bf14        ..      ITE      NE
        0x0001c84c:    f0200001     ...    BICNE    r0,r0,#1
        0x0001c850:    f0400001    @...    ORREQ    r0,r0,#1
        0x0001c854:    6620         f      STR      r0,[r4,#0x60]
        0x0001c856:    4638        8F      MOV      r0,r7
        0x0001c858:    bdf8        ..      POP      {r3-r7,pc}
        0x0001c85a:    7870        px      LDRB     r0,[r6,#1]
        0x0001c85c:    2800        .(      CMP      r0,#0
        0x0001c85e:    f8d40080    ....    LDR      r0,[r4,#0x80]
        0x0001c862:    bf14        ..      ITE      NE
        0x0001c864:    f0200004     ...    BICNE    r0,r0,#4
        0x0001c868:    f0400004    @...    ORREQ    r0,r0,#4
        0x0001c86c:    f8c40080    ....    STR      r0,[r4,#0x80]
        0x0001c870:    78f0        .x      LDRB     r0,[r6,#3]
        0x0001c872:    2800        .(      CMP      r0,#0
        0x0001c874:    f8d40080    ....    LDR      r0,[r4,#0x80]
        0x0001c878:    bf14        ..      ITE      NE
        0x0001c87a:    f0400002    @...    ORRNE    r0,r0,#2
        0x0001c87e:    f0200002     ...    BICEQ    r0,r0,#2
        0x0001c882:    f8c40080    ....    STR      r0,[r4,#0x80]
        0x0001c886:    7930        0y      LDRB     r0,[r6,#4]
        0x0001c888:    2800        .(      CMP      r0,#0
        0x0001c88a:    f8d40080    ....    LDR      r0,[r4,#0x80]
        0x0001c88e:    bf14        ..      ITE      NE
        0x0001c890:    f0200001     ...    BICNE    r0,r0,#1
        0x0001c894:    f0400001    @...    ORREQ    r0,r0,#1
        0x0001c898:    f8c40080    ....    STR      r0,[r4,#0x80]
        0x0001c89c:    e7db        ..      B        0x1c856 ; am_hal_pwrctrl_dsp_memory_config + 262
    $d
        0x0001c89e:    0000        ..      DCW    0
        0x0001c8a0:    40021000    ...@    DCD    1073876992
        0x0001c8a4:    4002107c    |..@    DCD    1073877116
        0x0001c8a8:    4002105c    \..@    DCD    1073877084
    $t
    i.am_hal_pwrctrl_low_power_init
    am_hal_pwrctrl_low_power_init
        0x0001c8ac:    b5f8        ..      PUSH     {r3-r7,lr}
        0x0001c8ae:    f7fdfef7    ....    BL       am_hal_mram_ds_init ; 0x1a6a0
        0x0001c8b2:    4863        cH      LDR      r0,[pc,#396] ; [0x1ca40] = 0x1f130
        0x0001c8b4:    f000f8d6    ....    BL       am_hal_pwrctrl_mcu_memory_config ; 0x1ca64
        0x0001c8b8:    4d62        bM      LDR      r5,[pc,#392] ; [0x1ca44] = 0x1f12c
        0x0001c8ba:    4c63        cL      LDR      r4,[pc,#396] ; [0x1ca48] = 0x40021000
        0x0001c8bc:    7829        )x      LDRB     r1,[r5,#0]
        0x0001c8be:    6a60        `j      LDR      r0,[r4,#0x24]
        0x0001c8c0:    f3610001    a...    BFI      r0,r1,#0,#2
        0x0001c8c4:    6260        `b      STR      r0,[r4,#0x24]
        0x0001c8c6:    2001        .       MOVS     r0,#1
        0x0001c8c8:    9000        ..      STR      r0,[sp,#0]
        0x0001c8ca:    6a63        cj      LDR      r3,[r4,#0x24]
        0x0001c8cc:    2203        ."      MOVS     r2,#3
        0x0001c8ce:    495f        _I      LDR      r1,[pc,#380] ; [0x1ca4c] = 0x40021028
        0x0001c8d0:    2005        .       MOVS     r0,#5
        0x0001c8d2:    f7fdfe3d    ..=.    BL       am_hal_delay_us_status_check ; 0x1a550
        0x0001c8d6:    2800        .(      CMP      r0,#0
        0x0001c8d8:    d12f        /.      BNE      0x1c93a ; am_hal_pwrctrl_low_power_init + 142
        0x0001c8da:    6aa0        .j      LDR      r0,[r4,#0x28]
        0x0001c8dc:    6a61        aj      LDR      r1,[r4,#0x24]
        0x0001c8de:    f0000003    ....    AND      r0,r0,#3
        0x0001c8e2:    f0010103    ....    AND      r1,r1,#3
        0x0001c8e6:    4288        .B      CMP      r0,r1
        0x0001c8e8:    d127        '.      BNE      0x1c93a ; am_hal_pwrctrl_low_power_init + 142
        0x0001c8ea:    7869        ix      LDRB     r1,[r5,#1]
        0x0001c8ec:    6ae0        .j      LDR      r0,[r4,#0x2c]
        0x0001c8ee:    f3610083    a...    BFI      r0,r1,#2,#2
        0x0001c8f2:    62e0        .b      STR      r0,[r4,#0x2c]
        0x0001c8f4:    78a9        .x      LDRB     r1,[r5,#2]
        0x0001c8f6:    6ae0        .j      LDR      r0,[r4,#0x2c]
        0x0001c8f8:    f3611005    a...    BFI      r0,r1,#4,#2
        0x0001c8fc:    62e0        .b      STR      r0,[r4,#0x2c]
        0x0001c8fe:    6ae0        .j      LDR      r0,[r4,#0x2c]
        0x0001c900:    f02000c0     ...    BIC      r0,r0,#0xc0
        0x0001c904:    62e0        .b      STR      r0,[r4,#0x2c]
        0x0001c906:    6ae0        .j      LDR      r0,[r4,#0x2c]
        0x0001c908:    f4207040     .@p    BIC      r0,r0,#0x300
        0x0001c90c:    62e0        .b      STR      r0,[r4,#0x2c]
        0x0001c90e:    78e8        .x      LDRB     r0,[r5,#3]
        0x0001c910:    2800        .(      CMP      r0,#0
        0x0001c912:    bf04        ..      ITT      EQ
        0x0001c914:    6ae0        .j      LDREQ    r0,[r4,#0x2c]
        0x0001c916:    f0400003    @...    ORREQ    r0,r0,#3
        0x0001c91a:    d008        ..      BEQ      0x1c92e ; am_hal_pwrctrl_low_power_init + 130
        0x0001c91c:    2801        .(      CMP      r0,#1
        0x0001c91e:    d002        ..      BEQ      0x1c926 ; am_hal_pwrctrl_low_power_init + 122
        0x0001c920:    2803        .(      CMP      r0,#3
        0x0001c922:    d006        ..      BEQ      0x1c932 ; am_hal_pwrctrl_low_power_init + 134
        0x0001c924:    e009        ..      B        0x1c93a ; am_hal_pwrctrl_low_power_init + 142
        0x0001c926:    6ae0        .j      LDR      r0,[r4,#0x2c]
        0x0001c928:    f0200003     ...    BIC      r0,r0,#3
        0x0001c92c:    1c80        ..      ADDS     r0,r0,#2
        0x0001c92e:    62e0        .b      STR      r0,[r4,#0x2c]
        0x0001c930:    e003        ..      B        0x1c93a ; am_hal_pwrctrl_low_power_init + 142
        0x0001c932:    6ae0        .j      LDR      r0,[r4,#0x2c]
        0x0001c934:    f0200003     ...    BIC      r0,r0,#3
        0x0001c938:    62e0        .b      STR      r0,[r4,#0x2c]
        0x0001c93a:    4845        EH      LDR      r0,[pc,#276] ; [0x1ca50] = 0x10004ad4
        0x0001c93c:    4945        EI      LDR      r1,[pc,#276] ; [0x1ca54] = 0xcd735a03
        0x0001c93e:    4d46        FM      LDR      r5,[pc,#280] ; [0x1ca58] = 0x40020000
        0x0001c940:    6802        .h      LDR      r2,[r0,#0]
        0x0001c942:    428a        .B      CMP      r2,r1
        0x0001c944:    d039        9.      BEQ      0x1c9ba ; am_hal_pwrctrl_low_power_init + 270
        0x0001c946:    f8d5233c    ..<#    LDR      r2,[r5,#0x33c]
        0x0001c94a:    6042        B`      STR      r2,[r0,#4]
        0x0001c94c:    f8d52340    ..@#    LDR      r2,[r5,#0x340]
        0x0001c950:    6082        .`      STR      r2,[r0,#8]
        0x0001c952:    f8d52344    ..D#    LDR      r2,[r5,#0x344]
        0x0001c956:    60c2        .`      STR      r2,[r0,#0xc]
        0x0001c958:    f8d5234c    ..L#    LDR      r2,[r5,#0x34c]
        0x0001c95c:    6102        .a      STR      r2,[r0,#0x10]
        0x0001c95e:    f8d52354    ..T#    LDR      r2,[r5,#0x354]
        0x0001c962:    6142        Ba      STR      r2,[r0,#0x14]
        0x0001c964:    f8d52358    ..X#    LDR      r2,[r5,#0x358]
        0x0001c968:    6182        .a      STR      r2,[r0,#0x18]
        0x0001c96a:    f8d52360    ..`#    LDR      r2,[r5,#0x360]
        0x0001c96e:    61c2        .a      STR      r2,[r0,#0x1c]
        0x0001c970:    f8d5236c    ..l#    LDR      r2,[r5,#0x36c]
        0x0001c974:    6202        .b      STR      r2,[r0,#0x20]
        0x0001c976:    f8d52370    ..p#    LDR      r2,[r5,#0x370]
        0x0001c97a:    6242        Bb      STR      r2,[r0,#0x24]
        0x0001c97c:    f8d52378    ..x#    LDR      r2,[r5,#0x378]
        0x0001c980:    6282        .b      STR      r2,[r0,#0x28]
        0x0001c982:    f8d52080    ...     LDR      r2,[r5,#0x80]
        0x0001c986:    62c2        .b      STR      r2,[r0,#0x2c]
        0x0001c988:    f8d52088    ...     LDR      r2,[r5,#0x88]
        0x0001c98c:    6302        .c      STR      r2,[r0,#0x30]
        0x0001c98e:    6c6a        jl      LDR      r2,[r5,#0x44]
        0x0001c990:    6342        Bc      STR      r2,[r0,#0x34]
        0x0001c992:    f8d5237c    ..|#    LDR      r2,[r5,#0x37c]
        0x0001c996:    6382        .c      STR      r2,[r0,#0x38]
        0x0001c998:    f8d52380    ...#    LDR      r2,[r5,#0x380]
        0x0001c99c:    63c2        .c      STR      r2,[r0,#0x3c]
        0x0001c99e:    6e2a        *n      LDR      r2,[r5,#0x60]
        0x0001c9a0:    6402        .d      STR      r2,[r0,#0x40]
        0x0001c9a2:    6aaa        .j      LDR      r2,[r5,#0x28]
        0x0001c9a4:    6442        Bd      STR      r2,[r0,#0x44]
        0x0001c9a6:    f8d52124    ..$!    LDR      r2,[r5,#0x124]
        0x0001c9aa:    6482        .d      STR      r2,[r0,#0x48]
        0x0001c9ac:    f8d52108    ...!    LDR      r2,[r5,#0x108]
        0x0001c9b0:    64c2        .d      STR      r2,[r0,#0x4c]
        0x0001c9b2:    4a2a        *J      LDR      r2,[pc,#168] ; [0x1ca5c] = 0x4002042c
        0x0001c9b4:    6812        .h      LDR      r2,[r2,#0]
        0x0001c9b6:    6502        .e      STR      r2,[r0,#0x50]
        0x0001c9b8:    6001        .`      STR      r1,[r0,#0]
        0x0001c9ba:    f04f2640    O.@&    MOV      r6,#0x40004000
        0x0001c9be:    6c70        pl      LDR      r0,[r6,#0x44]
        0x0001c9c0:    f020707f     ..p    BIC      r0,r0,#0x3fc0000
        0x0001c9c4:    f5000078    ..x.    ADD      r0,r0,#0xf80000
        0x0001c9c8:    6470        pd      STR      r0,[r6,#0x44]
        0x0001c9ca:    2000        .       MOVS     r0,#0
        0x0001c9cc:    f8c40140    ..@.    STR      r0,[r4,#0x140]
        0x0001c9d0:    f8c40144    ..D.    STR      r0,[r4,#0x144]
        0x0001c9d4:    f8c40148    ..H.    STR      r0,[r4,#0x148]
        0x0001c9d8:    f8c4014c    ..L.    STR      r0,[r4,#0x14c]
        0x0001c9dc:    f8c40150    ..P.    STR      r0,[r4,#0x150]
        0x0001c9e0:    f8c40154    ..T.    STR      r0,[r4,#0x154]
        0x0001c9e4:    f8c40158    ..X.    STR      r0,[r4,#0x158]
        0x0001c9e8:    f8c4015c    ..\.    STR      r0,[r4,#0x15c]
        0x0001c9ec:    f8c40160    ..`.    STR      r0,[r4,#0x160]
        0x0001c9f0:    f8c40164    ..d.    STR      r0,[r4,#0x164]
        0x0001c9f4:    f8c40168    ..h.    STR      r0,[r4,#0x168]
        0x0001c9f8:    f8c4016c    ..l.    STR      r0,[r4,#0x16c]
        0x0001c9fc:    f8c40170    ..p.    STR      r0,[r4,#0x170]
        0x0001ca00:    f8c40174    ..t.    STR      r0,[r4,#0x174]
        0x0001ca04:    f8c40178    ..x.    STR      r0,[r4,#0x178]
        0x0001ca08:    f8c4017c    ..|.    STR      r0,[r4,#0x17c]
        0x0001ca0c:    f8c40180    ....    STR      r0,[r4,#0x180]
        0x0001ca10:    f8c40184    ....    STR      r0,[r4,#0x184]
        0x0001ca14:    f8c40188    ....    STR      r0,[r4,#0x188]
        0x0001ca18:    4811        .H      LDR      r0,[pc,#68] ; [0x1ca60] = 0x1f126
        0x0001ca1a:    f7fdfbcb    ....    BL       am_hal_daxi_config ; 0x1a1b4
        0x0001ca1e:    2064        d       MOVS     r0,#0x64
        0x0001ca20:    f7fdfd54    ..T.    BL       am_hal_delay_us ; 0x1a4cc
        0x0001ca24:    6c70        pl      LDR      r0,[r6,#0x44]
        0x0001ca26:    f0400040    @.@.    ORR      r0,r0,#0x40
        0x0001ca2a:    6470        pd      STR      r0,[r6,#0x44]
        0x0001ca2c:    f8d5037c    ..|.    LDR      r0,[r5,#0x37c]
        0x0001ca30:    f44000fd    @...    ORR      r0,r0,#0x7e8000
        0x0001ca34:    f04060b0    @..`    ORR      r0,r0,#0x5800000
        0x0001ca38:    f8c5037c    ..|.    STR      r0,[r5,#0x37c]
        0x0001ca3c:    2000        .       MOVS     r0,#0
        0x0001ca3e:    bdf8        ..      POP      {r3-r7,pc}
    $d
        0x0001ca40:    0001f130    0...    DCD    127280
        0x0001ca44:    0001f12c    ,...    DCD    127276
        0x0001ca48:    40021000    ...@    DCD    1073876992
        0x0001ca4c:    40021028    (..@    DCD    1073877032
        0x0001ca50:    10004ad4    .J..    DCD    268454612
        0x0001ca54:    cd735a03    .Zs.    DCD    3446888963
        0x0001ca58:    40020000    ...@    DCD    1073872896
        0x0001ca5c:    4002042c    ,..@    DCD    1073873964
        0x0001ca60:    0001f126    &...    DCD    127270
    $t
    i.am_hal_pwrctrl_mcu_memory_config
    am_hal_pwrctrl_mcu_memory_config
        0x0001ca64:    b538        8.      PUSH     {r3-r5,lr}
        0x0001ca66:    4605        .F      MOV      r5,r0
        0x0001ca68:    7800        .x      LDRB     r0,[r0,#0]
        0x0001ca6a:    4c43        CL      LDR      r4,[pc,#268] ; [0x1cb78] = 0x40021000
        0x0001ca6c:    b120         .      CBZ      r0,0x1ca78 ; am_hal_pwrctrl_mcu_memory_config + 20
        0x0001ca6e:    2801        .(      CMP      r0,#1
        0x0001ca70:    d00a        ..      BEQ      0x1ca88 ; am_hal_pwrctrl_mcu_memory_config + 36
        0x0001ca72:    2802        .(      CMP      r0,#2
        0x0001ca74:    d011        ..      BEQ      0x1ca9a ; am_hal_pwrctrl_mcu_memory_config + 54
        0x0001ca76:    e018        ..      B        0x1caaa ; am_hal_pwrctrl_mcu_memory_config + 70
        0x0001ca78:    6960        `i      LDR      r0,[r4,#0x14]
        0x0001ca7a:    f0200010     ...    BIC      r0,r0,#0x10
        0x0001ca7e:    6160        `a      STR      r0,[r4,#0x14]
        0x0001ca80:    6960        `i      LDR      r0,[r4,#0x14]
        0x0001ca82:    f0200020     . .    BIC      r0,r0,#0x20
        0x0001ca86:    e00f        ..      B        0x1caa8 ; am_hal_pwrctrl_mcu_memory_config + 68
        0x0001ca88:    6960        `i      LDR      r0,[r4,#0x14]
        0x0001ca8a:    f0400010    @...    ORR      r0,r0,#0x10
        0x0001ca8e:    6160        `a      STR      r0,[r4,#0x14]
        0x0001ca90:    6960        `i      LDR      r0,[r4,#0x14]
        0x0001ca92:    f0200020     . .    BIC      r0,r0,#0x20
        0x0001ca96:    6160        `a      STR      r0,[r4,#0x14]
        0x0001ca98:    e007        ..      B        0x1caaa ; am_hal_pwrctrl_mcu_memory_config + 70
        0x0001ca9a:    6960        `i      LDR      r0,[r4,#0x14]
        0x0001ca9c:    f0400010    @...    ORR      r0,r0,#0x10
        0x0001caa0:    6160        `a      STR      r0,[r4,#0x14]
        0x0001caa2:    6960        `i      LDR      r0,[r4,#0x14]
        0x0001caa4:    f0400020    @. .    ORR      r0,r0,#0x20
        0x0001caa8:    6160        `a      STR      r0,[r4,#0x14]
        0x0001caaa:    78a9        .x      LDRB     r1,[r5,#2]
        0x0001caac:    6960        `i      LDR      r0,[r4,#0x14]
        0x0001caae:    f3610002    a...    BFI      r0,r1,#0,#3
        0x0001cab2:    6160        `a      STR      r0,[r4,#0x14]
        0x0001cab4:    7929        )y      LDRB     r1,[r5,#4]
        0x0001cab6:    6960        `i      LDR      r0,[r4,#0x14]
        0x0001cab8:    f36100c3    a...    BFI      r0,r1,#3,#1
        0x0001cabc:    6160        `a      STR      r0,[r4,#0x14]
        0x0001cabe:    2001        .       MOVS     r0,#1
        0x0001cac0:    9000        ..      STR      r0,[sp,#0]
        0x0001cac2:    6963        ci      LDR      r3,[r4,#0x14]
        0x0001cac4:    223f        ?"      MOVS     r2,#0x3f
        0x0001cac6:    492d        -I      LDR      r1,[pc,#180] ; [0x1cb7c] = 0x40021018
        0x0001cac8:    2005        .       MOVS     r0,#5
        0x0001caca:    f7fdfd41    ..A.    BL       am_hal_delay_us_status_check ; 0x1a550
        0x0001cace:    2800        .(      CMP      r0,#0
        0x0001cad0:    bf18        ..      IT       NE
        0x0001cad2:    bd38        8.      POPNE    {r3-r5,pc}
        0x0001cad4:    69a0        .i      LDR      r0,[r4,#0x18]
        0x0001cad6:    6961        ai      LDR      r1,[r4,#0x14]
        0x0001cad8:    f3c01000    ....    UBFX     r0,r0,#4,#1
        0x0001cadc:    f3c11100    ....    UBFX     r1,r1,#4,#1
        0x0001cae0:    4288        .B      CMP      r0,r1
        0x0001cae2:    d117        ..      BNE      0x1cb14 ; am_hal_pwrctrl_mcu_memory_config + 176
        0x0001cae4:    69a0        .i      LDR      r0,[r4,#0x18]
        0x0001cae6:    6961        ai      LDR      r1,[r4,#0x14]
        0x0001cae8:    f3c01040    ..@.    UBFX     r0,r0,#5,#1
        0x0001caec:    f3c11140    ..@.    UBFX     r1,r1,#5,#1
        0x0001caf0:    4288        .B      CMP      r0,r1
        0x0001caf2:    d10f        ..      BNE      0x1cb14 ; am_hal_pwrctrl_mcu_memory_config + 176
        0x0001caf4:    69a0        .i      LDR      r0,[r4,#0x18]
        0x0001caf6:    6961        ai      LDR      r1,[r4,#0x14]
        0x0001caf8:    f0000007    ....    AND      r0,r0,#7
        0x0001cafc:    f0010107    ....    AND      r1,r1,#7
        0x0001cb00:    4288        .B      CMP      r0,r1
        0x0001cb02:    d107        ..      BNE      0x1cb14 ; am_hal_pwrctrl_mcu_memory_config + 176
        0x0001cb04:    69a0        .i      LDR      r0,[r4,#0x18]
        0x0001cb06:    6961        ai      LDR      r1,[r4,#0x14]
        0x0001cb08:    f3c000c0    ....    UBFX     r0,r0,#3,#1
        0x0001cb0c:    f3c101c0    ....    UBFX     r1,r1,#3,#1
        0x0001cb10:    4288        .B      CMP      r0,r1
        0x0001cb12:    d001        ..      BEQ      0x1cb18 ; am_hal_pwrctrl_mcu_memory_config + 180
        0x0001cb14:    2001        .       MOVS     r0,#1
        0x0001cb16:    bd38        8.      POP      {r3-r5,pc}
        0x0001cb18:    7868        hx      LDRB     r0,[r5,#1]
        0x0001cb1a:    2800        .(      CMP      r0,#0
        0x0001cb1c:    69e0        .i      LDR      r0,[r4,#0x1c]
        0x0001cb1e:    bf14        ..      ITE      NE
        0x0001cb20:    f0200010     ...    BICNE    r0,r0,#0x10
        0x0001cb24:    f0400010    @...    ORREQ    r0,r0,#0x10
        0x0001cb28:    61e0        .a      STR      r0,[r4,#0x1c]
        0x0001cb2a:    7968        hy      LDRB     r0,[r5,#5]
        0x0001cb2c:    2800        .(      CMP      r0,#0
        0x0001cb2e:    69e0        .i      LDR      r0,[r4,#0x1c]
        0x0001cb30:    bf14        ..      ITE      NE
        0x0001cb32:    f0200008     ...    BICNE    r0,r0,#8
        0x0001cb36:    f0400008    @...    ORREQ    r0,r0,#8
        0x0001cb3a:    61e0        .a      STR      r0,[r4,#0x1c]
        0x0001cb3c:    78e8        .x      LDRB     r0,[r5,#3]
        0x0001cb3e:    2800        .(      CMP      r0,#0
        0x0001cb40:    bf04        ..      ITT      EQ
        0x0001cb42:    69e0        .i      LDREQ    r0,[r4,#0x1c]
        0x0001cb44:    f0400007    @...    ORREQ    r0,r0,#7
        0x0001cb48:    d013        ..      BEQ      0x1cb72 ; am_hal_pwrctrl_mcu_memory_config + 270
        0x0001cb4a:    2801        .(      CMP      r0,#1
        0x0001cb4c:    d008        ..      BEQ      0x1cb60 ; am_hal_pwrctrl_mcu_memory_config + 252
        0x0001cb4e:    2803        .(      CMP      r0,#3
        0x0001cb50:    d00b        ..      BEQ      0x1cb6a ; am_hal_pwrctrl_mcu_memory_config + 262
        0x0001cb52:    2807        .(      CMP      r0,#7
        0x0001cb54:    bf04        ..      ITT      EQ
        0x0001cb56:    69e0        .i      LDREQ    r0,[r4,#0x1c]
        0x0001cb58:    f0200007     ...    BICEQ    r0,r0,#7
        0x0001cb5c:    d009        ..      BEQ      0x1cb72 ; am_hal_pwrctrl_mcu_memory_config + 270
        0x0001cb5e:    e009        ..      B        0x1cb74 ; am_hal_pwrctrl_mcu_memory_config + 272
        0x0001cb60:    69e0        .i      LDR      r0,[r4,#0x1c]
        0x0001cb62:    f0200007     ...    BIC      r0,r0,#7
        0x0001cb66:    1d80        ..      ADDS     r0,r0,#6
        0x0001cb68:    e003        ..      B        0x1cb72 ; am_hal_pwrctrl_mcu_memory_config + 270
        0x0001cb6a:    69e0        .i      LDR      r0,[r4,#0x1c]
        0x0001cb6c:    f0200007     ...    BIC      r0,r0,#7
        0x0001cb70:    1d00        ..      ADDS     r0,r0,#4
        0x0001cb72:    61e0        .a      STR      r0,[r4,#0x1c]
        0x0001cb74:    2000        .       MOVS     r0,#0
        0x0001cb76:    bd38        8.      POP      {r3-r5,pc}
    $d
        0x0001cb78:    40021000    ...@    DCD    1073876992
        0x0001cb7c:    40021018    ...@    DCD    1073877016
    $t
    i.am_hal_pwrctrl_mcu_mode_select
    am_hal_pwrctrl_mcu_mode_select
        0x0001cb80:    e92d4ff8    -..O    PUSH     {r3-r11,lr}
        0x0001cb84:    f8df91a0    ....    LDR      r9,[pc,#416] ; [0x1cd28] = 0x40021000
        0x0001cb88:    4604        .F      MOV      r4,r0
        0x0001cb8a:    2801        .(      CMP      r0,#1
        0x0001cb8c:    d00d        ..      BEQ      0x1cbaa ; am_hal_pwrctrl_mcu_mode_select + 42
        0x0001cb8e:    2c02        .,      CMP      r4,#2
        0x0001cb90:    bf1c        ..      ITT      NE
        0x0001cb92:    2006        .       MOVNE    r0,#6
        0x0001cb94:    e8bd8ff8    ....    POPNE    {r3-r11,pc}
        0x0001cb98:    f8d90108    ....    LDR      r0,[r9,#0x108]
        0x0001cb9c:    f3c01001    ....    UBFX     r0,r0,#4,#2
        0x0001cba0:    2803        .(      CMP      r0,#3
        0x0001cba2:    bf1c        ..      ITT      NE
        0x0001cba4:    2007        .       MOVNE    r0,#7
        0x0001cba6:    e8bd8ff8    ....    POPNE    {r3-r11,pc}
        0x0001cbaa:    4f60        `O      LDR      r7,[pc,#384] ; [0x1cd2c] = 0x10000200
        0x0001cbac:    7838        8x      LDRB     r0,[r7,#0]
        0x0001cbae:    4284        .B      CMP      r4,r0
        0x0001cbb0:    d07c        |.      BEQ      0x1ccac ; am_hal_pwrctrl_mcu_mode_select + 300
        0x0001cbb2:    4d5f        _M      LDR      r5,[pc,#380] ; [0x1cd30] = 0x40020000
        0x0001cbb4:    703c        <p      STRB     r4,[r7,#0]
        0x0001cbb6:    68e8        .h      LDR      r0,[r5,#0xc]
        0x0001cbb8:    f04f2640    O.@&    MOV      r6,#0x40004000
        0x0001cbbc:    b2c0        ..      UXTB     r0,r0
        0x0001cbbe:    2821        !(      CMP      r0,#0x21
        0x0001cbc0:    d004        ..      BEQ      0x1cbcc ; am_hal_pwrctrl_mcu_mode_select + 76
        0x0001cbc2:    f04f0a00    O...    MOV      r10,#0
        0x0001cbc6:    2c02        .,      CMP      r4,#2
        0x0001cbc8:    d018        ..      BEQ      0x1cbfc ; am_hal_pwrctrl_mcu_mode_select + 124
        0x0001cbca:    e057        W.      B        0x1cc7c ; am_hal_pwrctrl_mcu_mode_select + 252
        0x0001cbcc:    6c70        pl      LDR      r0,[r6,#0x44]
        0x0001cbce:    f04f0a01    O...    MOV      r10,#1
        0x0001cbd2:    2c02        .,      CMP      r4,#2
        0x0001cbd4:    d006        ..      BEQ      0x1cbe4 ; am_hal_pwrctrl_mcu_mode_select + 100
        0x0001cbd6:    f0400008    @...    ORR      r0,r0,#8
        0x0001cbda:    6470        pd      STR      r0,[r6,#0x44]
        0x0001cbdc:    200a        .       MOVS     r0,#0xa
        0x0001cbde:    f7fdfc75    ..u.    BL       am_hal_delay_us ; 0x1a4cc
        0x0001cbe2:    e04b        K.      B        0x1cc7c ; am_hal_pwrctrl_mcu_mode_select + 252
        0x0001cbe4:    f0400010    @...    ORR      r0,r0,#0x10
        0x0001cbe8:    6470        pd      STR      r0,[r6,#0x44]
        0x0001cbea:    f8d50380    ....    LDR      r0,[r5,#0x380]
        0x0001cbee:    f0407000    @..p    ORR      r0,r0,#0x2000000
        0x0001cbf2:    f8c50380    ....    STR      r0,[r5,#0x380]
        0x0001cbf6:    200a        .       MOVS     r0,#0xa
        0x0001cbf8:    f7fdfc68    ..h.    BL       am_hal_delay_us ; 0x1a4cc
        0x0001cbfc:    2203        ."      MOVS     r2,#3
        0x0001cbfe:    2107        .!      MOVS     r1,#7
        0x0001cc00:    2001        .       MOVS     r0,#1
        0x0001cc02:    f7fbfdb1    ....    BL       VDDF_simobuck_boost ; 0x18768
        0x0001cc06:    f8d50088    ....    LDR      r0,[r5,#0x88]
        0x0001cc0a:    f000083f    ..?.    AND      r8,r0,#0x3f
        0x0001cc0e:    6938        8i      LDR      r0,[r7,#0x10]
        0x0001cc10:    f1b03fff    ...?    CMP      r0,#0xffffffff
        0x0001cc14:    bf08        ..      IT       EQ
        0x0001cc16:    f8c78010    ....    STREQ    r8,[r7,#0x10]
        0x0001cc1a:    6878        xh      LDR      r0,[r7,#4]
        0x0001cc1c:    f1b03fff    ...?    CMP      r0,#0xffffffff
        0x0001cc20:    d10d        ..      BNE      0x1cc3e ; am_hal_pwrctrl_mcu_mode_select + 190
        0x0001cc22:    2201        ."      MOVS     r2,#1
        0x0001cc24:    4b43        CK      LDR      r3,[pc,#268] ; [0x1cd34] = 0x10000204
        0x0001cc26:    f24041c4    @..A    MOV      r1,#0x4c4
        0x0001cc2a:    4610        .F      MOV      r0,r2
        0x0001cc2c:    f7fdfd40    ..@.    BL       am_hal_mram_info_read ; 0x1a6b0
        0x0001cc30:    b918        ..      CBNZ     r0,0x1cc3a ; am_hal_pwrctrl_mcu_mode_select + 186
        0x0001cc32:    6878        xh      LDR      r0,[r7,#4]
        0x0001cc34:    f1b03fff    ...?    CMP      r0,#0xffffffff
        0x0001cc38:    d101        ..      BNE      0x1cc3e ; am_hal_pwrctrl_mcu_mode_select + 190
        0x0001cc3a:    2000        .       MOVS     r0,#0
        0x0001cc3c:    6078        x`      STR      r0,[r7,#4]
        0x0001cc3e:    6878        xh      LDR      r0,[r7,#4]
        0x0001cc40:    2806        .(      CMP      r0,#6
        0x0001cc42:    bf2c        ,.      ITE      CS
        0x0001cc44:    2007        .       MOVCS    r0,#7
        0x0001cc46:    2003        .       MOVCC    r0,#3
        0x0001cc48:    f1c0023f    ..?.    RSB      r2,r0,#0x3f
        0x0001cc4c:    4641        AF      MOV      r1,r8
        0x0001cc4e:    4542        BE      CMP      r2,r8
        0x0001cc50:    bf2c        ,.      ITE      CS
        0x0001cc52:    eb080b00    ....    ADDCS    r11,r8,r0
        0x0001cc56:    f04f0b3f    O.?.    MOVCC    r11,#0x3f
        0x0001cc5a:    4559        YE      CMP      r1,r11
        0x0001cc5c:    d00e        ..      BEQ      0x1cc7c ; am_hal_pwrctrl_mcu_mode_select + 252
        0x0001cc5e:    f7fbfb7b    ..{.    BL       am_hal_interrupt_master_disable ; 0x18358
        0x0001cc62:    9000        ..      STR      r0,[sp,#0]
        0x0001cc64:    f8d50088    ....    LDR      r0,[r5,#0x88]
        0x0001cc68:    f36b0005    k...    BFI      r0,r11,#0,#6
        0x0001cc6c:    f8c50088    ....    STR      r0,[r5,#0x88]
        0x0001cc70:    2014        .       MOVS     r0,#0x14
        0x0001cc72:    f7fdfc2b    ..+.    BL       am_hal_delay_us ; 0x1a4cc
        0x0001cc76:    9800        ..      LDR      r0,[sp,#0]
        0x0001cc78:    f7fbfb72    ..r.    BL       am_hal_interrupt_master_set ; 0x18360
        0x0001cc7c:    230a        .#      MOVS     r3,#0xa
        0x0001cc7e:    4622        "F      MOV      r2,r4
        0x0001cc80:    f04f31ff    O..1    MOV      r1,#0xffffffff
        0x0001cc84:    4648        HF      MOV      r0,r9
        0x0001cc86:    f000fbb1    ....    BL       am_hal_util_write_and_wait ; 0x1d3ec
        0x0001cc8a:    2800        .(      CMP      r0,#0
        0x0001cc8c:    bf06        ..      ITTE     EQ
        0x0001cc8e:    f04f0b04    O...    MOVEQ    r11,#4
        0x0001cc92:    f04f0800    O...    MOVEQ    r8,#0
        0x0001cc96:    e8bd8ff8    ....    POPNE    {r3-r11,pc}
        0x0001cc9a:    bf00        ..      NOP      
        0x0001cc9c:    f8d90000    ....    LDR      r0,[r9,#0]
        0x0001cca0:    f0100f04    ....    TST      r0,#4
        0x0001cca4:    d003        ..      BEQ      0x1ccae ; am_hal_pwrctrl_mcu_mode_select + 302
        0x0001cca6:    2c01        .,      CMP      r4,#1
        0x0001cca8:    d00c        ..      BEQ      0x1ccc4 ; am_hal_pwrctrl_mcu_mode_select + 324
        0x0001ccaa:    e022        ".      B        0x1ccf2 ; am_hal_pwrctrl_mcu_mode_select + 370
        0x0001ccac:    e038        8.      B        0x1cd20 ; am_hal_pwrctrl_mcu_mode_select + 416
        0x0001ccae:    2001        .       MOVS     r0,#1
        0x0001ccb0:    f7fdfc0c    ....    BL       am_hal_delay_us ; 0x1a4cc
        0x0001ccb4:    f1080801    ....    ADD      r8,r8,#1
        0x0001ccb8:    f1b80f05    ....    CMP      r8,#5
        0x0001ccbc:    d3ee        ..      BCC      0x1cc9c ; am_hal_pwrctrl_mcu_mode_select + 284
        0x0001ccbe:    4658        XF      MOV      r0,r11
        0x0001ccc0:    e8bd8ff8    ....    POP      {r3-r11,pc}
        0x0001ccc4:    f8d50088    ....    LDR      r0,[r5,#0x88]
        0x0001ccc8:    6939        9i      LDR      r1,[r7,#0x10]
        0x0001ccca:    f000003f    ..?.    AND      r0,r0,#0x3f
        0x0001ccce:    f1b13fff    ...?    CMP      r1,#0xffffffff
        0x0001ccd2:    bf08        ..      IT       EQ
        0x0001ccd4:    6138        8a      STREQ    r0,[r7,#0x10]
        0x0001ccd6:    6939        9i      LDR      r1,[r7,#0x10]
        0x0001ccd8:    4288        .B      CMP      r0,r1
        0x0001ccda:    d005        ..      BEQ      0x1cce8 ; am_hal_pwrctrl_mcu_mode_select + 360
        0x0001ccdc:    f8d50088    ....    LDR      r0,[r5,#0x88]
        0x0001cce0:    f3610005    a...    BFI      r0,r1,#0,#6
        0x0001cce4:    f8c50088    ....    STR      r0,[r5,#0x88]
        0x0001cce8:    2200        ."      MOVS     r2,#0
        0x0001ccea:    4611        .F      MOV      r1,r2
        0x0001ccec:    4610        .F      MOV      r0,r2
        0x0001ccee:    f7fbfd3b    ..;.    BL       VDDF_simobuck_boost ; 0x18768
        0x0001ccf2:    f1ba0f00    ....    CMP      r10,#0
        0x0001ccf6:    d00a        ..      BEQ      0x1cd0e ; am_hal_pwrctrl_mcu_mode_select + 398
        0x0001ccf8:    6c70        pl      LDR      r0,[r6,#0x44]
        0x0001ccfa:    2c02        .,      CMP      r4,#2
        0x0001ccfc:    bf0c        ..      ITE      EQ
        0x0001ccfe:    f0200010     ...    BICEQ    r0,r0,#0x10
        0x0001cd02:    f0200008     ...    BICNE    r0,r0,#8
        0x0001cd06:    6470        pd      STR      r0,[r6,#0x44]
        0x0001cd08:    200a        .       MOVS     r0,#0xa
        0x0001cd0a:    f7fdfbdf    ....    BL       am_hal_delay_us ; 0x1a4cc
        0x0001cd0e:    f8d90000    ....    LDR      r0,[r9,#0]
        0x0001cd12:    f3c000c1    ....    UBFX     r0,r0,#3,#2
        0x0001cd16:    42a0        .B      CMP      r0,r4
        0x0001cd18:    bf1c        ..      ITT      NE
        0x0001cd1a:    2001        .       MOVNE    r0,#1
        0x0001cd1c:    e8bd8ff8    ....    POPNE    {r3-r11,pc}
        0x0001cd20:    2000        .       MOVS     r0,#0
        0x0001cd22:    e8bd8ff8    ....    POP      {r3-r11,pc}
    $d
        0x0001cd26:    0000        ..      DCW    0
        0x0001cd28:    40021000    ...@    DCD    1073876992
        0x0001cd2c:    10000200    ....    DCD    268435968
        0x0001cd30:    40020000    ...@    DCD    1073872896
        0x0001cd34:    10000204    ....    DCD    268435972
    $t
    i.am_hal_pwrctrl_periph_disable
    am_hal_pwrctrl_periph_disable
        0x0001cd38:    2822        "(      CMP      r0,#0x22
        0x0001cd3a:    bf24        $.      ITT      CS
        0x0001cd3c:    2006        .       MOVCS    r0,#6
        0x0001cd3e:    4770        pG      BXCS     lr
        0x0001cd40:    e92d43f8    -..C    PUSH     {r3-r9,lr}
        0x0001cd44:    4a16        .J      LDR      r2,[pc,#88] ; [0x1cda0] = 0x1f138
        0x0001cd46:    f04f0800    O...    MOV      r8,#0
        0x0001cd4a:    eb021100    ....    ADD      r1,r2,r0,LSL #4
        0x0001cd4e:    2814        .(      CMP      r0,#0x14
        0x0001cd50:    e9d15402    ...T    LDRD     r5,r4,[r1,#8]
        0x0001cd54:    e9d16700    ...g    LDRD     r6,r7,[r1,#0]
        0x0001cd58:    d01a        ..      BEQ      0x1cd90 ; am_hal_pwrctrl_periph_disable + 88
        0x0001cd5a:    f7fbfafd    ....    BL       am_hal_interrupt_master_disable ; 0x18358
        0x0001cd5e:    9000        ..      STR      r0,[sp,#0]
        0x0001cd60:    6830        0h      LDR      r0,[r6,#0]
        0x0001cd62:    43b8        .C      BICS     r0,r0,r7
        0x0001cd64:    6030        0`      STR      r0,[r6,#0]
        0x0001cd66:    9800        ..      LDR      r0,[sp,#0]
        0x0001cd68:    f7fbfafa    ....    BL       am_hal_interrupt_master_set ; 0x18360
        0x0001cd6c:    4623        #F      MOV      r3,r4
        0x0001cd6e:    461a        .F      MOV      r2,r3
        0x0001cd70:    4629        )F      MOV      r1,r5
        0x0001cd72:    2005        .       MOVS     r0,#5
        0x0001cd74:    f8cd8000    ....    STR      r8,[sp,#0]
        0x0001cd78:    f7fdfbea    ....    BL       am_hal_delay_us_status_check ; 0x1a550
        0x0001cd7c:    2800        .(      CMP      r0,#0
        0x0001cd7e:    bf18        ..      IT       NE
        0x0001cd80:    e8bd83f8    ....    POPNE    {r3-r9,pc}
        0x0001cd84:    6828        (h      LDR      r0,[r5,#0]
        0x0001cd86:    4020         @      ANDS     r0,r0,r4
        0x0001cd88:    bf18        ..      IT       NE
        0x0001cd8a:    2001        .       MOVNE    r0,#1
        0x0001cd8c:    e8bd83f8    ....    POP      {r3-r9,pc}
        0x0001cd90:    2310        .#      MOVS     r3,#0x10
        0x0001cd92:    2200        ."      MOVS     r2,#0
        0x0001cd94:    0419        ..      LSLS     r1,r3,#16
        0x0001cd96:    4803        .H      LDR      r0,[pc,#12] ; [0x1cda4] = 0x40021004
        0x0001cd98:    f000fb28    ..(.    BL       am_hal_util_write_and_wait ; 0x1d3ec
        0x0001cd9c:    e7f2        ..      B        0x1cd84 ; am_hal_pwrctrl_periph_disable + 76
    $d
        0x0001cd9e:    0000        ..      DCW    0
        0x0001cda0:    0001f138    8...    DCD    127288
        0x0001cda4:    40021004    ...@    DCD    1073876996
    $t
    i.am_hal_pwrctrl_periph_enable
    am_hal_pwrctrl_periph_enable
        0x0001cda8:    2822        "(      CMP      r0,#0x22
        0x0001cdaa:    bf24        $.      ITT      CS
        0x0001cdac:    2006        .       MOVCS    r0,#6
        0x0001cdae:    4770        pG      BXCS     lr
        0x0001cdb0:    b5f8        ..      PUSH     {r3-r7,lr}
        0x0001cdb2:    4a15        .J      LDR      r2,[pc,#84] ; [0x1ce08] = 0x1f138
        0x0001cdb4:    2814        .(      CMP      r0,#0x14
        0x0001cdb6:    eb021100    ....    ADD      r1,r2,r0,LSL #4
        0x0001cdba:    e9d15402    ...T    LDRD     r5,r4,[r1,#8]
        0x0001cdbe:    e9d16700    ...g    LDRD     r6,r7,[r1,#0]
        0x0001cdc2:    d019        ..      BEQ      0x1cdf8 ; am_hal_pwrctrl_periph_enable + 80
        0x0001cdc4:    f7fbfac8    ....    BL       am_hal_interrupt_master_disable ; 0x18358
        0x0001cdc8:    9000        ..      STR      r0,[sp,#0]
        0x0001cdca:    6830        0h      LDR      r0,[r6,#0]
        0x0001cdcc:    4338        8C      ORRS     r0,r0,r7
        0x0001cdce:    6030        0`      STR      r0,[r6,#0]
        0x0001cdd0:    9800        ..      LDR      r0,[sp,#0]
        0x0001cdd2:    f7fbfac5    ....    BL       am_hal_interrupt_master_set ; 0x18360
        0x0001cdd6:    2001        .       MOVS     r0,#1
        0x0001cdd8:    4623        #F      MOV      r3,r4
        0x0001cdda:    9000        ..      STR      r0,[sp,#0]
        0x0001cddc:    461a        .F      MOV      r2,r3
        0x0001cdde:    4629        )F      MOV      r1,r5
        0x0001cde0:    2005        .       MOVS     r0,#5
        0x0001cde2:    f7fdfbb5    ....    BL       am_hal_delay_us_status_check ; 0x1a550
        0x0001cde6:    2800        .(      CMP      r0,#0
        0x0001cde8:    bf18        ..      IT       NE
        0x0001cdea:    bdf8        ..      POPNE    {r3-r7,pc}
        0x0001cdec:    6828        (h      LDR      r0,[r5,#0]
        0x0001cdee:    4220         B      TST      r0,r4
        0x0001cdf0:    bf14        ..      ITE      NE
        0x0001cdf2:    2000        .       MOVNE    r0,#0
        0x0001cdf4:    2001        .       MOVEQ    r0,#1
        0x0001cdf6:    bdf8        ..      POP      {r3-r7,pc}
        0x0001cdf8:    2310        .#      MOVS     r3,#0x10
        0x0001cdfa:    041a        ..      LSLS     r2,r3,#16
        0x0001cdfc:    4611        .F      MOV      r1,r2
        0x0001cdfe:    4803        .H      LDR      r0,[pc,#12] ; [0x1ce0c] = 0x40021004
        0x0001ce00:    f000faf4    ....    BL       am_hal_util_write_and_wait ; 0x1d3ec
        0x0001ce04:    e7f2        ..      B        0x1cdec ; am_hal_pwrctrl_periph_enable + 68
    $d
        0x0001ce06:    0000        ..      DCW    0
        0x0001ce08:    0001f138    8...    DCD    127288
        0x0001ce0c:    40021004    ...@    DCD    1073876996
    $t
    i.am_hal_rtc_osc_disable
    am_hal_rtc_osc_disable
        0x0001ce10:    4803        .H      LDR      r0,[pc,#12] ; [0x1ce20] = 0x40004800
        0x0001ce12:    6801        .h      LDR      r1,[r0,#0]
        0x0001ce14:    f0410110    A...    ORR      r1,r1,#0x10
        0x0001ce18:    6001        .`      STR      r1,[r0,#0]
        0x0001ce1a:    2000        .       MOVS     r0,#0
        0x0001ce1c:    4770        pG      BX       lr
    $d
        0x0001ce1e:    0000        ..      DCW    0
        0x0001ce20:    40004800    .H.@    DCD    1073760256
    $t
    i.am_hal_stimer_compare_delta_set
    am_hal_stimer_compare_delta_set
        0x0001ce24:    2807        .(      CMP      r0,#7
        0x0001ce26:    bf84        ..      ITT      HI
        0x0001ce28:    2005        .       MOVHI    r0,#5
        0x0001ce2a:    4770        pG      BXHI     lr
        0x0001ce2c:    b5f0        ..      PUSH     {r4-r7,lr}
        0x0001ce2e:    b085        ..      SUB      sp,sp,#0x14
        0x0001ce30:    460e        .F      MOV      r6,r1
        0x0001ce32:    4605        .F      MOV      r5,r0
        0x0001ce34:    f7fbfa90    ....    BL       am_hal_interrupt_master_disable ; 0x18358
        0x0001ce38:    2401        .$      MOVS     r4,#1
        0x0001ce3a:    9000        ..      STR      r0,[sp,#0]
        0x0001ce3c:    00a8        ..      LSLS     r0,r5,#2
        0x0001ce3e:    4f14        .O      LDR      r7,[pc,#80] ; [0x1ce90] = 0x40008804
        0x0001ce40:    f1004580    ...E    ADD      r5,r0,#0x40000000
        0x0001ce44:    f5054500    ...E    ADD      r5,r5,#0x8000
        0x0001ce48:    4638        8F      MOV      r0,r7
        0x0001ce4a:    a901        ..      ADD      r1,sp,#4
        0x0001ce4c:    f7fbfa72    ..r.    BL       am_hal_triple_read ; 0x18334
        0x0001ce50:    e9dd0101    ....    LDRD     r0,r1,[sp,#4]
        0x0001ce54:    4288        .B      CMP      r0,r1
        0x0001ce56:    bf0c        ..      ITE      EQ
        0x0001ce58:    4608        .F      MOVEQ    r0,r1
        0x0001ce5a:    9803        ..      LDRNE    r0,[sp,#0xc]
        0x0001ce5c:    1982        ..      ADDS     r2,r0,r6
        0x0001ce5e:    f102000a    ....    ADD      r0,r2,#0xa
        0x0001ce62:    f8c56820    .. h    STR      r6,[r5,#0x820]
        0x0001ce66:    f8d51820    .. .    LDR      r1,[r5,#0x820]
        0x0001ce6a:    1a8a        ..      SUBS     r2,r1,r2
        0x0001ce6c:    d402        ..      BMI      0x1ce74 ; am_hal_stimer_compare_delta_set + 80
        0x0001ce6e:    1a08        ..      SUBS     r0,r1,r0
        0x0001ce70:    2800        .(      CMP      r0,#0
        0x0001ce72:    dd03        ..      BLE      0x1ce7c ; am_hal_stimer_compare_delta_set + 88
        0x0001ce74:    4620         F      MOV      r0,r4
        0x0001ce76:    1c64        d.      ADDS     r4,r4,#1
        0x0001ce78:    2804        .(      CMP      r0,#4
        0x0001ce7a:    d3e5        ..      BCC      0x1ce48 ; am_hal_stimer_compare_delta_set + 36
        0x0001ce7c:    9800        ..      LDR      r0,[sp,#0]
        0x0001ce7e:    f7fbfa6f    ..o.    BL       am_hal_interrupt_master_set ; 0x18360
        0x0001ce82:    2c04        .,      CMP      r4,#4
        0x0001ce84:    bf2c        ,.      ITE      CS
        0x0001ce86:    2001        .       MOVCS    r0,#1
        0x0001ce88:    2000        .       MOVCC    r0,#0
        0x0001ce8a:    b005        ..      ADD      sp,sp,#0x14
        0x0001ce8c:    bdf0        ..      POP      {r4-r7,pc}
    $d
        0x0001ce8e:    0000        ..      DCW    0
        0x0001ce90:    40008804    ...@    DCD    1073776644
    $t
    i.am_hal_stimer_config
    am_hal_stimer_config
        0x0001ce94:    4907        .I      LDR      r1,[pc,#28] ; [0x1ceb4] = 0x40008800
        0x0001ce96:    680a        .h      LDR      r2,[r1,#0]
        0x0001ce98:    6008        .`      STR      r0,[r1,#0]
        0x0001ce9a:    4807        .H      LDR      r0,[pc,#28] ; [0x1ceb8] = 0x40008000
        0x0001ce9c:    f8d01104    ....    LDR      r1,[r0,#0x104]
        0x0001cea0:    f4413180    A..1    ORR      r1,r1,#0x10000
        0x0001cea4:    f8c01104    ....    STR      r1,[r0,#0x104]
        0x0001cea8:    4904        .I      LDR      r1,[pc,#16] ; [0x1cebc] = 0x10000240
        0x0001ceaa:    2001        .       MOVS     r0,#1
        0x0001ceac:    7008        .p      STRB     r0,[r1,#0]
        0x0001ceae:    4610        .F      MOV      r0,r2
        0x0001ceb0:    4770        pG      BX       lr
    $d
        0x0001ceb2:    0000        ..      DCW    0
        0x0001ceb4:    40008800    ...@    DCD    1073776640
        0x0001ceb8:    40008000    ...@    DCD    1073774592
        0x0001cebc:    10000240    @...    DCD    268436032
    $t
    i.am_hal_stimer_int_clear
    am_hal_stimer_int_clear
        0x0001cec0:    4901        .I      LDR      r1,[pc,#4] ; [0x1cec8] = 0x40008908
        0x0001cec2:    6008        .`      STR      r0,[r1,#0]
        0x0001cec4:    4770        pG      BX       lr
    $d
        0x0001cec6:    0000        ..      DCW    0
        0x0001cec8:    40008908    ...@    DCD    1073776904
    $t
    i.am_hal_stimer_int_enable
    am_hal_stimer_int_enable
        0x0001cecc:    4902        .I      LDR      r1,[pc,#8] ; [0x1ced8] = 0x40008900
        0x0001cece:    680a        .h      LDR      r2,[r1,#0]
        0x0001ced0:    4310        .C      ORRS     r0,r0,r2
        0x0001ced2:    6008        .`      STR      r0,[r1,#0]
        0x0001ced4:    4770        pG      BX       lr
    $d
        0x0001ced6:    0000        ..      DCW    0
        0x0001ced8:    40008900    ...@    DCD    1073776896
    $t
    i.am_hal_sysctrl_sleep
    am_hal_sysctrl_sleep
        0x0001cedc:    e92d4ff8    -..O    PUSH     {r3-r11,lr}
        0x0001cee0:    f04f0a00    O...    MOV      r10,#0
        0x0001cee4:    4657        WF      MOV      r7,r10
        0x0001cee6:    4604        .F      MOV      r4,r0
        0x0001cee8:    f04f36ff    O..6    MOV      r6,#0xffffffff
        0x0001ceec:    46b8        .F      MOV      r8,r7
        0x0001ceee:    f7fbfa33    ..3.    BL       am_hal_interrupt_master_disable ; 0x18358
        0x0001cef2:    4d6b        kM      LDR      r5,[pc,#428] ; [0x1d0a0] = 0x40021000
        0x0001cef4:    9000        ..      STR      r0,[sp,#0]
        0x0001cef6:    6828        (h      LDR      r0,[r5,#0]
        0x0001cef8:    f0000903    ....    AND      r9,r0,#3
        0x0001cefc:    f8d50108    ....    LDR      r0,[r5,#0x108]
        0x0001cf00:    f3c01001    ....    UBFX     r0,r0,#4,#2
        0x0001cf04:    2803        .(      CMP      r0,#3
        0x0001cf06:    bf0c        ..      ITE      EQ
        0x0001cf08:    f04f0b01    O...    MOVEQ    r11,#1
        0x0001cf0c:    f04f0b00    O...    MOVNE    r11,#0
        0x0001cf10:    0020         .      MOVS     r0,r4
        0x0001cf12:    4c64        dL      LDR      r4,[pc,#400] ; [0x1d0a4] = 0x40020000
        0x0001cf14:    d004        ..      BEQ      0x1cf20 ; am_hal_sysctrl_sleep + 68
        0x0001cf16:    f8d40250    ..P.    LDR      r0,[r4,#0x250]
        0x0001cf1a:    f0100f10    ....    TST      r0,#0x10
        0x0001cf1e:    d004        ..      BEQ      0x1cf2a ; am_hal_sysctrl_sleep + 78
        0x0001cf20:    4861        aH      LDR      r0,[pc,#388] ; [0x1d0a8] = 0xe000ed10
        0x0001cf22:    6801        .h      LDR      r1,[r0,#0]
        0x0001cf24:    f0210104    !...    BIC      r1,r1,#4
        0x0001cf28:    e060        `.      B        0x1cfec ; am_hal_sysctrl_sleep + 272
        0x0001cf2a:    68a8        .h      LDR      r0,[r5,#8]
        0x0001cf2c:    f4101f80    ....    TST      r0,#0x100000
        0x0001cf30:    bf1c        ..      ITT      NE
        0x0001cf32:    69e8        .i      LDRNE    r0,[r5,#0x1c]
        0x0001cf34:    f0100f08    ....    TSTNE    r0,#8
        0x0001cf38:    d005        ..      BEQ      0x1cf46 ; am_hal_sysctrl_sleep + 106
        0x0001cf3a:    69e8        .i      LDR      r0,[r5,#0x1c]
        0x0001cf3c:    f0200008     ...    BIC      r0,r0,#8
        0x0001cf40:    61e8        .a      STR      r0,[r5,#0x1c]
        0x0001cf42:    f04f0a01    O...    MOV      r10,#1
        0x0001cf46:    f1b90f02    ....    CMP      r9,#2
        0x0001cf4a:    bf04        ..      ITT      EQ
        0x0001cf4c:    2001        .       MOVEQ    r0,#1
        0x0001cf4e:    f7fffe17    ....    BLEQ     am_hal_pwrctrl_mcu_mode_select ; 0x1cb80
        0x0001cf52:    f1bb0f00    ....    CMP      r11,#0
        0x0001cf56:    d045        E.      BEQ      0x1cfe4 ; am_hal_sysctrl_sleep + 264
        0x0001cf58:    6e20         n      LDR      r0,[r4,#0x60]
        0x0001cf5a:    f4103f80    ...?    TST      r0,#0x10000
        0x0001cf5e:    d10a        ..      BNE      0x1cf76 ; am_hal_sysctrl_sleep + 154
        0x0001cf60:    68a8        .h      LDR      r0,[r5,#8]
        0x0001cf62:    f4105f00    ..._    TST      r0,#0x2000
        0x0001cf66:    bf04        ..      ITT      EQ
        0x0001cf68:    6928        (i      LDREQ    r0,[r5,#0x10]
        0x0001cf6a:    f4106f80    ...o    TSTEQ    r0,#0x400
        0x0001cf6e:    d002        ..      BEQ      0x1cf76 ; am_hal_sysctrl_sleep + 154
        0x0001cf70:    f001fe02    ....    BL       simobuck_ldos_force_active ; 0x1eb78
        0x0001cf74:    2701        .'      MOVS     r7,#1
        0x0001cf76:    6928        (i      LDR      r0,[r5,#0x10]
        0x0001cf78:    f4106f80    ...o    TST      r0,#0x400
        0x0001cf7c:    bf04        ..      ITT      EQ
        0x0001cf7e:    68a8        .h      LDREQ    r0,[r5,#8]
        0x0001cf80:    f030407e    0.~@    BICSEQ   r0,r0,#0xfe000000
        0x0001cf84:    d12e        ..      BNE      0x1cfe4 ; am_hal_sysctrl_sleep + 264
        0x0001cf86:    4849        IH      LDR      r0,[pc,#292] ; [0x1d0ac] = 0x10000201
        0x0001cf88:    f04f0801    O...    MOV      r8,#1
        0x0001cf8c:    7800        .x      LDRB     r0,[r0,#0]
        0x0001cf8e:    b188        ..      CBZ      r0,0x1cfb4 ; am_hal_sysctrl_sleep + 216
        0x0001cf90:    f8d40378    ..x.    LDR      r0,[r4,#0x378]
        0x0001cf94:    f0404000    @..@    ORR      r0,r0,#0x80000000
        0x0001cf98:    f8c40378    ..x.    STR      r0,[r4,#0x378]
        0x0001cf9c:    6c60        `l      LDR      r0,[r4,#0x44]
        0x0001cf9e:    f3c016c6    ....    UBFX     r6,r0,#7,#7
        0x0001cfa2:    4843        CH      LDR      r0,[pc,#268] ; [0x1d0b0] = 0x1000020c
        0x0001cfa4:    7801        .x      LDRB     r1,[r0,#0]
        0x0001cfa6:    6c60        `l      LDR      r0,[r4,#0x44]
        0x0001cfa8:    f36110cd    a...    BFI      r0,r1,#7,#7
        0x0001cfac:    6460        `d      STR      r0,[r4,#0x44]
        0x0001cfae:    2001        .       MOVS     r0,#1
        0x0001cfb0:    f7fdfa8c    ....    BL       am_hal_delay_us ; 0x1a4cc
        0x0001cfb4:    483f        ?H      LDR      r0,[pc,#252] ; [0x1d0b4] = 0x10000214
        0x0001cfb6:    7801        .x      LDRB     r1,[r0,#0]
        0x0001cfb8:    f8d40370    ..p.    LDR      r0,[r4,#0x370]
        0x0001cfbc:    f3615019    a..P    BFI      r0,r1,#20,#6
        0x0001cfc0:    f8c40370    ..p.    STR      r0,[r4,#0x370]
        0x0001cfc4:    f8d40380    ....    LDR      r0,[r4,#0x380]
        0x0001cfc8:    f0204000     ..@    BIC      r0,r0,#0x80000000
        0x0001cfcc:    f8c40380    ....    STR      r0,[r4,#0x380]
        0x0001cfd0:    f8d40380    ....    LDR      r0,[r4,#0x380]
        0x0001cfd4:    f0204080     ..@    BIC      r0,r0,#0x40000000
        0x0001cfd8:    f8c40380    ....    STR      r0,[r4,#0x380]
        0x0001cfdc:    f000fdc8    ....    BL       coreldo_disable ; 0x1db70
        0x0001cfe0:    f001f97a    ..z.    BL       memldo_disable ; 0x1e2d8
        0x0001cfe4:    4830        0H      LDR      r0,[pc,#192] ; [0x1d0a8] = 0xe000ed10
        0x0001cfe6:    6801        .h      LDR      r1,[r0,#0]
        0x0001cfe8:    f0410104    A...    ORR      r1,r1,#4
        0x0001cfec:    6001        .`      STR      r1,[r0,#0]
        0x0001cfee:    2100        .!      MOVS     r1,#0
        0x0001cff0:    2002        .       MOVS     r0,#2
        0x0001cff2:    f7fdf909    ....    BL       am_hal_daxi_control ; 0x1a208
        0x0001cff6:    bf30        0.      WFI      
        0x0001cff8:    f3bf8f6f    ..o.    ISB      
        0x0001cffc:    f1b80f00    ....    CMP      r8,#0
        0x0001d000:    d037        7.      BEQ      0x1d072 ; am_hal_sysctrl_sleep + 406
        0x0001d002:    f8d50100    ....    LDR      r0,[r5,#0x100]
        0x0001d006:    f0200001     ...    BIC      r0,r0,#1
        0x0001d00a:    f8c50100    ....    STR      r0,[r5,#0x100]
        0x0001d00e:    2014        .       MOVS     r0,#0x14
        0x0001d010:    f7fdfa5c    ..\.    BL       am_hal_delay_us ; 0x1a4cc
        0x0001d014:    f1b63fff    ...?    CMP      r6,#0xffffffff
        0x0001d018:    d009        ..      BEQ      0x1d02e ; am_hal_sysctrl_sleep + 338
        0x0001d01a:    f8d40378    ..x.    LDR      r0,[r4,#0x378]
        0x0001d01e:    f0404000    @..@    ORR      r0,r0,#0x80000000
        0x0001d022:    f8c40378    ..x.    STR      r0,[r4,#0x378]
        0x0001d026:    6c60        `l      LDR      r0,[r4,#0x44]
        0x0001d028:    f36610cd    f...    BFI      r0,r6,#7,#7
        0x0001d02c:    6460        `d      STR      r0,[r4,#0x44]
        0x0001d02e:    f8d40380    ....    LDR      r0,[r4,#0x380]
        0x0001d032:    f0404000    @..@    ORR      r0,r0,#0x80000000
        0x0001d036:    f8c40380    ....    STR      r0,[r4,#0x380]
        0x0001d03a:    f8d40380    ....    LDR      r0,[r4,#0x380]
        0x0001d03e:    f0404080    @..@    ORR      r0,r0,#0x40000000
        0x0001d042:    f8c40380    ....    STR      r0,[r4,#0x380]
        0x0001d046:    f8d40370    ..p.    LDR      r0,[r4,#0x370]
        0x0001d04a:    f3c05105    ...Q    UBFX     r1,r0,#20,#6
        0x0001d04e:    4819        .H      LDR      r0,[pc,#100] ; [0x1d0b4] = 0x10000214
        0x0001d050:    6001        .`      STR      r1,[r0,#0]
        0x0001d052:    f8d40370    ..p.    LDR      r0,[r4,#0x370]
        0x0001d056:    f020707c     .|p    BIC      r0,r0,#0x3f00000
        0x0001d05a:    f8c40370    ..p.    STR      r0,[r4,#0x370]
        0x0001d05e:    f8d50100    ....    LDR      r0,[r5,#0x100]
        0x0001d062:    f0400001    @...    ORR      r0,r0,#1
        0x0001d066:    f8c50100    ....    STR      r0,[r5,#0x100]
        0x0001d06a:    f000fd8d    ....    BL       coreldo_enable ; 0x1db88
        0x0001d06e:    f001f93f    ..?.    BL       memldo_enable ; 0x1e2f0
        0x0001d072:    f1ba0f00    ....    CMP      r10,#0
        0x0001d076:    d003        ..      BEQ      0x1d080 ; am_hal_sysctrl_sleep + 420
        0x0001d078:    69e8        .i      LDR      r0,[r5,#0x1c]
        0x0001d07a:    f0400008    @...    ORR      r0,r0,#8
        0x0001d07e:    61e8        .a      STR      r0,[r5,#0x1c]
        0x0001d080:    2f00        ./      CMP      r7,#0
        0x0001d082:    bf18        ..      IT       NE
        0x0001d084:    f001fda4    ....    BLNE     simobuck_ldos_force_disable ; 0x1ebd0
        0x0001d088:    f1b90f02    ....    CMP      r9,#2
        0x0001d08c:    bf04        ..      ITT      EQ
        0x0001d08e:    2002        .       MOVEQ    r0,#2
        0x0001d090:    f7fffd76    ..v.    BLEQ     am_hal_pwrctrl_mcu_mode_select ; 0x1cb80
        0x0001d094:    9800        ..      LDR      r0,[sp,#0]
        0x0001d096:    e8bd4ff8    ...O    POP      {r3-r11,lr}
        0x0001d09a:    f7fbb961    ..a.    B        am_hal_interrupt_master_set ; 0x18360
    $d
        0x0001d09e:    0000        ..      DCW    0
        0x0001d0a0:    40021000    ...@    DCD    1073876992
        0x0001d0a4:    40020000    ...@    DCD    1073872896
        0x0001d0a8:    e000ed10    ....    DCD    3758157072
        0x0001d0ac:    10000201    ....    DCD    268435969
        0x0001d0b0:    1000020c    ....    DCD    268435980
        0x0001d0b4:    10000214    ....    DCD    268435988
    $t
    i.am_hal_timer_clear
    am_hal_timer_clear
        0x0001d0b8:    b538        8.      PUSH     {r3-r5,lr}
        0x0001d0ba:    4604        .F      MOV      r4,r0
        0x0001d0bc:    f7fbf94c    ..L.    BL       am_hal_interrupt_master_disable ; 0x18358
        0x0001d0c0:    4914        .I      LDR      r1,[pc,#80] ; [0x1d114] = 0x40008000
        0x0001d0c2:    9000        ..      STR      r0,[sp,#0]
        0x0001d0c4:    f8d13104    ...1    LDR      r3,[r1,#0x104]
        0x0001d0c8:    2001        .       MOVS     r0,#1
        0x0001d0ca:    fa00f204    ....    LSL      r2,r0,r4
        0x0001d0ce:    ea230002    #...    BIC      r0,r3,r2
        0x0001d0d2:    f8c10104    ....    STR      r0,[r1,#0x104]
        0x0001d0d6:    0160        `.      LSLS     r0,r4,#5
        0x0001d0d8:    4408        .D      ADD      r0,r0,r1
        0x0001d0da:    f8d03200    ...2    LDR      r3,[r0,#0x200]
        0x0001d0de:    f0230301    #...    BIC      r3,r3,#1
        0x0001d0e2:    f8c03200    ...2    STR      r3,[r0,#0x200]
        0x0001d0e6:    f8d03200    ...2    LDR      r3,[r0,#0x200]
        0x0001d0ea:    f0430302    C...    ORR      r3,r3,#2
        0x0001d0ee:    f8c03200    ...2    STR      r3,[r0,#0x200]
        0x0001d0f2:    f8d03200    ...2    LDR      r3,[r0,#0x200]
        0x0001d0f6:    f0430301    C...    ORR      r3,r3,#1
        0x0001d0fa:    f8c03200    ...2    STR      r3,[r0,#0x200]
        0x0001d0fe:    f8d10104    ....    LDR      r0,[r1,#0x104]
        0x0001d102:    4310        .C      ORRS     r0,r0,r2
        0x0001d104:    f8c10104    ....    STR      r0,[r1,#0x104]
        0x0001d108:    9800        ..      LDR      r0,[sp,#0]
        0x0001d10a:    f7fbf929    ..).    BL       am_hal_interrupt_master_set ; 0x18360
        0x0001d10e:    2000        .       MOVS     r0,#0
        0x0001d110:    bd38        8.      POP      {r3-r5,pc}
    $d
        0x0001d112:    0000        ..      DCW    0
        0x0001d114:    40008000    ...@    DCD    1073774592
    $t
    i.am_hal_timer_clear_stop
    am_hal_timer_clear_stop
        0x0001d118:    b538        8.      PUSH     {r3-r5,lr}
        0x0001d11a:    4604        .F      MOV      r4,r0
        0x0001d11c:    f7fbf91c    ....    BL       am_hal_interrupt_master_disable ; 0x18358
        0x0001d120:    9000        ..      STR      r0,[sp,#0]
        0x0001d122:    4812        .H      LDR      r0,[pc,#72] ; [0x1d16c] = 0x40008000
        0x0001d124:    f8d01104    ....    LDR      r1,[r0,#0x104]
        0x0001d128:    2201        ."      MOVS     r2,#1
        0x0001d12a:    40a2        .@      LSLS     r2,r2,r4
        0x0001d12c:    4391        .C      BICS     r1,r1,r2
        0x0001d12e:    f8c01104    ....    STR      r1,[r0,#0x104]
        0x0001d132:    0160        `.      LSLS     r0,r4,#5
        0x0001d134:    f1004080    ...@    ADD      r0,r0,#0x40000000
        0x0001d138:    f5004000    ...@    ADD      r0,r0,#0x8000
        0x0001d13c:    f8d01200    ....    LDR      r1,[r0,#0x200]
        0x0001d140:    f0210101    !...    BIC      r1,r1,#1
        0x0001d144:    f8c01200    ....    STR      r1,[r0,#0x200]
        0x0001d148:    f8d01200    ....    LDR      r1,[r0,#0x200]
        0x0001d14c:    f0410102    A...    ORR      r1,r1,#2
        0x0001d150:    f8c01200    ....    STR      r1,[r0,#0x200]
        0x0001d154:    f8d01200    ....    LDR      r1,[r0,#0x200]
        0x0001d158:    f0410101    A...    ORR      r1,r1,#1
        0x0001d15c:    f8c01200    ....    STR      r1,[r0,#0x200]
        0x0001d160:    9800        ..      LDR      r0,[sp,#0]
        0x0001d162:    f7fbf8fd    ....    BL       am_hal_interrupt_master_set ; 0x18360
        0x0001d166:    2000        .       MOVS     r0,#0
        0x0001d168:    bd38        8.      POP      {r3-r5,pc}
    $d
        0x0001d16a:    0000        ..      DCW    0
        0x0001d16c:    40008000    ...@    DCD    1073774592
    $t
    i.am_hal_timer_default_config_set
    am_hal_timer_default_config_set
        0x0001d170:    2201        ."      MOVS     r2,#1
        0x0001d172:    7002        .p      STRB     r2,[r0,#0]
        0x0001d174:    7042        Bp      STRB     r2,[r0,#1]
        0x0001d176:    1e91        ..      SUBS     r1,r2,#2
        0x0001d178:    60c1        .`      STR      r1,[r0,#0xc]
        0x0001d17a:    6101        .a      STR      r1,[r0,#0x10]
        0x0001d17c:    2100        .!      MOVS     r1,#0
        0x0001d17e:    7081        .p      STRB     r1,[r0,#2]
        0x0001d180:    70c1        .p      STRB     r1,[r0,#3]
        0x0001d182:    7101        .q      STRB     r1,[r0,#4]
        0x0001d184:    7142        Bq      STRB     r2,[r0,#5]
        0x0001d186:    6081        .`      STR      r1,[r0,#8]
        0x0001d188:    4608        .F      MOV      r0,r1
        0x0001d18a:    4770        pG      BX       lr
    i.am_hal_timer_interrupt_clear
    am_hal_timer_interrupt_clear
        0x0001d18c:    4901        .I      LDR      r1,[pc,#4] ; [0x1d194] = 0x40008000
        0x0001d18e:    6688        .f      STR      r0,[r1,#0x68]
        0x0001d190:    2000        .       MOVS     r0,#0
        0x0001d192:    4770        pG      BX       lr
    $d
        0x0001d194:    40008000    ...@    DCD    1073774592
    $t
    i.am_hal_timer_interrupt_enable
    am_hal_timer_interrupt_enable
        0x0001d198:    4a14        .J      LDR      r2,[pc,#80] ; [0x1d1ec] = 0x40020000
        0x0001d19a:    4601        .F      MOV      r1,r0
        0x0001d19c:    68d2        .h      LDR      r2,[r2,#0xc]
        0x0001d19e:    b2d2        ..      UXTB     r2,r2
        0x0001d1a0:    2a22        "*      CMP      r2,#0x22
        0x0001d1a2:    bf24        $.      ITT      CS
        0x0001d1a4:    2200        ."      MOVCS    r2,#0
        0x0001d1a6:    4b12        .K      LDRCS    r3,[pc,#72] ; [0x1d1f0] = 0x10004d0c
        0x0001d1a8:    d318        ..      BCC      0x1d1dc ; am_hal_timer_interrupt_enable + 68
        0x0001d1aa:    bf00        ..      NOP      
        0x0001d1ac:    f0110f01    ....    TST      r1,#1
        0x0001d1b0:    d006        ..      BEQ      0x1d1c0 ; am_hal_timer_interrupt_enable + 40
        0x0001d1b2:    eb030c82    ....    ADD      r12,r3,r2,LSL #2
        0x0001d1b6:    f89cc001    ....    LDRB     r12,[r12,#1]
        0x0001d1ba:    f1bc0f00    ....    CMP      r12,#0
        0x0001d1be:    d013        ..      BEQ      0x1d1e8 ; am_hal_timer_interrupt_enable + 80
        0x0001d1c0:    f0110f02    ....    TST      r1,#2
        0x0001d1c4:    d006        ..      BEQ      0x1d1d4 ; am_hal_timer_interrupt_enable + 60
        0x0001d1c6:    eb030c82    ....    ADD      r12,r3,r2,LSL #2
        0x0001d1ca:    f89cc003    ....    LDRB     r12,[r12,#3]
        0x0001d1ce:    f1bc0f00    ....    CMP      r12,#0
        0x0001d1d2:    d009        ..      BEQ      0x1d1e8 ; am_hal_timer_interrupt_enable + 80
        0x0001d1d4:    0889        ..      LSRS     r1,r1,#2
        0x0001d1d6:    1c52        R.      ADDS     r2,r2,#1
        0x0001d1d8:    2a10        .*      CMP      r2,#0x10
        0x0001d1da:    d3e7        ..      BCC      0x1d1ac ; am_hal_timer_interrupt_enable + 20
        0x0001d1dc:    4905        .I      LDR      r1,[pc,#20] ; [0x1d1f4] = 0x40008000
        0x0001d1de:    6e0a        .n      LDR      r2,[r1,#0x60]
        0x0001d1e0:    4310        .C      ORRS     r0,r0,r2
        0x0001d1e2:    6608        .f      STR      r0,[r1,#0x60]
        0x0001d1e4:    2000        .       MOVS     r0,#0
        0x0001d1e6:    4770        pG      BX       lr
        0x0001d1e8:    2006        .       MOVS     r0,#6
        0x0001d1ea:    4770        pG      BX       lr
    $d
        0x0001d1ec:    40020000    ...@    DCD    1073872896
        0x0001d1f0:    10004d0c    .M..    DCD    268455180
        0x0001d1f4:    40008000    ...@    DCD    1073774592
    $t
    i.am_hal_timer_interrupt_status_get
    am_hal_timer_interrupt_status_get
        0x0001d1f8:    4a04        .J      LDR      r2,[pc,#16] ; [0x1d20c] = 0x40008000
        0x0001d1fa:    2800        .(      CMP      r0,#0
        0x0001d1fc:    6e50        Pn      LDR      r0,[r2,#0x64]
        0x0001d1fe:    bf1c        ..      ITT      NE
        0x0001d200:    6e12        .n      LDRNE    r2,[r2,#0x60]
        0x0001d202:    4010        .@      ANDNE    r0,r0,r2
        0x0001d204:    6008        .`      STR      r0,[r1,#0]
        0x0001d206:    2000        .       MOVS     r0,#0
        0x0001d208:    4770        pG      BX       lr
    $d
        0x0001d20a:    0000        ..      DCW    0
        0x0001d20c:    40008000    ...@    DCD    1073774592
    $t
    i.am_hal_timer_read
    am_hal_timer_read
        0x0001d210:    b500        ..      PUSH     {lr}
        0x0001d212:    4907        .I      LDR      r1,[pc,#28] ; [0x1d230] = 0x40008204
        0x0001d214:    b083        ..      SUB      sp,sp,#0xc
        0x0001d216:    eb011040    ..@.    ADD      r0,r1,r0,LSL #5
        0x0001d21a:    4669        iF      MOV      r1,sp
        0x0001d21c:    f7fbf88a    ....    BL       am_hal_triple_read ; 0x18334
        0x0001d220:    e9dd0100    ....    LDRD     r0,r1,[sp,#0]
        0x0001d224:    4288        .B      CMP      r0,r1
        0x0001d226:    bf0c        ..      ITE      EQ
        0x0001d228:    4608        .F      MOVEQ    r0,r1
        0x0001d22a:    9802        ..      LDRNE    r0,[sp,#8]
        0x0001d22c:    b003        ..      ADD      sp,sp,#0xc
        0x0001d22e:    bd00        ..      POP      {pc}
    $d
        0x0001d230:    40008204    ...@    DCD    1073775108
    $t
    i.am_hal_timer_reset_config
    am_hal_timer_reset_config
        0x0001d234:    e92d43f8    -..C    PUSH     {r3-r9,lr}
        0x0001d238:    4605        .F      MOV      r5,r0
        0x0001d23a:    0041        A.      LSLS     r1,r0,#1
        0x0001d23c:    4c36        6L      LDR      r4,[pc,#216] ; [0x1d318] = 0x40008000
        0x0001d23e:    2003        .       MOVS     r0,#3
        0x0001d240:    fa00f801    ....    LSL      r8,r0,r1
        0x0001d244:    6e20         n      LDR      r0,[r4,#0x60]
        0x0001d246:    ea200008     ...    BIC      r0,r0,r8
        0x0001d24a:    6620         f      STR      r0,[r4,#0x60]
        0x0001d24c:    2701        .'      MOVS     r7,#1
        0x0001d24e:    fa07f605    ....    LSL      r6,r7,r5
        0x0001d252:    f7fbf881    ....    BL       am_hal_interrupt_master_disable ; 0x18358
        0x0001d256:    9000        ..      STR      r0,[sp,#0]
        0x0001d258:    6920         i      LDR      r0,[r4,#0x10]
        0x0001d25a:    43b0        .C      BICS     r0,r0,r6
        0x0001d25c:    6120         a      STR      r0,[r4,#0x10]
        0x0001d25e:    2100        .!      MOVS     r1,#0
        0x0001d260:    fa07f001    ....    LSL      r0,r7,r1
        0x0001d264:    4230        0B      TST      r0,r6
        0x0001d266:    d014        ..      BEQ      0x1d292 ; am_hal_timer_reset_config + 94
        0x0001d268:    f8d42104    ...!    LDR      r2,[r4,#0x104]
        0x0001d26c:    4382        .C      BICS     r2,r2,r0
        0x0001d26e:    f8c42104    ...!    STR      r2,[r4,#0x104]
        0x0001d272:    014a        J.      LSLS     r2,r1,#5
        0x0001d274:    f1024280    ...B    ADD      r2,r2,#0x40000000
        0x0001d278:    f5024200    ...B    ADD      r2,r2,#0x8000
        0x0001d27c:    f8d23200    ...2    LDR      r3,[r2,#0x200]
        0x0001d280:    f0430301    C...    ORR      r3,r3,#1
        0x0001d284:    f8c23200    ...2    STR      r3,[r2,#0x200]
        0x0001d288:    f8d42104    ...!    LDR      r2,[r4,#0x104]
        0x0001d28c:    4310        .C      ORRS     r0,r0,r2
        0x0001d28e:    f8c40104    ....    STR      r0,[r4,#0x104]
        0x0001d292:    1c49        I.      ADDS     r1,r1,#1
        0x0001d294:    2910        .)      CMP      r1,#0x10
        0x0001d296:    d3e3        ..      BCC      0x1d260 ; am_hal_timer_reset_config + 44
        0x0001d298:    6921        !i      LDR      r1,[r4,#0x10]
        0x0001d29a:    ea410006    A...    ORR      r0,r1,r6
        0x0001d29e:    6120         a      STR      r0,[r4,#0x10]
        0x0001d2a0:    9800        ..      LDR      r0,[sp,#0]
        0x0001d2a2:    f7fbf85d    ..].    BL       am_hal_interrupt_master_set ; 0x18360
        0x0001d2a6:    f7fbf857    ..W.    BL       am_hal_interrupt_master_disable ; 0x18358
        0x0001d2aa:    9000        ..      STR      r0,[sp,#0]
        0x0001d2ac:    f8d40104    ....    LDR      r0,[r4,#0x104]
        0x0001d2b0:    43b0        .C      BICS     r0,r0,r6
        0x0001d2b2:    f8c40104    ....    STR      r0,[r4,#0x104]
        0x0001d2b6:    0168        h.      LSLS     r0,r5,#5
        0x0001d2b8:    f1004780    ...G    ADD      r7,r0,#0x40000000
        0x0001d2bc:    f5074700    ...G    ADD      r7,r7,#0x8000
        0x0001d2c0:    f8d70200    ....    LDR      r0,[r7,#0x200]
        0x0001d2c4:    f0200001     ...    BIC      r0,r0,#1
        0x0001d2c8:    f8c70200    ....    STR      r0,[r7,#0x200]
        0x0001d2cc:    9800        ..      LDR      r0,[sp,#0]
        0x0001d2ce:    f7fbf847    ..G.    BL       am_hal_interrupt_master_set ; 0x18360
        0x0001d2d2:    f8d40104    ....    LDR      r0,[r4,#0x104]
        0x0001d2d6:    43b0        .C      BICS     r0,r0,r6
        0x0001d2d8:    f8c40104    ....    STR      r0,[r4,#0x104]
        0x0001d2dc:    2100        .!      MOVS     r1,#0
        0x0001d2de:    f8c71200    ....    STR      r1,[r7,#0x200]
        0x0001d2e2:    f8c71204    ....    STR      r1,[r7,#0x204]
        0x0001d2e6:    f8c71208    ....    STR      r1,[r7,#0x208]
        0x0001d2ea:    f8c7120c    ....    STR      r1,[r7,#0x20c]
        0x0001d2ee:    f8c71210    ....    STR      r1,[r7,#0x210]
        0x0001d2f2:    f8d40104    ....    LDR      r0,[r4,#0x104]
        0x0001d2f6:    4330        0C      ORRS     r0,r0,r6
        0x0001d2f8:    f8c40104    ....    STR      r0,[r4,#0x104]
        0x0001d2fc:    f8c48068    ..h.    STR      r8,[r4,#0x68]
        0x0001d300:    4806        .H      LDR      r0,[pc,#24] ; [0x1d31c] = 0x10004d0c
        0x0001d302:    f8001025    ..%.    STRB     r1,[r0,r5,LSL #2]
        0x0001d306:    eb000085    ....    ADD      r0,r0,r5,LSL #2
        0x0001d30a:    7041        Ap      STRB     r1,[r0,#1]
        0x0001d30c:    7081        .p      STRB     r1,[r0,#2]
        0x0001d30e:    70c1        .p      STRB     r1,[r0,#3]
        0x0001d310:    4608        .F      MOV      r0,r1
        0x0001d312:    e8bd83f8    ....    POP      {r3-r9,pc}
    $d
        0x0001d316:    0000        ..      DCW    0
        0x0001d318:    40008000    ...@    DCD    1073774592
        0x0001d31c:    10004d0c    .M..    DCD    268455180
    $t
    i.am_hal_timer_start
    am_hal_timer_start
        0x0001d320:    b538        8.      PUSH     {r3-r5,lr}
        0x0001d322:    4604        .F      MOV      r4,r0
        0x0001d324:    f7fbf818    ....    BL       am_hal_interrupt_master_disable ; 0x18358
        0x0001d328:    490d        .I      LDR      r1,[pc,#52] ; [0x1d360] = 0x40008000
        0x0001d32a:    9000        ..      STR      r0,[sp,#0]
        0x0001d32c:    f8d12104    ...!    LDR      r2,[r1,#0x104]
        0x0001d330:    2001        .       MOVS     r0,#1
        0x0001d332:    40a0        .@      LSLS     r0,r0,r4
        0x0001d334:    4382        .C      BICS     r2,r2,r0
        0x0001d336:    f8c12104    ...!    STR      r2,[r1,#0x104]
        0x0001d33a:    0162        b.      LSLS     r2,r4,#5
        0x0001d33c:    440a        .D      ADD      r2,r2,r1
        0x0001d33e:    f8d23200    ...2    LDR      r3,[r2,#0x200]
        0x0001d342:    f0430301    C...    ORR      r3,r3,#1
        0x0001d346:    f8c23200    ...2    STR      r3,[r2,#0x200]
        0x0001d34a:    f8d12104    ...!    LDR      r2,[r1,#0x104]
        0x0001d34e:    4310        .C      ORRS     r0,r0,r2
        0x0001d350:    f8c10104    ....    STR      r0,[r1,#0x104]
        0x0001d354:    9800        ..      LDR      r0,[sp,#0]
        0x0001d356:    f7fbf803    ....    BL       am_hal_interrupt_master_set ; 0x18360
        0x0001d35a:    2000        .       MOVS     r0,#0
        0x0001d35c:    bd38        8.      POP      {r3-r5,pc}
    $d
        0x0001d35e:    0000        ..      DCW    0
        0x0001d360:    40008000    ...@    DCD    1073774592
    $t
    i.am_hal_timer_stop
    am_hal_timer_stop
        0x0001d364:    b538        8.      PUSH     {r3-r5,lr}
        0x0001d366:    4604        .F      MOV      r4,r0
        0x0001d368:    f7fafff6    ....    BL       am_hal_interrupt_master_disable ; 0x18358
        0x0001d36c:    9000        ..      STR      r0,[sp,#0]
        0x0001d36e:    480c        .H      LDR      r0,[pc,#48] ; [0x1d3a0] = 0x40008000
        0x0001d370:    f8d01104    ....    LDR      r1,[r0,#0x104]
        0x0001d374:    2201        ."      MOVS     r2,#1
        0x0001d376:    40a2        .@      LSLS     r2,r2,r4
        0x0001d378:    4391        .C      BICS     r1,r1,r2
        0x0001d37a:    f8c01104    ....    STR      r1,[r0,#0x104]
        0x0001d37e:    0160        `.      LSLS     r0,r4,#5
        0x0001d380:    f1004080    ...@    ADD      r0,r0,#0x40000000
        0x0001d384:    f5004000    ...@    ADD      r0,r0,#0x8000
        0x0001d388:    f8d01200    ....    LDR      r1,[r0,#0x200]
        0x0001d38c:    f0210101    !...    BIC      r1,r1,#1
        0x0001d390:    f8c01200    ....    STR      r1,[r0,#0x200]
        0x0001d394:    9800        ..      LDR      r0,[sp,#0]
        0x0001d396:    f7faffe3    ....    BL       am_hal_interrupt_master_set ; 0x18360
        0x0001d39a:    2000        .       MOVS     r0,#0
        0x0001d39c:    bd38        8.      POP      {r3-r5,pc}
    $d
        0x0001d39e:    0000        ..      DCW    0
        0x0001d3a0:    40008000    ...@    DCD    1073774592
    $t
    i.am_hal_tpiu_enable
    am_hal_tpiu_enable
        0x0001d3a4:    480e        .H      LDR      r0,[pc,#56] ; [0x1d3e0] = 0xe0040000
        0x0001d3a6:    2100        .!      MOVS     r1,#0
        0x0001d3a8:    f8c01304    ....    STR      r1,[r0,#0x304]
        0x0001d3ac:    2201        ."      MOVS     r2,#1
        0x0001d3ae:    6042        B`      STR      r2,[r0,#4]
        0x0001d3b0:    2217        ."      MOVS     r2,#0x17
        0x0001d3b2:    6102        .a      STR      r2,[r0,#0x10]
        0x0001d3b4:    2202        ."      MOVS     r2,#2
        0x0001d3b6:    f8c020f0    ...     STR      r2,[r0,#0xf0]
        0x0001d3ba:    480a        .H      LDR      r0,[pc,#40] ; [0x1d3e4] = 0xe0040f00
        0x0001d3bc:    6001        .`      STR      r1,[r0,#0]
        0x0001d3be:    480a        .H      LDR      r0,[pc,#40] ; [0x1d3e8] = 0x40020000
        0x0001d3c0:    f8d01250    ..P.    LDR      r1,[r0,#0x250]
        0x0001d3c4:    f021010e    !...    BIC      r1,r1,#0xe
        0x0001d3c8:    1c89        ..      ADDS     r1,r1,#2
        0x0001d3ca:    f8c01250    ..P.    STR      r1,[r0,#0x250]
        0x0001d3ce:    f8d01250    ..P.    LDR      r1,[r0,#0x250]
        0x0001d3d2:    f0410101    A...    ORR      r1,r1,#1
        0x0001d3d6:    f8c01250    ..P.    STR      r1,[r0,#0x250]
        0x0001d3da:    2032        2       MOVS     r0,#0x32
        0x0001d3dc:    f7fdb876    ..v.    B        am_hal_delay_us ; 0x1a4cc
    $d
        0x0001d3e0:    e0040000    ....    DCD    3758358528
        0x0001d3e4:    e0040f00    ....    DCD    3758362368
        0x0001d3e8:    40020000    ...@    DCD    1073872896
    $t
    i.am_hal_util_write_and_wait
    am_hal_util_write_and_wait
        0x0001d3ec:    e92d4fff    -..O    PUSH     {r0-r11,lr}
        0x0001d3f0:    b087        ..      SUB      sp,sp,#0x1c
        0x0001d3f2:    461d        .F      MOV      r5,r3
        0x0001d3f4:    4616        .F      MOV      r6,r2
        0x0001d3f6:    460f        .F      MOV      r7,r1
        0x0001d3f8:    2400        .$      MOVS     r4,#0
        0x0001d3fa:    f7faffad    ....    BL       am_hal_interrupt_master_disable ; 0x18358
        0x0001d3fe:    9005        ..      STR      r0,[sp,#0x14]
        0x0001d400:    4668        hF      MOV      r0,sp
        0x0001d402:    f7fffeb5    ....    BL       am_hal_timer_default_config_set ; 0x1d170
        0x0001d406:    1e60        `.      SUBS     r0,r4,#1
        0x0001d408:    f04f0900    O...    MOV      r9,#0
        0x0001d40c:    e9cd9002    ....    STRD     r9,r0,[sp,#8]
        0x0001d410:    4837        7H      LDR      r0,[pc,#220] ; [0x1d4f0] = 0x5b8d80
        0x0001d412:    4938        8I      LDR      r1,[pc,#224] ; [0x1d4f4] = 0xf4240
        0x0001d414:    4368        hC      MULS     r0,r5,r0
        0x0001d416:    fbb0f0f1    ....    UDIV     r0,r0,r1
        0x0001d41a:    f04f0801    O...    MOV      r8,#1
        0x0001d41e:    9004        ..      STR      r0,[sp,#0x10]
        0x0001d420:    f88d8001    ....    STRB     r8,[sp,#1]
        0x0001d424:    4669        iF      MOV      r1,sp
        0x0001d426:    200d        .       MOVS     r0,#0xd
        0x0001d428:    f000fd48    ..H.    BL       internal_timer_config ; 0x1debc
        0x0001d42c:    b978        x.      CBNZ     r0,0x1d44e ; am_hal_util_write_and_wait + 98
        0x0001d42e:    200d        .       MOVS     r0,#0xd
        0x0001d430:    f7fffe42    ..B.    BL       am_hal_timer_clear ; 0x1d0b8
        0x0001d434:    200d        .       MOVS     r0,#0xd
        0x0001d436:    f7ffff95    ....    BL       am_hal_timer_stop ; 0x1d364
        0x0001d43a:    f04f6000    O..`    MOV      r0,#0x8000000
        0x0001d43e:    f7fffea5    ....    BL       am_hal_timer_interrupt_clear ; 0x1d18c
        0x0001d442:    b920         .      CBNZ     r0,0x1d44e ; am_hal_util_write_and_wait + 98
        0x0001d444:    f04f6000    O..`    MOV      r0,#0x8000000
        0x0001d448:    f7fffea6    ....    BL       am_hal_timer_interrupt_enable ; 0x1d198
        0x0001d44c:    b108        ..      CBZ      r0,0x1d452 ; am_hal_util_write_and_wait + 102
        0x0001d44e:    4604        .F      MOV      r4,r0
        0x0001d450:    e046        F.      B        0x1d4e0 ; am_hal_util_write_and_wait + 244
        0x0001d452:    4829        )H      LDR      r0,[pc,#164] ; [0x1d4f8] = 0xe000e050
        0x0001d454:    f8809400    ....    STRB     r9,[r0,#0x400]
        0x0001d458:    f8dfb0a0    ....    LDR      r11,[pc,#160] ; [0x1d4fc] = 0xe000e008
        0x0001d45c:    f44f3a80    O..:    MOV      r10,#0x10000
        0x0001d460:    f8cba100    ....    STR      r10,[r11,#0x100]
        0x0001d464:    4826        &H      LDR      r0,[pc,#152] ; [0x1d500] = 0xe000ed0c
        0x0001d466:    6800        .h      LDR      r0,[r0,#0]
        0x0001d468:    f3c02902    ...)    UBFX     r9,r0,#8,#3
        0x0001d46c:    f1b90f07    ....    CMP      r9,#7
        0x0001d470:    bf08        ..      IT       EQ
        0x0001d472:    2401        .$      MOVEQ    r4,#1
        0x0001d474:    d034        4.      BEQ      0x1d4e0 ; am_hal_util_write_and_wait + 244
        0x0001d476:    2100        .!      MOVS     r1,#0
        0x0001d478:    2002        .       MOVS     r0,#2
        0x0001d47a:    f7fcfec5    ....    BL       am_hal_daxi_control ; 0x1a208
        0x0001d47e:    f3ef8511    ....    MRS      r5,BASEPRI
        0x0001d482:    f1b90f05    ....    CMP      r9,#5
        0x0001d486:    bf23        #.      ITTTE    CS
        0x0001d488:    f1090001    ....    ADDCS    r0,r9,#1
        0x0001d48c:    fa08f000    ....    LSLCS    r0,r8,r0
        0x0001d490:    b2c0        ..      UXTBCS   r0,r0
        0x0001d492:    2020                MOVCC    r0,#0x20
        0x0001d494:    f3808811    ....    MSR      BASEPRI,r0
        0x0001d498:    f1b73fff    ...?    CMP      r7,#0xffffffff
        0x0001d49c:    d003        ..      BEQ      0x1d4a6 ; am_hal_util_write_and_wait + 186
        0x0001d49e:    9807        ..      LDR      r0,[sp,#0x1c]
        0x0001d4a0:    6800        .h      LDR      r0,[r0,#0]
        0x0001d4a2:    43b8        .C      BICS     r0,r0,r7
        0x0001d4a4:    4306        .C      ORRS     r6,r6,r0
        0x0001d4a6:    200d        .       MOVS     r0,#0xd
        0x0001d4a8:    f7fffe06    ....    BL       am_hal_timer_clear ; 0x1d0b8
        0x0001d4ac:    4815        .H      LDR      r0,[pc,#84] ; [0x1d504] = 0xe000ed10
        0x0001d4ae:    6801        .h      LDR      r1,[r0,#0]
        0x0001d4b0:    f0210104    !...    BIC      r1,r1,#4
        0x0001d4b4:    6001        .`      STR      r1,[r0,#0]
        0x0001d4b6:    4a14        .J      LDR      r2,[pc,#80] ; [0x1d508] = 0x10000200
        0x0001d4b8:    4630        0F      MOV      r0,r6
        0x0001d4ba:    9907        ..      LDR      r1,[sp,#0x1c]
        0x0001d4bc:    6992        .i      LDR      r2,[r2,#0x18]
        0x0001d4be:    4790        .G      BLX      r2
        0x0001d4c0:    200d        .       MOVS     r0,#0xd
        0x0001d4c2:    f7ffff4f    ..O.    BL       am_hal_timer_stop ; 0x1d364
        0x0001d4c6:    f04f6000    O..`    MOV      r0,#0x8000000
        0x0001d4ca:    f7fffe5f    .._.    BL       am_hal_timer_interrupt_clear ; 0x1d18c
        0x0001d4ce:    4669        iF      MOV      r1,sp
        0x0001d4d0:    2000        .       MOVS     r0,#0
        0x0001d4d2:    f7fffe91    ....    BL       am_hal_timer_interrupt_status_get ; 0x1d1f8
        0x0001d4d6:    f8cba280    ....    STR      r10,[r11,#0x280]
        0x0001d4da:    b2e8        ..      UXTB     r0,r5
        0x0001d4dc:    f3808811    ....    MSR      BASEPRI,r0
        0x0001d4e0:    9805        ..      LDR      r0,[sp,#0x14]
        0x0001d4e2:    f7faff3d    ..=.    BL       am_hal_interrupt_master_set ; 0x18360
        0x0001d4e6:    b00b        ..      ADD      sp,sp,#0x2c
        0x0001d4e8:    4620         F      MOV      r0,r4
        0x0001d4ea:    e8bd8ff0    ....    POP      {r4-r11,pc}
    $d
        0x0001d4ee:    0000        ..      DCW    0
        0x0001d4f0:    005b8d80    ..[.    DCD    6000000
        0x0001d4f4:    000f4240    @B..    DCD    1000000
        0x0001d4f8:    e000e050    P...    DCD    3758153808
        0x0001d4fc:    e000e008    ....    DCD    3758153736
        0x0001d500:    e000ed0c    ....    DCD    3758157068
        0x0001d504:    e000ed10    ....    DCD    3758157072
        0x0001d508:    10000200    ....    DCD    268435968
    $t
    i.am_mspi0_isr
    am_mspi0_isr
        0x0001d50c:    b508        ..      PUSH     {r3,lr}
        0x0001d50e:    2200        ."      MOVS     r2,#0
        0x0001d510:    4669        iF      MOV      r1,sp
        0x0001d512:    4807        .H      LDR      r0,[pc,#28] ; [0x1d530] = 0x10000004
        0x0001d514:    6800        .h      LDR      r0,[r0,#0]
        0x0001d516:    f7fefca3    ....    BL       am_hal_mspi_interrupt_status_get ; 0x1be60
        0x0001d51a:    4805        .H      LDR      r0,[pc,#20] ; [0x1d530] = 0x10000004
        0x0001d51c:    9900        ..      LDR      r1,[sp,#0]
        0x0001d51e:    6800        .h      LDR      r0,[r0,#0]
        0x0001d520:    f7fefae4    ....    BL       am_hal_mspi_interrupt_clear ; 0x1baec
        0x0001d524:    4802        .H      LDR      r0,[pc,#8] ; [0x1d530] = 0x10000004
        0x0001d526:    9900        ..      LDR      r1,[sp,#0]
        0x0001d528:    6800        .h      LDR      r0,[r0,#0]
        0x0001d52a:    f7fefb33    ..3.    BL       am_hal_mspi_interrupt_service ; 0x1bb94
        0x0001d52e:    bd08        ..      POP      {r3,pc}
    $d
        0x0001d530:    10000004    ....    DCD    268435460
    $t
    i.am_stimer_cmpr0_isr
    am_stimer_cmpr0_isr
        0x0001d534:    b510        ..      PUSH     {r4,lr}
        0x0001d536:    2001        .       MOVS     r0,#1
        0x0001d538:    f7fffcc2    ....    BL       am_hal_stimer_int_clear ; 0x1cec0
        0x0001d53c:    f44f4100    O..A    MOV      r1,#0x8000
        0x0001d540:    2000        .       MOVS     r0,#0
        0x0001d542:    f7fffc6f    ..o.    BL       am_hal_stimer_compare_delta_set ; 0x1ce24
        0x0001d546:    480e        .H      LDR      r0,[pc,#56] ; [0x1d580] = 0x10000008
        0x0001d548:    6800        .h      LDR      r0,[r0,#0]
        0x0001d54a:    2106        .!      MOVS     r1,#6
        0x0001d54c:    fbb0f2f1    ....    UDIV     r2,r0,r1
        0x0001d550:    fb010012    ....    MLS      r0,r1,r2,r0
        0x0001d554:    490b        .I      LDR      r1,[pc,#44] ; [0x1d584] = 0x1000001a
        0x0001d556:    5c0c        .\      LDRB     r4,[r1,r0]
        0x0001d558:    4622        "F      MOV      r2,r4
        0x0001d55a:    f44f6180    O..a    MOV      r1,#0x400
        0x0001d55e:    480a        .H      LDR      r0,[pc,#40] ; [0x1d588] = 0x10170000
        0x0001d560:    f7faffa5    ....    BL       __aeabi_memset ; 0x184ae
        0x0001d564:    4806        .H      LDR      r0,[pc,#24] ; [0x1d580] = 0x10000008
        0x0001d566:    6800        .h      LDR      r0,[r0,#0]
        0x0001d568:    1c40        @.      ADDS     r0,r0,#1
        0x0001d56a:    4905        .I      LDR      r1,[pc,#20] ; [0x1d580] = 0x10000008
        0x0001d56c:    6008        .`      STR      r0,[r1,#0]
        0x0001d56e:    a007        ..      ADR      r0,{pc}+0x1e ; 0x1d58c
        0x0001d570:    f000f82e    ....    BL       am_util_stdio_printf ; 0x1d5d0
        0x0001d574:    4802        .H      LDR      r0,[pc,#8] ; [0x1d580] = 0x10000008
        0x0001d576:    6801        .h      LDR      r1,[r0,#0]
        0x0001d578:    a00c        ..      ADR      r0,{pc}+0x34 ; 0x1d5ac
        0x0001d57a:    f000f829    ..).    BL       am_util_stdio_printf ; 0x1d5d0
        0x0001d57e:    bd10        ..      POP      {r4,pc}
    $d
        0x0001d580:    10000008    ....    DCD    268435464
        0x0001d584:    1000001a    ....    DCD    268435482
        0x0001d588:    10170000    ....    DCD    269942784
        0x0001d58c:    6972570a    .Wri    DCD    1769101066
        0x0001d590:    44206574    te D    DCD    1142973812
        0x0001d594:    41525053    SPRA    DCD    1095913555
        0x0001d598:    6e69204d    M in    DCD    1852383309
        0x0001d59c:    69745320     Sti    DCD    1769231136
        0x0001d5a0:    2072656d    mer     DCD    544367981
        0x0001d5a4:    0a525349    ISR.    DCD    173167433
        0x0001d5a8:    00000000    ....    DCD    0
        0x0001d5ac:    69745f67    g_ti    DCD    1769234279
        0x0001d5b0:    5f72656d    mer_    DCD    1601332589
        0x0001d5b4:    5f727369    isr_    DCD    1601336169
        0x0001d5b8:    6e756f63    coun    DCD    1853189987
        0x0001d5bc:    64253d74    t=%d    DCD    1680162164
        0x0001d5c0:    000a0a20     ...    DCD    657952
    $t
    i.am_util_delay_us
    am_util_delay_us
        0x0001d5c4:    b510        ..      PUSH     {r4,lr}
        0x0001d5c6:    4604        .F      MOV      r4,r0
        0x0001d5c8:    4620         F      MOV      r0,r4
        0x0001d5ca:    f7fcff7f    ....    BL       am_hal_delay_us ; 0x1a4cc
        0x0001d5ce:    bd10        ..      POP      {r4,pc}
    i.am_util_stdio_printf
    am_util_stdio_printf
        0x0001d5d0:    b40f        ..      PUSH     {r0-r3}
        0x0001d5d2:    b538        8.      PUSH     {r3-r5,lr}
        0x0001d5d4:    480b        .H      LDR      r0,[pc,#44] ; [0x1d604] = 0x100000c0
        0x0001d5d6:    6800        .h      LDR      r0,[r0,#0]
        0x0001d5d8:    b918        ..      CBNZ     r0,0x1d5e2 ; am_util_stdio_printf + 18
        0x0001d5da:    2000        .       MOVS     r0,#0
        0x0001d5dc:    bc38        8.      POP      {r3-r5}
        0x0001d5de:    f85dfb14    ]...    LDR      pc,[sp],#0x14
        0x0001d5e2:    a805        ..      ADD      r0,sp,#0x14
        0x0001d5e4:    9000        ..      STR      r0,[sp,#0]
        0x0001d5e6:    4808        .H      LDR      r0,[pc,#32] ; [0x1d608] = 0x10002c7c
        0x0001d5e8:    9a00        ..      LDR      r2,[sp,#0]
        0x0001d5ea:    9904        ..      LDR      r1,[sp,#0x10]
        0x0001d5ec:    f000f824    ..$.    BL       am_util_stdio_vsprintf ; 0x1d638
        0x0001d5f0:    4604        .F      MOV      r4,r0
        0x0001d5f2:    2000        .       MOVS     r0,#0
        0x0001d5f4:    9000        ..      STR      r0,[sp,#0]
        0x0001d5f6:    4804        .H      LDR      r0,[pc,#16] ; [0x1d608] = 0x10002c7c
        0x0001d5f8:    4902        .I      LDR      r1,[pc,#8] ; [0x1d604] = 0x100000c0
        0x0001d5fa:    6809        .h      LDR      r1,[r1,#0]
        0x0001d5fc:    4788        .G      BLX      r1
        0x0001d5fe:    4620         F      MOV      r0,r4
        0x0001d600:    e7ec        ..      B        0x1d5dc ; am_util_stdio_printf + 12
    $d
        0x0001d602:    0000        ..      DCW    0
        0x0001d604:    100000c0    ....    DCD    268435648
        0x0001d608:    10002c7c    |,..    DCD    268446844
    $t
    i.am_util_stdio_printf_init
    am_util_stdio_printf_init
        0x0001d60c:    4901        .I      LDR      r1,[pc,#4] ; [0x1d614] = 0x100000c0
        0x0001d60e:    6008        .`      STR      r0,[r1,#0]
        0x0001d610:    4770        pG      BX       lr
    $d
        0x0001d612:    0000        ..      DCW    0
        0x0001d614:    100000c0    ....    DCD    268435648
    $t
    i.am_util_stdio_terminal_clear
    am_util_stdio_terminal_clear
        0x0001d618:    b510        ..      PUSH     {r4,lr}
        0x0001d61a:    a002        ..      ADR      r0,{pc}+0xa ; 0x1d624
        0x0001d61c:    f7ffffd8    ....    BL       am_util_stdio_printf ; 0x1d5d0
        0x0001d620:    bd10        ..      POP      {r4,pc}
    $d
        0x0001d622:    0000        ..      DCW    0
        0x0001d624:    0a0a0a0a    ....    DCD    168430090
        0x0001d628:    0a0a0a0a    ....    DCD    168430090
        0x0001d62c:    0a0a0a0a    ....    DCD    168430090
        0x0001d630:    0a0a0a0a    ....    DCD    168430090
        0x0001d634:    00000a0a    ....    DCD    2570
    $t
    i.am_util_stdio_vsprintf
    am_util_stdio_vsprintf
        0x0001d638:    e92d4ff7    -..O    PUSH     {r0-r2,r4-r11,lr}
        0x0001d63c:    ed2d8b02    -...    VPUSH    {d8}
        0x0001d640:    b08a        ..      SUB      sp,sp,#0x28
        0x0001d642:    4604        .F      MOV      r4,r0
        0x0001d644:    460d        .F      MOV      r5,r1
        0x0001d646:    f04f0900    O...    MOV      r9,#0
        0x0001d64a:    2000        .       MOVS     r0,#0
        0x0001d64c:    9000        ..      STR      r0,[sp,#0]
        0x0001d64e:    e1b9        ..      B        0x1d9c4 ; am_util_stdio_vsprintf + 908
        0x0001d650:    2006        .       MOVS     r0,#6
        0x0001d652:    9006        ..      STR      r0,[sp,#0x18]
        0x0001d654:    7828        (x      LDRB     r0,[r5,#0]
        0x0001d656:    2825        %(      CMP      r0,#0x25
        0x0001d658:    d012        ..      BEQ      0x1d680 ; am_util_stdio_vsprintf + 72
        0x0001d65a:    b16c        l.      CBZ      r4,0x1d678 ; am_util_stdio_vsprintf + 64
        0x0001d65c:    7828        (x      LDRB     r0,[r5,#0]
        0x0001d65e:    280a        .(      CMP      r0,#0xa
        0x0001d660:    d107        ..      BNE      0x1d672 ; am_util_stdio_vsprintf + 58
        0x0001d662:    48de        .H      LDR      r0,[pc,#888] ; [0x1d9dc] = 0x100000c4
        0x0001d664:    7800        .x      LDRB     r0,[r0,#0]
        0x0001d666:    b120         .      CBZ      r0,0x1d672 ; am_util_stdio_vsprintf + 58
        0x0001d668:    200d        .       MOVS     r0,#0xd
        0x0001d66a:    f8040b01    ....    STRB     r0,[r4],#1
        0x0001d66e:    f1090901    ....    ADD      r9,r9,#1
        0x0001d672:    7828        (x      LDRB     r0,[r5,#0]
        0x0001d674:    f8040b01    ....    STRB     r0,[r4],#1
        0x0001d678:    1c6d        m.      ADDS     r5,r5,#1
        0x0001d67a:    f1090901    ....    ADD      r9,r9,#1
        0x0001d67e:    e1a1        ..      B        0x1d9c4 ; am_util_stdio_vsprintf + 908
        0x0001d680:    1c6d        m.      ADDS     r5,r5,#1
        0x0001d682:    2000        .       MOVS     r0,#0
        0x0001d684:    9002        ..      STR      r0,[sp,#8]
        0x0001d686:    9003        ..      STR      r0,[sp,#0xc]
        0x0001d688:    2020                MOVS     r0,#0x20
        0x0001d68a:    9004        ..      STR      r0,[sp,#0x10]
        0x0001d68c:    7828        (x      LDRB     r0,[r5,#0]
        0x0001d68e:    2830        0(      CMP      r0,#0x30
        0x0001d690:    d101        ..      BNE      0x1d696 ; am_util_stdio_vsprintf + 94
        0x0001d692:    9004        ..      STR      r0,[sp,#0x10]
        0x0001d694:    1c6d        m.      ADDS     r5,r5,#1
        0x0001d696:    a907        ..      ADD      r1,sp,#0x1c
        0x0001d698:    4628        (F      MOV      r0,r5
        0x0001d69a:    f000fa97    ....    BL       decstr_to_int ; 0x1dbcc
        0x0001d69e:    4606        .F      MOV      r6,r0
        0x0001d6a0:    9807        ..      LDR      r0,[sp,#0x1c]
        0x0001d6a2:    4405        .D      ADD      r5,r5,r0
        0x0001d6a4:    7828        (x      LDRB     r0,[r5,#0]
        0x0001d6a6:    2873        s(      CMP      r0,#0x73
        0x0001d6a8:    d002        ..      BEQ      0x1d6b0 ; am_util_stdio_vsprintf + 120
        0x0001d6aa:    2e00        ..      CMP      r6,#0
        0x0001d6ac:    da00        ..      BGE      0x1d6b0 ; am_util_stdio_vsprintf + 120
        0x0001d6ae:    4276        vB      RSBS     r6,r6,#0
        0x0001d6b0:    7828        (x      LDRB     r0,[r5,#0]
        0x0001d6b2:    282e        .(      CMP      r0,#0x2e
        0x0001d6b4:    d107        ..      BNE      0x1d6c6 ; am_util_stdio_vsprintf + 142
        0x0001d6b6:    1c6d        m.      ADDS     r5,r5,#1
        0x0001d6b8:    a907        ..      ADD      r1,sp,#0x1c
        0x0001d6ba:    4628        (F      MOV      r0,r5
        0x0001d6bc:    f000fa86    ....    BL       decstr_to_int ; 0x1dbcc
        0x0001d6c0:    9006        ..      STR      r0,[sp,#0x18]
        0x0001d6c2:    9807        ..      LDR      r0,[sp,#0x1c]
        0x0001d6c4:    4405        .D      ADD      r5,r5,r0
        0x0001d6c6:    7828        (x      LDRB     r0,[r5,#0]
        0x0001d6c8:    286c        l(      CMP      r0,#0x6c
        0x0001d6ca:    d106        ..      BNE      0x1d6da ; am_util_stdio_vsprintf + 162
        0x0001d6cc:    1c6d        m.      ADDS     r5,r5,#1
        0x0001d6ce:    7828        (x      LDRB     r0,[r5,#0]
        0x0001d6d0:    286c        l(      CMP      r0,#0x6c
        0x0001d6d2:    d102        ..      BNE      0x1d6da ; am_util_stdio_vsprintf + 162
        0x0001d6d4:    1c6d        m.      ADDS     r5,r5,#1
        0x0001d6d6:    2001        .       MOVS     r0,#1
        0x0001d6d8:    9002        ..      STR      r0,[sp,#8]
        0x0001d6da:    7828        (x      LDRB     r0,[r5,#0]
        0x0001d6dc:    2866        f(      CMP      r0,#0x66
        0x0001d6de:    d06f        o.      BEQ      0x1d7c0 ; am_util_stdio_vsprintf + 392
        0x0001d6e0:    dc08        ..      BGT      0x1d6f4 ; am_util_stdio_vsprintf + 188
        0x0001d6e2:    2846        F(      CMP      r0,#0x46
        0x0001d6e4:    d06d        m.      BEQ      0x1d7c2 ; am_util_stdio_vsprintf + 394
        0x0001d6e6:    2858        X(      CMP      r0,#0x58
        0x0001d6e8:    d05c        \.      BEQ      0x1d7a4 ; am_util_stdio_vsprintf + 364
        0x0001d6ea:    2863        c(      CMP      r0,#0x63
        0x0001d6ec:    d00b        ..      BEQ      0x1d706 ; am_util_stdio_vsprintf + 206
        0x0001d6ee:    2864        d(      CMP      r0,#0x64
        0x0001d6f0:    d168        h.      BNE      0x1d7c4 ; am_util_stdio_vsprintf + 396
        0x0001d6f2:    e0c3        ..      B        0x1d87c ; am_util_stdio_vsprintf + 580
        0x0001d6f4:    2869        i(      CMP      r0,#0x69
        0x0001d6f6:    d07d        }.      BEQ      0x1d7f4 ; am_util_stdio_vsprintf + 444
        0x0001d6f8:    2873        s(      CMP      r0,#0x73
        0x0001d6fa:    d011        ..      BEQ      0x1d720 ; am_util_stdio_vsprintf + 232
        0x0001d6fc:    2875        u(      CMP      r0,#0x75
        0x0001d6fe:    d07a        z.      BEQ      0x1d7f6 ; am_util_stdio_vsprintf + 446
        0x0001d700:    2878        x(      CMP      r0,#0x78
        0x0001d702:    d1f5        ..      BNE      0x1d6f0 ; am_util_stdio_vsprintf + 184
        0x0001d704:    e04b        K.      B        0x1d79e ; am_util_stdio_vsprintf + 358
        0x0001d706:    980e        ..      LDR      r0,[sp,#0x38]
        0x0001d708:    f8101b04    ....    LDRB     r1,[r0],#4
        0x0001d70c:    900e        ..      STR      r0,[sp,#0x38]
        0x0001d70e:    b2c8        ..      UXTB     r0,r1
        0x0001d710:    9005        ..      STR      r0,[sp,#0x14]
        0x0001d712:    b114        ..      CBZ      r4,0x1d71a ; am_util_stdio_vsprintf + 226
        0x0001d714:    9805        ..      LDR      r0,[sp,#0x14]
        0x0001d716:    f8040b01    ....    STRB     r0,[r4],#1
        0x0001d71a:    f1090901    ....    ADD      r9,r9,#1
        0x0001d71e:    e14e        N.      B        0x1d9be ; am_util_stdio_vsprintf + 902
        0x0001d720:    980e        ..      LDR      r0,[sp,#0x38]
        0x0001d722:    f850bb04    P...    LDR      r11,[r0],#4
        0x0001d726:    900e        ..      STR      r0,[sp,#0x38]
        0x0001d728:    4658        XF      MOV      r0,r11
        0x0001d72a:    f001fa7d    ..}.    BL       simple_strlen ; 0x1ec28
        0x0001d72e:    9000        ..      STR      r0,[sp,#0]
        0x0001d730:    2e00        ..      CMP      r6,#0
        0x0001d732:    dd11        ..      BLE      0x1d758 ; am_util_stdio_vsprintf + 288
        0x0001d734:    9800        ..      LDR      r0,[sp,#0]
        0x0001d736:    42b0        .B      CMP      r0,r6
        0x0001d738:    d20e        ..      BCS      0x1d758 ; am_util_stdio_vsprintf + 288
        0x0001d73a:    9800        ..      LDR      r0,[sp,#0]
        0x0001d73c:    1a36        6.      SUBS     r6,r6,r0
        0x0001d73e:    4632        2F      MOV      r2,r6
        0x0001d740:    4620         F      MOV      r0,r4
        0x0001d742:    9904        ..      LDR      r1,[sp,#0x10]
        0x0001d744:    f001f8c8    ....    BL       padbuffer ; 0x1e8d8
        0x0001d748:    4606        .F      MOV      r6,r0
        0x0001d74a:    b10c        ..      CBZ      r4,0x1d750 ; am_util_stdio_vsprintf + 280
        0x0001d74c:    4630        0F      MOV      r0,r6
        0x0001d74e:    e000        ..      B        0x1d752 ; am_util_stdio_vsprintf + 282
        0x0001d750:    2000        .       MOVS     r0,#0
        0x0001d752:    4404        .D      ADD      r4,r4,r0
        0x0001d754:    44b1        .D      ADD      r9,r9,r6
        0x0001d756:    2600        .&      MOVS     r6,#0
        0x0001d758:    e008        ..      B        0x1d76c ; am_util_stdio_vsprintf + 308
        0x0001d75a:    b11c        ..      CBZ      r4,0x1d764 ; am_util_stdio_vsprintf + 300
        0x0001d75c:    f89b0000    ....    LDRB     r0,[r11,#0]
        0x0001d760:    f8040b01    ....    STRB     r0,[r4],#1
        0x0001d764:    f10b0b01    ....    ADD      r11,r11,#1
        0x0001d768:    f1090901    ....    ADD      r9,r9,#1
        0x0001d76c:    f89b0000    ....    LDRB     r0,[r11,#0]
        0x0001d770:    2800        .(      CMP      r0,#0
        0x0001d772:    d1f2        ..      BNE      0x1d75a ; am_util_stdio_vsprintf + 290
        0x0001d774:    b196        ..      CBZ      r6,0x1d79c ; am_util_stdio_vsprintf + 356
        0x0001d776:    4276        vB      RSBS     r6,r6,#0
        0x0001d778:    9800        ..      LDR      r0,[sp,#0]
        0x0001d77a:    42b0        .B      CMP      r0,r6
        0x0001d77c:    d20e        ..      BCS      0x1d79c ; am_util_stdio_vsprintf + 356
        0x0001d77e:    9800        ..      LDR      r0,[sp,#0]
        0x0001d780:    1a36        6.      SUBS     r6,r6,r0
        0x0001d782:    4632        2F      MOV      r2,r6
        0x0001d784:    4620         F      MOV      r0,r4
        0x0001d786:    9904        ..      LDR      r1,[sp,#0x10]
        0x0001d788:    f001f8a6    ....    BL       padbuffer ; 0x1e8d8
        0x0001d78c:    4606        .F      MOV      r6,r0
        0x0001d78e:    b10c        ..      CBZ      r4,0x1d794 ; am_util_stdio_vsprintf + 348
        0x0001d790:    4630        0F      MOV      r0,r6
        0x0001d792:    e000        ..      B        0x1d796 ; am_util_stdio_vsprintf + 350
        0x0001d794:    2000        .       MOVS     r0,#0
        0x0001d796:    4404        .D      ADD      r4,r4,r0
        0x0001d798:    44b1        .D      ADD      r9,r9,r6
        0x0001d79a:    2600        .&      MOVS     r6,#0
        0x0001d79c:    e10f        ..      B        0x1d9be ; am_util_stdio_vsprintf + 902
        0x0001d79e:    2001        .       MOVS     r0,#1
        0x0001d7a0:    9003        ..      STR      r0,[sp,#0xc]
        0x0001d7a2:    bf00        ..      NOP      
        0x0001d7a4:    9802        ..      LDR      r0,[sp,#8]
        0x0001d7a6:    b170        p.      CBZ      r0,0x1d7c6 ; am_util_stdio_vsprintf + 398
        0x0001d7a8:    980e        ..      LDR      r0,[sp,#0x38]
        0x0001d7aa:    1dc0        ..      ADDS     r0,r0,#7
        0x0001d7ac:    f0200007     ...    BIC      r0,r0,#7
        0x0001d7b0:    4601        .F      MOV      r1,r0
        0x0001d7b2:    900e        ..      STR      r0,[sp,#0x38]
        0x0001d7b4:    6800        .h      LDR      r0,[r0,#0]
        0x0001d7b6:    6849        Ih      LDR      r1,[r1,#4]
        0x0001d7b8:    9a0e        ..      LDR      r2,[sp,#0x38]
        0x0001d7ba:    3208        .2      ADDS     r2,r2,#8
        0x0001d7bc:    920e        ..      STR      r2,[sp,#0x38]
        0x0001d7be:    e008        ..      B        0x1d7d2 ; am_util_stdio_vsprintf + 410
        0x0001d7c0:    e0c3        ..      B        0x1d94a ; am_util_stdio_vsprintf + 786
        0x0001d7c2:    e0c3        ..      B        0x1d94c ; am_util_stdio_vsprintf + 788
        0x0001d7c4:    e0f4        ..      B        0x1d9b0 ; am_util_stdio_vsprintf + 888
        0x0001d7c6:    980e        ..      LDR      r0,[sp,#0x38]
        0x0001d7c8:    6800        .h      LDR      r0,[r0,#0]
        0x0001d7ca:    990e        ..      LDR      r1,[sp,#0x38]
        0x0001d7cc:    1d09        ..      ADDS     r1,r1,#4
        0x0001d7ce:    910e        ..      STR      r1,[sp,#0x38]
        0x0001d7d0:    2100        .!      MOVS     r1,#0
        0x0001d7d2:    4607        .F      MOV      r7,r0
        0x0001d7d4:    4688        .F      MOV      r8,r1
        0x0001d7d6:    b19e        ..      CBZ      r6,0x1d800 ; am_util_stdio_vsprintf + 456
        0x0001d7d8:    4638        8F      MOV      r0,r7
        0x0001d7da:    4641        AF      MOV      r1,r8
        0x0001d7dc:    f001f833    ..3.    BL       ndigits_in_hex ; 0x1e846
        0x0001d7e0:    1a36        6.      SUBS     r6,r6,r0
        0x0001d7e2:    4632        2F      MOV      r2,r6
        0x0001d7e4:    4620         F      MOV      r0,r4
        0x0001d7e6:    9904        ..      LDR      r1,[sp,#0x10]
        0x0001d7e8:    f001f876    ..v.    BL       padbuffer ; 0x1e8d8
        0x0001d7ec:    4606        .F      MOV      r6,r0
        0x0001d7ee:    b11c        ..      CBZ      r4,0x1d7f8 ; am_util_stdio_vsprintf + 448
        0x0001d7f0:    4630        0F      MOV      r0,r6
        0x0001d7f2:    e002        ..      B        0x1d7fa ; am_util_stdio_vsprintf + 450
        0x0001d7f4:    e043        C.      B        0x1d87e ; am_util_stdio_vsprintf + 582
        0x0001d7f6:    e00e        ..      B        0x1d816 ; am_util_stdio_vsprintf + 478
        0x0001d7f8:    2000        .       MOVS     r0,#0
        0x0001d7fa:    4404        .D      ADD      r4,r4,r0
        0x0001d7fc:    44b1        .D      ADD      r9,r9,r6
        0x0001d7fe:    2600        .&      MOVS     r6,#0
        0x0001d800:    4622        "F      MOV      r2,r4
        0x0001d802:    4638        8F      MOV      r0,r7
        0x0001d804:    4641        AF      MOV      r1,r8
        0x0001d806:    9b03        ..      LDR      r3,[sp,#0xc]
        0x0001d808:    f001fb0a    ....    BL       uint64_to_hexstr ; 0x1ee20
        0x0001d80c:    4682        .F      MOV      r10,r0
        0x0001d80e:    b104        ..      CBZ      r4,0x1d812 ; am_util_stdio_vsprintf + 474
        0x0001d810:    4454        TD      ADD      r4,r4,r10
        0x0001d812:    44d1        .D      ADD      r9,r9,r10
        0x0001d814:    e0d3        ..      B        0x1d9be ; am_util_stdio_vsprintf + 902
        0x0001d816:    9802        ..      LDR      r0,[sp,#8]
        0x0001d818:    b158        X.      CBZ      r0,0x1d832 ; am_util_stdio_vsprintf + 506
        0x0001d81a:    980e        ..      LDR      r0,[sp,#0x38]
        0x0001d81c:    1dc0        ..      ADDS     r0,r0,#7
        0x0001d81e:    f0200007     ...    BIC      r0,r0,#7
        0x0001d822:    4601        .F      MOV      r1,r0
        0x0001d824:    900e        ..      STR      r0,[sp,#0x38]
        0x0001d826:    6800        .h      LDR      r0,[r0,#0]
        0x0001d828:    6849        Ih      LDR      r1,[r1,#4]
        0x0001d82a:    9a0e        ..      LDR      r2,[sp,#0x38]
        0x0001d82c:    3208        .2      ADDS     r2,r2,#8
        0x0001d82e:    920e        ..      STR      r2,[sp,#0x38]
        0x0001d830:    e005        ..      B        0x1d83e ; am_util_stdio_vsprintf + 518
        0x0001d832:    980e        ..      LDR      r0,[sp,#0x38]
        0x0001d834:    6800        .h      LDR      r0,[r0,#0]
        0x0001d836:    990e        ..      LDR      r1,[sp,#0x38]
        0x0001d838:    1d09        ..      ADDS     r1,r1,#4
        0x0001d83a:    910e        ..      STR      r1,[sp,#0x38]
        0x0001d83c:    2100        .!      MOVS     r1,#0
        0x0001d83e:    4607        .F      MOV      r7,r0
        0x0001d840:    4688        .F      MOV      r8,r1
        0x0001d842:    b18e        ..      CBZ      r6,0x1d868 ; am_util_stdio_vsprintf + 560
        0x0001d844:    4638        8F      MOV      r0,r7
        0x0001d846:    4641        AF      MOV      r1,r8
        0x0001d848:    f001f829    ..).    BL       ndigits_in_u64 ; 0x1e89e
        0x0001d84c:    1a36        6.      SUBS     r6,r6,r0
        0x0001d84e:    4632        2F      MOV      r2,r6
        0x0001d850:    4620         F      MOV      r0,r4
        0x0001d852:    9904        ..      LDR      r1,[sp,#0x10]
        0x0001d854:    f001f840    ..@.    BL       padbuffer ; 0x1e8d8
        0x0001d858:    4606        .F      MOV      r6,r0
        0x0001d85a:    b10c        ..      CBZ      r4,0x1d860 ; am_util_stdio_vsprintf + 552
        0x0001d85c:    4630        0F      MOV      r0,r6
        0x0001d85e:    e000        ..      B        0x1d862 ; am_util_stdio_vsprintf + 554
        0x0001d860:    2000        .       MOVS     r0,#0
        0x0001d862:    4404        .D      ADD      r4,r4,r0
        0x0001d864:    44b1        .D      ADD      r9,r9,r6
        0x0001d866:    2600        .&      MOVS     r6,#0
        0x0001d868:    4622        "F      MOV      r2,r4
        0x0001d86a:    4638        8F      MOV      r0,r7
        0x0001d86c:    4641        AF      MOV      r1,r8
        0x0001d86e:    f001fb1c    ....    BL       uint64_to_str ; 0x1eeaa
        0x0001d872:    4682        .F      MOV      r10,r0
        0x0001d874:    b104        ..      CBZ      r4,0x1d878 ; am_util_stdio_vsprintf + 576
        0x0001d876:    4454        TD      ADD      r4,r4,r10
        0x0001d878:    44d1        .D      ADD      r9,r9,r10
        0x0001d87a:    e0a0        ..      B        0x1d9be ; am_util_stdio_vsprintf + 902
        0x0001d87c:    bf00        ..      NOP      
        0x0001d87e:    9802        ..      LDR      r0,[sp,#8]
        0x0001d880:    b158        X.      CBZ      r0,0x1d89a ; am_util_stdio_vsprintf + 610
        0x0001d882:    980e        ..      LDR      r0,[sp,#0x38]
        0x0001d884:    1dc0        ..      ADDS     r0,r0,#7
        0x0001d886:    f0200007     ...    BIC      r0,r0,#7
        0x0001d88a:    4601        .F      MOV      r1,r0
        0x0001d88c:    900e        ..      STR      r0,[sp,#0x38]
        0x0001d88e:    6800        .h      LDR      r0,[r0,#0]
        0x0001d890:    6849        Ih      LDR      r1,[r1,#4]
        0x0001d892:    9a0e        ..      LDR      r2,[sp,#0x38]
        0x0001d894:    3208        .2      ADDS     r2,r2,#8
        0x0001d896:    920e        ..      STR      r2,[sp,#0x38]
        0x0001d898:    e005        ..      B        0x1d8a6 ; am_util_stdio_vsprintf + 622
        0x0001d89a:    980e        ..      LDR      r0,[sp,#0x38]
        0x0001d89c:    6800        .h      LDR      r0,[r0,#0]
        0x0001d89e:    990e        ..      LDR      r1,[sp,#0x38]
        0x0001d8a0:    1d09        ..      ADDS     r1,r1,#4
        0x0001d8a2:    910e        ..      STR      r1,[sp,#0x38]
        0x0001d8a4:    17c1        ..      ASRS     r1,r0,#31
        0x0001d8a6:    e9cd0108    ....    STRD     r0,r1,[sp,#0x20]
        0x0001d8aa:    2300        .#      MOVS     r3,#0
        0x0001d8ac:    e9dd0108    ....    LDRD     r0,r1,[sp,#0x20]
        0x0001d8b0:    1ac0        ..      SUBS     r0,r0,r3
        0x0001d8b2:    4199        .A      SBCS     r1,r1,r3
        0x0001d8b4:    da08        ..      BGE      0x1d8c8 ; am_util_stdio_vsprintf + 656
        0x0001d8b6:    2200        ."      MOVS     r2,#0
        0x0001d8b8:    e9dd1008    ....    LDRD     r1,r0,[sp,#0x20]
        0x0001d8bc:    424f        OB      RSBS     r7,r1,#0
        0x0001d8be:    eb620800    b...    SBC      r8,r2,r0
        0x0001d8c2:    2001        .       MOVS     r0,#1
        0x0001d8c4:    9001        ..      STR      r0,[sp,#4]
        0x0001d8c6:    e003        ..      B        0x1d8d0 ; am_util_stdio_vsprintf + 664
        0x0001d8c8:    e9dd7808    ...x    LDRD     r7,r8,[sp,#0x20]
        0x0001d8cc:    2000        .       MOVS     r0,#0
        0x0001d8ce:    9001        ..      STR      r0,[sp,#4]
        0x0001d8d0:    b34e        N.      CBZ      r6,0x1d926 ; am_util_stdio_vsprintf + 750
        0x0001d8d2:    4638        8F      MOV      r0,r7
        0x0001d8d4:    4641        AF      MOV      r1,r8
        0x0001d8d6:    f000ffd0    ....    BL       ndigits_in_i64 ; 0x1e87a
        0x0001d8da:    1a36        6.      SUBS     r6,r6,r0
        0x0001d8dc:    9801        ..      LDR      r0,[sp,#4]
        0x0001d8de:    b148        H.      CBZ      r0,0x1d8f4 ; am_util_stdio_vsprintf + 700
        0x0001d8e0:    1e76        v.      SUBS     r6,r6,#1
        0x0001d8e2:    9804        ..      LDR      r0,[sp,#0x10]
        0x0001d8e4:    2830        0(      CMP      r0,#0x30
        0x0001d8e6:    d105        ..      BNE      0x1d8f4 ; am_util_stdio_vsprintf + 700
        0x0001d8e8:    b114        ..      CBZ      r4,0x1d8f0 ; am_util_stdio_vsprintf + 696
        0x0001d8ea:    202d        -       MOVS     r0,#0x2d
        0x0001d8ec:    f8040b01    ....    STRB     r0,[r4],#1
        0x0001d8f0:    f1090901    ....    ADD      r9,r9,#1
        0x0001d8f4:    4632        2F      MOV      r2,r6
        0x0001d8f6:    4620         F      MOV      r0,r4
        0x0001d8f8:    9904        ..      LDR      r1,[sp,#0x10]
        0x0001d8fa:    f000ffed    ....    BL       padbuffer ; 0x1e8d8
        0x0001d8fe:    4606        .F      MOV      r6,r0
        0x0001d900:    b10c        ..      CBZ      r4,0x1d906 ; am_util_stdio_vsprintf + 718
        0x0001d902:    4630        0F      MOV      r0,r6
        0x0001d904:    e000        ..      B        0x1d908 ; am_util_stdio_vsprintf + 720
        0x0001d906:    2000        .       MOVS     r0,#0
        0x0001d908:    4404        .D      ADD      r4,r4,r0
        0x0001d90a:    44b1        .D      ADD      r9,r9,r6
        0x0001d90c:    2600        .&      MOVS     r6,#0
        0x0001d90e:    9801        ..      LDR      r0,[sp,#4]
        0x0001d910:    b188        ..      CBZ      r0,0x1d936 ; am_util_stdio_vsprintf + 766
        0x0001d912:    9804        ..      LDR      r0,[sp,#0x10]
        0x0001d914:    2820         (      CMP      r0,#0x20
        0x0001d916:    d10e        ..      BNE      0x1d936 ; am_util_stdio_vsprintf + 766
        0x0001d918:    b114        ..      CBZ      r4,0x1d920 ; am_util_stdio_vsprintf + 744
        0x0001d91a:    202d        -       MOVS     r0,#0x2d
        0x0001d91c:    f8040b01    ....    STRB     r0,[r4],#1
        0x0001d920:    f1090901    ....    ADD      r9,r9,#1
        0x0001d924:    e007        ..      B        0x1d936 ; am_util_stdio_vsprintf + 766
        0x0001d926:    9801        ..      LDR      r0,[sp,#4]
        0x0001d928:    b128        (.      CBZ      r0,0x1d936 ; am_util_stdio_vsprintf + 766
        0x0001d92a:    b114        ..      CBZ      r4,0x1d932 ; am_util_stdio_vsprintf + 762
        0x0001d92c:    202d        -       MOVS     r0,#0x2d
        0x0001d92e:    f8040b01    ....    STRB     r0,[r4],#1
        0x0001d932:    f1090901    ....    ADD      r9,r9,#1
        0x0001d936:    4622        "F      MOV      r2,r4
        0x0001d938:    4638        8F      MOV      r0,r7
        0x0001d93a:    4641        AF      MOV      r1,r8
        0x0001d93c:    f001fab5    ....    BL       uint64_to_str ; 0x1eeaa
        0x0001d940:    4682        .F      MOV      r10,r0
        0x0001d942:    b104        ..      CBZ      r4,0x1d946 ; am_util_stdio_vsprintf + 782
        0x0001d944:    4454        TD      ADD      r4,r4,r10
        0x0001d946:    44d1        .D      ADD      r9,r9,r10
        0x0001d948:    e039        9.      B        0x1d9be ; am_util_stdio_vsprintf + 902
        0x0001d94a:    bf00        ..      NOP      
        0x0001d94c:    b37c        |.      CBZ      r4,0x1d9ae ; am_util_stdio_vsprintf + 886
        0x0001d94e:    980e        ..      LDR      r0,[sp,#0x38]
        0x0001d950:    1dc0        ..      ADDS     r0,r0,#7
        0x0001d952:    f0200007     ...    BIC      r0,r0,#7
        0x0001d956:    900e        ..      STR      r0,[sp,#0x38]
        0x0001d958:    ecb01b02    ....    VLDM     r0!,{d1}
        0x0001d95c:    eeb00a41    ..A.    VMOV.F32 s0,s2
        0x0001d960:    eef00a61    ..a.    VMOV.F32 s1,s3
        0x0001d964:    900e        ..      STR      r0,[sp,#0x38]
        0x0001d966:    ec510b10    Q...    VMOV     r0,r1,d0
        0x0001d96a:    f001fad7    ....    BL       __aeabi_d2f ; 0x1ef1c
        0x0001d96e:    ee080a10    ....    VMOV     s16,r0
        0x0001d972:    2014        .       MOVS     r0,#0x14
        0x0001d974:    6020         `      STR      r0,[r4,#0]
        0x0001d976:    4620         F      MOV      r0,r4
        0x0001d978:    eeb00a48    ..H.    VMOV.F32 s0,s16
        0x0001d97c:    9906        ..      LDR      r1,[sp,#0x18]
        0x0001d97e:    f000f9e1    ....    BL       ftoa ; 0x1dd44
        0x0001d982:    4682        .F      MOV      r10,r0
        0x0001d984:    f1ba0f00    ....    CMP      r10,#0
        0x0001d988:    da0e        ..      BGE      0x1d9a8 ; am_util_stdio_vsprintf + 880
        0x0001d98a:    f10a0101    ....    ADD      r1,r10,#1
        0x0001d98e:    b909        ..      CBNZ     r1,0x1d994 ; am_util_stdio_vsprintf + 860
        0x0001d990:    4813        .H      LDR      r0,[pc,#76] ; [0x1d9e0] = 0x302e30
        0x0001d992:    e005        ..      B        0x1d9a0 ; am_util_stdio_vsprintf + 872
        0x0001d994:    f10a0102    ....    ADD      r1,r10,#2
        0x0001d998:    b909        ..      CBNZ     r1,0x1d99e ; am_util_stdio_vsprintf + 870
        0x0001d99a:    4812        .H      LDR      r0,[pc,#72] ; [0x1d9e4] = 0x232e23
        0x0001d99c:    e000        ..      B        0x1d9a0 ; am_util_stdio_vsprintf + 872
        0x0001d99e:    4812        .H      LDR      r0,[pc,#72] ; [0x1d9e8] = 0x3f2e3f
        0x0001d9a0:    6020         `      STR      r0,[r4,#0]
        0x0001d9a2:    f04f0a03    O...    MOV      r10,#3
        0x0001d9a6:    bf00        ..      NOP      
        0x0001d9a8:    44d1        .D      ADD      r9,r9,r10
        0x0001d9aa:    4454        TD      ADD      r4,r4,r10
        0x0001d9ac:    bf00        ..      NOP      
        0x0001d9ae:    e006        ..      B        0x1d9be ; am_util_stdio_vsprintf + 902
        0x0001d9b0:    b114        ..      CBZ      r4,0x1d9b8 ; am_util_stdio_vsprintf + 896
        0x0001d9b2:    7828        (x      LDRB     r0,[r5,#0]
        0x0001d9b4:    f8040b01    ....    STRB     r0,[r4],#1
        0x0001d9b8:    f1090901    ....    ADD      r9,r9,#1
        0x0001d9bc:    bf00        ..      NOP      
        0x0001d9be:    bf00        ..      NOP      
        0x0001d9c0:    1c6d        m.      ADDS     r5,r5,#1
        0x0001d9c2:    bf00        ..      NOP      
        0x0001d9c4:    7828        (x      LDRB     r0,[r5,#0]
        0x0001d9c6:    2800        .(      CMP      r0,#0
        0x0001d9c8:    f47fae42    ..B.    BNE      0x1d650 ; am_util_stdio_vsprintf + 24
        0x0001d9cc:    b104        ..      CBZ      r4,0x1d9d0 ; am_util_stdio_vsprintf + 920
        0x0001d9ce:    7020         p      STRB     r0,[r4,#0]
        0x0001d9d0:    4648        HF      MOV      r0,r9
        0x0001d9d2:    b00a        ..      ADD      sp,sp,#0x28
        0x0001d9d4:    ecbd8b02    ....    VPOP     {d8}
        0x0001d9d8:    e8bd8ffe    ....    POP      {r1-r11,pc}
    $d
        0x0001d9dc:    100000c4    ....    DCD    268435652
        0x0001d9e0:    00302e30    0.0.    DCD    3157552
        0x0001d9e4:    00232e23    #.#.    DCD    2305571
        0x0001d9e8:    003f2e3f    ?.?.    DCD    4140607
    $t
    i.buck_interval_check
    buck_interval_check
        0x0001d9ec:    e92d43f0    -..C    PUSH     {r4-r9,lr}
        0x0001d9f0:    4607        .F      MOV      r7,r0
        0x0001d9f2:    4852        RH      LDR      r0,[pc,#328] ; [0x1db3c] = 0x40021000
        0x0001d9f4:    b08b        ..      SUB      sp,sp,#0x2c
        0x0001d9f6:    f04f0800    O...    MOV      r8,#0
        0x0001d9fa:    6802        .h      LDR      r2,[r0,#0]
        0x0001d9fc:    f2427910    B..y    MOV      r9,#0x2710
        0x0001da00:    f3c202c1    ....    UBFX     r2,r2,#3,#2
        0x0001da04:    2a02        .*      CMP      r2,#2
        0x0001da06:    bf08        ..      IT       EQ
        0x0001da08:    f6446920    D. i    MOVEQ    r9,#0x4e20
        0x0001da0c:    b117        ..      CBZ      r7,0x1da14 ; buck_interval_check + 40
        0x0001da0e:    b129        ).      CBZ      r1,0x1da1c ; buck_interval_check + 48
        0x0001da10:    2901        .)      CMP      r1,#1
        0x0001da12:    d007        ..      BEQ      0x1da24 ; buck_interval_check + 56
        0x0001da14:    b00b        ..      ADD      sp,sp,#0x2c
        0x0001da16:    2006        .       MOVS     r0,#6
        0x0001da18:    e8bd83f0    ....    POP      {r4-r9,pc}
        0x0001da1c:    241c        .$      MOVS     r4,#0x1c
        0x0001da1e:    2632        2&      MOVS     r6,#0x32
        0x0001da20:    2596        .%      MOVS     r5,#0x96
        0x0001da22:    e002        ..      B        0x1da2a ; buck_interval_check + 62
        0x0001da24:    241d        .$      MOVS     r4,#0x1d
        0x0001da26:    2632        2&      MOVS     r6,#0x32
        0x0001da28:    2596        .%      MOVS     r5,#0x96
        0x0001da2a:    f8d00100    ....    LDR      r0,[r0,#0x100]
        0x0001da2e:    f0100f01    ....    TST      r0,#1
        0x0001da32:    d005        ..      BEQ      0x1da40 ; buck_interval_check + 84
        0x0001da34:    4842        BH      LDR      r0,[pc,#264] ; [0x1db40] = 0x40020000
        0x0001da36:    6e00        .n      LDR      r0,[r0,#0x60]
        0x0001da38:    f24011ef    @...    MOV      r1,#0x1ef
        0x0001da3c:    4208        .B      TST      r0,r1
        0x0001da3e:    d003        ..      BEQ      0x1da48 ; buck_interval_check + 92
        0x0001da40:    b00b        ..      ADD      sp,sp,#0x2c
        0x0001da42:    2007        .       MOVS     r0,#7
        0x0001da44:    e8bd83f0    ....    POP      {r4-r9,pc}
        0x0001da48:    200d        .       MOVS     r0,#0xd
        0x0001da4a:    f7fffb65    ..e.    BL       am_hal_timer_clear_stop ; 0x1d118
        0x0001da4e:    200d        .       MOVS     r0,#0xd
        0x0001da50:    f7fffc88    ....    BL       am_hal_timer_stop ; 0x1d364
        0x0001da54:    200d        .       MOVS     r0,#0xd
        0x0001da56:    f7fffbed    ....    BL       am_hal_timer_reset_config ; 0x1d234
        0x0001da5a:    4668        hF      MOV      r0,sp
        0x0001da5c:    f7fffb88    ....    BL       am_hal_timer_default_config_set ; 0x1d170
        0x0001da60:    f88d4000    ...@    STRB     r4,[sp,#0]
        0x0001da64:    2402        .$      MOVS     r4,#2
        0x0001da66:    f88d4001    ...@    STRB     r4,[sp,#1]
        0x0001da6a:    4669        iF      MOV      r1,sp
        0x0001da6c:    200d        .       MOVS     r0,#0xd
        0x0001da6e:    f001f901    ....    BL       timer_config_b1 ; 0x1ec74
        0x0001da72:    2008        .       MOVS     r0,#8
        0x0001da74:    f7fffb50    ..P.    BL       am_hal_timer_clear_stop ; 0x1d118
        0x0001da78:    2008        .       MOVS     r0,#8
        0x0001da7a:    f7fffc73    ..s.    BL       am_hal_timer_stop ; 0x1d364
        0x0001da7e:    2008        .       MOVS     r0,#8
        0x0001da80:    f7fffbd8    ....    BL       am_hal_timer_reset_config ; 0x1d234
        0x0001da84:    a805        ..      ADD      r0,sp,#0x14
        0x0001da86:    f7fffb73    ..s.    BL       am_hal_timer_default_config_set ; 0x1d170
        0x0001da8a:    2001        .       MOVS     r0,#1
        0x0001da8c:    f88d0014    ....    STRB     r0,[sp,#0x14]
        0x0001da90:    f88d4015    ...@    STRB     r4,[sp,#0x15]
        0x0001da94:    a905        ..      ADD      r1,sp,#0x14
        0x0001da96:    2008        .       MOVS     r0,#8
        0x0001da98:    f001f8ec    ....    BL       timer_config_b1 ; 0x1ec74
        0x0001da9c:    f7fafc5c    ..\.    BL       am_hal_interrupt_master_disable ; 0x18358
        0x0001daa0:    900a        ..      STR      r0,[sp,#0x28]
        0x0001daa2:    2008        .       MOVS     r0,#8
        0x0001daa4:    f7fffc3c    ..<.    BL       am_hal_timer_start ; 0x1d320
        0x0001daa8:    200d        .       MOVS     r0,#0xd
        0x0001daaa:    f7fffc39    ..9.    BL       am_hal_timer_start ; 0x1d320
        0x0001daae:    980a        ..      LDR      r0,[sp,#0x28]
        0x0001dab0:    f7fafc56    ..V.    BL       am_hal_interrupt_master_set ; 0x18360
        0x0001dab4:    f1b90401    ....    SUBS     r4,r9,#1
        0x0001dab8:    d315        ..      BCC      0x1dae6 ; buck_interval_check + 250
        0x0001daba:    bf00        ..      NOP      
        0x0001dabc:    f7fafc4c    ..L.    BL       am_hal_interrupt_master_disable ; 0x18358
        0x0001dac0:    900a        ..      STR      r0,[sp,#0x28]
        0x0001dac2:    200d        .       MOVS     r0,#0xd
        0x0001dac4:    f7fffba4    ....    BL       am_hal_timer_read ; 0x1d210
        0x0001dac8:    280a        .(      CMP      r0,#0xa
        0x0001daca:    d307        ..      BCC      0x1dadc ; buck_interval_check + 240
        0x0001dacc:    2008        .       MOVS     r0,#8
        0x0001dace:    f7fffb9f    ....    BL       am_hal_timer_read ; 0x1d210
        0x0001dad2:    4680        .F      MOV      r8,r0
        0x0001dad4:    980a        ..      LDR      r0,[sp,#0x28]
        0x0001dad6:    f7fafc43    ..C.    BL       am_hal_interrupt_master_set ; 0x18360
        0x0001dada:    e004        ..      B        0x1dae6 ; buck_interval_check + 250
        0x0001dadc:    980a        ..      LDR      r0,[sp,#0x28]
        0x0001dade:    f7fafc3f    ..?.    BL       am_hal_interrupt_master_set ; 0x18360
        0x0001dae2:    1e64        d.      SUBS     r4,r4,#1
        0x0001dae4:    d2ea        ..      BCS      0x1dabc ; buck_interval_check + 208
        0x0001dae6:    200d        .       MOVS     r0,#0xd
        0x0001dae8:    f7fffb16    ....    BL       am_hal_timer_clear_stop ; 0x1d118
        0x0001daec:    200d        .       MOVS     r0,#0xd
        0x0001daee:    f7fffc39    ..9.    BL       am_hal_timer_stop ; 0x1d364
        0x0001daf2:    200d        .       MOVS     r0,#0xd
        0x0001daf4:    f7fffb9e    ....    BL       am_hal_timer_reset_config ; 0x1d234
        0x0001daf8:    2008        .       MOVS     r0,#8
        0x0001dafa:    f7fffb0d    ....    BL       am_hal_timer_clear_stop ; 0x1d118
        0x0001dafe:    2008        .       MOVS     r0,#8
        0x0001db00:    f7fffc30    ..0.    BL       am_hal_timer_stop ; 0x1d364
        0x0001db04:    2008        .       MOVS     r0,#8
        0x0001db06:    f7fffb95    ....    BL       am_hal_timer_reset_config ; 0x1d234
        0x0001db0a:    f1b80f00    ....    CMP      r8,#0
        0x0001db0e:    bf02        ..      ITTT     EQ
        0x0001db10:    2001        .       MOVEQ    r0,#1
        0x0001db12:    b00b        ..      ADDEQ    sp,sp,#0x2c
        0x0001db14:    e8bd83f0    ....    POPEQ    {r4-r9,pc}
        0x0001db18:    480a        .H      LDR      r0,[pc,#40] ; [0x1db44] = 0xaaaaaaab
        0x0001db1a:    fba01008    ....    UMULL    r1,r0,r0,r8
        0x0001db1e:    0884        ..      LSRS     r4,r0,#2
        0x0001db20:    42b4        .B      CMP      r4,r6
        0x0001db22:    d306        ..      BCC      0x1db32 ; buck_interval_check + 326
        0x0001db24:    42ac        .B      CMP      r4,r5
        0x0001db26:    d806        ..      BHI      0x1db36 ; buck_interval_check + 330
        0x0001db28:    603c        <`      STR      r4,[r7,#0]
        0x0001db2a:    b00b        ..      ADD      sp,sp,#0x2c
        0x0001db2c:    2000        .       MOVS     r0,#0
        0x0001db2e:    e8bd83f0    ....    POP      {r4-r9,pc}
        0x0001db32:    4634        4F      MOV      r4,r6
        0x0001db34:    e7f8        ..      B        0x1db28 ; buck_interval_check + 316
        0x0001db36:    462c        ,F      MOV      r4,r5
        0x0001db38:    e7f6        ..      B        0x1db28 ; buck_interval_check + 316
    $d
        0x0001db3a:    0000        ..      DCW    0
        0x0001db3c:    40021000    ...@    DCD    1073876992
        0x0001db40:    40020000    ...@    DCD    1073872896
        0x0001db44:    aaaaaaab    ....    DCD    2863311531
    $t
    i.copy_words
    copy_words
        0x0001db48:    b430        0.      PUSH     {r4,r5}
        0x0001db4a:    2301        .#      MOVS     r3,#1
        0x0001db4c:    f05f0403    _...    MOVS.W   r4,#3
        0x0001db50:    f1a20c01    ....    SUB      r12,r2,#1
        0x0001db54:    f851502c    Q.,P    LDR      r5,[r1,r12,LSL #2]
        0x0001db58:    f840502c    @.,P    STR      r5,[r0,r12,LSL #2]
        0x0001db5c:    1e92        ..      SUBS     r2,r2,#2
        0x0001db5e:    f851c022    Q.".    LDR      r12,[r1,r2,LSL #2]
        0x0001db62:    f840c022    @.".    STR      r12,[r0,r2,LSL #2]
        0x0001db66:    1c9b        ..      ADDS     r3,r3,#2
        0x0001db68:    42a3        .B      CMP      r3,r4
        0x0001db6a:    dbf1        ..      BLT      0x1db50 ; copy_words + 8
        0x0001db6c:    bc30        0.      POP      {r4,r5}
        0x0001db6e:    4770        pG      BX       lr
    i.coreldo_disable
    coreldo_disable
        0x0001db70:    4804        .H      LDR      r0,[pc,#16] ; [0x1db84] = 0x40020000
        0x0001db72:    6e01        .n      LDR      r1,[r0,#0x60]
        0x0001db74:    f0210101    !...    BIC      r1,r1,#1
        0x0001db78:    6601        .f      STR      r1,[r0,#0x60]
        0x0001db7a:    6e01        .n      LDR      r1,[r0,#0x60]
        0x0001db7c:    f021010e    !...    BIC      r1,r1,#0xe
        0x0001db80:    6601        .f      STR      r1,[r0,#0x60]
        0x0001db82:    4770        pG      BX       lr
    $d
        0x0001db84:    40020000    ...@    DCD    1073872896
    $t
    i.coreldo_enable
    coreldo_enable
        0x0001db88:    480a        .H      LDR      r0,[pc,#40] ; [0x1dbb4] = 0x40020000
        0x0001db8a:    f8501f80    P...    LDR      r1,[r0,#0x80]!
        0x0001db8e:    f4215170    !.pQ    BIC      r1,r1,#0x3c00
        0x0001db92:    f5015180    ...Q    ADD      r1,r1,#0x1000
        0x0001db96:    f8401920    @. .    STR      r1,[r0],#-0x20
        0x0001db9a:    6801        .h      LDR      r1,[r0,#0]
        0x0001db9c:    f0210110    !...    BIC      r1,r1,#0x10
        0x0001dba0:    6001        .`      STR      r1,[r0,#0]
        0x0001dba2:    6801        .h      LDR      r1,[r0,#0]
        0x0001dba4:    f041010e    A...    ORR      r1,r1,#0xe
        0x0001dba8:    6001        .`      STR      r1,[r0,#0]
        0x0001dbaa:    6801        .h      LDR      r1,[r0,#0]
        0x0001dbac:    f0410101    A...    ORR      r1,r1,#1
        0x0001dbb0:    6001        .`      STR      r1,[r0,#0]
        0x0001dbb2:    4770        pG      BX       lr
    $d
        0x0001dbb4:    40020000    ...@    DCD    1073872896
    $t
    i.count_consecutive_ones
    count_consecutive_ones
        0x0001dbb8:    4601        .F      MOV      r1,r0
        0x0001dbba:    2000        .       MOVS     r0,#0
        0x0001dbbc:    680a        .h      LDR      r2,[r1,#0]
        0x0001dbbe:    e002        ..      B        0x1dbc6 ; count_consecutive_ones + 14
        0x0001dbc0:    ea020242    ..B.    AND      r2,r2,r2,LSL #1
        0x0001dbc4:    1c40        @.      ADDS     r0,r0,#1
        0x0001dbc6:    2a00        .*      CMP      r2,#0
        0x0001dbc8:    d1fa        ..      BNE      0x1dbc0 ; count_consecutive_ones + 8
        0x0001dbca:    4770        pG      BX       lr
    i.decstr_to_int
    decstr_to_int
        0x0001dbcc:    b530        0.      PUSH     {r4,r5,lr}
        0x0001dbce:    4602        .F      MOV      r2,r0
        0x0001dbd0:    2500        .%      MOVS     r5,#0
        0x0001dbd2:    2300        .#      MOVS     r3,#0
        0x0001dbd4:    2400        .$      MOVS     r4,#0
        0x0001dbd6:    7810        .x      LDRB     r0,[r2,#0]
        0x0001dbd8:    282d        -(      CMP      r0,#0x2d
        0x0001dbda:    d102        ..      BNE      0x1dbe2 ; decstr_to_int + 22
        0x0001dbdc:    2501        .%      MOVS     r5,#1
        0x0001dbde:    1c52        R.      ADDS     r2,r2,#1
        0x0001dbe0:    1c64        d.      ADDS     r4,r4,#1
        0x0001dbe2:    e007        ..      B        0x1dbf4 ; decstr_to_int + 40
        0x0001dbe4:    1c64        d.      ADDS     r4,r4,#1
        0x0001dbe6:    eb030083    ....    ADD      r0,r3,r3,LSL #2
        0x0001dbea:    0043        C.      LSLS     r3,r0,#1
        0x0001dbec:    7810        .x      LDRB     r0,[r2,#0]
        0x0001dbee:    3830        08      SUBS     r0,r0,#0x30
        0x0001dbf0:    4403        .D      ADD      r3,r3,r0
        0x0001dbf2:    1c52        R.      ADDS     r2,r2,#1
        0x0001dbf4:    7810        .x      LDRB     r0,[r2,#0]
        0x0001dbf6:    2830        0(      CMP      r0,#0x30
        0x0001dbf8:    db02        ..      BLT      0x1dc00 ; decstr_to_int + 52
        0x0001dbfa:    7810        .x      LDRB     r0,[r2,#0]
        0x0001dbfc:    2839        9(      CMP      r0,#0x39
        0x0001dbfe:    ddf1        ..      BLE      0x1dbe4 ; decstr_to_int + 24
        0x0001dc00:    b101        ..      CBZ      r1,0x1dc04 ; decstr_to_int + 56
        0x0001dc02:    600c        .`      STR      r4,[r1,#0]
        0x0001dc04:    b10d        ..      CBZ      r5,0x1dc0a ; decstr_to_int + 62
        0x0001dc06:    4258        XB      RSBS     r0,r3,#0
        0x0001dc08:    bd30        0.      POP      {r4,r5,pc}
        0x0001dc0a:    4618        .F      MOV      r0,r3
        0x0001dc0c:    e7fc        ..      B        0x1dc08 ; decstr_to_int + 60
    i.divu64_10
    divu64_10
        0x0001dc0e:    e92d4ff0    -..O    PUSH     {r4-r11,lr}
        0x0001dc12:    4604        .F      MOV      r4,r0
        0x0001dc14:    460d        .F      MOV      r5,r1
        0x0001dc16:    2000        .       MOVS     r0,#0
        0x0001dc18:    ea850100    ....    EOR      r1,r5,r0
        0x0001dc1c:    4040        @@      EORS     r0,r0,r0
        0x0001dc1e:    4301        .C      ORRS     r1,r1,r0
        0x0001dc20:    d044        D.      BEQ      0x1dcac ; divu64_10 + 158
        0x0001dc22:    ea5f0a55    _.U.    LSRS     r10,r5,#1
        0x0001dc26:    ea4f0134    O.4.    RRX      r1,r4
        0x0001dc2a:    ea4f0b94    O...    LSR      r11,r4,#2
        0x0001dc2e:    ea4b7085    K..p    ORR      r0,r11,r5,LSL #30
        0x0001dc32:    180a        ..      ADDS     r2,r1,r0
        0x0001dc34:    eb4a0395    J...    ADC      r3,r10,r5,LSR #2
        0x0001dc38:    ea4f1012    O...    LSR      r0,r2,#4
        0x0001dc3c:    ea407a03    @..z    ORR      r10,r0,r3,LSL #28
        0x0001dc40:    eb1a0202    ....    ADDS     r2,r10,r2
        0x0001dc44:    eb431313    C...    ADC      r3,r3,r3,LSR #4
        0x0001dc48:    ea4f2012    O..     LSR      r0,r2,#8
        0x0001dc4c:    ea406a03    @..j    ORR      r10,r0,r3,LSL #24
        0x0001dc50:    eb1a0202    ....    ADDS     r2,r10,r2
        0x0001dc54:    eb432313    C..#    ADC      r3,r3,r3,LSR #8
        0x0001dc58:    ea4f4012    O..@    LSR      r0,r2,#16
        0x0001dc5c:    ea404a03    @..J    ORR      r10,r0,r3,LSL #16
        0x0001dc60:    eb1a0202    ....    ADDS     r2,r10,r2
        0x0001dc64:    eb434313    C..C    ADC      r3,r3,r3,LSR #16
        0x0001dc68:    189a        ..      ADDS     r2,r3,r2
        0x0001dc6a:    f1430300    C...    ADC      r3,r3,#0
        0x0001dc6e:    08d0        ..      LSRS     r0,r2,#3
        0x0001dc70:    ea407243    @.Cr    ORR      r2,r0,r3,LSL #29
        0x0001dc74:    08db        ..      LSRS     r3,r3,#3
        0x0001dc76:    210a        .!      MOVS     r1,#0xa
        0x0001dc78:    f04f0a00    O...    MOV      r10,#0
        0x0001dc7c:    fba20b01    ....    UMULL    r0,r11,r2,r1
        0x0001dc80:    fb03b101    ....    MLA      r1,r3,r1,r11
        0x0001dc84:    fb02110a    ....    MLA      r1,r2,r10,r1
        0x0001dc88:    1a26        &.      SUBS     r6,r4,r0
        0x0001dc8a:    eb650701    e...    SBC      r7,r5,r1
        0x0001dc8e:    2106        .!      MOVS     r1,#6
        0x0001dc90:    eb160a01    ....    ADDS     r10,r6,r1
        0x0001dc94:    f1470100    G...    ADC      r1,r7,#0
        0x0001dc98:    ea4f101a    O...    LSR      r0,r10,#4
        0x0001dc9c:    ea407a01    @..z    ORR      r10,r0,r1,LSL #28
        0x0001dca0:    eb1a0002    ....    ADDS     r0,r10,r2
        0x0001dca4:    eb431111    C...    ADC      r1,r3,r1,LSR #4
        0x0001dca8:    e8bd8ff0    ....    POP      {r4-r11,pc}
        0x0001dcac:    46a0        .F      MOV      r8,r4
        0x0001dcae:    ea4f0058    O.X.    LSR      r0,r8,#1
        0x0001dcb2:    eb000c98    ....    ADD      r12,r0,r8,LSR #2
        0x0001dcb6:    eb0c1c1c    ....    ADD      r12,r12,r12,LSR #4
        0x0001dcba:    eb0c2c1c    ...,    ADD      r12,r12,r12,LSR #8
        0x0001dcbe:    eb0c4c1c    ...L    ADD      r12,r12,r12,LSR #16
        0x0001dcc2:    ea4f0cdc    O...    LSR      r12,r12,#3
        0x0001dcc6:    eb0c008c    ....    ADD      r0,r12,r12,LSL #2
        0x0001dcca:    eba80940    ..@.    SUB      r9,r8,r0,LSL #1
        0x0001dcce:    f1090006    ....    ADD      r0,r9,#6
        0x0001dcd2:    eb0c1010    ....    ADD      r0,r12,r0,LSR #4
        0x0001dcd6:    2100        .!      MOVS     r1,#0
        0x0001dcd8:    e7e6        ..      B        0x1dca8 ; divu64_10 + 154
    i.find_mid_point
    find_mid_point
        0x0001dcda:    b5f0        ..      PUSH     {r4-r7,lr}
        0x0001dcdc:    4605        .F      MOV      r5,r0
        0x0001dcde:    2100        .!      MOVS     r1,#0
        0x0001dce0:    2300        .#      MOVS     r3,#0
        0x0001dce2:    2000        .       MOVS     r0,#0
        0x0001dce4:    2600        .&      MOVS     r6,#0
        0x0001dce6:    682c        ,h      LDR      r4,[r5,#0]
        0x0001dce8:    2700        .'      MOVS     r7,#0
        0x0001dcea:    2200        ."      MOVS     r2,#0
        0x0001dcec:    e019        ..      B        0x1dd22 ; find_mid_point + 72
        0x0001dcee:    f04f0c01    O...    MOV      r12,#1
        0x0001dcf2:    fa0cfc02    ....    LSL      r12,r12,r2
        0x0001dcf6:    ea0c0c04    ....    AND      r12,r12,r4
        0x0001dcfa:    f1bc0f00    ....    CMP      r12,#0
        0x0001dcfe:    d002        ..      BEQ      0x1dd06 ; find_mid_point + 44
        0x0001dd00:    2601        .&      MOVS     r6,#1
        0x0001dd02:    1c49        I.      ADDS     r1,r1,#1
        0x0001dd04:    e00c        ..      B        0x1dd20 ; find_mid_point + 70
        0x0001dd06:    2e01        ..      CMP      r6,#1
        0x0001dd08:    d10a        ..      BNE      0x1dd20 ; find_mid_point + 70
        0x0001dd0a:    2600        .&      MOVS     r6,#0
        0x0001dd0c:    4299        .B      CMP      r1,r3
        0x0001dd0e:    d906        ..      BLS      0x1dd1e ; find_mid_point + 68
        0x0001dd10:    460b        .F      MOV      r3,r1
        0x0001dd12:    f1a20c01    ....    SUB      r12,r2,#1
        0x0001dd16:    ebac0051    ..Q.    SUB      r0,r12,r1,LSR #1
        0x0001dd1a:    f0010701    ....    AND      r7,r1,#1
        0x0001dd1e:    2100        .!      MOVS     r1,#0
        0x0001dd20:    1c52        R.      ADDS     r2,r2,#1
        0x0001dd22:    2a20         *      CMP      r2,#0x20
        0x0001dd24:    d3e3        ..      BCC      0x1dcee ; find_mid_point + 20
        0x0001dd26:    2810        .(      CMP      r0,#0x10
        0x0001dd28:    d204        ..      BCS      0x1dd34 ; find_mid_point + 90
        0x0001dd2a:    f0040202    ....    AND      r2,r4,#2
        0x0001dd2e:    b10a        ..      CBZ      r2,0x1dd34 ; find_mid_point + 90
        0x0001dd30:    1bc0        ..      SUBS     r0,r0,r7
        0x0001dd32:    e005        ..      B        0x1dd40 ; find_mid_point + 102
        0x0001dd34:    280f        .(      CMP      r0,#0xf
        0x0001dd36:    d903        ..      BLS      0x1dd40 ; find_mid_point + 102
        0x0001dd38:    f0044280    ...B    AND      r2,r4,#0x40000000
        0x0001dd3c:    b102        ..      CBZ      r2,0x1dd40 ; find_mid_point + 102
        0x0001dd3e:    1c40        @.      ADDS     r0,r0,#1
        0x0001dd40:    bdf0        ..      POP      {r4-r7,pc}
        0x0001dd42:    0000        ..      MOVS     r0,r0
    i.ftoa
    ftoa
        0x0001dd44:    e92d4ff3    -..O    PUSH     {r0,r1,r4-r11,lr}
        0x0001dd48:    ed2d0b02    -...    VPUSH    {d0}
        0x0001dd4c:    ed2d8b02    -...    VPUSH    {d8}
        0x0001dd50:    b081        ..      SUB      sp,sp,#4
        0x0001dd52:    eeb08a40    ..@.    VMOV.F32 s16,s0
        0x0001dd56:    4604        .F      MOV      r4,r0
        0x0001dd58:    f8d4b000    ....    LDR      r11,[r4,#0]
        0x0001dd5c:    f1bb0f04    ....    CMP      r11,#4
        0x0001dd60:    da07        ..      BGE      0x1dd72 ; ftoa + 46
        0x0001dd62:    f06f0002    o...    MVN      r0,#2
        0x0001dd66:    b001        ..      ADD      sp,sp,#4
        0x0001dd68:    ecbd8b02    ....    VPOP     {d8}
        0x0001dd6c:    b004        ..      ADD      sp,sp,#0x10
        0x0001dd6e:    e8bd8ff0    ....    POP      {r4-r11,pc}
        0x0001dd72:    eeb58ac0    ....    VCMPE.F32 s16,#0.0
        0x0001dd76:    eef1fa10    ....    VMRS     APSR_nzcv,FPSCR
        0x0001dd7a:    d103        ..      BNE      0x1dd84 ; ftoa + 64
        0x0001dd7c:    484e        NH      LDR      r0,[pc,#312] ; [0x1deb8] = 0x302e30
        0x0001dd7e:    6020         `      STR      r0,[r4,#0]
        0x0001dd80:    2003        .       MOVS     r0,#3
        0x0001dd82:    e7f0        ..      B        0x1dd66 ; ftoa + 34
        0x0001dd84:    46a2        .F      MOV      r10,r4
        0x0001dd86:    ed8d8a00    ....    VSTR     s16,[sp,#0]
        0x0001dd8a:    9800        ..      LDR      r0,[sp,#0]
        0x0001dd8c:    f3c050c7    ...P    UBFX     r0,r0,#23,#8
        0x0001dd90:    f1a0057f    ....    SUB      r5,r0,#0x7f
        0x0001dd94:    9800        ..      LDR      r0,[sp,#0]
        0x0001dd96:    f020407f     ..@    BIC      r0,r0,#0xff000000
        0x0001dd9a:    f4400900    @...    ORR      r9,r0,#0x800000
        0x0001dd9e:    f04f0800    O...    MOV      r8,#0
        0x0001dda2:    2700        .'      MOVS     r7,#0
        0x0001dda4:    2d1f        .-      CMP      r5,#0x1f
        0x0001dda6:    db01        ..      BLT      0x1ddac ; ftoa + 104
        0x0001dda8:    1eb8        ..      SUBS     r0,r7,#2
        0x0001ddaa:    e7dc        ..      B        0x1dd66 ; ftoa + 34
        0x0001ddac:    f1150f17    ....    CMN      r5,#0x17
        0x0001ddb0:    da02        ..      BGE      0x1ddb8 ; ftoa + 116
        0x0001ddb2:    f04f30ff    O..0    MOV      r0,#0xffffffff
        0x0001ddb6:    e7d6        ..      B        0x1dd66 ; ftoa + 34
        0x0001ddb8:    2d17        .-      CMP      r5,#0x17
        0x0001ddba:    db04        ..      BLT      0x1ddc6 ; ftoa + 130
        0x0001ddbc:    f1a50017    ....    SUB      r0,r5,#0x17
        0x0001ddc0:    fa09f700    ....    LSL      r7,r9,r0
        0x0001ddc4:    e011        ..      B        0x1ddea ; ftoa + 166
        0x0001ddc6:    2d00        .-      CMP      r5,#0
        0x0001ddc8:    db09        ..      BLT      0x1ddde ; ftoa + 154
        0x0001ddca:    f1c50017    ....    RSB      r0,r5,#0x17
        0x0001ddce:    fa49f700    I...    ASR      r7,r9,r0
        0x0001ddd2:    1c68        h.      ADDS     r0,r5,#1
        0x0001ddd4:    fa09f000    ....    LSL      r0,r9,r0
        0x0001ddd8:    f020487f     ..H    BIC      r8,r0,#0xff000000
        0x0001dddc:    e005        ..      B        0x1ddea ; ftoa + 166
        0x0001ddde:    f029407f    )..@    BIC      r0,r9,#0xff000000
        0x0001dde2:    1c69        i.      ADDS     r1,r5,#1
        0x0001dde4:    4249        IB      RSBS     r1,r1,#0
        0x0001dde6:    fa40f801    @...    ASR      r8,r0,r1
        0x0001ddea:    9800        ..      LDR      r0,[sp,#0]
        0x0001ddec:    2800        .(      CMP      r0,#0
        0x0001ddee:    da02        ..      BGE      0x1ddf6 ; ftoa + 178
        0x0001ddf0:    202d        -       MOVS     r0,#0x2d
        0x0001ddf2:    f8040b01    ....    STRB     r0,[r4],#1
        0x0001ddf6:    b91f        ..      CBNZ     r7,0x1de00 ; ftoa + 188
        0x0001ddf8:    2030        0       MOVS     r0,#0x30
        0x0001ddfa:    f8040b01    ....    STRB     r0,[r4],#1
        0x0001ddfe:    e014        ..      B        0x1de2a ; ftoa + 230
        0x0001de00:    2f00        ./      CMP      r7,#0
        0x0001de02:    dd05        ..      BLE      0x1de10 ; ftoa + 204
        0x0001de04:    4622        "F      MOV      r2,r4
        0x0001de06:    4638        8F      MOV      r0,r7
        0x0001de08:    17f9        ..      ASRS     r1,r7,#31
        0x0001de0a:    f001f84e    ..N.    BL       uint64_to_str ; 0x1eeaa
        0x0001de0e:    e007        ..      B        0x1de20 ; ftoa + 220
        0x0001de10:    202d        -       MOVS     r0,#0x2d
        0x0001de12:    f8040b01    ....    STRB     r0,[r4],#1
        0x0001de16:    4622        "F      MOV      r2,r4
        0x0001de18:    4278        xB      RSBS     r0,r7,#0
        0x0001de1a:    17c1        ..      ASRS     r1,r0,#31
        0x0001de1c:    f001f845    ..E.    BL       uint64_to_str ; 0x1eeaa
        0x0001de20:    e000        ..      B        0x1de24 ; ftoa + 224
        0x0001de22:    1c64        d.      ADDS     r4,r4,#1
        0x0001de24:    7820         x      LDRB     r0,[r4,#0]
        0x0001de26:    2800        .(      CMP      r0,#0
        0x0001de28:    d1fb        ..      BNE      0x1de22 ; ftoa + 222
        0x0001de2a:    202e        .       MOVS     r0,#0x2e
        0x0001de2c:    f8040b01    ....    STRB     r0,[r4],#1
        0x0001de30:    f1b80f00    ....    CMP      r8,#0
        0x0001de34:    d103        ..      BNE      0x1de3e ; ftoa + 250
        0x0001de36:    2030        0       MOVS     r0,#0x30
        0x0001de38:    f8040b01    ....    STRB     r0,[r4],#1
        0x0001de3c:    e036        6.      B        0x1deac ; ftoa + 360
        0x0001de3e:    eba4020a    ....    SUB      r2,r4,r10
        0x0001de42:    ebab0202    ....    SUB      r2,r11,r2
        0x0001de46:    1e51        Q.      SUBS     r1,r2,#1
        0x0001de48:    9a06        ..      LDR      r2,[sp,#0x18]
        0x0001de4a:    4291        .B      CMP      r1,r2
        0x0001de4c:    dd01        ..      BLE      0x1de52 ; ftoa + 270
        0x0001de4e:    9a06        ..      LDR      r2,[sp,#0x18]
        0x0001de50:    e000        ..      B        0x1de54 ; ftoa + 272
        0x0001de52:    460a        .F      MOV      r2,r1
        0x0001de54:    4611        .F      MOV      r1,r2
        0x0001de56:    2000        .       MOVS     r0,#0
        0x0001de58:    e00b        ..      B        0x1de72 ; ftoa + 302
        0x0001de5a:    eb080288    ....    ADD      r2,r8,r8,LSL #2
        0x0001de5e:    ea4f0842    O.B.    LSL      r8,r2,#1
        0x0001de62:    2230        0"      MOVS     r2,#0x30
        0x0001de64:    eb026228    ..(b    ADD      r2,r2,r8,ASR #24
        0x0001de68:    f8042b01    ...+    STRB     r2,[r4],#1
        0x0001de6c:    f028487f    (..H    BIC      r8,r8,#0xff000000
        0x0001de70:    1c40        @.      ADDS     r0,r0,#1
        0x0001de72:    4288        .B      CMP      r0,r1
        0x0001de74:    dbf1        ..      BLT      0x1de5a ; ftoa + 278
        0x0001de76:    eb080288    ....    ADD      r2,r8,r8,LSL #2
        0x0001de7a:    0052        R.      LSLS     r2,r2,#1
        0x0001de7c:    2305        .#      MOVS     r3,#5
        0x0001de7e:    ebb36f22    .."o    CMP      r3,r2,ASR #24
        0x0001de82:    dc12        ..      BGT      0x1deaa ; ftoa + 358
        0x0001de84:    1e66        f.      SUBS     r6,r4,#1
        0x0001de86:    e00d        ..      B        0x1dea4 ; ftoa + 352
        0x0001de88:    7832        2x      LDRB     r2,[r6,#0]
        0x0001de8a:    2a2e        .*      CMP      r2,#0x2e
        0x0001de8c:    d009        ..      BEQ      0x1dea2 ; ftoa + 350
        0x0001de8e:    7832        2x      LDRB     r2,[r6,#0]
        0x0001de90:    2a39        9*      CMP      r2,#0x39
        0x0001de92:    d102        ..      BNE      0x1de9a ; ftoa + 342
        0x0001de94:    2230        0"      MOVS     r2,#0x30
        0x0001de96:    7032        2p      STRB     r2,[r6,#0]
        0x0001de98:    e003        ..      B        0x1dea2 ; ftoa + 350
        0x0001de9a:    7832        2x      LDRB     r2,[r6,#0]
        0x0001de9c:    1c52        R.      ADDS     r2,r2,#1
        0x0001de9e:    7032        2p      STRB     r2,[r6,#0]
        0x0001dea0:    e002        ..      B        0x1dea8 ; ftoa + 356
        0x0001dea2:    1e76        v.      SUBS     r6,r6,#1
        0x0001dea4:    4556        VE      CMP      r6,r10
        0x0001dea6:    d2ef        ..      BCS      0x1de88 ; ftoa + 324
        0x0001dea8:    bf00        ..      NOP      
        0x0001deaa:    bf00        ..      NOP      
        0x0001deac:    2000        .       MOVS     r0,#0
        0x0001deae:    7020         p      STRB     r0,[r4,#0]
        0x0001deb0:    eba4000a    ....    SUB      r0,r4,r10
        0x0001deb4:    e757        W.      B        0x1dd66 ; ftoa + 34
    $d
        0x0001deb6:    0000        ..      DCW    0
        0x0001deb8:    00302e30    0.0.    DCD    3157552
    $t
    i.internal_timer_config
    internal_timer_config
        0x0001debc:    4a36        6J      LDR      r2,[pc,#216] ; [0x1df98] = 0x40020000
        0x0001debe:    68d3        .h      LDR      r3,[r2,#0xc]
        0x0001dec0:    b2db        ..      UXTB     r3,r3
        0x0001dec2:    2b21        !+      CMP      r3,#0x21
        0x0001dec4:    d01c        ..      BEQ      0x1df00 ; internal_timer_config + 68
        0x0001dec6:    68d2        .h      LDR      r2,[r2,#0xc]
        0x0001dec8:    b2d2        ..      UXTB     r2,r2
        0x0001deca:    2a22        "*      CMP      r2,#0x22
        0x0001decc:    bf3c        <.      ITT      CC
        0x0001dece:    2001        .       MOVCC    r0,#1
        0x0001ded0:    4770        pG      BXCC     lr
        0x0001ded2:    2801        .(      CMP      r0,#1
        0x0001ded4:    bf18        ..      IT       NE
        0x0001ded6:    2803        .(      CMPNE    r0,#3
        0x0001ded8:    d054        T.      BEQ      0x1df84 ; internal_timer_config + 200
        0x0001deda:    280a        .(      CMP      r0,#0xa
        0x0001dedc:    bf18        ..      IT       NE
        0x0001dede:    280b        .(      CMPNE    r0,#0xb
        0x0001dee0:    d050        P.      BEQ      0x1df84 ; internal_timer_config + 200
        0x0001dee2:    280c        .(      CMP      r0,#0xc
        0x0001dee4:    bf1c        ..      ITT      NE
        0x0001dee6:    280e        .(      CMPNE    r0,#0xe
        0x0001dee8:    280f        .(      CMPNE    r0,#0xf
        0x0001deea:    d04b        K.      BEQ      0x1df84 ; internal_timer_config + 200
        0x0001deec:    2805        .(      CMP      r0,#5
        0x0001deee:    bf18        ..      IT       NE
        0x0001def0:    2807        .(      CMPNE    r0,#7
        0x0001def2:    d04a        J.      BEQ      0x1df8a ; internal_timer_config + 206
        0x0001def4:    2808        .(      CMP      r0,#8
        0x0001def6:    bf1c        ..      ITT      NE
        0x0001def8:    2809        .(      CMPNE    r0,#9
        0x0001defa:    280d        .(      CMPNE    r0,#0xd
        0x0001defc:    d045        E.      BEQ      0x1df8a ; internal_timer_config + 206
        0x0001defe:    e049        I.      B        0x1df94 ; internal_timer_config + 216
        0x0001df00:    784b        Kx      LDRB     r3,[r1,#1]
        0x0001df02:    780a        .x      LDRB     r2,[r1,#0]
        0x0001df04:    f04f0cf0    O...    MOV      r12,#0xf0
        0x0001df08:    ea0c1303    ....    AND      r3,r12,r3,LSL #4
        0x0001df0c:    ea432202    C.."    ORR      r2,r3,r2,LSL #8
        0x0001df10:    78cb        .x      LDRB     r3,[r1,#3]
        0x0001df12:    f04f0c08    O...    MOV      r12,#8
        0x0001df16:    ea0c03c3    ....    AND      r3,r12,r3,LSL #3
        0x0001df1a:    ea430202    C...    ORR      r2,r3,r2
        0x0001df1e:    788b        .x      LDRB     r3,[r1,#2]
        0x0001df20:    f04f0c04    O...    MOV      r12,#4
        0x0001df24:    ea0c0383    ....    AND      r3,r12,r3,LSL #2
        0x0001df28:    ea430202    C...    ORR      r2,r3,r2
        0x0001df2c:    790b        .y      LDRB     r3,[r1,#4]
        0x0001df2e:    f44f3c40    O.@<    MOV      r12,#0x30000
        0x0001df32:    ea0c4303    ...C    AND      r3,r12,r3,LSL #16
        0x0001df36:    ea430202    C...    ORR      r2,r3,r2
        0x0001df3a:    7a0b        .z      LDRB     r3,[r1,#8]
        0x0001df3c:    ea4f1040    O.@.    LSL      r0,r0,#5
        0x0001df40:    f1004080    ...@    ADD      r0,r0,#0x40000000
        0x0001df44:    ea426303    B..c    ORR      r3,r2,r3,LSL #24
        0x0001df48:    f5004000    ...@    ADD      r0,r0,#0x8000
        0x0001df4c:    794a        Jy      LDRB     r2,[r1,#5]
        0x0001df4e:    f8d0c200    ....    LDR      r12,[r0,#0x200]
        0x0001df52:    ea4f2202    O.."    LSL      r2,r2,#8
        0x0001df56:    f02c0c01    ,...    BIC      r12,r12,#1
        0x0001df5a:    f8c0c200    ....    STR      r12,[r0,#0x200]
        0x0001df5e:    f8c03200    ...2    STR      r3,[r0,#0x200]
        0x0001df62:    f8c02210    ..."    STR      r2,[r0,#0x210]
        0x0001df66:    68ca        .h      LDR      r2,[r1,#0xc]
        0x0001df68:    f8c02208    ..."    STR      r2,[r0,#0x208]
        0x0001df6c:    6909        .i      LDR      r1,[r1,#0x10]
        0x0001df6e:    f8c0120c    ....    STR      r1,[r0,#0x20c]
        0x0001df72:    f8d01200    ....    LDR      r1,[r0,#0x200]
        0x0001df76:    f0410102    A...    ORR      r1,r1,#2
        0x0001df7a:    f8c01200    ....    STR      r1,[r0,#0x200]
        0x0001df7e:    f04f0000    O...    MOV      r0,#0
        0x0001df82:    4770        pG      BX       lr
        0x0001df84:    f04f0006    O...    MOV      r0,#6
        0x0001df88:    4770        pG      BX       lr
        0x0001df8a:    790a        .y      LDRB     r2,[r1,#4]
        0x0001df8c:    2a00        .*      CMP      r2,#0
        0x0001df8e:    bf1c        ..      ITT      NE
        0x0001df90:    2007        .       MOVNE    r0,#7
        0x0001df92:    4770        pG      BXNE     lr
        0x0001df94:    f000be6e    ..n.    B.W      timer_config_b1 ; 0x1ec74
    $d
        0x0001df98:    40020000    ...@    DCD    1073872896
    $t
    i.main
    main
        0x0001df9c:    b570        p.      PUSH     {r4-r6,lr}
        0x0001df9e:    4969        iI      LDR      r1,[pc,#420] ; [0x1e144] = 0x10000020
        0x0001dfa0:    2000        .       MOVS     r0,#0
        0x0001dfa2:    f7fefbd5    ....    BL       am_hal_pwrctrl_dsp_memory_config ; 0x1c750
        0x0001dfa6:    4967        gI      LDR      r1,[pc,#412] ; [0x1e144] = 0x10000020
        0x0001dfa8:    2001        .       MOVS     r0,#1
        0x0001dfaa:    f7fefbd1    ....    BL       am_hal_pwrctrl_dsp_memory_config ; 0x1c750
        0x0001dfae:    4866        fH      LDR      r0,[pc,#408] ; [0x1e148] = 0x1f123
        0x0001dfb0:    f7fbfe1e    ....    BL       am_hal_cachectrl_config ; 0x19bf0
        0x0001dfb4:    f7fbfe40    ..@.    BL       am_hal_cachectrl_enable ; 0x19c38
        0x0001dfb8:    4864        dH      LDR      r0,[pc,#400] ; [0x1e14c] = 0x1006004c
        0x0001dfba:    f020010f     ...    BIC      r1,r0,#0xf
        0x0001dfbe:    2003        .       MOVS     r0,#3
        0x0001dfc0:    f7fcf922    ..".    BL       am_hal_daxi_control ; 0x1a208
        0x0001dfc4:    f7fafc9e    ....    BL       am_bsp_low_power_init ; 0x18904
        0x0001dfc8:    f7fafc60    ..`.    BL       am_bsp_itm_printf_enable ; 0x1888c
        0x0001dfcc:    f7fffb24    ..$.    BL       am_util_stdio_terminal_clear ; 0x1d618
        0x0001dfd0:    a05f        _.      ADR      r0,{pc}+0x180 ; 0x1e150
        0x0001dfd2:    f7fffafd    ....    BL       am_util_stdio_printf ; 0x1d5d0
        0x0001dfd6:    a064        d.      ADR      r0,{pc}+0x192 ; 0x1e168
        0x0001dfd8:    f7fffafa    ....    BL       am_util_stdio_printf ; 0x1d5d0
        0x0001dfdc:    4a6b        kJ      LDR      r2,[pc,#428] ; [0x1e18c] = 0x10002c70
        0x0001dfde:    496c        lI      LDR      r1,[pc,#432] ; [0x1e190] = 0x10000028
        0x0001dfe0:    2000        .       MOVS     r0,#0
        0x0001dfe2:    f7fbfceb    ....    BL       am_devices_mspi_psram_ddr_init_timing_check ; 0x199bc
        0x0001dfe6:    b928        (.      CBNZ     r0,0x1dff4 ; main + 88
        0x0001dfe8:    4868        hH      LDR      r0,[pc,#416] ; [0x1e18c] = 0x10002c70
        0x0001dfea:    6881        .h      LDR      r1,[r0,#8]
        0x0001dfec:    a069        i.      ADR      r0,{pc}+0x1a8 ; 0x1e194
        0x0001dfee:    f7fffaef    ....    BL       am_util_stdio_printf ; 0x1d5d0
        0x0001dff2:    e002        ..      B        0x1dffa ; main + 94
        0x0001dff4:    a071        q.      ADR      r0,{pc}+0x1c8 ; 0x1e1bc
        0x0001dff6:    f7fffaeb    ....    BL       am_util_stdio_printf ; 0x1d5d0
        0x0001dffa:    4b7c        |K      LDR      r3,[pc,#496] ; [0x1e1ec] = 0x10000004
        0x0001dffc:    4a7c        |J      LDR      r2,[pc,#496] ; [0x1e1f0] = 0x10000000
        0x0001dffe:    4964        dI      LDR      r1,[pc,#400] ; [0x1e190] = 0x10000028
        0x0001e000:    2000        .       MOVS     r0,#0
        0x0001e002:    f7fbf905    ....    BL       am_devices_mspi_psram_aps12808l_ddr_init ; 0x19210
        0x0001e006:    4604        .F      MOV      r4,r0
        0x0001e008:    b114        ..      CBZ      r4,0x1e010 ; main + 116
        0x0001e00a:    a07a        z.      ADR      r0,{pc}+0x1ea ; 0x1e1f4
        0x0001e00c:    f7fffae0    ....    BL       am_util_stdio_printf ; 0x1d5d0
        0x0001e010:    4987        .I      LDR      r1,[pc,#540] ; [0x1e230] = 0x1f09c
        0x0001e012:    f9910000    ....    LDRSB    r0,[r1,#0]
        0x0001e016:    2105        .!      MOVS     r1,#5
        0x0001e018:    f7fafc24    ..$.    BL       __NVIC_SetPriority ; 0x18864
        0x0001e01c:    4984        .I      LDR      r1,[pc,#528] ; [0x1e230] = 0x1f09c
        0x0001e01e:    f9910000    ....    LDRSB    r0,[r1,#0]
        0x0001e022:    f7fafc0d    ....    BL       __NVIC_EnableIRQ ; 0x18840
        0x0001e026:    f7faf993    ....    BL       am_hal_interrupt_master_enable ; 0x18350
        0x0001e02a:    4958        XI      LDR      r1,[pc,#352] ; [0x1e18c] = 0x10002c70
        0x0001e02c:    4870        pH      LDR      r0,[pc,#448] ; [0x1e1f0] = 0x10000000
        0x0001e02e:    6800        .h      LDR      r0,[r0,#0]
        0x0001e030:    f7fbf86a    ..j.    BL       am_devices_mspi_psram_apply_ddr_timing ; 0x19108
        0x0001e034:    486e        nH      LDR      r0,[pc,#440] ; [0x1e1f0] = 0x10000000
        0x0001e036:    6800        .h      LDR      r0,[r0,#0]
        0x0001e038:    f7fbf8ca    ....    BL       am_devices_mspi_psram_aps12808l_ddr_enable_xip ; 0x191d0
        0x0001e03c:    4604        .F      MOV      r4,r0
        0x0001e03e:    b114        ..      CBZ      r4,0x1e046 ; main + 170
        0x0001e040:    a07c        |.      ADR      r0,{pc}+0x1f4 ; 0x1e234
        0x0001e042:    f7fffac5    ....    BL       am_util_stdio_printf ; 0x1d5d0
        0x0001e046:    f000f9af    ....    BL       mpu_type_get ; 0x1e3a8
        0x0001e04a:    4605        .F      MOV      r5,r0
        0x0001e04c:    f5b56f00    ...o    CMP      r5,#0x800
        0x0001e050:    d103        ..      BNE      0x1e05a ; main + 190
        0x0001e052:    a082        ..      ADR      r0,{pc}+0x20a ; 0x1e25c
        0x0001e054:    f7fffabc    ....    BL       am_util_stdio_printf ; 0x1d5d0
        0x0001e058:    e005        ..      B        0x1e066 ; main + 202
        0x0001e05a:    a084        ..      ADR      r0,{pc}+0x212 ; 0x1e26c
        0x0001e05c:    f7fffab8    ....    BL       am_util_stdio_printf ; 0x1d5d0
        0x0001e060:    f04f30ff    O..0    MOV      r0,#0xffffffff
        0x0001e064:    bd70        p.      POP      {r4-r6,pc}
        0x0001e066:    2100        .!      MOVS     r1,#0
        0x0001e068:    4887        .H      LDR      r0,[pc,#540] ; [0x1e288] = 0x10000070
        0x0001e06a:    f000f967    ..g.    BL       mpu_region_configure ; 0x1e33c
        0x0001e06e:    2100        .!      MOVS     r1,#0
        0x0001e070:    4886        .H      LDR      r0,[pc,#536] ; [0x1e28c] = 0x10000080
        0x0001e072:    f000f963    ..c.    BL       mpu_region_configure ; 0x1e33c
        0x0001e076:    2100        .!      MOVS     r1,#0
        0x0001e078:    4885        .H      LDR      r0,[pc,#532] ; [0x1e290] = 0x100000b0
        0x0001e07a:    f000f95f    .._.    BL       mpu_region_configure ; 0x1e33c
        0x0001e07e:    2101        .!      MOVS     r1,#1
        0x0001e080:    4884        .H      LDR      r0,[pc,#528] ; [0x1e294] = 0x10000090
        0x0001e082:    f000f95b    ..[.    BL       mpu_region_configure ; 0x1e33c
        0x0001e086:    2101        .!      MOVS     r1,#1
        0x0001e088:    4883        .H      LDR      r0,[pc,#524] ; [0x1e298] = 0x100000a0
        0x0001e08a:    f000f957    ..W.    BL       mpu_region_configure ; 0x1e33c
        0x0001e08e:    2200        ."      MOVS     r2,#0
        0x0001e090:    2101        .!      MOVS     r1,#1
        0x0001e092:    4608        .F      MOV      r0,r1
        0x0001e094:    f000f93c    ..<.    BL       mpu_global_configure ; 0x1e310
        0x0001e098:    2101        .!      MOVS     r1,#1
        0x0001e09a:    f06f000b    o...    MVN      r0,#0xb
        0x0001e09e:    f7fafbe1    ....    BL       __NVIC_SetPriority ; 0x18864
        0x0001e0a2:    f06f000b    o...    MVN      r0,#0xb
        0x0001e0a6:    f7fafbcb    ....    BL       __NVIC_EnableIRQ ; 0x18840
        0x0001e0aa:    487c        |H      LDR      r0,[pc,#496] ; [0x1e29c] = 0x10162a40
        0x0001e0ac:    497c        |I      LDR      r1,[pc,#496] ; [0x1e2a0] = 0x1000000c
        0x0001e0ae:    6008        .`      STR      r0,[r1,#0]
        0x0001e0b0:    487c        |H      LDR      r0,[pc,#496] ; [0x1e2a4] = 0x101c1b00
        0x0001e0b2:    497d        }I      LDR      r1,[pc,#500] ; [0x1e2a8] = 0x10000010
        0x0001e0b4:    6008        .`      STR      r0,[r1,#0]
        0x0001e0b6:    2000        .       MOVS     r0,#0
        0x0001e0b8:    4979        yI      LDR      r1,[pc,#484] ; [0x1e2a0] = 0x1000000c
        0x0001e0ba:    6809        .h      LDR      r1,[r1,#0]
        0x0001e0bc:    6008        .`      STR      r0,[r1,#0]
        0x0001e0be:    497a        zI      LDR      r1,[pc,#488] ; [0x1e2a8] = 0x10000010
        0x0001e0c0:    6809        .h      LDR      r1,[r1,#0]
        0x0001e0c2:    6008        .`      STR      r0,[r1,#0]
        0x0001e0c4:    f000fdbc    ....    BL       stimer_init ; 0x1ec40
        0x0001e0c8:    e02d        -.      B        0x1e126 ; main + 394
        0x0001e0ca:    4875        uH      LDR      r0,[pc,#468] ; [0x1e2a0] = 0x1000000c
        0x0001e0cc:    6800        .h      LDR      r0,[r0,#0]
        0x0001e0ce:    6800        .h      LDR      r0,[r0,#0]
        0x0001e0d0:    1c40        @.      ADDS     r0,r0,#1
        0x0001e0d2:    4973        sI      LDR      r1,[pc,#460] ; [0x1e2a0] = 0x1000000c
        0x0001e0d4:    6809        .h      LDR      r1,[r1,#0]
        0x0001e0d6:    6008        .`      STR      r0,[r1,#0]
        0x0001e0d8:    4871        qH      LDR      r0,[pc,#452] ; [0x1e2a0] = 0x1000000c
        0x0001e0da:    6800        .h      LDR      r0,[r0,#0]
        0x0001e0dc:    6800        .h      LDR      r0,[r0,#0]
        0x0001e0de:    2106        .!      MOVS     r1,#6
        0x0001e0e0:    fbb0f2f1    ....    UDIV     r2,r0,r1
        0x0001e0e4:    fb010012    ....    MLS      r0,r1,r2,r0
        0x0001e0e8:    4970        pI      LDR      r1,[pc,#448] ; [0x1e2ac] = 0x10000014
        0x0001e0ea:    5c0e        .\      LDRB     r6,[r1,r0]
        0x0001e0ec:    4632        2F      MOV      r2,r6
        0x0001e0ee:    f44f0180    O...    MOV      r1,#0x400000
        0x0001e0f2:    486f        oH      LDR      r0,[pc,#444] ; [0x1e2b0] = 0x14040000
        0x0001e0f4:    f7faf9db    ....    BL       __aeabi_memset ; 0x184ae
        0x0001e0f8:    486b        kH      LDR      r0,[pc,#428] ; [0x1e2a8] = 0x10000010
        0x0001e0fa:    6800        .h      LDR      r0,[r0,#0]
        0x0001e0fc:    6800        .h      LDR      r0,[r0,#0]
        0x0001e0fe:    1c40        @.      ADDS     r0,r0,#1
        0x0001e100:    4969        iI      LDR      r1,[pc,#420] ; [0x1e2a8] = 0x10000010
        0x0001e102:    6809        .h      LDR      r1,[r1,#0]
        0x0001e104:    6008        .`      STR      r0,[r1,#0]
        0x0001e106:    4868        hH      LDR      r0,[pc,#416] ; [0x1e2a8] = 0x10000010
        0x0001e108:    6800        .h      LDR      r0,[r0,#0]
        0x0001e10a:    6800        .h      LDR      r0,[r0,#0]
        0x0001e10c:    2106        .!      MOVS     r1,#6
        0x0001e10e:    fbb0f2f1    ....    UDIV     r2,r0,r1
        0x0001e112:    fb010012    ....    MLS      r0,r1,r2,r0
        0x0001e116:    4965        eI      LDR      r1,[pc,#404] ; [0x1e2ac] = 0x10000014
        0x0001e118:    5c0e        .\      LDRB     r6,[r1,r0]
        0x0001e11a:    4632        2F      MOV      r2,r6
        0x0001e11c:    f44f5180    O..Q    MOV      r1,#0x1000
        0x0001e120:    4864        dH      LDR      r0,[pc,#400] ; [0x1e2b4] = 0x100e0000
        0x0001e122:    f7faf9c4    ....    BL       __aeabi_memset ; 0x184ae
        0x0001e126:    485e        ^H      LDR      r0,[pc,#376] ; [0x1e2a0] = 0x1000000c
        0x0001e128:    6800        .h      LDR      r0,[r0,#0]
        0x0001e12a:    6800        .h      LDR      r0,[r0,#0]
        0x0001e12c:    2864        d(      CMP      r0,#0x64
        0x0001e12e:    d3cc        ..      BCC      0x1e0ca ; main + 302
        0x0001e130:    f7faf912    ....    BL       am_hal_interrupt_master_disable ; 0x18358
        0x0001e134:    a060        `.      ADR      r0,{pc}+0x184 ; 0x1e2b8
        0x0001e136:    f7fffa4b    ..K.    BL       am_util_stdio_printf ; 0x1d5d0
        0x0001e13a:    e002        ..      B        0x1e142 ; main + 422
        0x0001e13c:    2001        .       MOVS     r0,#1
        0x0001e13e:    f7fefecd    ....    BL       am_hal_sysctrl_sleep ; 0x1cedc
        0x0001e142:    e7fb        ..      B        0x1e13c ; main + 416
    $d
        0x0001e144:    10000020     ...    DCD    268435488
        0x0001e148:    0001f123    #...    DCD    127267
        0x0001e14c:    1006004c    L...    DCD    268828748
        0x0001e150:    6c6f7041    Apol    DCD    1819242561
        0x0001e154:    20346f6c    lo4     DCD    540307308
        0x0001e158:    2055504d    MPU     DCD    542462029
        0x0001e15c:    6d617845    Exam    DCD    1835104325
        0x0001e160:    0a656c70    ple.    DCD    174419056
        0x0001e164:    0000000a    ....    DCD    10
        0x0001e168:    72617453    Star    DCD    1918989395
        0x0001e16c:    676e6974    ting    DCD    1735289204
        0x0001e170:    50534d20     MSP    DCD    1347636512
        0x0001e174:    44442049    I DD    DCD    1145315401
        0x0001e178:    69542052    R Ti    DCD    1767120978
        0x0001e17c:    676e696d    ming    DCD    1735289197
        0x0001e180:    61635320     Sca    DCD    1633899296
        0x0001e184:    0a203a6e    n: .    DCD    169884270
        0x0001e188:    00000000    ....    DCD    0
        0x0001e18c:    10002c70    p,..    DCD    268446832
        0x0001e190:    10000028    (...    DCD    268435496
        0x0001e194:    3d3d3d3d    ====    DCD    1027423549
        0x0001e198:    61635320     Sca    DCD    1633899296
        0x0001e19c:    6552206e    n Re    DCD    1699881070
        0x0001e1a0:    746c7573    sult    DCD    1953265011
        0x0001e1a4:    5852203a    : RX    DCD    1481777210
        0x0001e1a8:    44535144    DQSD    DCD    1146310980
        0x0001e1ac:    59414c45    ELAY    DCD    1497451589
        0x0001e1b0:    203d2030    0 =     DCD    540876848
        0x0001e1b4:    0a206425    %d .    DCD    169894949
        0x0001e1b8:    00000000    ....    DCD    0
        0x0001e1bc:    3d3d3d3d    ====    DCD    1027423549
        0x0001e1c0:    61635320     Sca    DCD    1633899296
        0x0001e1c4:    6552206e    n Re    DCD    1699881070
        0x0001e1c8:    746c7573    sult    DCD    1953265011
        0x0001e1cc:    6146203a    : Fa    DCD    1631985722
        0x0001e1d0:    64656c69    iled    DCD    1684368489
        0x0001e1d4:    6f6e202c    , no    DCD    1869488172
        0x0001e1d8:    6c617620     val    DCD    1818326560
        0x0001e1dc:    73206469    id s    DCD    1931502697
        0x0001e1e0:    69747465    etti    DCD    1769239653
        0x0001e1e4:    202e676e    ng.     DCD    539912046
        0x0001e1e8:    00000a20     ...    DCD    2592
        0x0001e1ec:    10000004    ....    DCD    268435460
        0x0001e1f0:    10000000    ....    DCD    268435456
        0x0001e1f4:    6c696146    Fail    DCD    1818845510
        0x0001e1f8:    74206465    ed t    DCD    1948279909
        0x0001e1fc:    6f63206f    o co    DCD    1868767343
        0x0001e200:    6769666e    nfig    DCD    1734960750
        0x0001e204:    20657275    ure     DCD    543519349
        0x0001e208:    20656874    the     DCD    543516788
        0x0001e20c:    4950534d    MSPI    DCD    1230000973
        0x0001e210:    646e6120     and    DCD    1684955424
        0x0001e214:    52535020     PSR    DCD    1381191712
        0x0001e218:    44204d41    AM D    DCD    1142967617
        0x0001e21c:    63697665    evic    DCD    1667855973
        0x0001e220:    6f632065    e co    DCD    1868767333
        0x0001e224:    63657272    rrec    DCD    1667592818
        0x0001e228:    21796c74    tly!    DCD    561605748
        0x0001e22c:    0000000a    ....    DCD    10
        0x0001e230:    0001f09c    ....    DCD    127132
        0x0001e234:    6c696146    Fail    DCD    1818845510
        0x0001e238:    74206465    ed t    DCD    1948279909
        0x0001e23c:    6e65206f    o en    DCD    1852121199
        0x0001e240:    656c6261    able    DCD    1701601889
        0x0001e244:    50495820     XIP    DCD    1346983968
        0x0001e248:    646f6d20     mod    DCD    1685024032
        0x0001e24c:    6e692065    e in    DCD    1852383333
        0x0001e250:    65687420     the    DCD    1701344288
        0x0001e254:    50534d20     MSP    DCD    1347636512
        0x0001e258:    000a2149    I!..    DCD    663881
        0x0001e25c:    2055504d    MPU     DCD    542462029
        0x0001e260:    70207369    is p    DCD    1881174889
        0x0001e264:    65736572    rese    DCD    1702061426
        0x0001e268:    000a746e    nt..    DCD    685166
        0x0001e26c:    4f525245    ERRO    DCD    1330795077
        0x0001e270:    4d203a52    R: M    DCD    1293957714
        0x0001e274:    4e205550    PU N    DCD    1310741840
        0x0001e278:    5020544f    OT P    DCD    1344296015
        0x0001e27c:    45534552    RESE    DCD    1163085138
        0x0001e280:    0a0d544e    NT..    DCD    168645710
        0x0001e284:    00000000    ....    DCD    0
        0x0001e288:    10000070    p...    DCD    268435568
        0x0001e28c:    10000080    ....    DCD    268435584
        0x0001e290:    100000b0    ....    DCD    268435632
        0x0001e294:    10000090    ....    DCD    268435600
        0x0001e298:    100000a0    ....    DCD    268435616
        0x0001e29c:    10162a40    @*..    DCD    269888064
        0x0001e2a0:    1000000c    ....    DCD    268435468
        0x0001e2a4:    101c1b00    ....    DCD    270277376
        0x0001e2a8:    10000010    ....    DCD    268435472
        0x0001e2ac:    10000014    ....    DCD    268435476
        0x0001e2b0:    14040000    ....    DCD    335806464
        0x0001e2b4:    100e0000    ....    DCD    269352960
        0x0001e2b8:    6f70410a    .Apo    DCD    1869627658
        0x0001e2bc:    346f6c6c    llo4    DCD    879717484
        0x0001e2c0:    55504d20     MPU    DCD    1431325984
        0x0001e2c4:    61784520     Exa    DCD    1635271968
        0x0001e2c8:    656c706d    mple    DCD    1701605485
        0x0001e2cc:    6d6f4320     Com    DCD    1836008224
        0x0001e2d0:    74656c70    plet    DCD    1952803952
        0x0001e2d4:    00000a65    e...    DCD    2661
    $t
    i.memldo_disable
    memldo_disable
        0x0001e2d8:    4804        .H      LDR      r0,[pc,#16] ; [0x1e2ec] = 0x40020000
        0x0001e2da:    6e01        .n      LDR      r1,[r0,#0x60]
        0x0001e2dc:    f0210120    !. .    BIC      r1,r1,#0x20
        0x0001e2e0:    6601        .f      STR      r1,[r0,#0x60]
        0x0001e2e2:    6e01        .n      LDR      r1,[r0,#0x60]
        0x0001e2e4:    f42171e0    !..q    BIC      r1,r1,#0x1c0
        0x0001e2e8:    6601        .f      STR      r1,[r0,#0x60]
        0x0001e2ea:    4770        pG      BX       lr
    $d
        0x0001e2ec:    40020000    ...@    DCD    1073872896
    $t
    i.memldo_enable
    memldo_enable
        0x0001e2f0:    4806        .H      LDR      r0,[pc,#24] ; [0x1e30c] = 0x40020000
        0x0001e2f2:    6e01        .n      LDR      r1,[r0,#0x60]
        0x0001e2f4:    f4217100    !..q    BIC      r1,r1,#0x200
        0x0001e2f8:    6601        .f      STR      r1,[r0,#0x60]
        0x0001e2fa:    6e01        .n      LDR      r1,[r0,#0x60]
        0x0001e2fc:    f44171e0    A..q    ORR      r1,r1,#0x1c0
        0x0001e300:    6601        .f      STR      r1,[r0,#0x60]
        0x0001e302:    6e01        .n      LDR      r1,[r0,#0x60]
        0x0001e304:    f0410120    A. .    ORR      r1,r1,#0x20
        0x0001e308:    6601        .f      STR      r1,[r0,#0x60]
        0x0001e30a:    4770        pG      BX       lr
    $d
        0x0001e30c:    40020000    ...@    DCD    1073872896
    $t
    i.mpu_global_configure
    mpu_global_configure
        0x0001e310:    f3bf8f5f    .._.    DMB      
        0x0001e314:    ea400042    @.B.    ORR      r0,r0,r2,LSL #1
        0x0001e318:    ea400081    @...    ORR      r0,r0,r1,LSL #2
        0x0001e31c:    4905        .I      LDR      r1,[pc,#20] ; [0x1e334] = 0xe000ed94
        0x0001e31e:    6008        .`      STR      r0,[r1,#0]
        0x0001e320:    4805        .H      LDR      r0,[pc,#20] ; [0x1e338] = 0xe000ed24
        0x0001e322:    6801        .h      LDR      r1,[r0,#0]
        0x0001e324:    f4413180    A..1    ORR      r1,r1,#0x10000
        0x0001e328:    6001        .`      STR      r1,[r0,#0]
        0x0001e32a:    f3bf8f4f    ..O.    DSB      
        0x0001e32e:    f3bf8f6f    ..o.    ISB      
        0x0001e332:    4770        pG      BX       lr
    $d
        0x0001e334:    e000ed94    ....    DCD    3758157204
        0x0001e338:    e000ed24    $...    DCD    3758157092
    $t
    i.mpu_region_configure
    mpu_region_configure
        0x0001e33c:    6843        Ch      LDR      r3,[r0,#4]
        0x0001e33e:    7802        .x      LDRB     r2,[r0,#0]
        0x0001e340:    f023031f    #...    BIC      r3,r3,#0x1f
        0x0001e344:    f0430310    C...    ORR      r3,r3,#0x10
        0x0001e348:    431a        .C      ORRS     r2,r2,r3
        0x0001e34a:    4b09        .K      LDR      r3,[pc,#36] ; [0x1e370] = 0xe000ed9c
        0x0001e34c:    601a        .`      STR      r2,[r3,#0]
        0x0001e34e:    7a82        .z      LDRB     r2,[r0,#0xa]
        0x0001e350:    7a43        Cz      LDRB     r3,[r0,#9]
        0x0001e352:    0712        ..      LSLS     r2,r2,#28
        0x0001e354:    ea426203    B..b    ORR      r2,r2,r3,LSL #24
        0x0001e358:    8983        ..      LDRH     r3,[r0,#0xc]
        0x0001e35a:    7a00        .z      LDRB     r0,[r0,#8]
        0x0001e35c:    ea422203    B.."    ORR      r2,r2,r3,LSL #8
        0x0001e360:    ea420040    B.@.    ORR      r0,r2,r0,LSL #1
        0x0001e364:    4308        .C      ORRS     r0,r0,r1
        0x0001e366:    4903        .I      LDR      r1,[pc,#12] ; [0x1e374] = 0xe000eda0
        0x0001e368:    f44020a0    @..     ORR      r0,r0,#0x50000
        0x0001e36c:    6008        .`      STR      r0,[r1,#0]
        0x0001e36e:    4770        pG      BX       lr
    $d
        0x0001e370:    e000ed9c    ....    DCD    3758157212
        0x0001e374:    e000eda0    ....    DCD    3758157216
    $t
    i.mpu_region_disable
    mpu_region_disable
        0x0001e378:    4903        .I      LDR      r1,[pc,#12] ; [0x1e388] = 0xe000ed98
        0x0001e37a:    6008        .`      STR      r0,[r1,#0]
        0x0001e37c:    4803        .H      LDR      r0,[pc,#12] ; [0x1e38c] = 0xe000eda0
        0x0001e37e:    6801        .h      LDR      r1,[r0,#0]
        0x0001e380:    f0210101    !...    BIC      r1,r1,#1
        0x0001e384:    6001        .`      STR      r1,[r0,#0]
        0x0001e386:    4770        pG      BX       lr
    $d
        0x0001e388:    e000ed98    ....    DCD    3758157208
        0x0001e38c:    e000eda0    ....    DCD    3758157216
    $t
    i.mpu_region_enable
    mpu_region_enable
        0x0001e390:    4903        .I      LDR      r1,[pc,#12] ; [0x1e3a0] = 0xe000ed98
        0x0001e392:    6008        .`      STR      r0,[r1,#0]
        0x0001e394:    4803        .H      LDR      r0,[pc,#12] ; [0x1e3a4] = 0xe000eda0
        0x0001e396:    6801        .h      LDR      r1,[r0,#0]
        0x0001e398:    f0410101    A...    ORR      r1,r1,#1
        0x0001e39c:    6001        .`      STR      r1,[r0,#0]
        0x0001e39e:    4770        pG      BX       lr
    $d
        0x0001e3a0:    e000ed98    ....    DCD    3758157208
        0x0001e3a4:    e000eda0    ....    DCD    3758157216
    $t
    i.mpu_type_get
    mpu_type_get
        0x0001e3a8:    4801        .H      LDR      r0,[pc,#4] ; [0x1e3b0] = 0xe000ed90
        0x0001e3aa:    6800        .h      LDR      r0,[r0,#0]
        0x0001e3ac:    4770        pG      BX       lr
    $d
        0x0001e3ae:    0000        ..      DCW    0
        0x0001e3b0:    e000ed90    ....    DCD    3758157200
    $t
    i.mspi_device_configure
    mspi_device_configure
        0x0001e3b4:    7a82        .z      LDRB     r2,[r0,#0xa]
        0x0001e3b6:    6841        Ah      LDR      r1,[r0,#4]
        0x0001e3b8:    2a14        .*      CMP      r2,#0x14
        0x0001e3ba:    f0808104    ....    BCS.W    0x1e5c6 ; mspi_device_configure + 530
        0x0001e3be:    e8dff002    ....    TBB      [pc,r2]
    $d
        0x0001e3c2:    2a0a        .*      DCW    10762
        0x0001e3c4:    a2846648    Hf..    DCD    2726585928
        0x0001e3c8:    dcc0dcc0    ....    DCD    3703626944
        0x0001e3cc:    fbfcfdfe    ....    DCD    4227661310
        0x0001e3d0:    f7f8f9fa    ....    DCD    4160289274
        0x0001e3d4:    f5f6        ..      DCW    62966
    $t
        0x0001e3d6:    0309        ..      LSLS     r1,r1,#12
        0x0001e3d8:    f1014180    ...A    ADD      r1,r1,#0x40000000
        0x0001e3dc:    f50121c0    ...!    ADD      r1,r1,#0x60000
        0x0001e3e0:    f8d12084    ...     LDR      r2,[r1,#0x84]
        0x0001e3e4:    f022020f    "...    BIC      r2,r2,#0xf
        0x0001e3e8:    1c52        R.      ADDS     r2,r2,#1
        0x0001e3ea:    f8c12084    ...     STR      r2,[r1,#0x84]
        0x0001e3ee:    f8d12084    ...     LDR      r2,[r1,#0x84]
        0x0001e3f2:    f0420280    B...    ORR      r2,r2,#0x80
        0x0001e3f6:    f8c12084    ...     STR      r2,[r1,#0x84]
        0x0001e3fa:    f8d12090    ...     LDR      r2,[r1,#0x90]
        0x0001e3fe:    f42262e0    "..b    BIC      r2,r2,#0x700
        0x0001e402:    f8c12090    ...     STR      r2,[r1,#0x90]
        0x0001e406:    7a40        @z      LDRB     r0,[r0,#9]
        0x0001e408:    2800        .(      CMP      r0,#0
        0x0001e40a:    f0408202    @...    BNE.W    0x1e812 ; mspi_device_configure + 1118
        0x0001e40e:    f000ba03    ....    B.W      0x1e818 ; mspi_device_configure + 1124
        0x0001e412:    6448        Hd      STR      r0,[r1,#0x44]
        0x0001e414:    e0d7        ..      B        0x1e5c6 ; mspi_device_configure + 530
        0x0001e416:    0309        ..      LSLS     r1,r1,#12
        0x0001e418:    f1014180    ...A    ADD      r1,r1,#0x40000000
        0x0001e41c:    f50121c0    ...!    ADD      r1,r1,#0x60000
        0x0001e420:    f8d12084    ...     LDR      r2,[r1,#0x84]
        0x0001e424:    f022020f    "...    BIC      r2,r2,#0xf
        0x0001e428:    1c92        ..      ADDS     r2,r2,#2
        0x0001e42a:    f8c12084    ...     STR      r2,[r1,#0x84]
        0x0001e42e:    f8d12084    ...     LDR      r2,[r1,#0x84]
        0x0001e432:    f0420280    B...    ORR      r2,r2,#0x80
        0x0001e436:    f8c12084    ...     STR      r2,[r1,#0x84]
        0x0001e43a:    f8d12090    ...     LDR      r2,[r1,#0x90]
        0x0001e43e:    f42262e0    "..b    BIC      r2,r2,#0x700
        0x0001e442:    f8c12090    ...     STR      r2,[r1,#0x90]
        0x0001e446:    7a40        @z      LDRB     r0,[r0,#9]
        0x0001e448:    2800        .(      CMP      r0,#0
        0x0001e44a:    f04081e2    @...    BNE.W    0x1e812 ; mspi_device_configure + 1118
        0x0001e44e:    f000b9e3    ....    B.W      0x1e818 ; mspi_device_configure + 1124
        0x0001e452:    0309        ..      LSLS     r1,r1,#12
        0x0001e454:    f1014180    ...A    ADD      r1,r1,#0x40000000
        0x0001e458:    f50121c0    ...!    ADD      r1,r1,#0x60000
        0x0001e45c:    f8d12084    ...     LDR      r2,[r1,#0x84]
        0x0001e460:    f022020f    "...    BIC      r2,r2,#0xf
        0x0001e464:    1d52        R.      ADDS     r2,r2,#5
        0x0001e466:    f8c12084    ...     STR      r2,[r1,#0x84]
        0x0001e46a:    f8d12084    ...     LDR      r2,[r1,#0x84]
        0x0001e46e:    f0220280    "...    BIC      r2,r2,#0x80
        0x0001e472:    f8c12084    ...     STR      r2,[r1,#0x84]
        0x0001e476:    f8d12090    ...     LDR      r2,[r1,#0x90]
        0x0001e47a:    f42262e0    "..b    BIC      r2,r2,#0x700
        0x0001e47e:    f8c12090    ...     STR      r2,[r1,#0x90]
        0x0001e482:    7a40        @z      LDRB     r0,[r0,#9]
        0x0001e484:    2800        .(      CMP      r0,#0
        0x0001e486:    f04081c4    @...    BNE.W    0x1e812 ; mspi_device_configure + 1118
        0x0001e48a:    f000b9c5    ....    B.W      0x1e818 ; mspi_device_configure + 1124
        0x0001e48e:    0309        ..      LSLS     r1,r1,#12
        0x0001e490:    f1014180    ...A    ADD      r1,r1,#0x40000000
        0x0001e494:    f50121c0    ...!    ADD      r1,r1,#0x60000
        0x0001e498:    f8d12084    ...     LDR      r2,[r1,#0x84]
        0x0001e49c:    f022020f    "...    BIC      r2,r2,#0xf
        0x0001e4a0:    1d92        ..      ADDS     r2,r2,#6
        0x0001e4a2:    f8c12084    ...     STR      r2,[r1,#0x84]
        0x0001e4a6:    f8d12084    ...     LDR      r2,[r1,#0x84]
        0x0001e4aa:    f0220280    "...    BIC      r2,r2,#0x80
        0x0001e4ae:    f8c12084    ...     STR      r2,[r1,#0x84]
        0x0001e4b2:    f8d12090    ...     LDR      r2,[r1,#0x90]
        0x0001e4b6:    f42262e0    "..b    BIC      r2,r2,#0x700
        0x0001e4ba:    f8c12090    ...     STR      r2,[r1,#0x90]
        0x0001e4be:    7a40        @z      LDRB     r0,[r0,#9]
        0x0001e4c0:    2800        .(      CMP      r0,#0
        0x0001e4c2:    f04081a6    @...    BNE.W    0x1e812 ; mspi_device_configure + 1118
        0x0001e4c6:    f000b9a7    ....    B.W      0x1e818 ; mspi_device_configure + 1124
        0x0001e4ca:    0309        ..      LSLS     r1,r1,#12
        0x0001e4cc:    f1014180    ...A    ADD      r1,r1,#0x40000000
        0x0001e4d0:    f50121c0    ...!    ADD      r1,r1,#0x60000
        0x0001e4d4:    f8d12084    ...     LDR      r2,[r1,#0x84]
        0x0001e4d8:    f022020f    "...    BIC      r2,r2,#0xf
        0x0001e4dc:    3209        .2      ADDS     r2,r2,#9
        0x0001e4de:    f8c12084    ...     STR      r2,[r1,#0x84]
        0x0001e4e2:    f8d12084    ...     LDR      r2,[r1,#0x84]
        0x0001e4e6:    f0220280    "...    BIC      r2,r2,#0x80
        0x0001e4ea:    f8c12084    ...     STR      r2,[r1,#0x84]
        0x0001e4ee:    f8d12090    ...     LDR      r2,[r1,#0x90]
        0x0001e4f2:    f42262e0    "..b    BIC      r2,r2,#0x700
        0x0001e4f6:    f8c12090    ...     STR      r2,[r1,#0x90]
        0x0001e4fa:    7a40        @z      LDRB     r0,[r0,#9]
        0x0001e4fc:    2800        .(      CMP      r0,#0
        0x0001e4fe:    f040814d    @.M.    BNE.W    0x1e79c ; mspi_device_configure + 1000
        0x0001e502:    f000b94e    ..N.    B.W      0x1e7a2 ; mspi_device_configure + 1006
        0x0001e506:    0309        ..      LSLS     r1,r1,#12
        0x0001e508:    f1014180    ...A    ADD      r1,r1,#0x40000000
        0x0001e50c:    f50121c0    ...!    ADD      r1,r1,#0x60000
        0x0001e510:    f8d12084    ...     LDR      r2,[r1,#0x84]
        0x0001e514:    f022020f    "...    BIC      r2,r2,#0xf
        0x0001e518:    320a        .2      ADDS     r2,r2,#0xa
        0x0001e51a:    f8c12084    ...     STR      r2,[r1,#0x84]
        0x0001e51e:    f8d12084    ...     LDR      r2,[r1,#0x84]
        0x0001e522:    f0220280    "...    BIC      r2,r2,#0x80
        0x0001e526:    f8c12084    ...     STR      r2,[r1,#0x84]
        0x0001e52a:    f8d12090    ...     LDR      r2,[r1,#0x90]
        0x0001e52e:    f42262e0    "..b    BIC      r2,r2,#0x700
        0x0001e532:    f8c12090    ...     STR      r2,[r1,#0x90]
        0x0001e536:    7a40        @z      LDRB     r0,[r0,#9]
        0x0001e538:    2800        .(      CMP      r0,#0
        0x0001e53a:    f040812f    @./.    BNE.W    0x1e79c ; mspi_device_configure + 1000
        0x0001e53e:    f000b930    ..0.    B.W      0x1e7a2 ; mspi_device_configure + 1006
        0x0001e542:    0308        ..      LSLS     r0,r1,#12
        0x0001e544:    f1004080    ...@    ADD      r0,r0,#0x40000000
        0x0001e548:    f50020c0    ...     ADD      r0,r0,#0x60000
        0x0001e54c:    f8d01084    ....    LDR      r1,[r0,#0x84]
        0x0001e550:    f021010f    !...    BIC      r1,r1,#0xf
        0x0001e554:    310d        .1      ADDS     r1,r1,#0xd
        0x0001e556:    f8c01084    ....    STR      r1,[r0,#0x84]
        0x0001e55a:    f8d01084    ....    LDR      r1,[r0,#0x84]
        0x0001e55e:    f0210180    !...    BIC      r1,r1,#0x80
        0x0001e562:    f8c01084    ....    STR      r1,[r0,#0x84]
        0x0001e566:    f8d01090    ....    LDR      r1,[r0,#0x90]
        0x0001e56a:    f42161e0    !..a    BIC      r1,r1,#0x700
        0x0001e56e:    f8c01090    ....    STR      r1,[r0,#0x90]
        0x0001e572:    f24031ff    @..1    MOV      r1,#0x3ff
        0x0001e576:    6441        Ad      STR      r1,[r0,#0x44]
        0x0001e578:    e025        %.      B        0x1e5c6 ; mspi_device_configure + 530
        0x0001e57a:    0308        ..      LSLS     r0,r1,#12
        0x0001e57c:    f1004080    ...@    ADD      r0,r0,#0x40000000
        0x0001e580:    f50020c0    ...     ADD      r0,r0,#0x60000
        0x0001e584:    f8d01084    ....    LDR      r1,[r0,#0x84]
        0x0001e588:    f021010f    !...    BIC      r1,r1,#0xf
        0x0001e58c:    310e        .1      ADDS     r1,r1,#0xe
        0x0001e58e:    f8c01084    ....    STR      r1,[r0,#0x84]
        0x0001e592:    f8d01084    ....    LDR      r1,[r0,#0x84]
        0x0001e596:    f0210180    !...    BIC      r1,r1,#0x80
        0x0001e59a:    f8c01084    ....    STR      r1,[r0,#0x84]
        0x0001e59e:    f8d01090    ....    LDR      r1,[r0,#0x90]
        0x0001e5a2:    f42161e0    !..a    BIC      r1,r1,#0x700
        0x0001e5a6:    f8c01090    ....    STR      r1,[r0,#0x90]
        0x0001e5aa:    e009        ..      B        0x1e5c0 ; mspi_device_configure + 524
        0x0001e5ac:    e117        ..      B        0x1e7de ; mspi_device_configure + 1066
        0x0001e5ae:    e0fb        ..      B        0x1e7a8 ; mspi_device_configure + 1012
        0x0001e5b0:    e0da        ..      B        0x1e768 ; mspi_device_configure + 948
        0x0001e5b2:    e0bd        ..      B        0x1e730 ; mspi_device_configure + 892
        0x0001e5b4:    e09f        ..      B        0x1e6f6 ; mspi_device_configure + 834
        0x0001e5b6:    e080        ..      B        0x1e6ba ; mspi_device_configure + 774
        0x0001e5b8:    e061        a.      B        0x1e67e ; mspi_device_configure + 714
        0x0001e5ba:    e042        B.      B        0x1e642 ; mspi_device_configure + 654
        0x0001e5bc:    e023        #.      B        0x1e606 ; mspi_device_configure + 594
        0x0001e5be:    e004        ..      B        0x1e5ca ; mspi_device_configure + 534
        0x0001e5c0:    f24031ff    @..1    MOV      r1,#0x3ff
        0x0001e5c4:    6441        Ad      STR      r1,[r0,#0x44]
        0x0001e5c6:    2000        .       MOVS     r0,#0
        0x0001e5c8:    4770        pG      BX       lr
        0x0001e5ca:    0309        ..      LSLS     r1,r1,#12
        0x0001e5cc:    f1014180    ...A    ADD      r1,r1,#0x40000000
        0x0001e5d0:    f50121c0    ...!    ADD      r1,r1,#0x60000
        0x0001e5d4:    f8d12084    ...     LDR      r2,[r1,#0x84]
        0x0001e5d8:    f022020f    "...    BIC      r2,r2,#0xf
        0x0001e5dc:    1c52        R.      ADDS     r2,r2,#1
        0x0001e5de:    f8c12084    ...     STR      r2,[r1,#0x84]
        0x0001e5e2:    f8d12084    ...     LDR      r2,[r1,#0x84]
        0x0001e5e6:    f0220280    "...    BIC      r2,r2,#0x80
        0x0001e5ea:    f8c12084    ...     STR      r2,[r1,#0x84]
        0x0001e5ee:    f8d12090    ...     LDR      r2,[r1,#0x90]
        0x0001e5f2:    f42262e0    "..b    BIC      r2,r2,#0x700
        0x0001e5f6:    f5027280    ...r    ADD      r2,r2,#0x100
        0x0001e5fa:    f8c12090    ...     STR      r2,[r1,#0x90]
        0x0001e5fe:    7a40        @z      LDRB     r0,[r0,#9]
        0x0001e600:    2800        .(      CMP      r0,#0
        0x0001e602:    d177        w.      BNE      0x1e6f4 ; mspi_device_configure + 832
        0x0001e604:    e108        ..      B        0x1e818 ; mspi_device_configure + 1124
        0x0001e606:    0309        ..      LSLS     r1,r1,#12
        0x0001e608:    f1014180    ...A    ADD      r1,r1,#0x40000000
        0x0001e60c:    f50121c0    ...!    ADD      r1,r1,#0x60000
        0x0001e610:    f8d12084    ...     LDR      r2,[r1,#0x84]
        0x0001e614:    f022020f    "...    BIC      r2,r2,#0xf
        0x0001e618:    1c92        ..      ADDS     r2,r2,#2
        0x0001e61a:    f8c12084    ...     STR      r2,[r1,#0x84]
        0x0001e61e:    f8d12084    ...     LDR      r2,[r1,#0x84]
        0x0001e622:    f0220280    "...    BIC      r2,r2,#0x80
        0x0001e626:    f8c12084    ...     STR      r2,[r1,#0x84]
        0x0001e62a:    f8d12090    ...     LDR      r2,[r1,#0x90]
        0x0001e62e:    f42262e0    "..b    BIC      r2,r2,#0x700
        0x0001e632:    f5027280    ...r    ADD      r2,r2,#0x100
        0x0001e636:    f8c12090    ...     STR      r2,[r1,#0x90]
        0x0001e63a:    7a40        @z      LDRB     r0,[r0,#9]
        0x0001e63c:    2800        .(      CMP      r0,#0
        0x0001e63e:    d159        Y.      BNE      0x1e6f4 ; mspi_device_configure + 832
        0x0001e640:    e0ea        ..      B        0x1e818 ; mspi_device_configure + 1124
        0x0001e642:    0309        ..      LSLS     r1,r1,#12
        0x0001e644:    f1014180    ...A    ADD      r1,r1,#0x40000000
        0x0001e648:    f50121c0    ...!    ADD      r1,r1,#0x60000
        0x0001e64c:    f8d12084    ...     LDR      r2,[r1,#0x84]
        0x0001e650:    f022020f    "...    BIC      r2,r2,#0xf
        0x0001e654:    1c52        R.      ADDS     r2,r2,#1
        0x0001e656:    f8c12084    ...     STR      r2,[r1,#0x84]
        0x0001e65a:    f8d12084    ...     LDR      r2,[r1,#0x84]
        0x0001e65e:    f0220280    "...    BIC      r2,r2,#0x80
        0x0001e662:    f8c12084    ...     STR      r2,[r1,#0x84]
        0x0001e666:    f8d12090    ...     LDR      r2,[r1,#0x90]
        0x0001e66a:    f42262e0    "..b    BIC      r2,r2,#0x700
        0x0001e66e:    f5027240    ..@r    ADD      r2,r2,#0x300
        0x0001e672:    f8c12090    ...     STR      r2,[r1,#0x90]
        0x0001e676:    7a40        @z      LDRB     r0,[r0,#9]
        0x0001e678:    2800        .(      CMP      r0,#0
        0x0001e67a:    d13b        ;.      BNE      0x1e6f4 ; mspi_device_configure + 832
        0x0001e67c:    e0cc        ..      B        0x1e818 ; mspi_device_configure + 1124
        0x0001e67e:    0309        ..      LSLS     r1,r1,#12
        0x0001e680:    f1014180    ...A    ADD      r1,r1,#0x40000000
        0x0001e684:    f50121c0    ...!    ADD      r1,r1,#0x60000
        0x0001e688:    f8d12084    ...     LDR      r2,[r1,#0x84]
        0x0001e68c:    f022020f    "...    BIC      r2,r2,#0xf
        0x0001e690:    1c92        ..      ADDS     r2,r2,#2
        0x0001e692:    f8c12084    ...     STR      r2,[r1,#0x84]
        0x0001e696:    f8d12084    ...     LDR      r2,[r1,#0x84]
        0x0001e69a:    f0220280    "...    BIC      r2,r2,#0x80
        0x0001e69e:    f8c12084    ...     STR      r2,[r1,#0x84]
        0x0001e6a2:    f8d12090    ...     LDR      r2,[r1,#0x90]
        0x0001e6a6:    f42262e0    "..b    BIC      r2,r2,#0x700
        0x0001e6aa:    f5027240    ..@r    ADD      r2,r2,#0x300
        0x0001e6ae:    f8c12090    ...     STR      r2,[r1,#0x90]
        0x0001e6b2:    7a40        @z      LDRB     r0,[r0,#9]
        0x0001e6b4:    2800        .(      CMP      r0,#0
        0x0001e6b6:    d11d        ..      BNE      0x1e6f4 ; mspi_device_configure + 832
        0x0001e6b8:    e0ae        ..      B        0x1e818 ; mspi_device_configure + 1124
        0x0001e6ba:    0309        ..      LSLS     r1,r1,#12
        0x0001e6bc:    f1014180    ...A    ADD      r1,r1,#0x40000000
        0x0001e6c0:    f50121c0    ...!    ADD      r1,r1,#0x60000
        0x0001e6c4:    f8d12084    ...     LDR      r2,[r1,#0x84]
        0x0001e6c8:    f022020f    "...    BIC      r2,r2,#0xf
        0x0001e6cc:    1c52        R.      ADDS     r2,r2,#1
        0x0001e6ce:    f8c12084    ...     STR      r2,[r1,#0x84]
        0x0001e6d2:    f8d12084    ...     LDR      r2,[r1,#0x84]
        0x0001e6d6:    f0220280    "...    BIC      r2,r2,#0x80
        0x0001e6da:    f8c12084    ...     STR      r2,[r1,#0x84]
        0x0001e6de:    f8d12090    ...     LDR      r2,[r1,#0x90]
        0x0001e6e2:    f42262e0    "..b    BIC      r2,r2,#0x700
        0x0001e6e6:    f50262a0    ...b    ADD      r2,r2,#0x500
        0x0001e6ea:    f8c12090    ...     STR      r2,[r1,#0x90]
        0x0001e6ee:    7a40        @z      LDRB     r0,[r0,#9]
        0x0001e6f0:    bbc8        ..      CBNZ     r0,0x1e766 ; mspi_device_configure + 946
        0x0001e6f2:    e056        V.      B        0x1e7a2 ; mspi_device_configure + 1006
        0x0001e6f4:    e08d        ..      B        0x1e812 ; mspi_device_configure + 1118
        0x0001e6f6:    0309        ..      LSLS     r1,r1,#12
        0x0001e6f8:    f1014180    ...A    ADD      r1,r1,#0x40000000
        0x0001e6fc:    f50121c0    ...!    ADD      r1,r1,#0x60000
        0x0001e700:    f8d12084    ...     LDR      r2,[r1,#0x84]
        0x0001e704:    f022020f    "...    BIC      r2,r2,#0xf
        0x0001e708:    1c92        ..      ADDS     r2,r2,#2
        0x0001e70a:    f8c12084    ...     STR      r2,[r1,#0x84]
        0x0001e70e:    f8d12084    ...     LDR      r2,[r1,#0x84]
        0x0001e712:    f0220280    "...    BIC      r2,r2,#0x80
        0x0001e716:    f8c12084    ...     STR      r2,[r1,#0x84]
        0x0001e71a:    f8d12090    ...     LDR      r2,[r1,#0x90]
        0x0001e71e:    f42262e0    "..b    BIC      r2,r2,#0x700
        0x0001e722:    f50262a0    ...b    ADD      r2,r2,#0x500
        0x0001e726:    f8c12090    ...     STR      r2,[r1,#0x90]
        0x0001e72a:    7a40        @z      LDRB     r0,[r0,#9]
        0x0001e72c:    b9d8        ..      CBNZ     r0,0x1e766 ; mspi_device_configure + 946
        0x0001e72e:    e038        8.      B        0x1e7a2 ; mspi_device_configure + 1006
        0x0001e730:    0309        ..      LSLS     r1,r1,#12
        0x0001e732:    f1014180    ...A    ADD      r1,r1,#0x40000000
        0x0001e736:    f50121c0    ...!    ADD      r1,r1,#0x60000
        0x0001e73a:    f8d12084    ...     LDR      r2,[r1,#0x84]
        0x0001e73e:    f022020f    "...    BIC      r2,r2,#0xf
        0x0001e742:    1c52        R.      ADDS     r2,r2,#1
        0x0001e744:    f8c12084    ...     STR      r2,[r1,#0x84]
        0x0001e748:    f8d12084    ...     LDR      r2,[r1,#0x84]
        0x0001e74c:    f0220280    "...    BIC      r2,r2,#0x80
        0x0001e750:    f8c12084    ...     STR      r2,[r1,#0x84]
        0x0001e754:    f8d12090    ...     LDR      r2,[r1,#0x90]
        0x0001e758:    f44262e0    B..b    ORR      r2,r2,#0x700
        0x0001e75c:    f8c12090    ...     STR      r2,[r1,#0x90]
        0x0001e760:    7a40        @z      LDRB     r0,[r0,#9]
        0x0001e762:    b900        ..      CBNZ     r0,0x1e766 ; mspi_device_configure + 946
        0x0001e764:    e01d        ..      B        0x1e7a2 ; mspi_device_configure + 1006
        0x0001e766:    e019        ..      B        0x1e79c ; mspi_device_configure + 1000
        0x0001e768:    0309        ..      LSLS     r1,r1,#12
        0x0001e76a:    f1014180    ...A    ADD      r1,r1,#0x40000000
        0x0001e76e:    f50121c0    ...!    ADD      r1,r1,#0x60000
        0x0001e772:    f8d12084    ...     LDR      r2,[r1,#0x84]
        0x0001e776:    f022020f    "...    BIC      r2,r2,#0xf
        0x0001e77a:    1c92        ..      ADDS     r2,r2,#2
        0x0001e77c:    f8c12084    ...     STR      r2,[r1,#0x84]
        0x0001e780:    f8d12084    ...     LDR      r2,[r1,#0x84]
        0x0001e784:    f0220280    "...    BIC      r2,r2,#0x80
        0x0001e788:    f8c12084    ...     STR      r2,[r1,#0x84]
        0x0001e78c:    f8d12090    ...     LDR      r2,[r1,#0x90]
        0x0001e790:    f44262e0    B..b    ORR      r2,r2,#0x700
        0x0001e794:    f8c12090    ...     STR      r2,[r1,#0x90]
        0x0001e798:    7a40        @z      LDRB     r0,[r0,#9]
        0x0001e79a:    b110        ..      CBZ      r0,0x1e7a2 ; mspi_device_configure + 1006
        0x0001e79c:    f241001f    A...    MOV      r0,#0x101f
        0x0001e7a0:    e637        7.      B        0x1e412 ; mspi_device_configure + 94
        0x0001e7a2:    f240100f    @...    MOV      r0,#0x10f
        0x0001e7a6:    e634        4.      B        0x1e412 ; mspi_device_configure + 94
        0x0001e7a8:    0309        ..      LSLS     r1,r1,#12
        0x0001e7aa:    f1014180    ...A    ADD      r1,r1,#0x40000000
        0x0001e7ae:    f50121c0    ...!    ADD      r1,r1,#0x60000
        0x0001e7b2:    f8d12084    ...     LDR      r2,[r1,#0x84]
        0x0001e7b6:    f022020f    "...    BIC      r2,r2,#0xf
        0x0001e7ba:    1c52        R.      ADDS     r2,r2,#1
        0x0001e7bc:    f8c12084    ...     STR      r2,[r1,#0x84]
        0x0001e7c0:    f8d12084    ...     LDR      r2,[r1,#0x84]
        0x0001e7c4:    f0220280    "...    BIC      r2,r2,#0x80
        0x0001e7c8:    f8c12084    ...     STR      r2,[r1,#0x84]
        0x0001e7cc:    f8d12090    ...     LDR      r2,[r1,#0x90]
        0x0001e7d0:    f42262e0    "..b    BIC      r2,r2,#0x700
        0x0001e7d4:    f8c12090    ...     STR      r2,[r1,#0x90]
        0x0001e7d8:    7a40        @z      LDRB     r0,[r0,#9]
        0x0001e7da:    b9d0        ..      CBNZ     r0,0x1e812 ; mspi_device_configure + 1118
        0x0001e7dc:    e01c        ..      B        0x1e818 ; mspi_device_configure + 1124
        0x0001e7de:    0309        ..      LSLS     r1,r1,#12
        0x0001e7e0:    f1014180    ...A    ADD      r1,r1,#0x40000000
        0x0001e7e4:    f50121c0    ...!    ADD      r1,r1,#0x60000
        0x0001e7e8:    f8d12084    ...     LDR      r2,[r1,#0x84]
        0x0001e7ec:    f022020f    "...    BIC      r2,r2,#0xf
        0x0001e7f0:    1c92        ..      ADDS     r2,r2,#2
        0x0001e7f2:    f8c12084    ...     STR      r2,[r1,#0x84]
        0x0001e7f6:    f8d12084    ...     LDR      r2,[r1,#0x84]
        0x0001e7fa:    f0220280    "...    BIC      r2,r2,#0x80
        0x0001e7fe:    f8c12084    ...     STR      r2,[r1,#0x84]
        0x0001e802:    f8d12090    ...     LDR      r2,[r1,#0x90]
        0x0001e806:    f42262e0    "..b    BIC      r2,r2,#0x700
        0x0001e80a:    f8c12090    ...     STR      r2,[r1,#0x90]
        0x0001e80e:    7a40        @z      LDRB     r0,[r0,#9]
        0x0001e810:    b110        ..      CBZ      r0,0x1e818 ; mspi_device_configure + 1124
        0x0001e812:    f2410013    A...    MOV      r0,#0x1013
        0x0001e816:    e5fc        ..      B        0x1e412 ; mspi_device_configure + 94
        0x0001e818:    f2401003    @...    MOV      r0,#0x103
        0x0001e81c:    e5f9        ..      B        0x1e412 ; mspi_device_configure + 94
    i.mspi_dummy_callback
    mspi_dummy_callback
        0x0001e81e:    4770        pG      BX       lr
    i.mspi_seq_loopback
    mspi_seq_loopback
        0x0001e820:    f8d01830    ..0.    LDR      r1,[r0,#0x830]
        0x0001e824:    1c49        I.      ADDS     r1,r1,#1
        0x0001e826:    6201        .b      STR      r1,[r0,#0x20]
        0x0001e828:    2100        .!      MOVS     r1,#0
        0x0001e82a:    61c1        .a      STR      r1,[r0,#0x1c]
        0x0001e82c:    2101        .!      MOVS     r1,#1
        0x0001e82e:    f8801834    ..4.    STRB     r1,[r0,#0x834]
        0x0001e832:    6840        @h      LDR      r0,[r0,#4]
        0x0001e834:    2140        @!      MOVS     r1,#0x40
        0x0001e836:    0300        ..      LSLS     r0,r0,#12
        0x0001e838:    f1004080    ...@    ADD      r0,r0,#0x40000000
        0x0001e83c:    f50020c0    ...     ADD      r0,r0,#0x60000
        0x0001e840:    f8c012b4    ....    STR      r1,[r0,#0x2b4]
        0x0001e844:    4770        pG      BX       lr
    i.ndigits_in_hex
    ndigits_in_hex
        0x0001e846:    b530        0.      PUSH     {r4,r5,lr}
        0x0001e848:    4602        .F      MOV      r2,r0
        0x0001e84a:    460b        .F      MOV      r3,r1
        0x0001e84c:    2400        .$      MOVS     r4,#0
        0x0001e84e:    ea820104    ....    EOR      r1,r2,r4
        0x0001e852:    405c        \@      EORS     r4,r4,r3
        0x0001e854:    4321        !C      ORRS     r1,r1,r4
        0x0001e856:    d101        ..      BNE      0x1e85c ; ndigits_in_hex + 22
        0x0001e858:    2101        .!      MOVS     r1,#1
        0x0001e85a:    e000        ..      B        0x1e85e ; ndigits_in_hex + 24
        0x0001e85c:    2100        .!      MOVS     r1,#0
        0x0001e85e:    4608        .F      MOV      r0,r1
        0x0001e860:    e004        ..      B        0x1e86c ; ndigits_in_hex + 38
        0x0001e862:    0911        ..      LSRS     r1,r2,#4
        0x0001e864:    ea417203    A..r    ORR      r2,r1,r3,LSL #28
        0x0001e868:    091b        ..      LSRS     r3,r3,#4
        0x0001e86a:    1c40        @.      ADDS     r0,r0,#1
        0x0001e86c:    2400        .$      MOVS     r4,#0
        0x0001e86e:    ea820104    ....    EOR      r1,r2,r4
        0x0001e872:    405c        \@      EORS     r4,r4,r3
        0x0001e874:    4321        !C      ORRS     r1,r1,r4
        0x0001e876:    d1f4        ..      BNE      0x1e862 ; ndigits_in_hex + 28
        0x0001e878:    bd30        0.      POP      {r4,r5,pc}
    i.ndigits_in_i64
    ndigits_in_i64
        0x0001e87a:    b570        p.      PUSH     {r4-r6,lr}
        0x0001e87c:    4604        .F      MOV      r4,r0
        0x0001e87e:    460d        .F      MOV      r5,r1
        0x0001e880:    2100        .!      MOVS     r1,#0
        0x0001e882:    4608        .F      MOV      r0,r1
        0x0001e884:    1a61        a.      SUBS     r1,r4,r1
        0x0001e886:    eb750000    u...    SBCS     r0,r5,r0
        0x0001e88a:    da03        ..      BGE      0x1e894 ; ndigits_in_i64 + 26
        0x0001e88c:    2200        ."      MOVS     r2,#0
        0x0001e88e:    4264        dB      RSBS     r4,r4,#0
        0x0001e890:    eb620505    b...    SBC      r5,r2,r5
        0x0001e894:    4620         F      MOV      r0,r4
        0x0001e896:    4629        )F      MOV      r1,r5
        0x0001e898:    f000f801    ....    BL       ndigits_in_u64 ; 0x1e89e
        0x0001e89c:    bd70        p.      POP      {r4-r6,pc}
    i.ndigits_in_u64
    ndigits_in_u64
        0x0001e89e:    b570        p.      PUSH     {r4-r6,lr}
        0x0001e8a0:    4604        .F      MOV      r4,r0
        0x0001e8a2:    460d        .F      MOV      r5,r1
        0x0001e8a4:    2100        .!      MOVS     r1,#0
        0x0001e8a6:    ea840001    ....    EOR      r0,r4,r1
        0x0001e8aa:    4069        i@      EORS     r1,r1,r5
        0x0001e8ac:    4308        .C      ORRS     r0,r0,r1
        0x0001e8ae:    d101        ..      BNE      0x1e8b4 ; ndigits_in_u64 + 22
        0x0001e8b0:    2001        .       MOVS     r0,#1
        0x0001e8b2:    e000        ..      B        0x1e8b6 ; ndigits_in_u64 + 24
        0x0001e8b4:    2000        .       MOVS     r0,#0
        0x0001e8b6:    4606        .F      MOV      r6,r0
        0x0001e8b8:    e006        ..      B        0x1e8c8 ; ndigits_in_u64 + 42
        0x0001e8ba:    4620         F      MOV      r0,r4
        0x0001e8bc:    4629        )F      MOV      r1,r5
        0x0001e8be:    f7fff9a6    ....    BL       divu64_10 ; 0x1dc0e
        0x0001e8c2:    4604        .F      MOV      r4,r0
        0x0001e8c4:    460d        .F      MOV      r5,r1
        0x0001e8c6:    1c76        v.      ADDS     r6,r6,#1
        0x0001e8c8:    2100        .!      MOVS     r1,#0
        0x0001e8ca:    ea840001    ....    EOR      r0,r4,r1
        0x0001e8ce:    4069        i@      EORS     r1,r1,r5
        0x0001e8d0:    4308        .C      ORRS     r0,r0,r1
        0x0001e8d2:    d1f2        ..      BNE      0x1e8ba ; ndigits_in_u64 + 28
        0x0001e8d4:    4630        0F      MOV      r0,r6
        0x0001e8d6:    bd70        p.      POP      {r4-r6,pc}
    i.padbuffer
    padbuffer
        0x0001e8d8:    b530        0.      PUSH     {r4,r5,lr}
        0x0001e8da:    4603        .F      MOV      r3,r0
        0x0001e8dc:    2000        .       MOVS     r0,#0
        0x0001e8de:    2a00        .*      CMP      r2,#0
        0x0001e8e0:    dc00        ..      BGT      0x1e8e4 ; padbuffer + 12
        0x0001e8e2:    bd30        0.      POP      {r4,r5,pc}
        0x0001e8e4:    e003        ..      B        0x1e8ee ; padbuffer + 22
        0x0001e8e6:    b10b        ..      CBZ      r3,0x1e8ec ; padbuffer + 20
        0x0001e8e8:    f8031b01    ....    STRB     r1,[r3],#1
        0x0001e8ec:    1c40        @.      ADDS     r0,r0,#1
        0x0001e8ee:    1e14        ..      SUBS     r4,r2,#0
        0x0001e8f0:    f1a20201    ....    SUB      r2,r2,#1
        0x0001e8f4:    d1f7        ..      BNE      0x1e8e6 ; padbuffer + 14
        0x0001e8f6:    bf00        ..      NOP      
        0x0001e8f8:    e7f3        ..      B        0x1e8e2 ; padbuffer + 10
        0x0001e8fa:    0000        ..      MOVS     r0,r0
    i.prepare_test_pattern
    prepare_test_pattern
        0x0001e8fc:    b5f0        ..      PUSH     {r4-r7,lr}
        0x0001e8fe:    4603        .F      MOV      r3,r0
        0x0001e900:    460c        .F      MOV      r4,r1
        0x0001e902:    4625        %F      MOV      r5,r4
        0x0001e904:    4621        !F      MOV      r1,r4
        0x0001e906:    f0020003    ....    AND      r0,r2,#3
        0x0001e90a:    b110        ..      CBZ      r0,0x1e912 ; prepare_test_pattern + 22
        0x0001e90c:    f04f30ff    O..0    MOV      r0,#0xffffffff
        0x0001e910:    bdf0        ..      POP      {r4-r7,pc}
        0x0001e912:    2b05        .+      CMP      r3,#5
        0x0001e914:    d234        4.      BCS      0x1e980 ; prepare_test_pattern + 132
        0x0001e916:    e8dff003    ....    TBB      [pc,r3]
    $d
        0x0001e91a:    0d03        ..      DCW    3331
        0x0001e91c:    002a2217    ."*.    DCD    2761239
    $t
        0x0001e920:    2000        .       MOVS     r0,#0
        0x0001e922:    e003        ..      B        0x1e92c ; prepare_test_pattern + 48
        0x0001e924:    4e1c        .N      LDR      r6,[pc,#112] ; [0x1e998] = 0x5555aaaa
        0x0001e926:    f8456020    E. `    STR      r6,[r5,r0,LSL #2]
        0x0001e92a:    1c40        @.      ADDS     r0,r0,#1
        0x0001e92c:    ebb00f92    ....    CMP      r0,r2,LSR #2
        0x0001e930:    d3f8        ..      BCC      0x1e924 ; prepare_test_pattern + 40
        0x0001e932:    e02d        -.      B        0x1e990 ; prepare_test_pattern + 148
        0x0001e934:    2000        .       MOVS     r0,#0
        0x0001e936:    e003        ..      B        0x1e940 ; prepare_test_pattern + 68
        0x0001e938:    4e18        .N      LDR      r6,[pc,#96] ; [0x1e99c] = 0xffff0000
        0x0001e93a:    f8456020    E. `    STR      r6,[r5,r0,LSL #2]
        0x0001e93e:    1c40        @.      ADDS     r0,r0,#1
        0x0001e940:    ebb00f92    ....    CMP      r0,r2,LSR #2
        0x0001e944:    d3f8        ..      BCC      0x1e938 ; prepare_test_pattern + 60
        0x0001e946:    e023        #.      B        0x1e990 ; prepare_test_pattern + 148
        0x0001e948:    2000        .       MOVS     r0,#0
        0x0001e94a:    e005        ..      B        0x1e958 ; prepare_test_pattern + 92
        0x0001e94c:    f0000707    ....    AND      r7,r0,#7
        0x0001e950:    2601        .&      MOVS     r6,#1
        0x0001e952:    40be        .@      LSLS     r6,r6,r7
        0x0001e954:    540e        .T      STRB     r6,[r1,r0]
        0x0001e956:    1c40        @.      ADDS     r0,r0,#1
        0x0001e958:    4290        .B      CMP      r0,r2
        0x0001e95a:    d3f7        ..      BCC      0x1e94c ; prepare_test_pattern + 80
        0x0001e95c:    e018        ..      B        0x1e990 ; prepare_test_pattern + 148
        0x0001e95e:    2000        .       MOVS     r0,#0
        0x0001e960:    e002        ..      B        0x1e968 ; prepare_test_pattern + 108
        0x0001e962:    1c46        F.      ADDS     r6,r0,#1
        0x0001e964:    540e        .T      STRB     r6,[r1,r0]
        0x0001e966:    1c40        @.      ADDS     r0,r0,#1
        0x0001e968:    4290        .B      CMP      r0,r2
        0x0001e96a:    d3fa        ..      BCC      0x1e962 ; prepare_test_pattern + 102
        0x0001e96c:    e010        ..      B        0x1e990 ; prepare_test_pattern + 148
        0x0001e96e:    2000        .       MOVS     r0,#0
        0x0001e970:    e003        ..      B        0x1e97a ; prepare_test_pattern + 126
        0x0001e972:    f1c006ff    ....    RSB      r6,r0,#0xff
        0x0001e976:    540e        .T      STRB     r6,[r1,r0]
        0x0001e978:    1c40        @.      ADDS     r0,r0,#1
        0x0001e97a:    4290        .B      CMP      r0,r2
        0x0001e97c:    d3f9        ..      BCC      0x1e972 ; prepare_test_pattern + 118
        0x0001e97e:    e007        ..      B        0x1e990 ; prepare_test_pattern + 148
        0x0001e980:    2000        .       MOVS     r0,#0
        0x0001e982:    e002        ..      B        0x1e98a ; prepare_test_pattern + 142
        0x0001e984:    1c46        F.      ADDS     r6,r0,#1
        0x0001e986:    540e        .T      STRB     r6,[r1,r0]
        0x0001e988:    1c40        @.      ADDS     r0,r0,#1
        0x0001e98a:    4290        .B      CMP      r0,r2
        0x0001e98c:    d3fa        ..      BCC      0x1e984 ; prepare_test_pattern + 136
        0x0001e98e:    bf00        ..      NOP      
        0x0001e990:    bf00        ..      NOP      
        0x0001e992:    2000        .       MOVS     r0,#0
        0x0001e994:    e7bc        ..      B        0x1e910 ; prepare_test_pattern + 20
    $d
        0x0001e996:    0000        ..      DCW    0
        0x0001e998:    5555aaaa    ..UU    DCD    1431677610
        0x0001e99c:    ffff0000    ....    DCD    4294901760
    $t
    i.psram_check
    psram_check
        0x0001e9a0:    e92d4ff0    -..O    PUSH     {r4-r11,lr}
        0x0001e9a4:    f5ad7d01    ...}    SUB      sp,sp,#0x204
        0x0001e9a8:    4607        .F      MOV      r7,r0
        0x0001e9aa:    460d        .F      MOV      r5,r1
        0x0001e9ac:    463c        <F      MOV      r4,r7
        0x0001e9ae:    f04f0800    O...    MOV      r8,#0
        0x0001e9b2:    2600        .&      MOVS     r6,#0
        0x0001e9b4:    46b1        .F      MOV      r9,r6
        0x0001e9b6:    e03a        :.      B        0x1ea2e ; psram_check + 142
        0x0001e9b8:    f5b47f80    ....    CMP      r4,#0x100
        0x0001e9bc:    d904        ..      BLS      0x1e9c8 ; psram_check + 40
        0x0001e9be:    f44f7880    O..x    MOV      r8,#0x100
        0x0001e9c2:    f5a47480    ...t    SUB      r4,r4,#0x100
        0x0001e9c6:    e001        ..      B        0x1e9cc ; psram_check + 44
        0x0001e9c8:    46a0        .F      MOV      r8,r4
        0x0001e9ca:    2400        .$      MOVS     r4,#0
        0x0001e9cc:    2005        .       MOVS     r0,#5
        0x0001e9ce:    fb99f1f0    ....    SDIV     r1,r9,r0
        0x0001e9d2:    fb009b11    ....    MLS      r11,r0,r1,r9
        0x0001e9d6:    4642        BF      MOV      r2,r8
        0x0001e9d8:    a941        A.      ADD      r1,sp,#0x104
        0x0001e9da:    4658        XF      MOV      r0,r11
        0x0001e9dc:    f7ffff8e    ....    BL       prepare_test_pattern ; 0x1e8fc
        0x0001e9e0:    f1090001    ....    ADD      r0,r9,#1
        0x0001e9e4:    f00009ff    ....    AND      r9,r0,#0xff
        0x0001e9e8:    2100        .!      MOVS     r1,#0
        0x0001e9ea:    2002        .       MOVS     r0,#2
        0x0001e9ec:    f7fbfc0c    ....    BL       am_hal_daxi_control ; 0x1a208
        0x0001e9f0:    eb050a06    ....    ADD      r10,r5,r6
        0x0001e9f4:    4642        BF      MOV      r2,r8
        0x0001e9f6:    a941        A.      ADD      r1,sp,#0x104
        0x0001e9f8:    4650        PF      MOV      r0,r10
        0x0001e9fa:    f7f9fd13    ....    BL       __aeabi_memcpy ; 0x18424
        0x0001e9fe:    2100        .!      MOVS     r1,#0
        0x0001ea00:    2002        .       MOVS     r0,#2
        0x0001ea02:    f7fbfc01    ....    BL       am_hal_daxi_control ; 0x1a208
        0x0001ea06:    eb050a06    ....    ADD      r10,r5,r6
        0x0001ea0a:    4642        BF      MOV      r2,r8
        0x0001ea0c:    4651        QF      MOV      r1,r10
        0x0001ea0e:    a801        ..      ADD      r0,sp,#4
        0x0001ea10:    f7f9fd08    ....    BL       __aeabi_memcpy ; 0x18424
        0x0001ea14:    4642        BF      MOV      r2,r8
        0x0001ea16:    a941        A.      ADD      r1,sp,#0x104
        0x0001ea18:    a801        ..      ADD      r0,sp,#4
        0x0001ea1a:    f7f9fcd7    ....    BL       memcmp ; 0x183cc
        0x0001ea1e:    b120         .      CBZ      r0,0x1ea2a ; psram_check + 138
        0x0001ea20:    2001        .       MOVS     r0,#1
        0x0001ea22:    f50d7d01    ...}    ADD      sp,sp,#0x204
        0x0001ea26:    e8bd8ff0    ....    POP      {r4-r11,pc}
        0x0001ea2a:    4446        FD      ADD      r6,r6,r8
        0x0001ea2c:    bf00        ..      NOP      
        0x0001ea2e:    2c00        .,      CMP      r4,#0
        0x0001ea30:    d1c2        ..      BNE      0x1e9b8 ; psram_check + 24
        0x0001ea32:    2000        .       MOVS     r0,#0
        0x0001ea34:    e7f5        ..      B        0x1ea22 ; psram_check + 130
        0x0001ea36:    0000        ..      MOVS     r0,r0
    i.sched_hiprio
    sched_hiprio
        0x0001ea38:    b5f8        ..      PUSH     {r3-r7,lr}
        0x0001ea3a:    460e        .F      MOV      r6,r1
        0x0001ea3c:    4604        .F      MOV      r4,r0
        0x0001ea3e:    2500        .%      MOVS     r5,#0
        0x0001ea40:    f7f9fc8a    ....    BL       am_hal_interrupt_master_disable ; 0x18358
        0x0001ea44:    9000        ..      STR      r0,[sp,#0]
        0x0001ea46:    f8d47840    ..@x    LDR      r7,[r4,#0x840]
        0x0001ea4a:    19b8        ..      ADDS     r0,r7,r6
        0x0001ea4c:    f8c40840    ..@.    STR      r0,[r4,#0x840]
        0x0001ea50:    9800        ..      LDR      r0,[sp,#0]
        0x0001ea52:    f7f9fc85    ....    BL       am_hal_interrupt_master_set ; 0x18360
        0x0001ea56:    2f00        ./      CMP      r7,#0
        0x0001ea58:    d17e        ~.      BNE      0x1eb58 ; sched_hiprio + 288
        0x0001ea5a:    6861        ah      LDR      r1,[r4,#4]
        0x0001ea5c:    4e44        DN      LDR      r6,[pc,#272] ; [0x1eb70] = 0x186a0
        0x0001ea5e:    ea4f3101    O..1    LSL      r1,r1,#12
        0x0001ea62:    f1014180    ...A    ADD      r1,r1,#0x40000000
        0x0001ea66:    f50121c0    ...!    ADD      r1,r1,#0x60000
        0x0001ea6a:    f44f0000    O...    MOV      r0,#0x800000
        0x0001ea6e:    4635        5F      MOV      r5,r6
        0x0001ea70:    f8c102b4    ....    STR      r0,[r1,#0x2b4]
        0x0001ea74:    6860        `h      LDR      r0,[r4,#4]
        0x0001ea76:    ea4f3000    O..0    LSL      r0,r0,#12
        0x0001ea7a:    f1004080    ...@    ADD      r0,r0,#0x40000000
        0x0001ea7e:    f50020c0    ...     ADD      r0,r0,#0x60000
        0x0001ea82:    f8d002a0    ....    LDR      r0,[r0,#0x2a0]
        0x0001ea86:    f0100f01    ....    TST      r0,#1
        0x0001ea8a:    d020         .      BEQ      0x1eace ; sched_hiprio + 150
        0x0001ea8c:    6860        `h      LDR      r0,[r4,#4]
        0x0001ea8e:    ea4f3000    O..0    LSL      r0,r0,#12
        0x0001ea92:    f1004080    ...@    ADD      r0,r0,#0x40000000
        0x0001ea96:    f50020c0    ...     ADD      r0,r0,#0x60000
        0x0001ea9a:    f8d012ac    ....    LDR      r1,[r0,#0x2ac]
        0x0001ea9e:    f0110f08    ....    TST      r1,#8
        0x0001eaa2:    bf1c        ..      ITT      NE
        0x0001eaa4:    f8d002b8    ....    LDRNE    r0,[r0,#0x2b8]
        0x0001eaa8:    f0100f80    ....    TSTNE    r0,#0x80
        0x0001eaac:    d10f        ..      BNE      0x1eace ; sched_hiprio + 150
        0x0001eaae:    1e6d        m.      SUBS     r5,r5,#1
        0x0001eab0:    d35b        [.      BCC      0x1eb6a ; sched_hiprio + 306
        0x0001eab2:    2001        .       MOVS     r0,#1
        0x0001eab4:    f7fbfd0a    ....    BL       am_hal_delay_us ; 0x1a4cc
        0x0001eab8:    6860        `h      LDR      r0,[r4,#4]
        0x0001eaba:    0300        ..      LSLS     r0,r0,#12
        0x0001eabc:    f1004080    ...@    ADD      r0,r0,#0x40000000
        0x0001eac0:    f50020c0    ...     ADD      r0,r0,#0x60000
        0x0001eac4:    f8d002a0    ....    LDR      r0,[r0,#0x2a0]
        0x0001eac8:    f0100f01    ....    TST      r0,#1
        0x0001eacc:    d1de        ..      BNE      0x1ea8c ; sched_hiprio + 84
        0x0001eace:    2701        .'      MOVS     r7,#1
        0x0001ead0:    9700        ..      STR      r7,[sp,#0]
        0x0001ead2:    4928        (I      LDR      r1,[pc,#160] ; [0x1eb74] = 0x40060104
        0x0001ead4:    6860        `h      LDR      r0,[r4,#4]
        0x0001ead6:    2300        .#      MOVS     r3,#0
        0x0001ead8:    eb013100    ...1    ADD      r1,r1,r0,LSL #12
        0x0001eadc:    463a        :F      MOV      r2,r7
        0x0001eade:    4630        0F      MOV      r0,r6
        0x0001eae0:    f7fbfd36    ..6.    BL       am_hal_delay_us_status_check ; 0x1a550
        0x0001eae4:    0005        ..      MOVS     r5,r0
        0x0001eae6:    bf18        ..      IT       NE
        0x0001eae8:    bdf8        ..      POPNE    {r3-r7,pc}
        0x0001eaea:    2200        ."      MOVS     r2,#0
        0x0001eaec:    6262        bb      STR      r2,[r4,#0x24]
        0x0001eaee:    6861        ah      LDR      r1,[r4,#4]
        0x0001eaf0:    2040        @       MOVS     r0,#0x40
        0x0001eaf2:    0309        ..      LSLS     r1,r1,#12
        0x0001eaf4:    f1014180    ...A    ADD      r1,r1,#0x40000000
        0x0001eaf8:    f50121c0    ...!    ADD      r1,r1,#0x60000
        0x0001eafc:    f8c10208    ....    STR      r0,[r1,#0x208]
        0x0001eb00:    6860        `h      LDR      r0,[r4,#4]
        0x0001eb02:    0300        ..      LSLS     r0,r0,#12
        0x0001eb04:    f1004080    ...@    ADD      r0,r0,#0x40000000
        0x0001eb08:    f50020c0    ...     ADD      r0,r0,#0x60000
        0x0001eb0c:    f8d01200    ....    LDR      r1,[r0,#0x200]
        0x0001eb10:    f0410140    A.@.    ORR      r1,r1,#0x40
        0x0001eb14:    f8c01200    ....    STR      r1,[r0,#0x200]
        0x0001eb18:    f884783c    ..<x    STRB     r7,[r4,#0x83c]
        0x0001eb1c:    f8d40850    ..P.    LDR      r0,[r4,#0x850]
        0x0001eb20:    f8d43848    ..H8    LDR      r3,[r4,#0x848]
        0x0001eb24:    1c40        @.      ADDS     r0,r0,#1
        0x0001eb26:    fbb0fcf3    ....    UDIV     r12,r0,r3
        0x0001eb2a:    6861        ah      LDR      r1,[r4,#4]
        0x0001eb2c:    fb03001c    ....    MLS      r0,r3,r12,r0
        0x0001eb30:    0309        ..      LSLS     r1,r1,#12
        0x0001eb32:    f1014180    ...A    ADD      r1,r1,#0x40000000
        0x0001eb36:    f8d43854    ..T8    LDR      r3,[r4,#0x854]
        0x0001eb3a:    f50121c0    ...!    ADD      r1,r1,#0x60000
        0x0001eb3e:    eb000040    ..@.    ADD      r0,r0,r0,LSL #1
        0x0001eb42:    eb0300c0    ....    ADD      r0,r3,r0,LSL #3
        0x0001eb46:    f8c12100    ...!    STR      r2,[r1,#0x100]
        0x0001eb4a:    6802        .h      LDR      r2,[r0,#0]
        0x0001eb4c:    f8c12108    ...!    STR      r2,[r1,#0x108]
        0x0001eb50:    6842        Bh      LDR      r2,[r0,#4]
        0x0001eb52:    f8c1210c    ...!    STR      r2,[r1,#0x10c]
        0x0001eb56:    e000        ..      B        0x1eb5a ; sched_hiprio + 290
        0x0001eb58:    e005        ..      B        0x1eb66 ; sched_hiprio + 302
        0x0001eb5a:    6882        .h      LDR      r2,[r0,#8]
        0x0001eb5c:    f8c12110    ...!    STR      r2,[r1,#0x110]
        0x0001eb60:    68c0        .h      LDR      r0,[r0,#0xc]
        0x0001eb62:    f8c10100    ....    STR      r0,[r1,#0x100]
        0x0001eb66:    4628        (F      MOV      r0,r5
        0x0001eb68:    bdf8        ..      POP      {r3-r7,pc}
        0x0001eb6a:    2004        .       MOVS     r0,#4
        0x0001eb6c:    bdf8        ..      POP      {r3-r7,pc}
    $d
        0x0001eb6e:    0000        ..      DCW    0
        0x0001eb70:    000186a0    ....    DCD    100000
        0x0001eb74:    40060104    ...@    DCD    1074135300
    $t
    i.simobuck_ldos_force_active
    simobuck_ldos_force_active
        0x0001eb78:    4814        .H      LDR      r0,[pc,#80] ; [0x1ebcc] = 0x40020000
        0x0001eb7a:    6e01        .n      LDR      r1,[r0,#0x60]
        0x0001eb7c:    f4413100    A..1    ORR      r1,r1,#0x20000
        0x0001eb80:    6601        .f      STR      r1,[r0,#0x60]
        0x0001eb82:    6e01        .n      LDR      r1,[r0,#0x60]
        0x0001eb84:    f4412180    A..!    ORR      r1,r1,#0x40000
        0x0001eb88:    6601        .f      STR      r1,[r0,#0x60]
        0x0001eb8a:    6e01        .n      LDR      r1,[r0,#0x60]
        0x0001eb8c:    f4412100    A..!    ORR      r1,r1,#0x80000
        0x0001eb90:    6601        .f      STR      r1,[r0,#0x60]
        0x0001eb92:    6e01        .n      LDR      r1,[r0,#0x60]
        0x0001eb94:    f4413180    A..1    ORR      r1,r1,#0x10000
        0x0001eb98:    6601        .f      STR      r1,[r0,#0x60]
        0x0001eb9a:    6e01        .n      LDR      r1,[r0,#0x60]
        0x0001eb9c:    f0410102    A...    ORR      r1,r1,#2
        0x0001eba0:    6601        .f      STR      r1,[r0,#0x60]
        0x0001eba2:    6e01        .n      LDR      r1,[r0,#0x60]
        0x0001eba4:    f0410108    A...    ORR      r1,r1,#8
        0x0001eba8:    6601        .f      STR      r1,[r0,#0x60]
        0x0001ebaa:    6e01        .n      LDR      r1,[r0,#0x60]
        0x0001ebac:    f0410101    A...    ORR      r1,r1,#1
        0x0001ebb0:    6601        .f      STR      r1,[r0,#0x60]
        0x0001ebb2:    6e01        .n      LDR      r1,[r0,#0x60]
        0x0001ebb4:    f0410140    A.@.    ORR      r1,r1,#0x40
        0x0001ebb8:    6601        .f      STR      r1,[r0,#0x60]
        0x0001ebba:    6e01        .n      LDR      r1,[r0,#0x60]
        0x0001ebbc:    f4417180    A..q    ORR      r1,r1,#0x100
        0x0001ebc0:    6601        .f      STR      r1,[r0,#0x60]
        0x0001ebc2:    6e01        .n      LDR      r1,[r0,#0x60]
        0x0001ebc4:    f0410120    A. .    ORR      r1,r1,#0x20
        0x0001ebc8:    6601        .f      STR      r1,[r0,#0x60]
        0x0001ebca:    4770        pG      BX       lr
    $d
        0x0001ebcc:    40020000    ...@    DCD    1073872896
    $t
    i.simobuck_ldos_force_disable
    simobuck_ldos_force_disable
        0x0001ebd0:    4814        .H      LDR      r0,[pc,#80] ; [0x1ec24] = 0x40020000
        0x0001ebd2:    6e01        .n      LDR      r1,[r0,#0x60]
        0x0001ebd4:    f0210101    !...    BIC      r1,r1,#1
        0x0001ebd8:    6601        .f      STR      r1,[r0,#0x60]
        0x0001ebda:    6e01        .n      LDR      r1,[r0,#0x60]
        0x0001ebdc:    f0210120    !. .    BIC      r1,r1,#0x20
        0x0001ebe0:    6601        .f      STR      r1,[r0,#0x60]
        0x0001ebe2:    6e01        .n      LDR      r1,[r0,#0x60]
        0x0001ebe4:    f0210108    !...    BIC      r1,r1,#8
        0x0001ebe8:    6601        .f      STR      r1,[r0,#0x60]
        0x0001ebea:    6e01        .n      LDR      r1,[r0,#0x60]
        0x0001ebec:    f0210102    !...    BIC      r1,r1,#2
        0x0001ebf0:    6601        .f      STR      r1,[r0,#0x60]
        0x0001ebf2:    6e01        .n      LDR      r1,[r0,#0x60]
        0x0001ebf4:    f4217180    !..q    BIC      r1,r1,#0x100
        0x0001ebf8:    6601        .f      STR      r1,[r0,#0x60]
        0x0001ebfa:    6e01        .n      LDR      r1,[r0,#0x60]
        0x0001ebfc:    f0210140    !.@.    BIC      r1,r1,#0x40
        0x0001ec00:    6601        .f      STR      r1,[r0,#0x60]
        0x0001ec02:    6e01        .n      LDR      r1,[r0,#0x60]
        0x0001ec04:    f4213180    !..1    BIC      r1,r1,#0x10000
        0x0001ec08:    6601        .f      STR      r1,[r0,#0x60]
        0x0001ec0a:    6e01        .n      LDR      r1,[r0,#0x60]
        0x0001ec0c:    f4212100    !..!    BIC      r1,r1,#0x80000
        0x0001ec10:    6601        .f      STR      r1,[r0,#0x60]
        0x0001ec12:    6e01        .n      LDR      r1,[r0,#0x60]
        0x0001ec14:    f4212180    !..!    BIC      r1,r1,#0x40000
        0x0001ec18:    6601        .f      STR      r1,[r0,#0x60]
        0x0001ec1a:    6e01        .n      LDR      r1,[r0,#0x60]
        0x0001ec1c:    f4213100    !..1    BIC      r1,r1,#0x20000
        0x0001ec20:    6601        .f      STR      r1,[r0,#0x60]
        0x0001ec22:    4770        pG      BX       lr
    $d
        0x0001ec24:    40020000    ...@    DCD    1073872896
    $t
    i.simple_strlen
    simple_strlen
        0x0001ec28:    4601        .F      MOV      r1,r0
        0x0001ec2a:    2000        .       MOVS     r0,#0
        0x0001ec2c:    b901        ..      CBNZ     r1,0x1ec30 ; simple_strlen + 8
        0x0001ec2e:    4770        pG      BX       lr
        0x0001ec30:    e000        ..      B        0x1ec34 ; simple_strlen + 12
        0x0001ec32:    1c40        @.      ADDS     r0,r0,#1
        0x0001ec34:    f8113b01    ...;    LDRB     r3,[r1],#1
        0x0001ec38:    2b00        .+      CMP      r3,#0
        0x0001ec3a:    d1fa        ..      BNE      0x1ec32 ; simple_strlen + 10
        0x0001ec3c:    bf00        ..      NOP      
        0x0001ec3e:    e7f6        ..      B        0x1ec2e ; simple_strlen + 6
    i.stimer_init
    stimer_init
        0x0001ec40:    b510        ..      PUSH     {r4,lr}
        0x0001ec42:    2001        .       MOVS     r0,#1
        0x0001ec44:    f7fef942    ..B.    BL       am_hal_stimer_int_enable ; 0x1cecc
        0x0001ec48:    2104        .!      MOVS     r1,#4
        0x0001ec4a:    2020                MOVS     r0,#0x20
        0x0001ec4c:    f7f9fe0a    ....    BL       __NVIC_SetPriority ; 0x18864
        0x0001ec50:    2020                MOVS     r0,#0x20
        0x0001ec52:    f7f9fdf5    ....    BL       __NVIC_EnableIRQ ; 0x18840
        0x0001ec56:    f04f4040    O.@@    MOV      r0,#0xc0000000
        0x0001ec5a:    f7fef91b    ....    BL       am_hal_stimer_config ; 0x1ce94
        0x0001ec5e:    f44f4100    O..A    MOV      r1,#0x8000
        0x0001ec62:    2000        .       MOVS     r0,#0
        0x0001ec64:    f7fef8de    ....    BL       am_hal_stimer_compare_delta_set ; 0x1ce24
        0x0001ec68:    f2401003    @...    MOV      r0,#0x103
        0x0001ec6c:    f7fef912    ....    BL       am_hal_stimer_config ; 0x1ce94
        0x0001ec70:    bd10        ..      POP      {r4,pc}
        0x0001ec72:    0000        ..      MOVS     r0,r0
    i.timer_config_b1
    timer_config_b1
        0x0001ec74:    e92d01f0    -...    PUSH     {r4-r8}
        0x0001ec78:    4d67        gM      LDR      r5,[pc,#412] ; [0x1ee18] = 0x10004d0c
        0x0001ec7a:    e9d12c02    ...,    LDRD     r2,r12,[r1,#8]
        0x0001ec7e:    2400        .$      MOVS     r4,#0
        0x0001ec80:    690b        .i      LDR      r3,[r1,#0x10]
        0x0001ec82:    f8054020    .. @    STRB     r4,[r5,r0,LSL #2]
        0x0001ec86:    eb050580    ....    ADD      r5,r5,r0,LSL #2
        0x0001ec8a:    706c        lp      STRB     r4,[r5,#1]
        0x0001ec8c:    70ac        .p      STRB     r4,[r5,#2]
        0x0001ec8e:    70ec        .p      STRB     r4,[r5,#3]
        0x0001ec90:    784c        Lx      LDRB     r4,[r1,#1]
        0x0001ec92:    2c0f        .,      CMP      r4,#0xf
        0x0001ec94:    d246        F.      BCS      0x1ed24 ; timer_config_b1 + 176
        0x0001ec96:    e8dff004    ....    TBB      [pc,r4]
    $d
        0x0001ec9a:    0866        f.      DCW    2150
        0x0001ec9c:    45154521    !E.E    DCD    1159021857
        0x0001eca0:    45454566    fEEE    DCD    1162167654
        0x0001eca4:    3c2d4545    EE-<    DCD    1009599813
        0x0001eca8:    0066        f.      DCW    102
    $t
        0x0001ecaa:    4d5b        [M      LDR      r5,[pc,#364] ; [0x1ee18] = 0x10004d0c
        0x0001ecac:    2401        .$      MOVS     r4,#1
        0x0001ecae:    eb050580    ....    ADD      r5,r5,r0,LSL #2
        0x0001ecb2:    f1bc3fff    ...?    CMP      r12,#0xffffffff
        0x0001ecb6:    70ec        .p      STRB     r4,[r5,#3]
        0x0001ecb8:    70ac        .p      STRB     r4,[r5,#2]
        0x0001ecba:    d154        T.      BNE      0x1ed66 ; timer_config_b1 + 242
        0x0001ecbc:    1c5c        \.      ADDS     r4,r3,#1
        0x0001ecbe:    bf18        ..      IT       NE
        0x0001ecc0:    46a4        .F      MOVNE    r12,r4
        0x0001ecc2:    e02f        /.      B        0x1ed24 ; timer_config_b1 + 176
        0x0001ecc4:    4e54        TN      LDR      r6,[pc,#336] ; [0x1ee18] = 0x10004d0c
        0x0001ecc6:    2401        .$      MOVS     r4,#1
        0x0001ecc8:    eb060580    ....    ADD      r5,r6,r0,LSL #2
        0x0001eccc:    2a00        .*      CMP      r2,#0
        0x0001ecce:    706c        lp      STRB     r4,[r5,#1]
        0x0001ecd0:    f8064020    .. @    STRB     r4,[r6,r0,LSL #2]
        0x0001ecd4:    70ec        .p      STRB     r4,[r5,#3]
        0x0001ecd6:    70ac        .p      STRB     r4,[r5,#2]
        0x0001ecd8:    d14e        N.      BNE      0x1ed78 ; timer_config_b1 + 260
        0x0001ecda:    e023        #.      B        0x1ed24 ; timer_config_b1 + 176
        0x0001ecdc:    4e4e        NN      LDR      r6,[pc,#312] ; [0x1ee18] = 0x10004d0c
        0x0001ecde:    2401        .$      MOVS     r4,#1
        0x0001ece0:    eb060580    ....    ADD      r5,r6,r0,LSL #2
        0x0001ece4:    2a00        .*      CMP      r2,#0
        0x0001ece6:    706c        lp      STRB     r4,[r5,#1]
        0x0001ece8:    f8064020    .. @    STRB     r4,[r6,r0,LSL #2]
        0x0001ecec:    70ec        .p      STRB     r4,[r5,#3]
        0x0001ecee:    70ac        .p      STRB     r4,[r5,#2]
        0x0001ecf0:    d142        B.      BNE      0x1ed78 ; timer_config_b1 + 260
        0x0001ecf2:    e017        ..      B        0x1ed24 ; timer_config_b1 + 176
        0x0001ecf4:    688b        .h      LDR      r3,[r1,#8]
        0x0001ecf6:    2b20         +      CMP      r3,#0x20
        0x0001ecf8:    d835        5.      BHI      0x1ed66 ; timer_config_b1 + 242
        0x0001ecfa:    1e13        ..      SUBS     r3,r2,#0
        0x0001ecfc:    bf18        ..      IT       NE
        0x0001ecfe:    1c5a        Z.      ADDNE    r2,r3,#1
        0x0001ed00:    2401        .$      MOVS     r4,#1
        0x0001ed02:    4d45        EM      LDR      r5,[pc,#276] ; [0x1ee18] = 0x10004d0c
        0x0001ed04:    f8054020    .. @    STRB     r4,[r5,r0,LSL #2]
        0x0001ed08:    eb050580    ....    ADD      r5,r5,r0,LSL #2
        0x0001ed0c:    70ec        .p      STRB     r4,[r5,#3]
        0x0001ed0e:    70ac        .p      STRB     r4,[r5,#2]
        0x0001ed10:    e008        ..      B        0x1ed24 ; timer_config_b1 + 176
        0x0001ed12:    4d41        AM      LDR      r5,[pc,#260] ; [0x1ee18] = 0x10004d0c
        0x0001ed14:    2401        .$      MOVS     r4,#1
        0x0001ed16:    f8054020    .. @    STRB     r4,[r5,r0,LSL #2]
        0x0001ed1a:    eb050580    ....    ADD      r5,r5,r0,LSL #2
        0x0001ed1e:    706c        lp      STRB     r4,[r5,#1]
        0x0001ed20:    70ac        .p      STRB     r4,[r5,#2]
        0x0001ed22:    70ec        .p      STRB     r4,[r5,#3]
        0x0001ed24:    780c        .x      LDRB     r4,[r1,#0]
        0x0001ed26:    f1a40520    .. .    SUB      r5,r4,#0x20
        0x0001ed2a:    2d1f        .-      CMP      r5,#0x1f
        0x0001ed2c:    d80a        ..      BHI      0x1ed44 ; timer_config_b1 + 208
        0x0001ed2e:    106d        m.      ASRS     r5,r5,#1
        0x0001ed30:    f0140401    ....    ANDS     r4,r4,#1
        0x0001ed34:    d01b        ..      BEQ      0x1ed6e ; timer_config_b1 + 250
        0x0001ed36:    b12c        ,.      CBZ      r4,0x1ed44 ; timer_config_b1 + 208
        0x0001ed38:    4c37        7L      LDR      r4,[pc,#220] ; [0x1ee18] = 0x10004d0c
        0x0001ed3a:    eb040485    ....    ADD      r4,r4,r5,LSL #2
        0x0001ed3e:    78a4        .x      LDRB     r4,[r4,#2]
        0x0001ed40:    2c00        .,      CMP      r4,#0
        0x0001ed42:    d065        e.      BEQ      0x1ee10 ; timer_config_b1 + 412
        0x0001ed44:    790c        .y      LDRB     r4,[r1,#4]
        0x0001ed46:    b1e4        ..      CBZ      r4,0x1ed82 ; timer_config_b1 + 270
        0x0001ed48:    794d        My      LDRB     r5,[r1,#5]
        0x0001ed4a:    2d1f        .-      CMP      r5,#0x1f
        0x0001ed4c:    d819        ..      BHI      0x1ed82 ; timer_config_b1 + 270
        0x0001ed4e:    086c        l.      LSRS     r4,r5,#1
        0x0001ed50:    f0150501    ....    ANDS     r5,r5,#1
        0x0001ed54:    d011        ..      BEQ      0x1ed7a ; timer_config_b1 + 262
        0x0001ed56:    b1a5        ..      CBZ      r5,0x1ed82 ; timer_config_b1 + 270
        0x0001ed58:    4d2f        /M      LDR      r5,[pc,#188] ; [0x1ee18] = 0x10004d0c
        0x0001ed5a:    eb050484    ....    ADD      r4,r5,r4,LSL #2
        0x0001ed5e:    78a4        .x      LDRB     r4,[r4,#2]
        0x0001ed60:    2c00        .,      CMP      r4,#0
        0x0001ed62:    d055        U.      BEQ      0x1ee10 ; timer_config_b1 + 412
        0x0001ed64:    e00d        ..      B        0x1ed82 ; timer_config_b1 + 270
        0x0001ed66:    e8bd01f0    ....    POP      {r4-r8}
        0x0001ed6a:    2007        .       MOVS     r0,#7
        0x0001ed6c:    4770        pG      BX       lr
        0x0001ed6e:    4c2a        *L      LDR      r4,[pc,#168] ; [0x1ee18] = 0x10004d0c
        0x0001ed70:    f8144025    ..%@    LDRB     r4,[r4,r5,LSL #2]
        0x0001ed74:    2c00        .,      CMP      r4,#0
        0x0001ed76:    d1e5        ..      BNE      0x1ed44 ; timer_config_b1 + 208
        0x0001ed78:    e04a        J.      B        0x1ee10 ; timer_config_b1 + 412
        0x0001ed7a:    4d27        'M      LDR      r5,[pc,#156] ; [0x1ee18] = 0x10004d0c
        0x0001ed7c:    f8154024    ..$@    LDRB     r4,[r5,r4,LSL #2]
        0x0001ed80:    b3f4        ..      CBZ      r4,0x1ee00 ; timer_config_b1 + 396
        0x0001ed82:    4c26        &L      LDR      r4,[pc,#152] ; [0x1ee1c] = 0x40008000
        0x0001ed84:    f8d46104    ...a    LDR      r6,[r4,#0x104]
        0x0001ed88:    2501        .%      MOVS     r5,#1
        0x0001ed8a:    4085        .@      LSLS     r5,r5,r0
        0x0001ed8c:    43ae        .C      BICS     r6,r6,r5
        0x0001ed8e:    f8c46104    ...a    STR      r6,[r4,#0x104]
        0x0001ed92:    784f        Ox      LDRB     r7,[r1,#1]
        0x0001ed94:    780e        .x      LDRB     r6,[r1,#0]
        0x0001ed96:    f04f08f0    O...    MOV      r8,#0xf0
        0x0001ed9a:    ea081707    ....    AND      r7,r8,r7,LSL #4
        0x0001ed9e:    ea472606    G..&    ORR      r6,r7,r6,LSL #8
        0x0001eda2:    78cf        .x      LDRB     r7,[r1,#3]
        0x0001eda4:    f04f0808    O...    MOV      r8,#8
        0x0001eda8:    ea0807c7    ....    AND      r7,r8,r7,LSL #3
        0x0001edac:    433e        >C      ORRS     r6,r6,r7
        0x0001edae:    788f        .x      LDRB     r7,[r1,#2]
        0x0001edb0:    f04f0804    O...    MOV      r8,#4
        0x0001edb4:    ea080787    ....    AND      r7,r8,r7,LSL #2
        0x0001edb8:    433e        >C      ORRS     r6,r6,r7
        0x0001edba:    790f        .y      LDRB     r7,[r1,#4]
        0x0001edbc:    f44f3840    O.@8    MOV      r8,#0x30000
        0x0001edc0:    7949        Iy      LDRB     r1,[r1,#5]
        0x0001edc2:    ea084707    ...G    AND      r7,r8,r7,LSL #16
        0x0001edc6:    433e        >C      ORRS     r6,r6,r7
        0x0001edc8:    0209        ..      LSLS     r1,r1,#8
        0x0001edca:    0140        @.      LSLS     r0,r0,#5
        0x0001edcc:    4420         D      ADD      r0,r0,r4
        0x0001edce:    ea466202    F..b    ORR      r2,r6,r2,LSL #24
        0x0001edd2:    f8d06200    ...b    LDR      r6,[r0,#0x200]
        0x0001edd6:    f0260601    &...    BIC      r6,r6,#1
        0x0001edda:    f8c06200    ...b    STR      r6,[r0,#0x200]
        0x0001edde:    f8c02200    ..."    STR      r2,[r0,#0x200]
        0x0001ede2:    f8c01210    ....    STR      r1,[r0,#0x210]
        0x0001ede6:    f8c0c208    ....    STR      r12,[r0,#0x208]
        0x0001edea:    f8c0320c    ...2    STR      r3,[r0,#0x20c]
        0x0001edee:    f8d01200    ....    LDR      r1,[r0,#0x200]
        0x0001edf2:    f0410102    A...    ORR      r1,r1,#2
        0x0001edf6:    f8c01200    ....    STR      r1,[r0,#0x200]
        0x0001edfa:    f8d40104    ....    LDR      r0,[r4,#0x104]
        0x0001edfe:    e000        ..      B        0x1ee02 ; timer_config_b1 + 398
        0x0001ee00:    e006        ..      B        0x1ee10 ; timer_config_b1 + 412
        0x0001ee02:    4328        (C      ORRS     r0,r0,r5
        0x0001ee04:    f8c40104    ....    STR      r0,[r4,#0x104]
        0x0001ee08:    e8bd01f0    ....    POP      {r4-r8}
        0x0001ee0c:    2000        .       MOVS     r0,#0
        0x0001ee0e:    4770        pG      BX       lr
        0x0001ee10:    e8bd01f0    ....    POP      {r4-r8}
        0x0001ee14:    2006        .       MOVS     r0,#6
        0x0001ee16:    4770        pG      BX       lr
    $d
        0x0001ee18:    10004d0c    .M..    DCD    268455180
        0x0001ee1c:    40008000    ...@    DCD    1073774592
    $t
    i.uint64_to_hexstr
    uint64_to_hexstr
        0x0001ee20:    e92d41f0    -..A    PUSH     {r4-r8,lr}
        0x0001ee24:    b085        ..      SUB      sp,sp,#0x14
        0x0001ee26:    4604        .F      MOV      r4,r0
        0x0001ee28:    460d        .F      MOV      r5,r1
        0x0001ee2a:    461e        .F      MOV      r6,r3
        0x0001ee2c:    2100        .!      MOVS     r1,#0
        0x0001ee2e:    468c        .F      MOV      r12,r1
        0x0001ee30:    ea84070c    ....    EOR      r7,r4,r12
        0x0001ee34:    ea850c0c    ....    EOR      r12,r5,r12
        0x0001ee38:    ea57070c    W...    ORRS     r7,r7,r12
        0x0001ee3c:    d105        ..      BNE      0x1ee4a ; uint64_to_hexstr + 42
        0x0001ee3e:    f04f0830    O.0.    MOV      r8,#0x30
        0x0001ee42:    460f        .F      MOV      r7,r1
        0x0001ee44:    1c49        I.      ADDS     r1,r1,#1
        0x0001ee46:    f80d8007    ....    STRB     r8,[sp,r7]
        0x0001ee4a:    e016        ..      B        0x1ee7a ; uint64_to_hexstr + 90
        0x0001ee4c:    270f        .'      MOVS     r7,#0xf
        0x0001ee4e:    4027        '@      ANDS     r7,r7,r4
        0x0001ee50:    b2fb        ..      UXTB     r3,r7
        0x0001ee52:    2b09        .+      CMP      r3,#9
        0x0001ee54:    dd05        ..      BLE      0x1ee62 ; uint64_to_hexstr + 66
        0x0001ee56:    b10e        ..      CBZ      r6,0x1ee5c ; uint64_to_hexstr + 60
        0x0001ee58:    2727        ''      MOVS     r7,#0x27
        0x0001ee5a:    e000        ..      B        0x1ee5e ; uint64_to_hexstr + 62
        0x0001ee5c:    2707        .'      MOVS     r7,#7
        0x0001ee5e:    441f        .D      ADD      r7,r7,r3
        0x0001ee60:    b2fb        ..      UXTB     r3,r7
        0x0001ee62:    f1030730    ..0.    ADD      r7,r3,#0x30
        0x0001ee66:    f00708ff    ....    AND      r8,r7,#0xff
        0x0001ee6a:    460f        .F      MOV      r7,r1
        0x0001ee6c:    1c49        I.      ADDS     r1,r1,#1
        0x0001ee6e:    f80d8007    ....    STRB     r8,[sp,r7]
        0x0001ee72:    0927        '.      LSRS     r7,r4,#4
        0x0001ee74:    ea477405    G..t    ORR      r4,r7,r5,LSL #28
        0x0001ee78:    092d        -.      LSRS     r5,r5,#4
        0x0001ee7a:    f04f0c00    O...    MOV      r12,#0
        0x0001ee7e:    ea84070c    ....    EOR      r7,r4,r12
        0x0001ee82:    ea850c0c    ....    EOR      r12,r5,r12
        0x0001ee86:    ea57070c    W...    ORRS     r7,r7,r12
        0x0001ee8a:    d1df        ..      BNE      0x1ee4c ; uint64_to_hexstr + 44
        0x0001ee8c:    4608        .F      MOV      r0,r1
        0x0001ee8e:    b14a        J.      CBZ      r2,0x1eea4 ; uint64_to_hexstr + 132
        0x0001ee90:    e003        ..      B        0x1ee9a ; uint64_to_hexstr + 122
        0x0001ee92:    f81d7001    ...p    LDRB     r7,[sp,r1]
        0x0001ee96:    f8027b01    ...{    STRB     r7,[r2],#1
        0x0001ee9a:    1e0f        ..      SUBS     r7,r1,#0
        0x0001ee9c:    f1a10101    ....    SUB      r1,r1,#1
        0x0001eea0:    d1f7        ..      BNE      0x1ee92 ; uint64_to_hexstr + 114
        0x0001eea2:    7017        .p      STRB     r7,[r2,#0]
        0x0001eea4:    b005        ..      ADD      sp,sp,#0x14
        0x0001eea6:    e8bd81f0    ....    POP      {r4-r8,pc}
    i.uint64_to_str
    uint64_to_str
        0x0001eeaa:    e92d4ff0    -..O    PUSH     {r4-r11,lr}
        0x0001eeae:    b087        ..      SUB      sp,sp,#0x1c
        0x0001eeb0:    4607        .F      MOV      r7,r0
        0x0001eeb2:    4688        .F      MOV      r8,r1
        0x0001eeb4:    4616        .F      MOV      r6,r2
        0x0001eeb6:    f04f0900    O...    MOV      r9,#0
        0x0001eeba:    46cb        .F      MOV      r11,r9
        0x0001eebc:    bf00        ..      NOP      
        0x0001eebe:    4638        8F      MOV      r0,r7
        0x0001eec0:    4641        AF      MOV      r1,r8
        0x0001eec2:    f7fefea4    ....    BL       divu64_10 ; 0x1dc0e
        0x0001eec6:    4604        .F      MOV      r4,r0
        0x0001eec8:    460d        .F      MOV      r5,r1
        0x0001eeca:    210a        .!      MOVS     r1,#0xa
        0x0001eecc:    fba40101    ....    UMULL    r0,r1,r4,r1
        0x0001eed0:    ebb70a00    ....    SUBS     r10,r7,r0
        0x0001eed4:    f10a0030    ..0.    ADD      r0,r10,#0x30
        0x0001eed8:    b2c2        ..      UXTB     r2,r0
        0x0001eeda:    4648        HF      MOV      r0,r9
        0x0001eedc:    f1090901    ....    ADD      r9,r9,#1
        0x0001eee0:    f80d2000    ...     STRB     r2,[sp,r0]
        0x0001eee4:    4627        'F      MOV      r7,r4
        0x0001eee6:    46a8        .F      MOV      r8,r5
        0x0001eee8:    f04f0200    O...    MOV      r2,#0
        0x0001eeec:    ea870002    ....    EOR      r0,r7,r2
        0x0001eef0:    ea880102    ....    EOR      r1,r8,r2
        0x0001eef4:    4308        .C      ORRS     r0,r0,r1
        0x0001eef6:    d1e2        ..      BNE      0x1eebe ; uint64_to_str + 20
        0x0001eef8:    46cb        .F      MOV      r11,r9
        0x0001eefa:    b156        V.      CBZ      r6,0x1ef12 ; uint64_to_str + 104
        0x0001eefc:    e003        ..      B        0x1ef06 ; uint64_to_str + 92
        0x0001eefe:    f81d0009    ....    LDRB     r0,[sp,r9]
        0x0001ef02:    f8060b01    ....    STRB     r0,[r6],#1
        0x0001ef06:    f1b90000    ....    SUBS     r0,r9,#0
        0x0001ef0a:    f1a90901    ....    SUB      r9,r9,#1
        0x0001ef0e:    d1f6        ..      BNE      0x1eefe ; uint64_to_str + 84
        0x0001ef10:    7030        0p      STRB     r0,[r6,#0]
        0x0001ef12:    4658        XF      MOV      r0,r11
        0x0001ef14:    b007        ..      ADD      sp,sp,#0x1c
        0x0001ef16:    e8bd8ff0    ....    POP      {r4-r11,pc}
        0x0001ef1a:    0000        ..      MOVS     r0,r0
    x$fpl$d2f
    $v0
    __aeabi_d2f
    _d2f
        0x0001ef1c:    f0214200    !..B    BIC      r2,r1,#0x80000000
        0x0001ef20:    f1a25260    ..`R    SUB      r2,r2,#0x38000000
        0x0001ef24:    f5b21f80    ....    CMP      r2,#0x100000
        0x0001ef28:    f0014300    ...C    AND      r3,r1,#0x80000000
        0x0001ef2c:    bf28        (.      IT       CS
        0x0001ef2e:    f1d26c7f    ...l    RSBSCS   r12,r2,#0xff00000
        0x0001ef32:    d90b        ..      BLS      0x1ef4c ; __aeabi_d2f + 48
        0x0001ef34:    ea5f1c00    _...    LSLS     r12,r0,#4
        0x0001ef38:    ea4302c2    C...    ORR      r2,r3,r2,LSL #3
        0x0001ef3c:    eb427050    B.Pp    ADC      r0,r2,r0,LSR #29
        0x0001ef40:    bf18        ..      IT       NE
        0x0001ef42:    4770        pG      BXNE     lr
        0x0001ef44:    bf28        (.      IT       CS
        0x0001ef46:    f0200001     ...    BICCS    r0,r0,#1
        0x0001ef4a:    4770        pG      BX       lr
        0x0001ef4c:    f5b21f80    ....    CMP      r2,#0x100000
        0x0001ef50:    bfbc        ..      ITT      LT
        0x0001ef52:    4618        .F      MOVLT    r0,r3
        0x0001ef54:    4770        pG      BXLT     lr
        0x0001ef56:    ea4f0c41    O.A.    LSL      r12,r1,#1
        0x0001ef5a:    f51c1f00    ....    CMN      r12,#0x200000
        0x0001ef5e:    d202        ..      BCS      0x1ef66 ; __aeabi_d2f + 74
        0x0001ef60:    4608        .F      MOV      r0,r1
        0x0001ef62:    f000b85f    .._.    B.W      __fpl_fretinf ; 0x1f024
        0x0001ef66:    b570        p.      PUSH     {r4-r6,lr}
        0x0001ef68:    f000f809    ....    BL       __fpl_dnaninf ; 0x1ef7e
    $d
        0x0001ef6c:    89000000    ....    DCD    2298478592
    $t
        0x0001ef70:    f7ffbff6    ....    B.W      0x1ef60 ; __aeabi_d2f + 68
        0x0001ef74:    f04f4000    O..@    MOV      r0,#0x80000000
        0x0001ef78:    f5a00080    ....    SUB      r0,r0,#0x400000
        0x0001ef7c:    4770        pG      BX       lr
    x$fpl$dnaninf
    $v0
    __fpl_dnaninf
        0x0001ef7e:    f10e0e02    ....    ADD      lr,lr,#2
        0x0001ef82:    f02e0e03    ....    BIC      lr,lr,#3
        0x0001ef86:    f85e6b04    ^..k    LDR      r6,[lr],#4
        0x0001ef8a:    4236        6B      TST      r6,r6
        0x0001ef8c:    d405        ..      BMI      0x1ef9a ; __fpl_dnaninf + 28
        0x0001ef8e:    2a01        .*      CMP      r2,#1
        0x0001ef90:    eb430503    C...    ADC      r5,r3,r3
        0x0001ef94:    f5151f00    ....    CMN      r5,#0x200000
        0x0001ef98:    d812        ..      BHI      0x1efc0 ; __fpl_dnaninf + 66
        0x0001ef9a:    2801        .(      CMP      r0,#1
        0x0001ef9c:    eb410c01    A...    ADC      r12,r1,r1
        0x0001efa0:    f51c1f00    ....    CMN      r12,#0x200000
        0x0001efa4:    d80c        ..      BHI      0x1efc0 ; __fpl_dnaninf + 66
        0x0001efa6:    d10e        ..      BNE      0x1efc6 ; __fpl_dnaninf + 72
        0x0001efa8:    ea4f7cd1    O..|    LSR      r12,r1,#31
        0x0001efac:    f5151f00    ....    CMN      r5,#0x200000
        0x0001efb0:    eb0c0c4c    ..L.    ADD      r12,r12,r12,LSL #1
        0x0001efb4:    f10c0c02    ....    ADD      r12,r12,#2
        0x0001efb8:    bf08        ..      IT       EQ
        0x0001efba:    eb4c7cd3    L..|    ADCEQ    r12,r12,r3,LSR #31
        0x0001efbe:    e004        ..      B        0x1efca ; __fpl_dnaninf + 76
        0x0001efc0:    f04f0c08    O...    MOV      r12,#8
        0x0001efc4:    e001        ..      B        0x1efca ; __fpl_dnaninf + 76
        0x0001efc6:    ea4f7cd3    O..|    LSR      r12,r3,#31
        0x0001efca:    eb0c054c    ..L.    ADD      r5,r12,r12,LSL #1
        0x0001efce:    fa26f605    &...    LSR      r6,r6,r5
        0x0001efd2:    f0060607    ....    AND      r6,r6,#7
        0x0001efd6:    f1b60c04    ....    SUBS     r12,r6,#4
        0x0001efda:    d206        ..      BCS      0x1efea ; __fpl_dnaninf + 108
        0x0001efdc:    eb0e0c86    ....    ADD      r12,lr,r6,LSL #2
        0x0001efe0:    e8bd4070    ..p@    POP      {r4-r6,lr}
        0x0001efe4:    f04c0c01    L...    ORR      r12,r12,#1
        0x0001efe8:    4760        `G      BX       r12
        0x0001efea:    e8dff00c    ....    TBB      [pc,r12]
    $d
        0x0001efee:    0b09        ..      DCW    2825
        0x0001eff0:    0202        ..      DCW    514
    $t
        0x0001eff2:    f04f4100    O..A    MOV      r1,#0x80000000
        0x0001eff6:    f04f0000    O...    MOV      r0,#0
        0x0001effa:    f5a12100    ...!    SUB      r1,r1,#0x80000
        0x0001effe:    bd70        p.      POP      {r4-r6,pc}
        0x0001f000:    4619        .F      MOV      r1,r3
        0x0001f002:    4610        .F      MOV      r0,r2
        0x0001f004:    2801        .(      CMP      r0,#1
        0x0001f006:    eb510401    Q...    ADCS     r4,r1,r1
        0x0001f00a:    bf18        ..      IT       NE
        0x0001f00c:    f5d41400    ....    RSBSNE   r4,r4,#0x200000
        0x0001f010:    bf84        ..      ITT      HI
        0x0001f012:    2000        .       MOVHI    r0,#0
        0x0001f014:    f0014100    ...A    ANDHI    r1,r1,#0x80000000
        0x0001f018:    bd70        p.      POP      {r4-r6,pc}
    x$fpl$fpinit
    $v0
    _fp_init
        0x0001f01a:    f04f7040    O.@p    MOV      r0,#0x3000000
        0x0001f01e:    eee10a10    ....    VMSR     FPSCR,r0
    __fplib_config_fpu_vfp
    __fplib_config_pureend_doubles
        0x0001f022:    4770        pG      BX       lr
    x$fpl$fretinf
    $v0
    __fpl_fretinf
        0x0001f024:    21ff        .!      MOVS     r1,#0xff
        0x0001f026:    ea4150d0    A..P    ORR      r0,r1,r0,LSR #23
        0x0001f02a:    05c0        ..      LSLS     r0,r0,#23
        0x0001f02c:    4770        pG      BX       lr
    x$fpl$usenofp
    __I$use$fp
        0x0001f02e:    0000        ..      MOVS     r0,r0
    $d.realdata
    .constdata
    __tagsym$$used
    ui32MCUAllowed
        0x0001f030:    00000000    ....    DCD    0
        0x0001f034:    00000000    ....    DCD    0
        0x0001f038:    00000000    ....    DCD    0
        0x0001f03c:    00000000    ....    DCD    0
        0x0001f040:    00000000    ....    DCD    0
    __tagsym$$used
    ui32DSP0Allowed
        0x0001f044:    00000000    ....    DCD    0
        0x0001f048:    00000000    ....    DCD    0
        0x0001f04c:    00000000    ....    DCD    0
        0x0001f050:    00000000    ....    DCD    0
        0x0001f054:    00000000    ....    DCD    0
    __tagsym$$used
    ui32DSP1Allowed
        0x0001f058:    00000000    ....    DCD    0
        0x0001f05c:    00000000    ....    DCD    0
        0x0001f060:    00000000    ....    DCD    0
        0x0001f064:    00000000    ....    DCD    0
        0x0001f068:    00000000    ....    DCD    0
    __tagsym$$used
    ui32SharedAccess
        0x0001f06c:    00000000    ....    DCD    0
        0x0001f070:    00000000    ....    DCD    0
        0x0001f074:    00000000    ....    DCD    0
        0x0001f078:    00000000    ....    DCD    0
        0x0001f07c:    00000000    ....    DCD    0
    __tagsym$$used
    sGlobalAccess
        0x0001f080:    0001f06c    l...    DCD    127084
        0x0001f084:    0001f030    0...    DCD    127024
        0x0001f088:    0001f044    D...    DCD    127044
        0x0001f08c:    0001f058    X...    DCD    127064
        0x0001f090:    10060004    ....    DCD    268828676
        0x0001f094:    10060018    ....    DCD    268828696
        0x0001f098:    1006002c    ,...    DCD    268828716
    .constdata
    mspi_interrupts
        0x0001f09c:    00161514    ....    DCD    1447188
    .constdata
    ui32MspiXipBaseAddress
        0x0001f0a0:    14000000    ....    DCD    335544320
        0x0001f0a4:    18000000    ....    DCD    402653184
        0x0001f0a8:    1c000000    ....    DCD    469762048
    aps12808l_sConfigArray
        0x0001f0ac:    0000000a    ....    DCD    10
        0x0001f0b0:    00000000    ....    DCD    0
        0x0001f0b4:    00000001    ....    DCD    1
        0x0001f0b8:    0000000a    ....    DCD    10
        0x0001f0bc:    00000001    ....    DCD    1
        0x0001f0c0:    00000001    ....    DCD    1
        0x0001f0c4:    0000000b    ....    DCD    11
        0x0001f0c8:    00000000    ....    DCD    0
        0x0001f0cc:    00000001    ....    DCD    1
        0x0001f0d0:    0000000b    ....    DCD    11
        0x0001f0d4:    00000001    ....    DCD    1
        0x0001f0d8:    00000001    ....    DCD    1
        0x0001f0dc:    0000000c    ....    DCD    12
        0x0001f0e0:    00000000    ....    DCD    0
        0x0001f0e4:    00000001    ....    DCD    1
        0x0001f0e8:    0000000c    ....    DCD    12
        0x0001f0ec:    00000001    ....    DCD    1
        0x0001f0f0:    00000001    ....    DCD    1
        0x0001f0f4:    0000000d    ....    DCD    13
        0x0001f0f8:    00000000    ....    DCD    0
        0x0001f0fc:    00000001    ....    DCD    1
        0x0001f100:    0000000d    ....    DCD    13
        0x0001f104:    00000001    ....    DCD    1
        0x0001f108:    00000001    ....    DCD    1
        0x0001f10c:    0f010100    ....    DCD    251724032
        0x0001f110:    00000000    ....    DCD    0
        0x0001f114:    00000c0c    ....    DCD    3084
        0x0001f118:    00010100    ....    DCD    65792
        0x0001f11c:    00000000    ....    DCD    0
        0x0001f120:    0000        ..      DCW    0
        0x0001f122:    00          .       DCB    0
    .constdata
    am_hal_cachectrl_defaults
        0x0001f123:    0e          .       DCB    14
        0x0001f124:    0003        ..      DCW    3
    .constdata
    am_hal_daxi_defaults
        0x0001f126:    0002        ..      DCW    2
        0x0001f128:    00000000    ....    DCD    0
    .constdata
    g_DefaultSRAMCfg
        0x0001f12c:    03000003    ....    DCD    50331651
    g_DefaultMcuMemCfg
        0x0001f130:    07070102    ....    DCD    117899522
        0x0001f134:    00000001    ....    DCD    1
    am_hal_pwrctrl_peripheral_control
        0x0001f138:    40021004    ...@    DCD    1073876996
        0x0001f13c:    00000001    ....    DCD    1
        0x0001f140:    40021008    ...@    DCD    1073877000
        0x0001f144:    00000001    ....    DCD    1
        0x0001f148:    40021004    ...@    DCD    1073876996
        0x0001f14c:    00000002    ....    DCD    2
        0x0001f150:    40021008    ...@    DCD    1073877000
        0x0001f154:    00000002    ....    DCD    2
        0x0001f158:    40021004    ...@    DCD    1073876996
        0x0001f15c:    00000004    ....    DCD    4
        0x0001f160:    40021008    ...@    DCD    1073877000
        0x0001f164:    00000004    ....    DCD    4
        0x0001f168:    40021004    ...@    DCD    1073876996
        0x0001f16c:    00000008    ....    DCD    8
        0x0001f170:    40021008    ...@    DCD    1073877000
        0x0001f174:    00000008    ....    DCD    8
        0x0001f178:    40021004    ...@    DCD    1073876996
        0x0001f17c:    00000010    ....    DCD    16
        0x0001f180:    40021008    ...@    DCD    1073877000
        0x0001f184:    00000010    ....    DCD    16
        0x0001f188:    40021004    ...@    DCD    1073876996
        0x0001f18c:    00000020     ...    DCD    32
        0x0001f190:    40021008    ...@    DCD    1073877000
        0x0001f194:    00000020     ...    DCD    32
        0x0001f198:    40021004    ...@    DCD    1073876996
        0x0001f19c:    00000040    @...    DCD    64
        0x0001f1a0:    40021008    ...@    DCD    1073877000
        0x0001f1a4:    00000040    @...    DCD    64
        0x0001f1a8:    40021004    ...@    DCD    1073876996
        0x0001f1ac:    00000080    ....    DCD    128
        0x0001f1b0:    40021008    ...@    DCD    1073877000
        0x0001f1b4:    00000080    ....    DCD    128
        0x0001f1b8:    40021004    ...@    DCD    1073876996
        0x0001f1bc:    00000100    ....    DCD    256
        0x0001f1c0:    40021008    ...@    DCD    1073877000
        0x0001f1c4:    00000100    ....    DCD    256
        0x0001f1c8:    40021004    ...@    DCD    1073876996
        0x0001f1cc:    00000200    ....    DCD    512
        0x0001f1d0:    40021008    ...@    DCD    1073877000
        0x0001f1d4:    00000200    ....    DCD    512
        0x0001f1d8:    40021004    ...@    DCD    1073876996
        0x0001f1dc:    00000400    ....    DCD    1024
        0x0001f1e0:    40021008    ...@    DCD    1073877000
        0x0001f1e4:    00000400    ....    DCD    1024
        0x0001f1e8:    40021004    ...@    DCD    1073876996
        0x0001f1ec:    00000800    ....    DCD    2048
        0x0001f1f0:    40021008    ...@    DCD    1073877000
        0x0001f1f4:    00000800    ....    DCD    2048
        0x0001f1f8:    40021004    ...@    DCD    1073876996
        0x0001f1fc:    00001000    ....    DCD    4096
        0x0001f200:    40021008    ...@    DCD    1073877000
        0x0001f204:    00001000    ....    DCD    4096
        0x0001f208:    40021004    ...@    DCD    1073876996
        0x0001f20c:    00002000    . ..    DCD    8192
        0x0001f210:    40021008    ...@    DCD    1073877000
        0x0001f214:    00002000    . ..    DCD    8192
        0x0001f218:    40021004    ...@    DCD    1073876996
        0x0001f21c:    00004000    .@..    DCD    16384
        0x0001f220:    40021008    ...@    DCD    1073877000
        0x0001f224:    00004000    .@..    DCD    16384
        0x0001f228:    40021004    ...@    DCD    1073876996
        0x0001f22c:    00008000    ....    DCD    32768
        0x0001f230:    40021008    ...@    DCD    1073877000
        0x0001f234:    00008000    ....    DCD    32768
        0x0001f238:    40021004    ...@    DCD    1073876996
        0x0001f23c:    00010000    ....    DCD    65536
        0x0001f240:    40021008    ...@    DCD    1073877000
        0x0001f244:    00010000    ....    DCD    65536
        0x0001f248:    40021004    ...@    DCD    1073876996
        0x0001f24c:    00020000    ....    DCD    131072
        0x0001f250:    40021008    ...@    DCD    1073877000
        0x0001f254:    00020000    ....    DCD    131072
        0x0001f258:    40021004    ...@    DCD    1073876996
        0x0001f25c:    00040000    ....    DCD    262144
        0x0001f260:    40021008    ...@    DCD    1073877000
        0x0001f264:    00040000    ....    DCD    262144
        0x0001f268:    40021004    ...@    DCD    1073876996
        0x0001f26c:    00080000    ....    DCD    524288
        0x0001f270:    40021008    ...@    DCD    1073877000
        0x0001f274:    00080000    ....    DCD    524288
        0x0001f278:    40021004    ...@    DCD    1073876996
        0x0001f27c:    00100000    ....    DCD    1048576
        0x0001f280:    40021008    ...@    DCD    1073877000
        0x0001f284:    00100000    ....    DCD    1048576
        0x0001f288:    40021004    ...@    DCD    1073876996
        0x0001f28c:    00200000    .. .    DCD    2097152
        0x0001f290:    40021008    ...@    DCD    1073877000
        0x0001f294:    00200000    .. .    DCD    2097152
        0x0001f298:    40021004    ...@    DCD    1073876996
        0x0001f29c:    00400000    ..@.    DCD    4194304
        0x0001f2a0:    40021008    ...@    DCD    1073877000
        0x0001f2a4:    00400000    ..@.    DCD    4194304
        0x0001f2a8:    40021004    ...@    DCD    1073876996
        0x0001f2ac:    00800000    ....    DCD    8388608
        0x0001f2b0:    40021008    ...@    DCD    1073877000
        0x0001f2b4:    00800000    ....    DCD    8388608
        0x0001f2b8:    40021004    ...@    DCD    1073876996
        0x0001f2bc:    01000000    ....    DCD    16777216
        0x0001f2c0:    40021008    ...@    DCD    1073877000
        0x0001f2c4:    01000000    ....    DCD    16777216
        0x0001f2c8:    4002100c    ...@    DCD    1073877004
        0x0001f2cc:    00000001    ....    DCD    1
        0x0001f2d0:    40021010    ...@    DCD    1073877008
        0x0001f2d4:    00000001    ....    DCD    1
        0x0001f2d8:    4002100c    ...@    DCD    1073877004
        0x0001f2dc:    00000002    ....    DCD    2
        0x0001f2e0:    40021010    ...@    DCD    1073877008
        0x0001f2e4:    00000002    ....    DCD    2
        0x0001f2e8:    4002100c    ...@    DCD    1073877004
        0x0001f2ec:    00000004    ....    DCD    4
        0x0001f2f0:    40021010    ...@    DCD    1073877008
        0x0001f2f4:    00000004    ....    DCD    4
        0x0001f2f8:    4002100c    ...@    DCD    1073877004
        0x0001f2fc:    00000008    ....    DCD    8
        0x0001f300:    40021010    ...@    DCD    1073877008
        0x0001f304:    00000008    ....    DCD    8
        0x0001f308:    4002100c    ...@    DCD    1073877004
        0x0001f30c:    00000010    ....    DCD    16
        0x0001f310:    40021010    ...@    DCD    1073877008
        0x0001f314:    00000010    ....    DCD    16
        0x0001f318:    4002100c    ...@    DCD    1073877004
        0x0001f31c:    00000020     ...    DCD    32
        0x0001f320:    40021010    ...@    DCD    1073877008
        0x0001f324:    00000020     ...    DCD    32
        0x0001f328:    4002100c    ...@    DCD    1073877004
        0x0001f32c:    00000040    @...    DCD    64
        0x0001f330:    40021010    ...@    DCD    1073877008
        0x0001f334:    00000040    @...    DCD    64
        0x0001f338:    4002100c    ...@    DCD    1073877004
        0x0001f33c:    00000080    ....    DCD    128
        0x0001f340:    40021010    ...@    DCD    1073877008
        0x0001f344:    00000080    ....    DCD    128
        0x0001f348:    4002100c    ...@    DCD    1073877004
        0x0001f34c:    00000400    ....    DCD    1024
        0x0001f350:    40021010    ...@    DCD    1073877008
        0x0001f354:    00000400    ....    DCD    1024
    .constdata
    g_am_hal_bootrom_helper
        0x0001f358:    0800004d    M...    DCD    134217805
        0x0001f35c:    08000051    Q...    DCD    134217809
        0x0001f360:    08000055    U...    DCD    134217813
        0x0001f364:    08000059    Y...    DCD    134217817
        0x0001f368:    0800006d    m...    DCD    134217837
        0x0001f36c:    08000075    u...    DCD    134217845
        0x0001f370:    08000079    y...    DCD    134217849
        0x0001f374:    08000081    ....    DCD    134217857
        0x0001f378:    08000099    ....    DCD    134217881
        0x0001f37c:    0800009d    ....    DCD    134217885
    .constdata
    gAmHalCmdQReg
        0x0001f380:    40050228    (..@    DCD    1074070056
        0x0001f384:    4005022c    ,..@    DCD    1074070060
        0x0001f388:    40050240    @..@    DCD    1074070080
        0x0001f38c:    40050244    D..@    DCD    1074070084
        0x0001f390:    4005023c    <..@    DCD    1074070076
        0x0001f394:    00008000    ....    DCD    32768
        0x0001f398:    40050230    0..@    DCD    1074070064
        0x0001f39c:    00000001    ....    DCD    1
        0x0001f3a0:    00000004    ....    DCD    4
        0x0001f3a4:    00000002    ....    DCD    2
        0x0001f3a8:    40051228    (..@    DCD    1074074152
        0x0001f3ac:    4005122c    ,..@    DCD    1074074156
        0x0001f3b0:    40051240    @..@    DCD    1074074176
        0x0001f3b4:    40051244    D..@    DCD    1074074180
        0x0001f3b8:    4005123c    <..@    DCD    1074074172
        0x0001f3bc:    00008000    ....    DCD    32768
        0x0001f3c0:    40051230    0..@    DCD    1074074160
        0x0001f3c4:    00000001    ....    DCD    1
        0x0001f3c8:    00000004    ....    DCD    4
        0x0001f3cc:    00000002    ....    DCD    2
        0x0001f3d0:    40052228    (".@    DCD    1074078248
        0x0001f3d4:    4005222c    ,".@    DCD    1074078252
        0x0001f3d8:    40052240    @".@    DCD    1074078272
        0x0001f3dc:    40052244    D".@    DCD    1074078276
        0x0001f3e0:    4005223c    <".@    DCD    1074078268
        0x0001f3e4:    00008000    ....    DCD    32768
        0x0001f3e8:    40052230    0".@    DCD    1074078256
        0x0001f3ec:    00000001    ....    DCD    1
        0x0001f3f0:    00000004    ....    DCD    4
        0x0001f3f4:    00000002    ....    DCD    2
        0x0001f3f8:    40053228    (2.@    DCD    1074082344
        0x0001f3fc:    4005322c    ,2.@    DCD    1074082348
        0x0001f400:    40053240    @2.@    DCD    1074082368
        0x0001f404:    40053244    D2.@    DCD    1074082372
        0x0001f408:    4005323c    <2.@    DCD    1074082364
        0x0001f40c:    00008000    ....    DCD    32768
        0x0001f410:    40053230    02.@    DCD    1074082352
        0x0001f414:    00000001    ....    DCD    1
        0x0001f418:    00000004    ....    DCD    4
        0x0001f41c:    00000002    ....    DCD    2
        0x0001f420:    40054228    (B.@    DCD    1074086440
        0x0001f424:    4005422c    ,B.@    DCD    1074086444
        0x0001f428:    40054240    @B.@    DCD    1074086464
        0x0001f42c:    40054244    DB.@    DCD    1074086468
        0x0001f430:    4005423c    <B.@    DCD    1074086460
        0x0001f434:    00008000    ....    DCD    32768
        0x0001f438:    40054230    0B.@    DCD    1074086448
        0x0001f43c:    00000001    ....    DCD    1
        0x0001f440:    00000004    ....    DCD    4
        0x0001f444:    00000002    ....    DCD    2
        0x0001f448:    40055228    (R.@    DCD    1074090536
        0x0001f44c:    4005522c    ,R.@    DCD    1074090540
        0x0001f450:    40055240    @R.@    DCD    1074090560
        0x0001f454:    40055244    DR.@    DCD    1074090564
        0x0001f458:    4005523c    <R.@    DCD    1074090556
        0x0001f45c:    00008000    ....    DCD    32768
        0x0001f460:    40055230    0R.@    DCD    1074090544
        0x0001f464:    00000001    ....    DCD    1
        0x0001f468:    00000004    ....    DCD    4
        0x0001f46c:    00000002    ....    DCD    2
        0x0001f470:    40056228    (b.@    DCD    1074094632
        0x0001f474:    4005622c    ,b.@    DCD    1074094636
        0x0001f478:    40056240    @b.@    DCD    1074094656
        0x0001f47c:    40056244    Db.@    DCD    1074094660
        0x0001f480:    4005623c    <b.@    DCD    1074094652
        0x0001f484:    00008000    ....    DCD    32768
        0x0001f488:    40056230    0b.@    DCD    1074094640
        0x0001f48c:    00000001    ....    DCD    1
        0x0001f490:    00000004    ....    DCD    4
        0x0001f494:    00000002    ....    DCD    2
        0x0001f498:    40057228    (r.@    DCD    1074098728
        0x0001f49c:    4005722c    ,r.@    DCD    1074098732
        0x0001f4a0:    40057240    @r.@    DCD    1074098752
        0x0001f4a4:    40057244    Dr.@    DCD    1074098756
        0x0001f4a8:    4005723c    <r.@    DCD    1074098748
        0x0001f4ac:    00008000    ....    DCD    32768
        0x0001f4b0:    40057230    0r.@    DCD    1074098736
        0x0001f4b4:    00000001    ....    DCD    1
        0x0001f4b8:    00000004    ....    DCD    4
        0x0001f4bc:    00000002    ....    DCD    2
        0x0001f4c0:    400602a0    ...@    DCD    1074135712
        0x0001f4c4:    400602a8    ...@    DCD    1074135720
        0x0001f4c8:    400602c0    ...@    DCD    1074135744
        0x0001f4cc:    400602c4    ...@    DCD    1074135748
        0x0001f4d0:    400602b8    ...@    DCD    1074135736
        0x0001f4d4:    00004000    .@..    DCD    16384
        0x0001f4d8:    400602ac    ...@    DCD    1074135724
        0x0001f4dc:    00000001    ....    DCD    1
        0x0001f4e0:    00000004    ....    DCD    4
        0x0001f4e4:    00000008    ....    DCD    8
        0x0001f4e8:    400612a0    ...@    DCD    1074139808
        0x0001f4ec:    400612a8    ...@    DCD    1074139816
        0x0001f4f0:    400612c0    ...@    DCD    1074139840
        0x0001f4f4:    400612c4    ...@    DCD    1074139844
        0x0001f4f8:    400612b8    ...@    DCD    1074139832
        0x0001f4fc:    00004000    .@..    DCD    16384
        0x0001f500:    400612ac    ...@    DCD    1074139820
        0x0001f504:    00000001    ....    DCD    1
        0x0001f508:    00000004    ....    DCD    4
        0x0001f50c:    00000008    ....    DCD    8
        0x0001f510:    400622a0    .".@    DCD    1074143904
        0x0001f514:    400622a8    .".@    DCD    1074143912
        0x0001f518:    400622c0    .".@    DCD    1074143936
        0x0001f51c:    400622c4    .".@    DCD    1074143940
        0x0001f520:    400622b8    .".@    DCD    1074143928
        0x0001f524:    00004000    .@..    DCD    16384
        0x0001f528:    400622ac    .".@    DCD    1074143916
        0x0001f52c:    00000001    ....    DCD    1
        0x0001f530:    00000004    ....    DCD    4
        0x0001f534:    00000008    ....    DCD    8
    .constdata
    g_ui32DSpintbl
        0x0001f538:    8fc007e0    ....    DCD    2411726816
        0x0001f53c:    e3fbffff    ....    DCD    3824943103
        0x0001f540:    01ffffff    ....    DCD    33554431
        0x0001f544:    00000000    ....    DCD    0
    Region$$Table$$Base
        0x0001f548:    0001f578    x...    DCD    128376
        0x0001f54c:    10000000    ....    DCD    268435456
        0x0001f550:    00000470    p...    DCD    1136
        0x0001f554:    00018274    t...    DCD    98932
        0x0001f558:    0001f774    t...    DCD    128884
        0x0001f55c:    10060000    ....    DCD    268828672
        0x0001f560:    00000090    ....    DCD    144
        0x0001f564:    000182d0    ....    DCD    99024
        0x0001f568:    0001f774    t...    DCD    128884
        0x0001f56c:    10000470    p...    DCD    268436592
        0x0001f570:    00005940    @Y..    DCD    22848
        0x0001f574:    000182ec    ....    DCD    99052
    Region$$Table$$Limit

** Section #2 'MCU_TCM' (SHT_PROGBITS) [SHF_ALLOC + SHF_WRITE]
    Size   : 508 bytes (alignment 16)
    Address: 0x10000000

    Data section was compressed (Original size: 1136 bytes)

    0x10000000:   00 00 00 00 00 00 00 00 00 00 00 00 00 00 00 00    ................
    0x10000010:   00 00 00 00 00 55 aa 5a a5 ff 0f 5f a0 05 0a af    .....U.Z..._....
    0x10000020:   00 00 01 00 01 00 00 00 08 01 00 00 70 04 00 10    ............p...
    0x10000030:   00 0a 00 00 00 00 00 00 00 00 00 00 09 01 00 00    ................
    0x10000040:   70 04 00 10 00 0a 00 00 00 00 00 00 00 00 00 00    p...............
    0x10000050:   01 00 00 00 00 00 00 00 14 03 00 00 00 00 00 00    ................
    0x10000060:   02 00 00 00 00 00 00 10 12 03 00 00 c0 00 00 00    ................
    0x10000070:   03 00 00 00 00 00 00 10 13 06 00 00 07 00 00 00    ................
    0x10000080:   04 00 00 00 00 00 10 10 12 06 00 00 c0 00 00 00    ................
    0x10000090:   05 00 00 00 00 00 10 10 12 06 00 00 3f 00 00 00    ............?...
    0x100000a0:   06 00 00 00 00 00 18 10 12 06 00 00 00 00 00 00    ................
    0x100000b0:   07 00 00 00 00 00 00 14 19 06 00 00 00 00 00 00    ................
    0x100000c0:   00 00 00 00 00 00 00 00 00 00 00 00 00 00 00 00    ................
    0x100000d0:   00 00 00 14 00 0a 00 00 00 00 00 00 00 00 00 00    ................
    0x100000e0:   00 00 00 18 00 0a 00 00 00 00 00 00 00 00 00 00    ................
    0x100000f0:   00 00 00 1c 00 0a 00 00 01 01 00 1c 00 00 00 00    ................
    0x10000100:   00 00 00 01 01 00 1c 00 00 00 00 00 00 00 01 01    ................
    0x10000110:   00 1c 00 00 00 00 00 00 00 00 01 01 0f 00 00 00    ................
    0x10000120:   00 0c 0c 00 0a 00 00 00 01 01 00 00 00 00 00 00    ................
    0x10000130:   0a 00 00 00 01 01 00 00 00 00 00 00 0a 00 00 00    ................
    0x10000140:   01 01 00 00 00 00 00 00 04 03 01 00 20 20 a0 a0    ............  ..
    0x10000150:   08 04 00 01 01 01 01 01 01 00 46 00 06 00 04 03    ..........F.....
    0x10000160:   01 00 20 20 a0 a0 09 04 00 01 01 01 01 01 01 00    ..  ............
    0x10000170:   46 00 06 00 0c 00 00 00 00 00 00 00 0c 00 00 00    F...............
    0x10000180:   00 00 00 00 00 00 00 00 00 00 00 00 00 00 00 00    ................
    0x10000190:   00 00 00 00 00 00 00 00 00 00 06 10 00 00 08 00    ................
    0x100001a0:   28 10 02 40 01 00 00 00 00 00 0e 10 00 00 08 00    (..@............
    0x100001b0:   28 10 02 40 02 00 00 00 00 00 16 10 00 00 02 00    (..@............
    0x100001c0:   5c 10 02 40 02 00 00 00 00 00 18 10 00 00 04 00    \..@............
    0x100001d0:   5c 10 02 40 01 00 00 00 00 00 1d 10 00 80 00 00    \..@............
    0x100001e0:   7c 10 02 40 02 00 00 00 00 00 1c 10 00 00 01 00    |..@............
    0x100001f0:   7c 10 02 40 01 00 00 00 00 00 00 00 00 00 00 00    |..@............
    0x10000200:   01 00 00 00 ff ff ff ff ff ff ff ff ff ff ff ff    ................
    0x10000210:   ff ff ff ff ff ff ff ff 21 02 00 10 00 00 00 00    ........!.......
    0x10000220:   08 60 bf f3 4f 8f 30 bf bf f3 6f 8f 70 47 00 bf    .`..O.0...o.pG..
    0x10000230:   00 00 00 00 00 00 00 00 00 00 00 00 00 00 00 00    ................
    0x10000240:   00 00 00 00 07 05 24 00 07 05 25 00 00 0c 00 00    ......$...%.....
    0x10000250:   00 0c 00 00 00 0c 00 00 00 0c 00 00 00 0c 00 00    ................
    0x10000260:   00 0c 00 00 00 0c 00 00 00 0c 00 00 00 0c 00 00    ................
    0x10000270:   00 0c 00 00 00 00 00 00 07 05 20 00 00 0c 00 00    .......... .....
    0x10000280:   00 0c 00 00 00 0c 00 00 00 0c 00 00 00 0c 00 00    ................
    0x10000290:   00 0c 00 00 00 0c 00 00 00 0c 00 00 00 0c 00 00    ................
    0x100002a0:   00 0c 00 00 07 05 22 00 00 0c 00 00 00 0c 00 00    ......".........
    0x100002b0:   00 0c 00 00 00 0c 00 00 00 0c 00 00 00 0c 00 00    ................
    0x100002c0:   00 0c 00 00 00 0c 00 00 00 0c 00 00 00 0c 00 00    ................
    0x100002d0:   44 f2 04 01 c4 f2 01 01 c3 22 4a 60 05 22 cb 6c    D........"J`.".l
    0x100002e0:   43 f0 10 03 cb 64 0a 65 01 23 cb 60 00 22 0a 61    C....d.e.#.`.".a
    0x100002f0:   4a 61 8a 61 00 f0 0f 00 0b 68 43 f0 08 03 0b 60    Ja.a.....hC....`
    0x10000300:   0a 68 22 f0 08 02 0a 60 09 22 0b 6d 62 f3 95 23    .h"....`.".mb..#
    0x10000310:   0b 65 06 22 0b 6d 62 f3 04 03 0b 65 0a 68 42 f0    .e.".mb....e.hB.
    0x10000320:   08 02 0a 60 0b 68 23 f0 08 03 0b 60 ca 6e 0b 68    ...`.h#....`.n.h
    0x10000330:   23 f0 08 03 12 09 0b 60 40 ea 02 10 c8 60 05 20    #......`@....`. 
    0x10000340:   0a 6d 60 f3 04 02 0a 65 08 68 40 f0 08 00 08 60    .m`....e.h@....`
    0x10000350:   0a 68 22 f0 08 02 0a 60 00 22 08 6d 6f f3 95 20    .h"....`.".mo.. 
    0x10000360:   08 65 ca 60 05 20 0a 6d 60 f3 04 02 0a 65 08 68    .e.`. .m`....e.h
    0x10000370:   40 f0 08 00 08 60 0a 68 22 f0 08 02 0a 60 00 22    @....`.h"....`."
    0x10000380:   c8 6c 20 f0 10 00 c8 64 4a 60 70 47 44 f2 04 01    .l ....dJ`pGD...
    0x10000390:   c4 f2 01 01 c3 20 48 60 05 20 ca 6c 42 f0 10 02    ..... H`. .lB...
    0x100003a0:   ca 64 08 65 01 22 ca 60 00 20 08 61 48 61 88 61    .d.e.".`. .aHa.a
    0x100003b0:   0a 68 42 f0 08 02 0a 60 08 68 20 f0 08 00 08 60    .hB....`.h ....`
    0x100003c0:   09 20 0a 6d 60 f3 95 22 0a 65 06 20 0a 6d 60 f3    . .m`..".e. .m`.
    0x100003d0:   04 02 0a 65 08 68 40 f0 08 00 08 60 45 f6 a0 00    ...e.h@....`E...
    0x100003e0:   0a 68 22 f0 08 02 0a 60 c0 f2 10 00 ca 6e 02 f0    .h"....`.....n..
    0x100003f0:   0f 02 02 43 ca 60 05 20 0a 6d 60 f3 04 02 0a 65    ...C.`. .m`....e
    0x10000400:   08 68 40 f0 08 00 08 60 0a 68 22 f0 08 02 0a 60    .h@....`.h"....`
    0x10000410:   00 22 08 6d 6f f3 95 20 08 65 ca 60 05 20 0a 6d    .".mo.. .e.`. .m
    0x10000420:   60 f3 04 02 0a 65 08 68 40 f0 08 00 08 60 0a 68    `....e.h@....`.h
    0x10000430:   22 f0 08 02 0a 60 00 22 c8 6c 20 f0 10 00 c8 64    "....`.".l ....d
    0x10000440:   4a 60 00 20 70 47 00 00 d1 02 00 10 8d 03 00 10    J`. pG..........
    0x10000450:   00 00 00 00 08 1e 0c 40 18 1e 0c 40 00 00 00 00    .......@...@....
    0x10000460:   6d db 02 40 d1 02 00 00 92 24 01 80 20 01 00 00    m..@.....$.. ...


** Section #3 'MCU_TCM' (SHT_NOBITS) [SHF_ALLOC + SHF_WRITE]
    Size   : 22848 bytes (alignment 8)
    Address: 0x10000470


** Section #4 'SHARED_SRAM' (SHT_PROGBITS) [SHF_ALLOC + SHF_WRITE]
    Size   : 144 bytes (alignment 4)
    Address: 0x10060000

    0x10060000:   80 f0 01 00 00 00 00 00 00 00 00 00 00 00 00 00    ................
    0x10060010:   00 00 00 00 00 00 00 00 00 00 00 00 00 00 00 00    ................
    0x10060020:   00 00 00 00 00 00 00 00 00 00 00 00 00 00 00 00    ................
    0x10060030:   00 00 00 00 00 00 00 00 00 00 00 00 00 00 00 00    ................
    0x10060040:   00 00 00 00 00 00 00 00 00 00 00 00 00 00 00 00    ................
    0x10060050:   00 00 00 00 00 00 00 00 00 00 00 00 00 00 00 00    ................
    0x10060060:   00 00 00 00 00 00 00 00 00 00 00 00 00 00 00 00    ................
    0x10060070:   00 00 00 00 00 00 00 00 00 00 00 00 00 00 00 00    ................
    0x10060080:   00 00 00 00 00 00 00 00 00 00 00 00 00 00 00 00    ................


** Section #5 '.debug_abbrev' (SHT_PROGBITS)
    Size   : 1476 bytes


** Section #6 '.debug_frame' (SHT_PROGBITS)
    Size   : 5656 bytes


** Section #7 '.debug_info' (SHT_PROGBITS)
    Size   : 1083308 bytes


** Section #8 '.debug_line' (SHT_PROGBITS)
    Size   : 9756 bytes


** Section #9 '.debug_loc' (SHT_PROGBITS)
    Size   : 4600 bytes


** Section #10 '.debug_macinfo' (SHT_PROGBITS)
    Size   : 747548 bytes


** Section #11 '.debug_pubnames' (SHT_PROGBITS)
    Size   : 1746 bytes


** Section #12 '.symtab' (SHT_SYMTAB)
    Size   : 17360 bytes (alignment 4)
    String table #13 '.strtab'
    Last local symbol no. 701

    Symbol table .symtab (1084 symbols, 701 local)

      #  Symbol Name                Value      Bind  Sec  Type  Vis  Size
    ========================================================================

      1  $d                         0x00018000   Lc    1   --   De 
      2  $t                         0x00018200   Lc    1   --   De 
      3  $d                         0x00018232   Lc    1   --   De 
      4  $t                         0x00018238   Lc    1   --   De 
      5  $d                         0x0001826c   Lc    1   --   De 
      6  $t                         0x00018274   Lc    1   --   De 
      7  $d                         0x00018372   Lc    1   --   De 
      8  $t                         0x00018380   Lc    1   --   De 
      9  $d                         0x0001861c   Lc    1   --   De 
     10  $t                         0x00018620   Lc    1   --   De 
     11  $d                         0x00018628   Lc    1   --   De 
     12  $t                         0x0001862c   Lc    1   --   De 
     13  $d                         0x000186ee   Lc    1   --   De 
     14  $t                         0x00018768   Lc    1   --   De 
     15  $d                         0x00018834   Lc    1   --   De 
     16  $t                         0x00018840   Lc    1   --   De 
     17  $d                         0x00018884   Lc    1   --   De 
     18  $t                         0x0001888c   Lc    1   --   De 
     19  $d                         0x000188ec   Lc    1   --   De 
     20  $t                         0x00018904   Lc    1   --   De 
     21  $d                         0x00018936   Lc    1   --   De 
     22  $t                         0x00018948   Lc    1   --   De 
     23  $d                         0x00018952   Lc    1   --   De 
     24  $t                         0x00018964   Lc    1   --   De 
     25  $d                         0x00018af2   Lc    1   --   De 
     26  $t                         0x00018b04   Lc    1   --   De 
     27  $d                         0x00018d60   Lc    1   --   De 
     28  $t                         0x00018dd4   Lc    1   --   De 
     29  $d                         0x0001901c   Lc    1   --   De 
     30  $t                         0x0001904c   Lc    1   --   De 
     31  $d                         0x000190a6   Lc    1   --   De 
     32  $t                         0x000190ac   Lc    1   --   De 
     33  $d                         0x00019102   Lc    1   --   De 
     34  $t                         0x00019108   Lc    1   --   De 
     35  $d                         0x00019144   Lc    1   --   De 
     36  $t                         0x00019148   Lc    1   --   De 
     37  $d                         0x000191ac   Lc    1   --   De 
     38  $t                         0x000191d0   Lc    1   --   De 
     39  $d                         0x0001920a   Lc    1   --   De 
     40  $t                         0x00019210   Lc    1   --   De 
     41  $d                         0x00019426   Lc    1   --   De 
     42  $t                         0x000194d8   Lc    1   --   De 
     43  $d                         0x00019726   Lc    1   --   De 
     44  $t                         0x00019994   Lc    1   --   De 
     45  $d                         0x00019b38   Lc    1   --   De 
     46  $t                         0x00019bf0   Lc    1   --   De 
     47  $d                         0x00019d18   Lc    1   --   De 
     48  $t                         0x00019d1c   Lc    1   --   De 
     49  $d                         0x00019d58   Lc    1   --   De 
     50  $t                         0x00019d5c   Lc    1   --   De 
     51  $d                         0x00019daa   Lc    1   --   De 
     52  $t                         0x00019db4   Lc    1   --   De 
     53  $d                         0x00019e24   Lc    1   --   De 
     54  $t                         0x00019e28   Lc    1   --   De 
     55  $d                         0x00019ec6   Lc    1   --   De 
     56  $t                         0x00019ecc   Lc    1   --   De 
     57  $d                         0x00019fae   Lc    1   --   De 
     58  $t                         0x00019fbc   Lc    1   --   De 
     59  $d                         0x0001a016   Lc    1   --   De 
     60  $t                         0x0001a020   Lc    1   --   De 
     61  $d                         0x0001a088   Lc    1   --   De 
     62  $t                         0x0001a090   Lc    1   --   De 
     63  $d                         0x0001a0c2   Lc    1   --   De 
     64  $t                         0x0001a0c8   Lc    1   --   De 
     65  $d                         0x0001a126   Lc    1   --   De 
     66  $t                         0x0001a12c   Lc    1   --   De 
     67  $d                         0x0001a1b0   Lc    1   --   De 
     68  $t                         0x0001a1b4   Lc    1   --   De 
     69  $d                         0x0001a1fe   Lc    1   --   De 
     70  $t                         0x0001a208   Lc    1   --   De 
     71  $d                         0x0001a340   Lc    1   --   De 
     72  $t                         0x0001a358   Lc    1   --   De 
     73  $d                         0x0001a3dc   Lc    1   --   De 
     74  $t                         0x0001a3e8   Lc    1   --   De 
     75  $d                         0x0001a4be   Lc    1   --   De 
     76  $t                         0x0001a4cc   Lc    1   --   De 
     77  $d                         0x0001a4ee   Lc    1   --   De 
     78  $t                         0x0001a4f8   Lc    1   --   De 
     79  $d                         0x0001a548   Lc    1   --   De 
     80  $t                         0x0001a550   Lc    1   --   De 
     81  $d                         0x0001a5ac   Lc    1   --   De 
     82  $t                         0x0001a5b4   Lc    1   --   De 
     83  $d                         0x0001a614   Lc    1   --   De 
     84  $t                         0x0001a61c   Lc    1   --   De 
     85  $d                         0x0001a648   Lc    1   --   De 
     86  $t                         0x0001a664   Lc    1   --   De 
     87  $d                         0x0001a69a   Lc    1   --   De 
     88  $t                         0x0001a6a0   Lc    1   --   De 
     89  $d                         0x0001a6ac   Lc    1   --   De 
     90  $t                         0x0001a6b0   Lc    1   --   De 
     91  $d                         0x0001a73c   Lc    1   --   De 
     92  $t                         0x0001a744   Lc    1   --   De 
     93  $d                         0x0001a968   Lc    1   --   De 
     94  $t                         0x0001a978   Lc    1   --   De 
     95  $d                         0x0001aa72   Lc    1   --   De 
     96  $t                         0x0001aa88   Lc    1   --   De 
     97  $d                         0x0001aaca   Lc    1   --   De 
     98  $t                         0x0001aae8   Lc    1   --   De 
     99  $d                         0x0001ae80   Lc    1   --   De 
    100  $t                         0x0001ae90   Lc    1   --   De 
    101  $d                         0x0001aecc   Lc    1   --   De 
    102  $t                         0x0001aee0   Lc    1   --   De 
    103  $d                         0x0001af8e   Lc    1   --   De 
    104  $t                         0x0001af96   Lc    1   --   De 
    105  $d                         0x0001b032   Lc    1   --   De 
    106  $t                         0x0001b03a   Lc    1   --   De 
    107  $d                         0x0001b49c   Lc    1   --   De 
    108  $t                         0x0001b4b8   Lc    1   --   De 
    109  $d                         0x0001b670   Lc    1   --   De 
    110  $t                         0x0001b67c   Lc    1   --   De 
    111  $d                         0x0001b724   Lc    1   --   De 
    112  $t                         0x0001b72c   Lc    1   --   De 
    113  $d                         0x0001b7ae   Lc    1   --   De 
    114  $t                         0x0001b7b6   Lc    1   --   De 
    115  $d                         0x0001b8ae   Lc    1   --   De 
    116  $t                         0x0001b8b6   Lc    1   --   De 
    117  $d                         0x0001b940   Lc    1   --   De 
    118  $t                         0x0001b948   Lc    1   --   De 
    119  $d                         0x0001b9dc   Lc    1   --   De 
    120  $t                         0x0001b9e4   Lc    1   --   De 
    121  $d                         0x0001ba8a   Lc    1   --   De 
    122  $t                         0x0001ba98   Lc    1   --   De 
    123  $d                         0x0001bae4   Lc    1   --   De 
    124  $t                         0x0001baec   Lc    1   --   De 
    125  $d                         0x0001bb1a   Lc    1   --   De 
    126  $t                         0x0001bb20   Lc    1   --   De 
    127  $d                         0x0001bb56   Lc    1   --   De 
    128  $t                         0x0001bb5c   Lc    1   --   De 
    129  $d                         0x0001bb90   Lc    1   --   De 
    130  $t                         0x0001bb94   Lc    1   --   De 
    131  $d                         0x0001be56   Lc    1   --   De 
    132  $t                         0x0001be60   Lc    1   --   De 
    133  $d                         0x0001bea2   Lc    1   --   De 
    134  $t                         0x0001bea8   Lc    1   --   De 
    135  $d                         0x0001c2b6   Lc    1   --   De 
    136  $t                         0x0001c2c0   Lc    1   --   De 
    137  $d                         0x0001c700   Lc    1   --   De 
    138  $t                         0x0001c71c   Lc    1   --   De 
    139  $d                         0x0001c74c   Lc    1   --   De 
    140  $t                         0x0001c750   Lc    1   --   De 
    141  $d                         0x0001c89e   Lc    1   --   De 
    142  $t                         0x0001c8ac   Lc    1   --   De 
    143  $d                         0x0001ca40   Lc    1   --   De 
    144  $t                         0x0001ca64   Lc    1   --   De 
    145  $d                         0x0001cb78   Lc    1   --   De 
    146  $t                         0x0001cb80   Lc    1   --   De 
    147  $d                         0x0001cd26   Lc    1   --   De 
    148  $t                         0x0001cd38   Lc    1   --   De 
    149  $d                         0x0001cd9e   Lc    1   --   De 
    150  $t                         0x0001cda8   Lc    1   --   De 
    151  $d                         0x0001ce06   Lc    1   --   De 
    152  $t                         0x0001ce10   Lc    1   --   De 
    153  $d                         0x0001ce1e   Lc    1   --   De 
    154  $t                         0x0001ce24   Lc    1   --   De 
    155  $d                         0x0001ce8e   Lc    1   --   De 
    156  $t                         0x0001ce94   Lc    1   --   De 
    157  $d                         0x0001ceb2   Lc    1   --   De 
    158  $t                         0x0001cec0   Lc    1   --   De 
    159  $d                         0x0001cec6   Lc    1   --   De 
    160  $t                         0x0001cecc   Lc    1   --   De 
    161  $d                         0x0001ced6   Lc    1   --   De 
    162  $t                         0x0001cedc   Lc    1   --   De 
    163  $d                         0x0001d09e   Lc    1   --   De 
    164  $t                         0x0001d0b8   Lc    1   --   De 
    165  $d                         0x0001d112   Lc    1   --   De 
    166  $t                         0x0001d118   Lc    1   --   De 
    167  $d                         0x0001d16a   Lc    1   --   De 
    168  $t                         0x0001d170   Lc    1   --   De 
    169  $d                         0x0001d194   Lc    1   --   De 
    170  $t                         0x0001d198   Lc    1   --   De 
    171  $d                         0x0001d1ec   Lc    1   --   De 
    172  $t                         0x0001d1f8   Lc    1   --   De 
    173  $d                         0x0001d20a   Lc    1   --   De 
    174  $t                         0x0001d210   Lc    1   --   De 
    175  $d                         0x0001d230   Lc    1   --   De 
    176  $t                         0x0001d234   Lc    1   --   De 
    177  $d                         0x0001d316   Lc    1   --   De 
    178  $t                         0x0001d320   Lc    1   --   De 
    179  $d                         0x0001d35e   Lc    1   --   De 
    180  $t                         0x0001d364   Lc    1   --   De 
    181  $d                         0x0001d39e   Lc    1   --   De 
    182  $t                         0x0001d3a4   Lc    1   --   De 
    183  $d                         0x0001d3e0   Lc    1   --   De 
    184  $t                         0x0001d3ec   Lc    1   --   De 
    185  $d                         0x0001d4ee   Lc    1   --   De 
    186  $t                         0x0001d50c   Lc    1   --   De 
    187  $d                         0x0001d530   Lc    1   --   De 
    188  $t                         0x0001d534   Lc    1   --   De 
    189  $d                         0x0001d580   Lc    1   --   De 
    190  $t                         0x0001d5c4   Lc    1   --   De 
    191  $d                         0x0001d602   Lc    1   --   De 
    192  $t                         0x0001d60c   Lc    1   --   De 
    193  $d                         0x0001d612   Lc    1   --   De 
    194  $t                         0x0001d618   Lc    1   --   De 
    195  $d                         0x0001d622   Lc    1   --   De 
    196  $t                         0x0001d638   Lc    1   --   De 
    197  $d                         0x0001d9dc   Lc    1   --   De 
    198  $t                         0x0001d9ec   Lc    1   --   De 
    199  $d                         0x0001db3a   Lc    1   --   De 
    200  $t                         0x0001db48   Lc    1   --   De 
    201  $d                         0x0001db84   Lc    1   --   De 
    202  $t                         0x0001db88   Lc    1   --   De 
    203  $d                         0x0001dbb4   Lc    1   --   De 
    204  $t                         0x0001dbb8   Lc    1   --   De 
    205  $d                         0x0001deb6   Lc    1   --   De 
    206  $t                         0x0001debc   Lc    1   --   De 
    207  $d                         0x0001df98   Lc    1   --   De 
    208  $t                         0x0001df9c   Lc    1   --   De 
    209  $d                         0x0001e144   Lc    1   --   De 
    210  $t                         0x0001e2d8   Lc    1   --   De 
    211  $d                         0x0001e2ec   Lc    1   --   De 
    212  $t                         0x0001e2f0   Lc    1   --   De 
    213  $d                         0x0001e30c   Lc    1   --   De 
    214  $t                         0x0001e310   Lc    1   --   De 
    215  $d                         0x0001e334   Lc    1   --   De 
    216  $t                         0x0001e33c   Lc    1   --   De 
    217  $d                         0x0001e370   Lc    1   --   De 
    218  $t                         0x0001e378   Lc    1   --   De 
    219  $d                         0x0001e388   Lc    1   --   De 
    220  $t                         0x0001e390   Lc    1   --   De 
    221  $d                         0x0001e3a0   Lc    1   --   De 
    222  $t                         0x0001e3a8   Lc    1   --   De 
    223  $d                         0x0001e3ae   Lc    1   --   De 
    224  $t                         0x0001e3b4   Lc    1   --   De 
    225  $d                         0x0001e3c2   Lc    1   --   De 
    226  $t                         0x0001e3d6   Lc    1   --   De 
    227  $d                         0x0001e91a   Lc    1   --   De 
    228  $t                         0x0001e920   Lc    1   --   De 
    229  $d                         0x0001e996   Lc    1   --   De 
    230  $t                         0x0001e9a0   Lc    1   --   De 
    231  $d                         0x0001eb6e   Lc    1   --   De 
    232  $t                         0x0001eb78   Lc    1   --   De 
    233  $d                         0x0001ebcc   Lc    1   --   De 
    234  $t                         0x0001ebd0   Lc    1   --   De 
    235  $d                         0x0001ec24   Lc    1   --   De 
    236  $t                         0x0001ec28   Lc    1   --   De 
    237  $d                         0x0001ec9a   Lc    1   --   De 
    238  $t                         0x0001ecaa   Lc    1   --   De 
    239  $d                         0x0001ee18   Lc    1   --   De 
    240  $t                         0x0001ee20   Lc    1   --   De 
    241  $d                         0x0001ef6c   Lc    1   --   De 
    242  $t                         0x0001ef70   Lc    1   --   De 
    243  $d                         0x0001efee   Lc    1   --   De 
    244  $t                         0x0001eff2   Lc    1   --   De 
    245  $d.realdata                0x0001f030   Lc    1   --   De 
    246  $d.realdata                0x10000000   Lc    2   --   De 
    247  $d.realdata                0x10060000   Lc    4   --   De 
    248  ..\src\am_resources.c      0x00000000   Lc  Abs  File  De 
    249  ../src/am_resources.c      0x00000000   Lc  Abs  File  De 
    250  .constdata                 0x0001f030   Lc    1  Sect  De   0x6c
    251  __tagsym$$used             0x0001f030   Lc    1   --   De 
    252  __tagsym$$used             0x0001f044   Lc    1   --   De 
    253  __tagsym$$used             0x0001f058   Lc    1   --   De 
    254  __tagsym$$used             0x0001f06c   Lc    1   --   De 
    255  __tagsym$$used             0x0001f080   Lc    1   --   De 
    256  RESOURCE_TABLE             0x10060000   Lc    4  Sect  De   0x4
    257  __tagsym$$used             0x10060000   Lc    4   --   De 
    258  SHARED_RW                  0x10060004   Lc    4  Sect  De   0x3c
    259  __tagsym$$used             0x10060004   Lc    4   --   De 
    260  __tagsym$$used             0x10060018   Lc    4   --   De 
    261  __tagsym$$used             0x1006002c   Lc    4   --   De 
    262  ..\src\mpu_mspi_ddr_octal_psram_example.c
                                    0x00000000   Lc  Abs  File  De 
    263  ../src/mpu_mspi_ddr_octal_psram_example.c
                                    0x00000000   Lc  Abs  File  De 
    264  i.MemManage_Handler        0x00018630   Lc    1  Sect  De 
    265  i.__NVIC_EnableIRQ         0x00018840   Lc    1  Sect  De 
    266  __NVIC_EnableIRQ           0x00018841   Lc    1  Code  De   0x22
    267  i.__NVIC_SetPriority       0x00018864   Lc    1  Sect  De 
    268  __NVIC_SetPriority         0x00018865   Lc    1  Code  De   0x20
    269  i.am_mspi0_isr             0x0001d50c   Lc    1  Sect  De 
    270  i.am_stimer_cmpr0_isr      0x0001d534   Lc    1  Sect  De 
    271  i.main                     0x0001df9c   Lc    1  Sect  De 
    272  i.stimer_init              0x0001ec40   Lc    1  Sect  De 
    273  .bss                       0x10000470   Lc    3  Sect  De   0x280c
    274  .constdata                 0x0001f09c   Lc    1  Sect  De   0x3
    275  mspi_interrupts            0x0001f09c   Lc    1  Data  De   0x3
    276  .data                      0x10000000   Lc    2  Sect  De   0x50
    277  SHARED_RW                  0x10060040   Lc    4  Sect  De   0x50
    278  __tagsym$$used             0x10060040   Lc    4   --   De 
    279  ..\src\regions.c           0x00000000   Lc  Abs  File  De 
    280  ../src/regions.c           0x00000000   Lc  Abs  File  De 
    281  .data                      0x10000050   Lc    2  Sect  De   0x70
    282  ..\..\..\..\..\..\utils\am_util_delay.c
                                    0x00000000   Lc  Abs  File  De 
    283  ../../../../../../utils/am_util_delay.c
                                    0x00000000   Lc  Abs  File  De 
    284  i.am_util_delay_us         0x0001d5c4   Lc    1  Sect  De 
    285  ../../../../../../utils/am_util_stdio.c
                                    0x00000000   Lc  Abs  File  De 
    286  i.am_util_stdio_printf     0x0001d5d0   Lc    1  Sect  De 
    287  i.am_util_stdio_printf_init
                                    0x0001d60c   Lc    1  Sect  De 
    288  i.am_util_stdio_terminal_clear
                                    0x0001d618   Lc    1  Sect  De 
    289  i.am_util_stdio_vsprintf   0x0001d638   Lc    1  Sect  De 
    290  i.decstr_to_int            0x0001dbcc   Lc    1  Sect  De 
    291  decstr_to_int              0x0001dbcd   Lc    1  Code  De   0x42
    292  i.divu64_10                0x0001dc0e   Lc    1  Sect  De 
    293  divu64_10                  0x0001dc0f   Lc    1  Code  De   0xcc
    294  i.ftoa                     0x0001dd44   Lc    1  Sect  De 
    295  ftoa                       0x0001dd45   Lc    1  Code  De   0x172
    296  i.ndigits_in_hex           0x0001e846   Lc    1  Sect  De 
    297  ndigits_in_hex             0x0001e847   Lc    1  Code  De   0x34
    298  i.ndigits_in_i64           0x0001e87a   Lc    1  Sect  De 
    299  ndigits_in_i64             0x0001e87b   Lc    1  Code  De   0x24
    300  i.ndigits_in_u64           0x0001e89e   Lc    1  Sect  De 
    301  ndigits_in_u64             0x0001e89f   Lc    1  Code  De   0x3a
    302  i.padbuffer                0x0001e8d8   Lc    1  Sect  De 
    303  padbuffer                  0x0001e8d9   Lc    1  Code  De   0x22
    304  i.simple_strlen            0x0001ec28   Lc    1  Sect  De 
    305  simple_strlen              0x0001ec29   Lc    1  Code  De   0x18
    306  i.uint64_to_hexstr         0x0001ee20   Lc    1  Sect  De 
    307  uint64_to_hexstr           0x0001ee21   Lc    1  Code  De   0x8a
    308  i.uint64_to_str            0x0001eeaa   Lc    1  Sect  De 
    309  uint64_to_str              0x0001eeab   Lc    1  Code  De   0x70
    310  .bss                       0x10002c7c   Lc    3  Sect  De   0x400
    311  g_prfbuf                   0x10002c7c   Lc    3  Data  De   0x400
    312  .data                      0x100000c0   Lc    2  Sect  De   0x5
    313  g_bTxtXlate                0x100000c4   Lc    2  Data  De   0x1
    314  ..\..\..\..\..\..\devices\am_devices_mspi_psram_aps12808l.c
                                    0x00000000   Lc  Abs  File  De 
    315  ../../../../../../devices/am_devices_mspi_psram_aps12808l.c
                                    0x00000000   Lc  Abs  File  De 
    316  i.am_device_command_read   0x0001904c   Lc    1  Sect  De 
    317  am_device_command_read     0x0001904d   Lc    1  Code  De   0x5a
    318  i.am_device_command_write  0x000190ac   Lc    1  Sect  De 
    319  am_device_command_write    0x000190ad   Lc    1  Code  De   0x56
    320  i.am_devices_mspi_psram_apply_ddr_timing
                                    0x00019108   Lc    1  Sect  De 
    321  i.am_devices_mspi_psram_aps12808l_ddr_deinit
                                    0x00019148   Lc    1  Sect  De 
    322  i.am_devices_mspi_psram_aps12808l_ddr_enable_xip
                                    0x000191d0   Lc    1  Sect  De 
    323  i.am_devices_mspi_psram_aps12808l_ddr_init
                                    0x00019210   Lc    1  Sect  De 
    324  i.am_devices_mspi_psram_aps12808l_id
                                    0x000194d8   Lc    1  Sect  De 
    325  am_devices_mspi_psram_aps12808l_id
                                    0x000194d9   Lc    1  Code  De   0x24e
    326  i.am_devices_mspi_psram_aps12808l_reset
                                    0x00019994   Lc    1  Sect  De 
    327  am_devices_mspi_psram_aps12808l_reset
                                    0x00019995   Lc    1  Code  De   0x28
    328  i.am_devices_mspi_psram_ddr_init_timing_check
                                    0x000199bc   Lc    1  Sect  De 
    329  i.count_consecutive_ones   0x0001dbb8   Lc    1  Sect  De 
    330  count_consecutive_ones     0x0001dbb9   Lc    1  Code  De   0x14
    331  i.find_mid_point           0x0001dcda   Lc    1  Sect  De 
    332  find_mid_point             0x0001dcdb   Lc    1  Code  De   0x68
    333  i.prepare_test_pattern     0x0001e8fc   Lc    1  Sect  De 
    334  prepare_test_pattern       0x0001e8fd   Lc    1  Code  De   0x9a
    335  i.psram_check              0x0001e9a0   Lc    1  Sect  De 
    336  .bss                       0x1000307c   Lc    3  Sect  De   0x24
    337  .constdata                 0x0001f0a0   Lc    1  Sect  De   0x83
    338  .data                      0x100000c8   Lc    2  Sect  De   0xb8
    339  ../keil/startup_keil.s     0x00000000   Lc  Abs  File  De 
    340  STACK                      0x10004db0   Lc    3  Sect  De   0x1000
    341  StackMem                   0x10004db0   Lc    3  Data  De 
    342  HEAP                       0x10004db0   Lc    3  Sect  De 
    343  HeapMem                    0x10004db0   Lc    3  Data  De 
    344  RESET                      0x00018000   Lc    1  Sect  De   0x238
    345  $v0                        0x00018200   Lc    1   --   De 
    346  am_cryptosec_isr           0x00018231   Lc    1  Code  De 
    347  am_default_isr             0x00018231   Lc    1  Code  De   0x2
    348  .text                      0x00018368   Lc    1  Sect  De   0x18
    349  $v0                        0x00018368   Lc    1   --   De 
    350  ..\..\..\..\..\mcu\apollo4b\hal\am_hal_global.c
                                    0x00000000   Lc  Abs  File  De 
    351  .emb_text                  0x00018334   Lc    1  Sect  De   0x1c
    352  $v0                        0x00018334   Lc    1   --   De 
    353  ../../../../../mcu/apollo4b/hal/am_hal_global.c
                                    0x00000000   Lc  Abs  File  De 
    354  .data                      0x10000180   Lc    2  Sect  De   0x4
    355  ..\am_bsp.c                0x00000000   Lc  Abs  File  De 
    356  ../am_bsp.c                0x00000000   Lc  Abs  File  De 
    357  i.am_bsp_itm_printf_enable 0x0001888c   Lc    1  Sect  De 
    358  i.am_bsp_low_power_init    0x00018904   Lc    1  Sect  De 
    359  i.am_bsp_mspi_pins_enable  0x0001891c   Lc    1  Sect  De 
    360  .data                      0x10000184   Lc    2  Sect  De   0x8
    361  g_ePrintInterface          0x10000184   Lc    2  Data  De   0x1
    362  g_sCOMUART                 0x10000188   Lc    2  Data  De   0x4
    363  ..\..\..\..\..\mcu\apollo4b\hal\mcu\am_hal_cachectrl.c
                                    0x00000000   Lc  Abs  File  De 
    364  ../../../../../mcu/apollo4b/hal/mcu/am_hal_cachectrl.c
                                    0x00000000   Lc  Abs  File  De 
    365  i.am_hal_cachectrl_config  0x00019bf0   Lc    1  Sect  De 
    366  i.am_hal_cachectrl_enable  0x00019c38   Lc    1  Sect  De 
    367  i.am_hal_daxi_config       0x0001a1b4   Lc    1  Sect  De 
    368  i.am_hal_daxi_control      0x0001a208   Lc    1  Sect  De 
    369  .constdata                 0x0001f123   Lc    1  Sect  De   0x3
    370  .constdata                 0x0001f126   Lc    1  Sect  De   0x3
    371  .data                      0x1000018c   Lc    2  Sect  De   0x6c
    372  p64BAxiMem                 0x1000018c   Lc    2  Data  De   0x4
    373  ui32AxiBufPwrStatMask      0x10000190   Lc    2  Data  De   0x4
    374  ui32AxiBufPwrStatReg       0x10000194   Lc    2  Data  De   0x4
    375  gAxiMemRange               0x10000198   Lc    2  Data  De   0x60
    376  ..\..\..\..\..\mcu\apollo4b\hal\mcu\am_hal_fault.c
                                    0x00000000   Lc  Abs  File  De 
    377  ../../../../../mcu/apollo4b/hal/mcu/am_hal_fault.c
                                    0x00000000   Lc  Abs  File  De 
    378  i.am_hal_fault_capture_enable
                                    0x0001a5b4   Lc    1  Sect  De 
    379  ..\..\..\..\..\mcu\apollo4b\hal\mcu\am_hal_interrupt.c
                                    0x00000000   Lc  Abs  File  De 
    380  .emb_text                  0x00018350   Lc    1  Sect  De   0x16
    381  $v0                        0x00018350   Lc    1   --   De 
    382  ../../../../../mcu/apollo4b/hal/mcu/am_hal_interrupt.c
                                    0x00000000   Lc  Abs  File  De 
    383  ..\..\..\..\..\mcu\apollo4b\hal\mcu\am_hal_mpu.c
                                    0x00000000   Lc  Abs  File  De 
    384  ../../../../../mcu/apollo4b/hal/mcu/am_hal_mpu.c
                                    0x00000000   Lc  Abs  File  De 
    385  i.mpu_global_configure     0x0001e310   Lc    1  Sect  De 
    386  i.mpu_region_configure     0x0001e33c   Lc    1  Sect  De 
    387  i.mpu_region_disable       0x0001e378   Lc    1  Sect  De 
    388  i.mpu_region_enable        0x0001e390   Lc    1  Sect  De 
    389  i.mpu_type_get             0x0001e3a8   Lc    1  Sect  De 
    390  ..\..\..\..\..\mcu\apollo4b\hal\mcu\am_hal_mspi.c
                                    0x00000000   Lc  Abs  File  De 
    391  ../../../../../mcu/apollo4b/hal/mcu/am_hal_mspi.c
                                    0x00000000   Lc  Abs  File  De 
    392  i.am_hal_mspi_blocking_transfer
                                    0x0001a744   Lc    1  Sect  De 
    393  i.am_hal_mspi_configure    0x0001a978   Lc    1  Sect  De 
    394  i.am_hal_mspi_control      0x0001aa88   Lc    1  Sect  De 
    395  i.am_hal_mspi_deinitialize 0x0001b67c   Lc    1  Sect  De 
    396  i.am_hal_mspi_device_configure
                                    0x0001b72c   Lc    1  Sect  De 
    397  i.am_hal_mspi_disable      0x0001b948   Lc    1  Sect  De 
    398  i.am_hal_mspi_enable       0x0001b9e4   Lc    1  Sect  De 
    399  i.am_hal_mspi_initialize   0x0001ba98   Lc    1  Sect  De 
    400  i.am_hal_mspi_interrupt_clear
                                    0x0001baec   Lc    1  Sect  De 
    401  i.am_hal_mspi_interrupt_disable
                                    0x0001bb20   Lc    1  Sect  De 
    402  i.am_hal_mspi_interrupt_enable
                                    0x0001bb5c   Lc    1  Sect  De 
    403  i.am_hal_mspi_interrupt_service
                                    0x0001bb94   Lc    1  Sect  De 
    404  i.am_hal_mspi_interrupt_status_get
                                    0x0001be60   Lc    1  Sect  De 
    405  i.am_hal_mspi_power_control
                                    0x0001bea8   Lc    1  Sect  De 
    406  i.mspi_device_configure    0x0001e3b4   Lc    1  Sect  De 
    407  mspi_device_configure      0x0001e3b5   Lc    1  Code  De   0x46a
    408  i.mspi_dummy_callback      0x0001e81e   Lc    1  Sect  De 
    409  mspi_dummy_callback        0x0001e81f   Lc    1  Code  De   0x2
    410  i.mspi_seq_loopback        0x0001e820   Lc    1  Sect  De 
    411  mspi_seq_loopback          0x0001e821   Lc    1  Code  De   0x26
    412  i.sched_hiprio             0x0001ea38   Lc    1  Sect  De 
    413  sched_hiprio               0x0001ea39   Lc    1  Code  De   0x136
    414  .bss                       0x100030a0   Lc    3  Sect  De   0x1a34
    415  .data                      0x100001f8   Lc    2  Sect  De   0x4
    416  ..\..\..\..\..\mcu\apollo4b\hal\mcu\am_hal_sysctrl.c
                                    0x00000000   Lc  Abs  File  De 
    417  ../../../../../mcu/apollo4b/hal/mcu/am_hal_sysctrl.c
                                    0x00000000   Lc  Abs  File  De 
    418  i.am_hal_sysctrl_sleep     0x0001cedc   Lc    1  Sect  De 
    419  .data                      0x100001fc   Lc    2  Sect  De   0x4
    420  ..\..\..\..\..\mcu\apollo4b\hal\mcu\am_hal_utils.c
                                    0x00000000   Lc  Abs  File  De 
    421  ../../../../../mcu/apollo4b/hal/mcu/am_hal_utils.c
                                    0x00000000   Lc  Abs  File  De 
    422  i.am_hal_delay_us          0x0001a4cc   Lc    1  Sect  De 
    423  i.am_hal_delay_us_status_change
                                    0x0001a4f8   Lc    1  Sect  De 
    424  i.am_hal_delay_us_status_check
                                    0x0001a550   Lc    1  Sect  De 
    425  i.am_hal_load_ui32         0x0001a694   Lc    1  Sect  De 
    426  ..\..\..\..\..\mcu\apollo4b\hal\am_hal_pwrctrl.c
                                    0x00000000   Lc  Abs  File  De 
    427  ../../../../../mcu/apollo4b/hal/am_hal_pwrctrl.c
                                    0x00000000   Lc  Abs  File  De 
    428  i.VDDF_simobuck_boost      0x00018768   Lc    1  Sect  De 
    429  VDDF_simobuck_boost        0x00018769   Lc    1  Code  De   0xcc
    430  i.am_hal_pwrctrl_control   0x0001c2f4   Lc    1  Sect  De 
    431  i.am_hal_pwrctrl_dsp_memory_config
                                    0x0001c750   Lc    1  Sect  De 
    432  i.am_hal_pwrctrl_low_power_init
                                    0x0001c8ac   Lc    1  Sect  De 
    433  i.am_hal_pwrctrl_mcu_memory_config
                                    0x0001ca64   Lc    1  Sect  De 
    434  i.am_hal_pwrctrl_mcu_mode_select
                                    0x0001cb80   Lc    1  Sect  De 
    435  i.am_hal_pwrctrl_periph_disable
                                    0x0001cd38   Lc    1  Sect  De 
    436  i.am_hal_pwrctrl_periph_enable
                                    0x0001cda8   Lc    1  Sect  De 
    437  i.am_hal_util_write_and_wait
                                    0x0001d3ec   Lc    1  Sect  De 
    438  i.buck_interval_check      0x0001d9ec   Lc    1  Sect  De 
    439  buck_interval_check        0x0001d9ed   Lc    1  Code  De   0x14e
    440  i.coreldo_disable          0x0001db70   Lc    1  Sect  De 
    441  i.coreldo_enable           0x0001db88   Lc    1  Sect  De 
    442  i.memldo_disable           0x0001e2d8   Lc    1  Sect  De 
    443  i.memldo_enable            0x0001e2f0   Lc    1  Sect  De 
    444  i.simobuck_ldos_force_active
                                    0x0001eb78   Lc    1  Sect  De 
    445  i.simobuck_ldos_force_disable
                                    0x0001ebd0   Lc    1  Sect  De 
    446  .bss                       0x10004ad4   Lc    3  Sect  De   0x54
    447  .constdata                 0x0001f12c   Lc    1  Sect  De   0x22c
    448  .data                      0x10000200   Lc    2  Sect  De   0x1c
    449  .data                      0x10000220   Lc    2  Sect  De   0x20
    450  storeAndWFIRAM             0x10000220   Lc    2  Data  De   0x20
    451  ..\..\..\..\..\mcu\apollo4b\hal\am_hal_stimer.c
                                    0x00000000   Lc  Abs  File  De 
    452  ../../../../../mcu/apollo4b/hal/am_hal_stimer.c
                                    0x00000000   Lc  Abs  File  De 
    453  i.am_hal_stimer_compare_delta_set
                                    0x0001ce24   Lc    1  Sect  De 
    454  i.am_hal_stimer_config     0x0001ce94   Lc    1  Sect  De 
    455  i.am_hal_stimer_int_clear  0x0001cec0   Lc    1  Sect  De 
    456  i.am_hal_stimer_int_enable 0x0001cecc   Lc    1  Sect  De 
    457  .data                      0x10000240   Lc    2  Sect  De   0x1
    458  bStimerConfigured          0x10000240   Lc    2  Data  De   0x1
    459  ..\am_bsp_pins.c           0x00000000   Lc  Abs  File  De 
    460  ../am_bsp_pins.c           0x00000000   Lc  Abs  File  De 
    461  .data                      0x10000244   Lc    2  Sect  De   0x4
    462  .data                      0x10000248   Lc    2  Sect  De   0x4
    463  .data                      0x1000024c   Lc    2  Sect  De   0x4
    464  .data                      0x10000250   Lc    2  Sect  De   0x4
    465  .data                      0x10000254   Lc    2  Sect  De   0x4
    466  .data                      0x10000258   Lc    2  Sect  De   0x4
    467  .data                      0x1000025c   Lc    2  Sect  De   0x4
    468  .data                      0x10000260   Lc    2  Sect  De   0x4
    469  .data                      0x10000264   Lc    2  Sect  De   0x4
    470  .data                      0x10000268   Lc    2  Sect  De   0x4
    471  .data                      0x1000026c   Lc    2  Sect  De   0x4
    472  .data                      0x10000270   Lc    2  Sect  De   0x4
    473  .data                      0x10000274   Lc    2  Sect  De   0x4
    474  .data                      0x10000278   Lc    2  Sect  De   0x4
    475  .data                      0x1000027c   Lc    2  Sect  De   0x4
    476  .data                      0x10000280   Lc    2  Sect  De   0x4
    477  .data                      0x10000284   Lc    2  Sect  De   0x4
    478  .data                      0x10000288   Lc    2  Sect  De   0x4
    479  .data                      0x1000028c   Lc    2  Sect  De   0x4
    480  .data                      0x10000290   Lc    2  Sect  De   0x4
    481  .data                      0x10000294   Lc    2  Sect  De   0x4
    482  .data                      0x10000298   Lc    2  Sect  De   0x4
    483  .data                      0x1000029c   Lc    2  Sect  De   0x4
    484  .data                      0x100002a0   Lc    2  Sect  De   0x4
    485  .data                      0x100002a4   Lc    2  Sect  De   0x4
    486  .data                      0x100002a8   Lc    2  Sect  De   0x4
    487  .data                      0x100002ac   Lc    2  Sect  De   0x4
    488  .data                      0x100002b0   Lc    2  Sect  De   0x4
    489  .data                      0x100002b4   Lc    2  Sect  De   0x4
    490  .data                      0x100002b8   Lc    2  Sect  De   0x4
    491  .data                      0x100002bc   Lc    2  Sect  De   0x4
    492  .data                      0x100002c0   Lc    2  Sect  De   0x4
    493  .data                      0x100002c4   Lc    2  Sect  De   0x4
    494  .data                      0x100002c8   Lc    2  Sect  De   0x4
    495  .data                      0x100002cc   Lc    2  Sect  De   0x4
    496  ..\..\..\..\..\mcu\apollo4b\hal\mcu\am_hal_bootrom_helper.c
                                    0x00000000   Lc  Abs  File  De 
    497  ../../../../../mcu/apollo4b/hal/mcu/am_hal_bootrom_helper.c
                                    0x00000000   Lc  Abs  File  De 
    498  .constdata                 0x0001f358   Lc    1  Sect  De   0x28
    499  ..\..\..\..\..\mcu\apollo4b\hal\mcu\am_hal_cmdq.c
                                    0x00000000   Lc  Abs  File  De 
    500  ../../../../../mcu/apollo4b/hal/mcu/am_hal_cmdq.c
                                    0x00000000   Lc  Abs  File  De 
    501  i.am_hal_cmdq_alloc_block  0x00019c50   Lc    1  Sect  De 
    502  i.am_hal_cmdq_disable      0x00019d1c   Lc    1  Sect  De 
    503  i.am_hal_cmdq_enable       0x00019d5c   Lc    1  Sect  De 
    504  i.am_hal_cmdq_error_resume 0x00019db4   Lc    1  Sect  De 
    505  i.am_hal_cmdq_get_status   0x00019e28   Lc    1  Sect  De 
    506  i.am_hal_cmdq_init         0x00019ecc   Lc    1  Sect  De 
    507  i.am_hal_cmdq_post_block   0x00019fbc   Lc    1  Sect  De 
    508  i.am_hal_cmdq_post_loop_block
                                    0x0001a020   Lc    1  Sect  De 
    509  i.am_hal_cmdq_release_block
                                    0x0001a090   Lc    1  Sect  De 
    510  i.am_hal_cmdq_reset        0x0001a0c8   Lc    1  Sect  De 
    511  i.am_hal_cmdq_term         0x0001a12c   Lc    1  Sect  De 
    512  .bss                       0x10004b28   Lc    3  Sect  De   0x1e4
    513  gAmHalCmdq                 0x10004b28   Lc    3  Data  De   0x1e4
    514  .constdata                 0x0001f380   Lc    1  Sect  De   0x1b8
    515  gAmHalCmdQReg              0x0001f380   Lc    1  Data  De   0x1b8
    516  ..\..\..\..\..\mcu\apollo4b\hal\mcu\am_hal_itm.c
                                    0x00000000   Lc  Abs  File  De 
    517  ../../../../../mcu/apollo4b/hal/mcu/am_hal_itm.c
                                    0x00000000   Lc  Abs  File  De 
    518  i.am_hal_itm_enable        0x0001a61c   Lc    1  Sect  De 
    519  i.am_hal_itm_print         0x0001a664   Lc    1  Sect  De 
    520  ..\..\..\..\..\mcu\apollo4b\hal\mcu\am_hal_mram.c
                                    0x00000000   Lc  Abs  File  De 
    521  ../../../../../mcu/apollo4b/hal/mcu/am_hal_mram.c
                                    0x00000000   Lc  Abs  File  De 
    522  i.am_hal_mram_ds_init      0x0001a6a0   Lc    1  Sect  De 
    523  i.am_hal_mram_info_read    0x0001a6b0   Lc    1  Sect  De 
    524  .data                      0x100002d0   Lc    2  Sect  De   0xbc
    525  g_program_mram_tmc_tcycrd  0x100002d0   Lc    2  Data  De   0xbc
    526  .data                      0x1000038c   Lc    2  Sect  De   0xbc
    527  g_recover_broken_mram_tmc_r_timer1
                                    0x1000038c   Lc    2  Data  De   0xbc
    528  .data                      0x10000448   Lc    2  Sect  De   0x8
    529  ..\..\..\..\..\mcu\apollo4b\hal\mcu\am_hal_rtc.c
                                    0x00000000   Lc  Abs  File  De 
    530  ../../../../../mcu/apollo4b/hal/mcu/am_hal_rtc.c
                                    0x00000000   Lc  Abs  File  De 
    531  i.am_hal_rtc_osc_disable   0x0001ce10   Lc    1  Sect  De 
    532  ..\..\..\..\..\mcu\apollo4b\hal\mcu\am_hal_tpiu.c
                                    0x00000000   Lc  Abs  File  De 
    533  ../../../../../mcu/apollo4b/hal/mcu/am_hal_tpiu.c
                                    0x00000000   Lc  Abs  File  De 
    534  i.am_hal_tpiu_enable       0x0001d3a4   Lc    1  Sect  De 
    535  ..\..\..\..\..\mcu\apollo4b\hal\mcu\am_hal_uart.c
                                    0x00000000   Lc  Abs  File  De 
    536  ../../../../../mcu/apollo4b/hal/mcu/am_hal_uart.c
                                    0x00000000   Lc  Abs  File  De 
    537  ..\..\..\..\..\mcu\apollo4b\hal\am_hal_dcu.c
                                    0x00000000   Lc  Abs  File  De 
    538  ../../../../../mcu/apollo4b/hal/am_hal_dcu.c
                                    0x00000000   Lc  Abs  File  De 
    539  i.am_hal_dcu_get           0x0001a358   Lc    1  Sect  De 
    540  i.am_hal_dcu_update        0x0001a3e8   Lc    1  Sect  De 
    541  i.copy_words               0x0001db48   Lc    1  Sect  De 
    542  copy_words                 0x0001db49   Lc    1  Code  De   0x28
    543  .data                      0x10000450   Lc    2  Sect  De   0x20
    544  ..\..\..\..\..\mcu\apollo4b\hal\am_hal_gpio.c
                                    0x00000000   Lc  Abs  File  De 
    545  ../../../../../mcu/apollo4b/hal/am_hal_gpio.c
                                    0x00000000   Lc  Abs  File  De 
    546  i.am_hal_gpio_pinconfig    0x0001a5c8   Lc    1  Sect  De 
    547  .constdata                 0x0001f538   Lc    1  Sect  De   0x10
    548  g_ui32DSpintbl             0x0001f538   Lc    1  Data  De   0x10
    549  ..\..\..\..\..\mcu\apollo4b\hal\am_hal_timer.c
                                    0x00000000   Lc  Abs  File  De 
    550  ../../../../../mcu/apollo4b/hal/am_hal_timer.c
                                    0x00000000   Lc  Abs  File  De 
    551  i.am_hal_timer_clear       0x0001d0b8   Lc    1  Sect  De 
    552  i.am_hal_timer_clear_stop  0x0001d118   Lc    1  Sect  De 
    553  i.am_hal_timer_default_config_set
                                    0x0001d170   Lc    1  Sect  De 
    554  i.am_hal_timer_interrupt_clear
                                    0x0001d18c   Lc    1  Sect  De 
    555  i.am_hal_timer_interrupt_enable
                                    0x0001d198   Lc    1  Sect  De 
    556  i.am_hal_timer_interrupt_status_get
                                    0x0001d1f8   Lc    1  Sect  De 
    557  i.am_hal_timer_read        0x0001d210   Lc    1  Sect  De 
    558  i.am_hal_timer_reset_config
                                    0x0001d234   Lc    1  Sect  De 
    559  i.am_hal_timer_start       0x0001d320   Lc    1  Sect  De 
    560  i.am_hal_timer_stop        0x0001d364   Lc    1  Sect  De 
    561  i.internal_timer_config    0x0001debc   Lc    1  Sect  De 
    562  i.timer_config_b1          0x0001ec74   Lc    1  Sect  De 
    563  .bss                       0x10004d0c   Lc    3  Sect  De   0x40
    564  TimerFlags                 0x10004d0c   Lc    3  Data  De   0x40
    565  ..\..\..\..\..\mcu\apollo4b\hal\am_hal_pin.c
                                    0x00000000   Lc  Abs  File  De 
    566  ../../../../../mcu/apollo4b/hal/am_hal_pin.c
                                    0x00000000   Lc  Abs  File  De 
    567  ..\..\..\..\..\mcu\apollo4b\hal\am_hal_queue.c
                                    0x00000000   Lc  Abs  File  De 
    568  ../../../../../mcu/apollo4b/hal/am_hal_queue.c
                                    0x00000000   Lc  Abs  File  De 
    569  dc.s                       0x00000000   Lc  Abs  File  De 
    570  ../clib/longlong.s         0x00000000   Lc  Abs  File  De 
    571  .text                      0x00018380   Lc    1  Sect  De   0x26
    572  ../clib/longlong.s         0x00000000   Lc  Abs  File  De 
    573  .text                      0x000183a6   Lc    1  Sect  De   0x26
    574  ../clib/string.c           0x00000000   Lc  Abs  File  De 
    575  .text                      0x000183cc   Lc    1  Sect  De 
    576  ../clib/memcpset.s         0x00000000   Lc  Abs  File  De 
    577  .text                      0x00018424   Lc    1  Sect  De   0x8a
    578  ../clib/memcpset.s         0x00000000   Lc  Abs  File  De 
    579  .text                      0x000184ae   Lc    1  Sect  De   0x10
    580  ../clib/memcpset.s         0x00000000   Lc  Abs  File  De 
    581  .text                      0x000184be   Lc    1  Sect  De   0x4e
    582  ../clib/heapaux.c          0x00000000   Lc  Abs  File  De 
    583  .text                      0x0001850c   Lc    1  Sect  De 
    584  ../clib/angel/startup.s    0x00000000   Lc  Abs  File  De 
    585  !!!main                    0x00018238   Lc    1  Sect  De   0x8
    586  ../clib/angel/handlers.s   0x00000000   Lc  Abs  File  De 
    587  !!handler_copy             0x000182d0   Lc    1  Sect  De   0x1a
    588  ../fplib/d2f.s             0x00000000   Lc  Abs  File  De 
    589  x$fpl$d2f                  0x0001ef1c   Lc    1  Sect  De   0x62
    590  $v0                        0x0001ef1c   Lc    1   --   De 
    591  ../clib/angel/kernel.s     0x00000000   Lc  Abs  File  De 
    592  .ARM.Collect$$rtentry$$00000000
                                    0x00018314   Lc    1  Sect  De 
    593  ../clib/memcpset.s         0x00000000   Lc  Abs  File  De 
    594  .text                      0x00018512   Lc    1  Sect  De   0x64
    595  ../clib/memcpset.s         0x00000000   Lc  Abs  File  De 
    596  .text                      0x00018576   Lc    1  Sect  De   0x44
    597  ../fplib/dnaninf.s         0x00000000   Lc  Abs  File  De 
    598  x$fpl$dnaninf              0x0001ef7e   Lc    1  Sect  De   0x9c
    599  $v0                        0x0001ef7e   Lc    1   --   De 
    600  ../fplib/fretinf.s         0x00000000   Lc  Abs  File  De 
    601  x$fpl$fretinf              0x0001f024   Lc    1  Sect  De   0xa
    602  $v0                        0x0001f024   Lc    1   --   De 
    603  ../fplib/usenofp.s         0x00000000   Lc  Abs  File  De 
    604  x$fpl$usenofp              0x0001f02e   Lc    1  Sect  De 
    605  ../clib/angel/kernel.s     0x00000000   Lc  Abs  File  De 
    606  .ARM.Collect$$rtentry$$00000002
                                    0x00018314   Lc    1  Sect  De 
    607  .ARM.Collect$$rtentry$$00000009
                                    0x0001831a   Lc    1  Sect  De 
    608  .ARM.Collect$$rtentry$$0000000A
                                    0x0001831a   Lc    1  Sect  De   0x4
    609  .ARM.Collect$$rtentry$$0000000C
                                    0x0001831e   Lc    1  Sect  De 
    610  .ARM.Collect$$rtentry$$0000000D
                                    0x0001831e   Lc    1  Sect  De   0x8
    611  ../clib/angel/kernel.s     0x00000000   Lc  Abs  File  De 
    612  .ARM.Collect$$rtentry$$00000004
                                    0x00018314   Lc    1  Sect  De   0x6
    613  ../clib/angel/sys.s        0x00000000   Lc  Abs  File  De 
    614  .text                      0x000185ba   Lc    1  Sect  De   0x4a
    615  ../clib/stdlib.c           0x00000000   Lc  Abs  File  De 
    616  .text                      0x00018604   Lc    1  Sect  De 
    617  ../clib/angel/boardlib.s   0x00000000   Lc  Abs  File  De 
    618  ../clib/angel/boardlib.s   0x00000000   Lc  Abs  File  De 
    619  ../clib/angel/boardlib.s   0x00000000   Lc  Abs  File  De 
    620  ../clib/libinit.s          0x00000000   Lc  Abs  File  De 
    621  .ARM.Collect$$libinit$$00000000
                                    0x00018308   Lc    1  Sect  De   0x2
    622  ../clib/angel/sys.s        0x00000000   Lc  Abs  File  De 
    623  .text                      0x00018618   Lc    1  Sect  De   0x8
    624  .bss                       0x10004d4c   Lc    3  Sect  De   0x60
    625  ../clib/angel/kernel.s     0x00000000   Lc  Abs  File  De 
    626  .ARM.Collect$$rtexit$$00000000
                                    0x00018326   Lc    1  Sect  De   0x2
    627  ../clib/libinit.s          0x00000000   Lc  Abs  File  De 
    628  .ARM.Collect$$libinit$$00000001
                                    0x0001830a   Lc    1  Sect  De   0x4
    629  .ARM.Collect$$libinit$$00000004
                                    0x0001830e   Lc    1  Sect  De 
    630  .ARM.Collect$$libinit$$0000000A
                                    0x0001830e   Lc    1  Sect  De 
    631  .ARM.Collect$$libinit$$0000000C
                                    0x0001830e   Lc    1  Sect  De 
    632  .ARM.Collect$$libinit$$0000000E
                                    0x0001830e   Lc    1  Sect  De 
    633  .ARM.Collect$$libinit$$00000011
                                    0x0001830e   Lc    1  Sect  De 
    634  .ARM.Collect$$libinit$$00000013
                                    0x0001830e   Lc    1  Sect  De 
    635  .ARM.Collect$$libinit$$00000015
                                    0x0001830e   Lc    1  Sect  De 
    636  .ARM.Collect$$libinit$$00000017
                                    0x0001830e   Lc    1  Sect  De 
    637  .ARM.Collect$$libinit$$00000019
                                    0x0001830e   Lc    1  Sect  De 
    638  .ARM.Collect$$libinit$$0000001B
                                    0x0001830e   Lc    1  Sect  De 
    639  .ARM.Collect$$libinit$$0000001D
                                    0x0001830e   Lc    1  Sect  De 
    640  .ARM.Collect$$libinit$$0000001F
                                    0x0001830e   Lc    1  Sect  De 
    641  .ARM.Collect$$libinit$$00000021
                                    0x0001830e   Lc    1  Sect  De 
    642  .ARM.Collect$$libinit$$00000023
                                    0x0001830e   Lc    1  Sect  De 
    643  .ARM.Collect$$libinit$$00000025
                                    0x0001830e   Lc    1  Sect  De 
    644  .ARM.Collect$$libinit$$0000002C
                                    0x0001830e   Lc    1  Sect  De 
    645  .ARM.Collect$$libinit$$0000002E
                                    0x0001830e   Lc    1  Sect  De 
    646  .ARM.Collect$$libinit$$00000030
                                    0x0001830e   Lc    1  Sect  De 
    647  .ARM.Collect$$libinit$$00000032
                                    0x0001830e   Lc    1  Sect  De 
    648  .ARM.Collect$$libinit$$00000033
                                    0x0001830e   Lc    1  Sect  De   0x2
    649  ../clib/angel/kernel.s     0x00000000   Lc  Abs  File  De 
    650  .ARM.Collect$$rtexit$$00000002
                                    0x00018328   Lc    1  Sect  De 
    651  .ARM.Collect$$rtexit$$00000003
                                    0x00018328   Lc    1  Sect  De   0x4
    652  .ARM.Collect$$rtexit$$00000004
                                    0x0001832c   Lc    1  Sect  De   0x6
    653  ../clib/armsys.c           0x00000000   Lc  Abs  File  De 
    654  ../clib/armsys.c           0x00000000   Lc  Abs  File  De 
    655  ../fplib/fpinit.s          0x00000000   Lc  Abs  File  De 
    656  x$fpl$fpinit               0x0001f01a   Lc    1  Sect  De   0xa
    657  $v0                        0x0001f01a   Lc    1   --   De 
    658  ../clib/angel/sysapp.c     0x00000000   Lc  Abs  File  De 
    659  .text                      0x00018620   Lc    1  Sect  De 
    660  ../clib/angel/boardlib.s   0x00000000   Lc  Abs  File  De 
    661  ../clib/armsys.c           0x00000000   Lc  Abs  File  De 
    662  ../clib/armsys.c           0x00000000   Lc  Abs  File  De 
    663  ../clib/libinit.s          0x00000000   Lc  Abs  File  De 
    664  .ARM.Collect$$libshutdown$$00000000
                                    0x00018310   Lc    1  Sect  De   0x2
    665  ../clib/angel/sysapp.c     0x00000000   Lc  Abs  File  De 
    666  ../clib/angel/sys.s        0x00000000   Lc  Abs  File  De 
    667  .text                      0x0001862c   Lc    1  Sect  De   0x2
    668  ../clib/angel/sys.s        0x00000000   Lc  Abs  File  De 
    669  .text                      0x0001862e   Lc    1  Sect  De 
    670  ../clib/heapalloc.c        0x00000000   Lc  Abs  File  De 
    671  ../clib/signal.c           0x00000000   Lc  Abs  File  De 
    672  ../clib/signal.c           0x00000000   Lc  Abs  File  De 
    673  ../clib/libinit.s          0x00000000   Lc  Abs  File  De 
    674  .ARM.Collect$$libshutdown$$00000002
                                    0x00018312   Lc    1  Sect  De 
    675  .ARM.Collect$$libshutdown$$00000004
                                    0x00018312   Lc    1  Sect  De 
    676  .ARM.Collect$$libshutdown$$00000007
                                    0x00018312   Lc    1  Sect  De 
    677  .ARM.Collect$$libshutdown$$0000000A
                                    0x00018312   Lc    1  Sect  De 
    678  .ARM.Collect$$libshutdown$$0000000C
                                    0x00018312   Lc    1  Sect  De 
    679  .ARM.Collect$$libshutdown$$0000000F
                                    0x00018312   Lc    1  Sect  De 
    680  .ARM.Collect$$libshutdown$$00000010
                                    0x00018312   Lc    1  Sect  De   0x2
    681  ../clib/angel/rt.s         0x00000000   Lc  Abs  File  De 
    682  ../clib/signal.c           0x00000000   Lc  Abs  File  De 
    683  ../clib/signal.c           0x00000000   Lc  Abs  File  De 
    684  ../clib/signal.c           0x00000000   Lc  Abs  File  De 
    685  ../clib/signal.c           0x00000000   Lc  Abs  File  De 
    686  ../clib/angel/sysapp.c     0x00000000   Lc  Abs  File  De 
    687  ../clib/signal.s           0x00000000   Lc  Abs  File  De 
    688  ../clib/signal.c           0x00000000   Lc  Abs  File  De 
    689  ../clib/signal.c           0x00000000   Lc  Abs  File  De 
    690  ../clib/signal.c           0x00000000   Lc  Abs  File  De 
    691  ../clib/signal.c           0x00000000   Lc  Abs  File  De 
    692  ../clib/signal.c           0x00000000   Lc  Abs  File  De 
    693  ../clib/signal.c           0x00000000   Lc  Abs  File  De 
    694  ../clib/signal.c           0x00000000   Lc  Abs  File  De 
    695  ../clib/signal.c           0x00000000   Lc  Abs  File  De 
    696  ../clib/angel/dczerorl2.s  0x00000000   Lc  Abs  File  De 
    697  !!dczerorl2                0x00018274   Lc    1  Sect  De   0x5a
    698  ../clib/angel/scatter.s    0x00000000   Lc  Abs  File  De 
    699  !!!scatter                 0x00018240   Lc    1  Sect  De   0x34
    700  ../clib/angel/handlers.s   0x00000000   Lc  Abs  File  De 
    701  !!handler_zi               0x000182ec   Lc    1  Sect  De   0x1c
    702  BuildAttributes$$THM_ISAv4$E$P$D$K$B$S$7EM$VFPi3$EXTD16$VFPS$VFMA$PE$A:L22UL41UL21$X:L11$S22US41US21$IEEE1$IW$USESV6$~STKCKD$USESV7$~SHL$OTIME$ROPI$EBA8$UX$STANDARDLIB$REQ8$PRES8$EABIv2
                                    0x00000000   Gb  Abs   --   Hi 
    703  __ARM_use_no_argv          0x00000000   Gb  Abs   --   Hi 
    704  __Vectors                  0x00018000   Gb    1  Data  Hi 
    705  __Patchable                0x00018190   Gb    1  Data  Hi 
    706  Reset_Handler              0x00018201   Wk    1  Code  Hi   0x1c
    707  HardFault_Handler          0x0001821d   Wk    1  Code  Hi   0x2
    708  NMI_Handler                0x0001821f   Wk    1  Code  Hi   0x2
    709  BusFault_Handler           0x00018223   Wk    1  Code  Hi   0x2
    710  UsageFault_Handler         0x00018225   Wk    1  Code  Hi   0x2
    711  SecureFault_Handler        0x00018227   Wk    1  Code  Hi   0x2
    712  SVC_Handler                0x00018229   Wk    1  Code  Hi   0x2
    713  DebugMon_Handler           0x0001822b   Wk    1  Code  Hi   0x2
    714  PendSV_Handler             0x0001822d   Wk    1  Code  Hi   0x2
    715  SysTick_Handler            0x0001822f   Wk    1  Code  Hi   0x2
    716  am_adc_isr                 0x00018231   Wk    1  Code  Hi 
    717  am_audadc0_isr             0x00018231   Wk    1  Code  Hi 
    718  am_brownout_isr            0x00018231   Wk    1  Code  Hi 
    719  am_cachecpu_isr            0x00018231   Wk    1  Code  Hi 
    720  am_clkgen_isr              0x00018231   Wk    1  Code  Hi 
    721  am_ctimer_isr              0x00018231   Wk    1  Code  Hi 
    722  am_disp_isr                0x00018231   Wk    1  Code  Hi 
    723  am_dsi_isr                 0x00018231   Wk    1  Code  Hi 
    724  am_dspi2s0_isr             0x00018231   Wk    1  Code  Hi 
    725  am_dspi2s1_isr             0x00018231   Wk    1  Code  Hi 
    726  am_dspi2s2_isr             0x00018231   Wk    1  Code  Hi 
    727  am_dspi2s3_isr             0x00018231   Wk    1  Code  Hi 
    728  am_gpio0_001f_isr          0x00018231   Wk    1  Code  Hi 
    729  am_gpio0_203f_isr          0x00018231   Wk    1  Code  Hi 
    730  am_gpio0_405f_isr          0x00018231   Wk    1  Code  Hi 
    731  am_gpio0_607f_isr          0x00018231   Wk    1  Code  Hi 
    732  am_gpio1_001f_isr          0x00018231   Wk    1  Code  Hi 
    733  am_gpio1_203f_isr          0x00018231   Wk    1  Code  Hi 
    734  am_gpio1_405f_isr          0x00018231   Wk    1  Code  Hi 
    735  am_gpio1_607f_isr          0x00018231   Wk    1  Code  Hi 
    736  am_gpu_isr                 0x00018231   Wk    1  Code  Hi 
    737  am_iomaster0_isr           0x00018231   Wk    1  Code  Hi 
    738  am_iomaster1_isr           0x00018231   Wk    1  Code  Hi 
    739  am_iomaster2_isr           0x00018231   Wk    1  Code  Hi 
    740  am_iomaster3_isr           0x00018231   Wk    1  Code  Hi 
    741  am_iomaster4_isr           0x00018231   Wk    1  Code  Hi 
    742  am_iomaster5_isr           0x00018231   Wk    1  Code  Hi 
    743  am_iomaster6_isr           0x00018231   Wk    1  Code  Hi 
    744  am_iomaster7_isr           0x00018231   Wk    1  Code  Hi 
    745  am_ioslave_acc_isr         0x00018231   Wk    1  Code  Hi 
    746  am_ioslave_ios_isr         0x00018231   Wk    1  Code  Hi 
    747  am_mspi1_isr               0x00018231   Wk    1  Code  Hi 
    748  am_mspi2_isr               0x00018231   Wk    1  Code  Hi 
    749  am_pdm0_isr                0x00018231   Wk    1  Code  Hi 
    750  am_pdm1_isr                0x00018231   Wk    1  Code  Hi 
    751  am_pdm2_isr                0x00018231   Wk    1  Code  Hi 
    752  am_pdm3_isr                0x00018231   Wk    1  Code  Hi 
    753  am_rtc_isr                 0x00018231   Wk    1  Code  Hi 
    754  am_sdio_isr                0x00018231   Wk    1  Code  Hi 
    755  am_stimer_cmpr1_isr        0x00018231   Wk    1  Code  Hi 
    756  am_stimer_cmpr2_isr        0x00018231   Wk    1  Code  Hi 
    757  am_stimer_cmpr3_isr        0x00018231   Wk    1  Code  Hi 
    758  am_stimer_cmpr4_isr        0x00018231   Wk    1  Code  Hi 
    759  am_stimer_cmpr5_isr        0x00018231   Wk    1  Code  Hi 
    760  am_stimer_cmpr6_isr        0x00018231   Wk    1  Code  Hi 
    761  am_stimer_cmpr7_isr        0x00018231   Wk    1  Code  Hi 
    762  am_stimerof_isr            0x00018231   Wk    1  Code  Hi 
    763  am_timer00_isr             0x00018231   Wk    1  Code  Hi 
    764  am_timer01_isr             0x00018231   Wk    1  Code  Hi 
    765  am_timer02_isr             0x00018231   Wk    1  Code  Hi 
    766  am_timer03_isr             0x00018231   Wk    1  Code  Hi 
    767  am_timer04_isr             0x00018231   Wk    1  Code  Hi 
    768  am_timer05_isr             0x00018231   Wk    1  Code  Hi 
    769  am_timer06_isr             0x00018231   Wk    1  Code  Hi 
    770  am_timer07_isr             0x00018231   Wk    1  Code  Hi 
    771  am_timer08_isr             0x00018231   Wk    1  Code  Hi 
    772  am_timer09_isr             0x00018231   Wk    1  Code  Hi 
    773  am_timer10_isr             0x00018231   Wk    1  Code  Hi 
    774  am_timer11_isr             0x00018231   Wk    1  Code  Hi 
    775  am_timer12_isr             0x00018231   Wk    1  Code  Hi 
    776  am_timer13_isr             0x00018231   Wk    1  Code  Hi 
    777  am_timer14_isr             0x00018231   Wk    1  Code  Hi 
    778  am_timer15_isr             0x00018231   Wk    1  Code  Hi 
    779  am_uart1_isr               0x00018231   Wk    1  Code  Hi 
    780  am_uart2_isr               0x00018231   Wk    1  Code  Hi 
    781  am_uart3_isr               0x00018231   Wk    1  Code  Hi 
    782  am_uart_isr                0x00018231   Wk    1  Code  Hi 
    783  am_usb_isr                 0x00018231   Wk    1  Code  Hi 
    784  am_vcomp_isr               0x00018231   Wk    1  Code  Hi 
    785  am_watchdog_isr            0x00018231   Wk    1  Code  Hi 
    786  __main                     0x00018239   Gb    1  Code  Hi   0x8
    787  __scatterload              0x00018241   Gb    1  Code  Hi 
    788  __scatterload_rt2          0x00018241   Gb    1  Code  Hi   0x2c
    789  __scatterload_rt2_thumb_only
                                    0x00018241   Gb    1  Code  Hi 
    790  __scatterload_null         0x0001824f   Gb    1  Code  Hi 
    791  __decompress               0x00018275   Gb    1  Code  Hi   0x5a
    792  __decompress1              0x00018275   Gb    1  Code  Hi 
    793  __scatterload_copy         0x000182d1   Gb    1  Code  Hi   0x1a
    794  __scatterload_zeroinit     0x000182ed   Gb    1  Code  Hi   0x1c
    795  __rt_lib_init              0x00018309   Gb    1  Code  De 
    796  __rt_lib_init_fp_1         0x0001830b   Gb    1  Code  Hi 
    797  __rt_lib_init_alloca_1     0x0001830f   Gb    1  Code  Hi 
    798  __rt_lib_init_argv_1       0x0001830f   Gb    1  Code  Hi 
    799  __rt_lib_init_atexit_1     0x0001830f   Gb    1  Code  Hi 
    800  __rt_lib_init_clock_1      0x0001830f   Gb    1  Code  Hi 
    801  __rt_lib_init_cpp_1        0x0001830f   Gb    1  Code  Hi 
    802  __rt_lib_init_exceptions_1 0x0001830f   Gb    1  Code  Hi 
    803  __rt_lib_init_fp_trap_1    0x0001830f   Gb    1  Code  Hi 
    804  __rt_lib_init_getenv_1     0x0001830f   Gb    1  Code  Hi 
    805  __rt_lib_init_heap_1       0x0001830f   Gb    1  Code  Hi 
    806  __rt_lib_init_lc_collate_1 0x0001830f   Gb    1  Code  Hi 
    807  __rt_lib_init_lc_ctype_1   0x0001830f   Gb    1  Code  Hi 
    808  __rt_lib_init_lc_monetary_1
                                    0x0001830f   Gb    1  Code  Hi 
    809  __rt_lib_init_lc_numeric_1 0x0001830f   Gb    1  Code  Hi 
    810  __rt_lib_init_lc_time_1    0x0001830f   Gb    1  Code  Hi 
    811  __rt_lib_init_preinit_1    0x0001830f   Gb    1  Code  Hi 
    812  __rt_lib_init_rand_1       0x0001830f   Gb    1  Code  Hi 
    813  __rt_lib_init_return       0x0001830f   Gb    1  Code  Hi 
    814  __rt_lib_init_signal_1     0x0001830f   Gb    1  Code  Hi 
    815  __rt_lib_init_stdio_1      0x0001830f   Gb    1  Code  Hi 
    816  __rt_lib_init_user_alloc_1 0x0001830f   Gb    1  Code  Hi 
    817  __rt_lib_shutdown          0x00018311   Gb    1  Code  De 
    818  __rt_lib_shutdown_cpp_1    0x00018313   Gb    1  Code  Hi 
    819  __rt_lib_shutdown_fp_trap_1
                                    0x00018313   Gb    1  Code  Hi 
    820  __rt_lib_shutdown_heap_1   0x00018313   Gb    1  Code  Hi 
    821  __rt_lib_shutdown_return   0x00018313   Gb    1  Code  Hi 
    822  __rt_lib_shutdown_signal_1 0x00018313   Gb    1  Code  Hi 
    823  __rt_lib_shutdown_stdio_1  0x00018313   Gb    1  Code  Hi 
    824  __rt_lib_shutdown_user_alloc_1
                                    0x00018313   Gb    1  Code  Hi 
    825  __rt_entry                 0x00018315   Gb    1  Code  Hi 
    826  __rt_entry_presh_1         0x00018315   Gb    1  Code  Hi 
    827  __rt_entry_sh              0x00018315   Gb    1  Code  Hi 
    828  __rt_entry_li              0x0001831b   Gb    1  Code  Hi 
    829  __rt_entry_postsh_1        0x0001831b   Gb    1  Code  Hi 
    830  __rt_entry_main            0x0001831f   Gb    1  Code  Hi 
    831  __rt_entry_postli_1        0x0001831f   Gb    1  Code  Hi 
    832  __rt_exit                  0x00018327   Gb    1  Code  De 
    833  __rt_exit_ls               0x00018329   Gb    1  Code  Hi 
    834  __rt_exit_prels_1          0x00018329   Gb    1  Code  Hi 
    835  __rt_exit_exit             0x0001832d   Gb    1  Code  Hi 
    836  am_hal_triple_read         0x00018335   Gb    1  Code  Hi   0x1c
    837  am_hal_interrupt_master_enable
                                    0x00018351   Gb    1  Code  Hi   0x8
    838  am_hal_interrupt_master_disable
                                    0x00018359   Gb    1  Code  Hi   0x8
    839  am_hal_interrupt_master_set
                                    0x00018361   Gb    1  Code  Hi   0x6
    840  __user_initial_stackheap   0x00018369   Gb    1  Code  Hi   0xa
    841  __aeabi_llsl               0x00018381   Gb    1  Code  Hi 
    842  _ll_shift_l                0x00018381   Gb    1  Code  De   0x26
    843  __aeabi_llsr               0x000183a7   Gb    1  Code  Hi 
    844  _ll_ushift_r               0x000183a7   Gb    1  Code  De   0x26
    845  memcmp                     0x000183cd   Gb    1  Code  Hi   0x58
    846  __aeabi_memcpy             0x00018425   Gb    1  Code  Hi 
    847  __rt_memcpy                0x00018425   Gb    1  Code  De   0x8a
    848  _memcpy_lastbytes          0x0001848b   Gb    1  Code  De 
    849  __aeabi_memset             0x000184af   Gb    1  Code  Hi   0x10
    850  __aeabi_memclr4            0x000184bf   Gb    1  Code  Hi 
    851  __aeabi_memclr8            0x000184bf   Gb    1  Code  De 
    852  __rt_memclr_w              0x000184bf   Gb    1  Code  De   0x4e
    853  _memset_w                  0x000184c3   Gb    1  Code  De 
    854  __use_two_region_memory    0x0001850d   Gb    1  Code  Hi   0x2
    855  __rt_heap_escrow$2region   0x0001850f   Gb    1  Code  De   0x2
    856  __rt_heap_expand$2region   0x00018511   Gb    1  Code  De   0x2
    857  __aeabi_memcpy4            0x00018513   Gb    1  Code  De 
    858  __aeabi_memcpy8            0x00018513   Gb    1  Code  De 
    859  __rt_memcpy_w              0x00018513   Gb    1  Code  De   0x64
    860  _memcpy_lastbytes_aligned  0x0001855b   Gb    1  Code  De 
    861  __aeabi_memclr             0x00018577   Gb    1  Code  De 
    862  __rt_memclr                0x00018577   Gb    1  Code  De   0x44
    863  _memset                    0x0001857b   Gb    1  Code  De 
    864  __user_setup_stackheap     0x000185bb   Gb    1  Code  De   0x4a
    865  exit                       0x00018605   Gb    1  Code  De   0x12
    866  __user_libspace            0x00018619   Wk    1  Code  De   0x8
    867  __user_perproc_libspace    0x00018619   Wk    1  Code  De 
    868  __user_perthread_libspace  0x00018619   Wk    1  Code  De 
    869  _sys_exit                  0x00018621   Gb    1  Code  De   0x8
    870  __I$use$semihosting        0x0001862d   Gb    1  Code  Hi 
    871  __use_no_semihosting_swi   0x0001862d   Gb    1  Code  Hi   0x2
    872  __semihosting_library_function
                                    0x0001862f   Gb    1  Code  Hi 
    873  MemManage_Handler          0x00018631   Gb    1  Code  Hi   0xbe
    874  am_bsp_itm_printf_enable   0x0001888d   Gb    1  Code  Hi   0x60
    875  am_bsp_low_power_init      0x00018905   Gb    1  Code  Hi   0x16
    876  am_bsp_mspi_pins_enable    0x0001891d   Gb    1  Code  Hi   0x700
    877  am_devices_mspi_psram_apply_ddr_timing
                                    0x00019109   Gb    1  Code  Hi   0x3c
    878  am_devices_mspi_psram_aps12808l_ddr_deinit
                                    0x00019149   Gb    1  Code  Hi   0x64
    879  am_devices_mspi_psram_aps12808l_ddr_enable_xip
                                    0x000191d1   Gb    1  Code  Hi   0x3a
    880  am_devices_mspi_psram_aps12808l_ddr_init
                                    0x00019211   Gb    1  Code  Hi   0x216
    881  am_devices_mspi_psram_ddr_init_timing_check
                                    0x000199bd   Gb    1  Code  Hi   0x17c
    882  am_hal_cachectrl_config    0x00019bf1   Gb    1  Code  Hi   0x48
    883  am_hal_cachectrl_enable    0x00019c39   Gb    1  Code  Hi   0x18
    884  am_hal_cmdq_alloc_block    0x00019c51   Gb    1  Code  Hi   0xc8
    885  am_hal_cmdq_disable        0x00019d1d   Gb    1  Code  Hi   0x3c
    886  am_hal_cmdq_enable         0x00019d5d   Gb    1  Code  Hi   0x4e
    887  am_hal_cmdq_error_resume   0x00019db5   Gb    1  Code  Hi   0x70
    888  am_hal_cmdq_get_status     0x00019e29   Gb    1  Code  Hi   0x9e
    889  am_hal_cmdq_init           0x00019ecd   Gb    1  Code  Hi   0xe2
    890  am_hal_cmdq_post_block     0x00019fbd   Gb    1  Code  Hi   0x5a
    891  am_hal_cmdq_post_loop_block
                                    0x0001a021   Gb    1  Code  Hi   0x68
    892  am_hal_cmdq_release_block  0x0001a091   Gb    1  Code  Hi   0x32
    893  am_hal_cmdq_reset          0x0001a0c9   Gb    1  Code  Hi   0x5e
    894  am_hal_cmdq_term           0x0001a12d   Gb    1  Code  Hi   0x84
    895  am_hal_daxi_config         0x0001a1b5   Gb    1  Code  Hi   0x4a
    896  am_hal_daxi_control        0x0001a209   Gb    1  Code  Hi   0x138
    897  am_hal_dcu_get             0x0001a359   Gb    1  Code  Hi   0x84
    898  am_hal_dcu_update          0x0001a3e9   Gb    1  Code  Hi   0xd6
    899  am_hal_delay_us            0x0001a4cd   Gb    1  Code  Hi   0x22
    900  am_hal_delay_us_status_change
                                    0x0001a4f9   Gb    1  Code  Hi   0x50
    901  am_hal_delay_us_status_check
                                    0x0001a551   Gb    1  Code  Hi   0x5c
    902  am_hal_fault_capture_enable
                                    0x0001a5b5   Gb    1  Code  Hi   0x12
    903  am_hal_gpio_pinconfig      0x0001a5c9   Gb    1  Code  Hi   0x4c
    904  am_hal_itm_enable          0x0001a61d   Gb    1  Code  Hi   0x2c
    905  am_hal_itm_print           0x0001a665   Gb    1  Code  Hi   0x30
    906  am_hal_load_ui32           0x0001a695   Gb    1  Code  Hi   0x6
    907  am_hal_mram_ds_init        0x0001a6a1   Gb    1  Code  Hi   0xc
    908  am_hal_mram_info_read      0x0001a6b1   Gb    1  Code  Hi   0x8c
    909  am_hal_mspi_blocking_transfer
                                    0x0001a745   Gb    1  Code  Hi   0x224
    910  am_hal_mspi_configure      0x0001a979   Gb    1  Code  Hi   0xfa
    911  am_hal_mspi_control        0x0001aa89   Gb    1  Code  Hi   0xbe8
    912  am_hal_mspi_deinitialize   0x0001b67d   Gb    1  Code  Hi   0xa8
    913  am_hal_mspi_device_configure
                                    0x0001b72d   Gb    1  Code  Hi   0x214
    914  am_hal_mspi_disable        0x0001b949   Gb    1  Code  Hi   0x94
    915  am_hal_mspi_enable         0x0001b9e5   Gb    1  Code  Hi   0xa6
    916  am_hal_mspi_initialize     0x0001ba99   Gb    1  Code  Hi   0x4c
    917  am_hal_mspi_interrupt_clear
                                    0x0001baed   Gb    1  Code  Hi   0x2e
    918  am_hal_mspi_interrupt_disable
                                    0x0001bb21   Gb    1  Code  Hi   0x36
    919  am_hal_mspi_interrupt_enable
                                    0x0001bb5d   Gb    1  Code  Hi   0x34
    920  am_hal_mspi_interrupt_service
                                    0x0001bb95   Gb    1  Code  Hi   0x2c2
    921  am_hal_mspi_interrupt_status_get
                                    0x0001be61   Gb    1  Code  Hi   0x42
    922  am_hal_mspi_power_control  0x0001bea9   Gb    1  Code  Hi   0x44c
    923  am_hal_pwrctrl_control     0x0001c2f5   Gb    1  Code  Hi   0x458
    924  am_hal_pwrctrl_dsp_memory_config
                                    0x0001c751   Gb    1  Code  Hi   0x14e
    925  am_hal_pwrctrl_low_power_init
                                    0x0001c8ad   Gb    1  Code  Hi   0x194
    926  am_hal_pwrctrl_mcu_memory_config
                                    0x0001ca65   Gb    1  Code  Hi   0x114
    927  am_hal_pwrctrl_mcu_mode_select
                                    0x0001cb81   Gb    1  Code  Hi   0x1a6
    928  am_hal_pwrctrl_periph_disable
                                    0x0001cd39   Gb    1  Code  Hi   0x66
    929  am_hal_pwrctrl_periph_enable
                                    0x0001cda9   Gb    1  Code  Hi   0x5e
    930  am_hal_rtc_osc_disable     0x0001ce11   Gb    1  Code  Hi   0xe
    931  am_hal_stimer_compare_delta_set
                                    0x0001ce25   Gb    1  Code  Hi   0x6a
    932  am_hal_stimer_config       0x0001ce95   Gb    1  Code  Hi   0x1e
    933  am_hal_stimer_int_clear    0x0001cec1   Gb    1  Code  Hi   0x6
    934  am_hal_stimer_int_enable   0x0001cecd   Gb    1  Code  Hi   0xa
    935  am_hal_sysctrl_sleep       0x0001cedd   Gb    1  Code  Hi   0x1c2
    936  am_hal_timer_clear         0x0001d0b9   Gb    1  Code  Hi   0x5a
    937  am_hal_timer_clear_stop    0x0001d119   Gb    1  Code  Hi   0x52
    938  am_hal_timer_default_config_set
                                    0x0001d171   Gb    1  Code  Hi   0x1c
    939  am_hal_timer_interrupt_clear
                                    0x0001d18d   Gb    1  Code  Hi   0x8
    940  am_hal_timer_interrupt_enable
                                    0x0001d199   Gb    1  Code  Hi   0x54
    941  am_hal_timer_interrupt_status_get
                                    0x0001d1f9   Gb    1  Code  Hi   0x12
    942  am_hal_timer_read          0x0001d211   Gb    1  Code  Hi   0x20
    943  am_hal_timer_reset_config  0x0001d235   Gb    1  Code  Hi   0xe2
    944  am_hal_timer_start         0x0001d321   Gb    1  Code  Hi   0x3e
    945  am_hal_timer_stop          0x0001d365   Gb    1  Code  Hi   0x3a
    946  am_hal_tpiu_enable         0x0001d3a5   Gb    1  Code  Hi   0x3c
    947  am_hal_util_write_and_wait 0x0001d3ed   Gb    1  Code  Hi   0x102
    948  am_mspi0_isr               0x0001d50d   Gb    1  Code  Hi   0x24
    949  am_stimer_cmpr0_isr        0x0001d535   Gb    1  Code  Hi   0x4c
    950  am_util_delay_us           0x0001d5c5   Gb    1  Code  Hi   0xc
    951  am_util_stdio_printf       0x0001d5d1   Gb    1  Code  Hi   0x32
    952  am_util_stdio_printf_init  0x0001d60d   Gb    1  Code  Hi   0x6
    953  am_util_stdio_terminal_clear
                                    0x0001d619   Gb    1  Code  Hi   0xa
    954  am_util_stdio_vsprintf     0x0001d639   Gb    1  Code  Hi   0x3a4
    955  coreldo_disable            0x0001db71   Gb    1  Code  Hi   0x14
    956  coreldo_enable             0x0001db89   Gb    1  Code  Hi   0x2c
    957  internal_timer_config      0x0001debd   Gb    1  Code  Hi   0xdc
    958  main                       0x0001df9d   Gb    1  Code  Hi   0x1a8
    959  memldo_disable             0x0001e2d9   Gb    1  Code  Hi   0x14
    960  memldo_enable              0x0001e2f1   Gb    1  Code  Hi   0x1c
    961  mpu_global_configure       0x0001e311   Gb    1  Code  Hi   0x24
    962  mpu_region_configure       0x0001e33d   Gb    1  Code  Hi   0x34
    963  mpu_region_disable         0x0001e379   Gb    1  Code  Hi   0x10
    964  mpu_region_enable          0x0001e391   Gb    1  Code  Hi   0x10
    965  mpu_type_get               0x0001e3a9   Gb    1  Code  Hi   0x6
    966  psram_check                0x0001e9a1   Gb    1  Code  Hi   0x96
    967  simobuck_ldos_force_active 0x0001eb79   Gb    1  Code  Hi   0x54
    968  simobuck_ldos_force_disable
                                    0x0001ebd1   Gb    1  Code  Hi   0x54
    969  stimer_init                0x0001ec41   Gb    1  Code  Hi   0x32
    970  timer_config_b1            0x0001ec75   Gb    1  Code  Hi   0x1a4
    971  __aeabi_d2f                0x0001ef1d   Gb    1  Code  Hi 
    972  _d2f                       0x0001ef1d   Gb    1  Code  De   0x62
    973  __fpl_dnaninf              0x0001ef7f   Gb    1  Code  De   0x9c
    974  _fp_init                   0x0001f01b   Gb    1  Code  De   0xa
    975  __fplib_config_fpu_vfp     0x0001f023   Gb    1  Code  De 
    976  __fplib_config_pureend_doubles
                                    0x0001f023   Gb    1  Code  De 
    977  __fpl_fretinf              0x0001f025   Gb    1  Code  De   0xa
    978  __I$use$fp                 0x0001f02e   Gb    1   --   De 
    979  ui32MCUAllowed             0x0001f030   Gb    1  Data  Hi   0x14
    980  ui32DSP0Allowed            0x0001f044   Gb    1  Data  Hi   0x14
    981  ui32DSP1Allowed            0x0001f058   Gb    1  Data  Hi   0x14
    982  ui32SharedAccess           0x0001f06c   Gb    1  Data  Hi   0x14
    983  sGlobalAccess              0x0001f080   Gb    1  Data  Hi   0x1c
    984  ui32MspiXipBaseAddress     0x0001f0a0   Gb    1  Data  Hi   0xc
    985  aps12808l_sConfigArray     0x0001f0ac   Gb    1  Data  Hi   0x60
    986  am_hal_cachectrl_defaults  0x0001f123   Gb    1  Data  Hi   0x3
    987  am_hal_daxi_defaults       0x0001f126   Gb    1  Data  Hi   0x3
    988  g_DefaultSRAMCfg           0x0001f12c   Gb    1  Data  Hi   0x4
    989  g_DefaultMcuMemCfg         0x0001f130   Gb    1  Data  Hi   0x6
    990  am_hal_pwrctrl_peripheral_control
                                    0x0001f138   Gb    1  Data  Hi   0x220
    991  g_am_hal_bootrom_helper    0x0001f358   Gb    1  Data  Hi   0x28
    992  Region$$Table$$Base        0x0001f548   Gb    1   --   Hi 
    993  Region$$Table$$Limit       0x0001f578   Gb    1   --   Hi 
    994  g_pDevHandle               0x10000000   Gb    2  Data  Hi   0x4
    995  g_pHandle                  0x10000004   Gb    2  Data  Hi   0x4
    996  g_timer_isr_count          0x10000008   Gb    2  Data  Hi   0x4
    997  g_pTestCount1              0x1000000c   Gb    2  Data  Hi   0x4
    998  g_pTestCount2              0x10000010   Gb    2  Data  Hi   0x4
    999  testBuffer                 0x10000014   Gb    2  Data  Hi   0x6
    1000  testBuffer2                0x1000001a   Gb    2  Data  Hi   0x6
    1001  DSPRAM_Cfg                 0x10000020   Gb    2  Data  Hi   0x5
    1002  MSPI_PSRAM_OctalCE0MSPIConfig
                                    0x10000028   Gb    2  Data  Hi   0x14
    1003  MSPI_PSRAM_OctalCE1MSPIConfig
                                    0x1000003c   Gb    2  Data  Hi   0x14
    1004  sMRAM                      0x10000050   Gb    2  Data  Hi   0x10
    1005  sTCM                       0x10000060   Gb    2  Data  Hi   0x10
    1006  sSSRAM_A                   0x10000070   Gb    2  Data  Hi   0x10
    1007  sSSRAM_B                   0x10000080   Gb    2  Data  Hi   0x10
    1008  sDSPRAM_A                  0x10000090   Gb    2  Data  Hi   0x10
    1009  sDSPRAM_B                  0x100000a0   Gb    2  Data  Hi   0x10
    1010  sPSRAM                     0x100000b0   Gb    2  Data  Hi   0x10
    1011  g_pfnCharPrint             0x100000c0   Gb    2  Data  Hi   0x4
    1012  gDDRXipConfig              0x100000c8   Gb    2  Data  Hi   0x30
    1013  gDDRDqsCfg                 0x100000f8   Gb    2  Data  Hi   0x21
    1014  gDDREnableFineDelayCfg     0x10000119   Gb    2  Data  Hi   0xb
    1015  gXipMiscCfg                0x10000124   Gb    2  Data  Hi   0x24
    1016  DDROctalCE0MSPIConfig      0x10000148   Gb    2  Data  Hi   0x16
    1017  DDROctalCE1MSPIConfig      0x1000015e   Gb    2  Data  Hi   0x16
    1018  DDRTimingConfigDefault     0x10000174   Gb    2  Data  Hi   0xc
    1019  g_ui32HALflags             0x10000180   Gb    2  Data  Hi   0x4
    1020  gMspiXipState              0x100001f8   Gb    2  Data  Hi   0x4
    1021  g_ui32BusWriteFlush        0x100001fc   Gb    2  Data  Hi   0x4
    1022  g_eCurrPwrMode             0x10000200   Gb    2  Data  Hi   0x1
    1023  g_bVDDCbuckboosted         0x10000201   Gb    2  Data  Hi   0x1
    1024  g_ui32TrimVer              0x10000204   Gb    2  Data  Hi   0x4
    1025  g_ui32origSimobuckVDDFtrim 0x10000208   Gb    2  Data  Hi   0x4
    1026  g_ui32origSimobuckVDDCtrim 0x1000020c   Gb    2  Data  Hi   0x4
    1027  g_ui32origMEMLDOActiveTrim 0x10000210   Gb    2  Data  Hi   0x4
    1028  g_ui32origSimobuckVDDStrim 0x10000214   Gb    2  Data  Hi   0x4
    1029  storeAndWFIfuncRAM         0x10000218   Gb    2  Data  Hi   0x4
    1030  g_AM_BSP_GPIO_MSPI2_CE0    0x10000244   Gb    2  Data  Hi   0x4
    1031  g_AM_BSP_GPIO_MSPI2_CE1    0x10000248   Gb    2  Data  Hi   0x4
    1032  g_AM_BSP_GPIO_MSPI2_D0     0x1000024c   Gb    2  Data  Hi   0x4
    1033  g_AM_BSP_GPIO_MSPI2_D1     0x10000250   Gb    2  Data  Hi   0x4
    1034  g_AM_BSP_GPIO_MSPI2_D2     0x10000254   Gb    2  Data  Hi   0x4
    1035  g_AM_BSP_GPIO_MSPI2_D3     0x10000258   Gb    2  Data  Hi   0x4
    1036  g_AM_BSP_GPIO_MSPI2_D4     0x1000025c   Gb    2  Data  Hi   0x4
    1037  g_AM_BSP_GPIO_MSPI2_D5     0x10000260   Gb    2  Data  Hi   0x4
    1038  g_AM_BSP_GPIO_MSPI2_D6     0x10000264   Gb    2  Data  Hi   0x4
    1039  g_AM_BSP_GPIO_MSPI2_D7     0x10000268   Gb    2  Data  Hi   0x4
    1040  g_AM_BSP_GPIO_MSPI2_SCK    0x1000026c   Gb    2  Data  Hi   0x4
    1041  g_AM_BSP_GPIO_MSPI2_DQSDM  0x10000270   Gb    2  Data  Hi   0x4
    1042  g_AM_BSP_GPIO_ITM_SWO      0x10000274   Gb    2  Data  Hi   0x4
    1043  g_AM_BSP_GPIO_PSRAM_CE0    0x10000278   Gb    2  Data  Hi   0x4
    1044  g_AM_BSP_GPIO_PSRAM_D0     0x1000027c   Gb    2  Data  Hi   0x4
    1045  g_AM_BSP_GPIO_PSRAM_D1     0x10000280   Gb    2  Data  Hi   0x4
    1046  g_AM_BSP_GPIO_PSRAM_D2     0x10000284   Gb    2  Data  Hi   0x4
    1047  g_AM_BSP_GPIO_PSRAM_D3     0x10000288   Gb    2  Data  Hi   0x4
    1048  g_AM_BSP_GPIO_PSRAM_D4     0x1000028c   Gb    2  Data  Hi   0x4
    1049  g_AM_BSP_GPIO_PSRAM_D5     0x10000290   Gb    2  Data  Hi   0x4
    1050  g_AM_BSP_GPIO_PSRAM_D6     0x10000294   Gb    2  Data  Hi   0x4
    1051  g_AM_BSP_GPIO_PSRAM_D7     0x10000298   Gb    2  Data  Hi   0x4
    1052  g_AM_BSP_GPIO_PSRAM_SCK    0x1000029c   Gb    2  Data  Hi   0x4
    1053  g_AM_BSP_GPIO_PSRAM_DQS    0x100002a0   Gb    2  Data  Hi   0x4
    1054  g_AM_BSP_GPIO_NOR_CE0      0x100002a4   Gb    2  Data  Hi   0x4
    1055  g_AM_BSP_GPIO_NOR_D0       0x100002a8   Gb    2  Data  Hi   0x4
    1056  g_AM_BSP_GPIO_NOR_D1       0x100002ac   Gb    2  Data  Hi   0x4
    1057  g_AM_BSP_GPIO_NOR_D2       0x100002b0   Gb    2  Data  Hi   0x4
    1058  g_AM_BSP_GPIO_NOR_D3       0x100002b4   Gb    2  Data  Hi   0x4
    1059  g_AM_BSP_GPIO_NOR_D4       0x100002b8   Gb    2  Data  Hi   0x4
    1060  g_AM_BSP_GPIO_NOR_D5       0x100002bc   Gb    2  Data  Hi   0x4
    1061  g_AM_BSP_GPIO_NOR_D6       0x100002c0   Gb    2  Data  Hi   0x4
    1062  g_AM_BSP_GPIO_NOR_D7       0x100002c4   Gb    2  Data  Hi   0x4
    1063  g_AM_BSP_GPIO_NOR_SCK      0x100002c8   Gb    2  Data  Hi   0x4
    1064  g_AM_BSP_GPIO_NOR_DQS      0x100002cc   Gb    2  Data  Hi   0x4
    1065  program_mram_tmc_tcycrd    0x10000448   Gb    2  Data  Hi   0x4
    1066  recover_broken_mram_tmc_r_timer1
                                    0x1000044c   Gb    2  Data  Hi   0x4
    1067  gStartOff                  0x10000450   Gb    2  Data  Hi   0x4
    1068  gpDcuEnable                0x10000454   Gb    2  Data  Hi   0x4
    1069  gpDcuLock                  0x10000458   Gb    2  Data  Hi   0x4
    1070  gDcuEnable                 0x10000460   Gb    2  Data  Hi   0x8
    1071  gDcuDisable                0x10000468   Gb    2  Data  Hi   0x8
    1072  DMATCBBuffer               0x10000470   Gb    3  Data  Hi   0x2800
    1073  MSPIDdrTimingConfig        0x10002c70   Gb    3  Data  Hi   0xc
    1074  gDDRMspiCfg                0x1000307c   Gb    3  Data  Hi   0xc
    1075  gDDRAmPsram                0x10003088   Gb    3  Data  Hi   0x18
    1076  g_MSPIState                0x100030a0   Gb    3  Data  Hi   0x1a34
    1077  g_trim_reg_origvals        0x10004ad4   Gb    3  Data  Hi   0x54
    1078  __libspace_start           0x10004d4c   Gb    3  Data  De   0x60
    1079  __temporary_stack_top$libspace
                                    0x10004dac   Gb    3  Data  De 
    1080  psGlobalAccessPtr          0x10060000   Gb    4  Data  Hi   0x4
    1081  ui32MCUClaimed             0x10060004   Gb    4  Data  Hi   0x14
    1082  ui32DSP0Claimed            0x10060018   Gb    4  Data  Hi   0x14
    1083  ui32DSP1Claimed            0x1006002c   Gb    4  Data  Hi   0x14
    1084  axiScratchBuf              0x10060040   Gb    4  Data  Hi   0x50


** Section #13 '.strtab' (SHT_STRTAB)
    Size   : 16200 bytes

            #  Offset String
        ====================================

            1      1: $d
            2      4: $t
            3      7: $d.realdata
            4     19: ..\src\am_resources.c
            5     41: ../src/am_resources.c
            6     63: .constdata
            7     74: __tagsym$$used
            8     89: RESOURCE_TABLE
            9    104: SHARED_RW
           10    114: ..\src\mpu_mspi_ddr_octal_psram_example.c
           11    156: ../src/mpu_mspi_ddr_octal_psram_example.c
           12    198: i.MemManage_Handler
           13    218: i.__NVIC_EnableIRQ
           14    237: __NVIC_EnableIRQ
           15    254: i.__NVIC_SetPriority
           16    275: __NVIC_SetPriority
           17    294: i.am_mspi0_isr
           18    309: i.am_stimer_cmpr0_isr
           19    331: i.main
           20    338: i.stimer_init
           21    352: .bss
           22    357: mspi_interrupts
           23    373: .data
           24    379: ..\src\regions.c
           25    396: ../src/regions.c
           26    413: ..\..\..\..\..\..\utils\am_util_delay.c
           27    453: ../../../../../../utils/am_util_delay.c
           28    493: i.am_util_delay_us
           29    512: ../../../../../../utils/am_util_stdio.c
           30    552: i.am_util_stdio_printf
           31    575: i.am_util_stdio_printf_init
           32    603: i.am_util_stdio_terminal_clear
           33    634: i.am_util_stdio_vsprintf
           34    659: i.decstr_to_int
           35    675: decstr_to_int
           36    689: i.divu64_10
           37    701: divu64_10
           38    711: i.ftoa
           39    718: ftoa
           40    723: i.ndigits_in_hex
           41    740: ndigits_in_hex
           42    755: i.ndigits_in_i64
           43    772: ndigits_in_i64
           44    787: i.ndigits_in_u64
           45    804: ndigits_in_u64
           46    819: i.padbuffer
           47    831: padbuffer
           48    841: i.simple_strlen
           49    857: simple_strlen
           50    871: i.uint64_to_hexstr
           51    890: uint64_to_hexstr
           52    907: i.uint64_to_str
           53    923: uint64_to_str
           54    937: g_prfbuf
           55    946: g_bTxtXlate
           56    958: ..\..\..\..\..\..\devices\am_devices_mspi_psram_aps12808l.c
           57   1018: ../../../../../../devices/am_devices_mspi_psram_aps12808l.c
           58   1078: i.am_device_command_read
           59   1103: am_device_command_read
           60   1126: i.am_device_command_write
           61   1152: am_device_command_write
           62   1176: i.am_devices_mspi_psram_apply_ddr_timing
           63   1217: i.am_devices_mspi_psram_aps12808l_ddr_deinit
           64   1262: i.am_devices_mspi_psram_aps12808l_ddr_enable_xip
           65   1311: i.am_devices_mspi_psram_aps12808l_ddr_init
           66   1354: i.am_devices_mspi_psram_aps12808l_id
           67   1391: am_devices_mspi_psram_aps12808l_id
           68   1426: i.am_devices_mspi_psram_aps12808l_reset
           69   1466: am_devices_mspi_psram_aps12808l_reset
           70   1504: i.am_devices_mspi_psram_ddr_init_timing_check
           71   1550: i.count_consecutive_ones
           72   1575: count_consecutive_ones
           73   1598: i.find_mid_point
           74   1615: find_mid_point
           75   1630: i.prepare_test_pattern
           76   1653: prepare_test_pattern
           77   1674: i.psram_check
           78   1688: ../keil/startup_keil.s
           79   1711: STACK
           80   1717: StackMem
           81   1726: HEAP
           82   1731: HeapMem
           83   1739: RESET
           84   1745: $v0
           85   1749: am_cryptosec_isr
           86   1766: am_default_isr
           87   1781: .text
           88   1787: ..\..\..\..\..\mcu\apollo4b\hal\am_hal_global.c
           89   1835: .emb_text
           90   1845: ../../../../../mcu/apollo4b/hal/am_hal_global.c
           91   1893: ..\am_bsp.c
           92   1905: ../am_bsp.c
           93   1917: i.am_bsp_itm_printf_enable
           94   1944: i.am_bsp_low_power_init
           95   1968: i.am_bsp_mspi_pins_enable
           96   1994: g_ePrintInterface
           97   2012: g_sCOMUART
           98   2023: ..\..\..\..\..\mcu\apollo4b\hal\mcu\am_hal_cachectrl.c
           99   2078: ../../../../../mcu/apollo4b/hal/mcu/am_hal_cachectrl.c
          100   2133: i.am_hal_cachectrl_config
          101   2159: i.am_hal_cachectrl_enable
          102   2185: i.am_hal_daxi_config
          103   2206: i.am_hal_daxi_control
          104   2228: p64BAxiMem
          105   2239: ui32AxiBufPwrStatMask
          106   2261: ui32AxiBufPwrStatReg
          107   2282: gAxiMemRange
          108   2295: ..\..\..\..\..\mcu\apollo4b\hal\mcu\am_hal_fault.c
          109   2346: ../../../../../mcu/apollo4b/hal/mcu/am_hal_fault.c
          110   2397: i.am_hal_fault_capture_enable
          111   2427: ..\..\..\..\..\mcu\apollo4b\hal\mcu\am_hal_interrupt.c
          112   2482: ../../../../../mcu/apollo4b/hal/mcu/am_hal_interrupt.c
          113   2537: ..\..\..\..\..\mcu\apollo4b\hal\mcu\am_hal_mpu.c
          114   2586: ../../../../../mcu/apollo4b/hal/mcu/am_hal_mpu.c
          115   2635: i.mpu_global_configure
          116   2658: i.mpu_region_configure
          117   2681: i.mpu_region_disable
          118   2702: i.mpu_region_enable
          119   2722: i.mpu_type_get
          120   2737: ..\..\..\..\..\mcu\apollo4b\hal\mcu\am_hal_mspi.c
          121   2787: ../../../../../mcu/apollo4b/hal/mcu/am_hal_mspi.c
          122   2837: i.am_hal_mspi_blocking_transfer
          123   2869: i.am_hal_mspi_configure
          124   2893: i.am_hal_mspi_control
          125   2915: i.am_hal_mspi_deinitialize
          126   2942: i.am_hal_mspi_device_configure
          127   2973: i.am_hal_mspi_disable
          128   2995: i.am_hal_mspi_enable
          129   3016: i.am_hal_mspi_initialize
          130   3041: i.am_hal_mspi_interrupt_clear
          131   3071: i.am_hal_mspi_interrupt_disable
          132   3103: i.am_hal_mspi_interrupt_enable
          133   3134: i.am_hal_mspi_interrupt_service
          134   3166: i.am_hal_mspi_interrupt_status_get
          135   3201: i.am_hal_mspi_power_control
          136   3229: i.mspi_device_configure
          137   3253: mspi_device_configure
          138   3275: i.mspi_dummy_callback
          139   3297: mspi_dummy_callback
          140   3317: i.mspi_seq_loopback
          141   3337: mspi_seq_loopback
          142   3355: i.sched_hiprio
          143   3370: sched_hiprio
          144   3383: ..\..\..\..\..\mcu\apollo4b\hal\mcu\am_hal_sysctrl.c
          145   3436: ../../../../../mcu/apollo4b/hal/mcu/am_hal_sysctrl.c
          146   3489: i.am_hal_sysctrl_sleep
          147   3512: ..\..\..\..\..\mcu\apollo4b\hal\mcu\am_hal_utils.c
          148   3563: ../../../../../mcu/apollo4b/hal/mcu/am_hal_utils.c
          149   3614: i.am_hal_delay_us
          150   3632: i.am_hal_delay_us_status_change
          151   3664: i.am_hal_delay_us_status_check
          152   3695: i.am_hal_load_ui32
          153   3714: ..\..\..\..\..\mcu\apollo4b\hal\am_hal_pwrctrl.c
          154   3763: ../../../../../mcu/apollo4b/hal/am_hal_pwrctrl.c
          155   3812: i.VDDF_simobuck_boost
          156   3834: VDDF_simobuck_boost
          157   3854: i.am_hal_pwrctrl_control
          158   3879: i.am_hal_pwrctrl_dsp_memory_config
          159   3914: i.am_hal_pwrctrl_low_power_init
          160   3946: i.am_hal_pwrctrl_mcu_memory_config
          161   3981: i.am_hal_pwrctrl_mcu_mode_select
          162   4014: i.am_hal_pwrctrl_periph_disable
          163   4046: i.am_hal_pwrctrl_periph_enable
          164   4077: i.am_hal_util_write_and_wait
          165   4106: i.buck_interval_check
          166   4128: buck_interval_check
          167   4148: i.coreldo_disable
          168   4166: i.coreldo_enable
          169   4183: i.memldo_disable
          170   4200: i.memldo_enable
          171   4216: i.simobuck_ldos_force_active
          172   4245: i.simobuck_ldos_force_disable
          173   4275: storeAndWFIRAM
          174   4290: ..\..\..\..\..\mcu\apollo4b\hal\am_hal_stimer.c
          175   4338: ../../../../../mcu/apollo4b/hal/am_hal_stimer.c
          176   4386: i.am_hal_stimer_compare_delta_set
          177   4420: i.am_hal_stimer_config
          178   4443: i.am_hal_stimer_int_clear
          179   4469: i.am_hal_stimer_int_enable
          180   4496: bStimerConfigured
          181   4514: ..\am_bsp_pins.c
          182   4531: ../am_bsp_pins.c
          183   4548: ..\..\..\..\..\mcu\apollo4b\hal\mcu\am_hal_bootrom_helper.c
          184   4608: ../../../../../mcu/apollo4b/hal/mcu/am_hal_bootrom_helper.c
          185   4668: ..\..\..\..\..\mcu\apollo4b\hal\mcu\am_hal_cmdq.c
          186   4718: ../../../../../mcu/apollo4b/hal/mcu/am_hal_cmdq.c
          187   4768: i.am_hal_cmdq_alloc_block
          188   4794: i.am_hal_cmdq_disable
          189   4816: i.am_hal_cmdq_enable
          190   4837: i.am_hal_cmdq_error_resume
          191   4864: i.am_hal_cmdq_get_status
          192   4889: i.am_hal_cmdq_init
          193   4908: i.am_hal_cmdq_post_block
          194   4933: i.am_hal_cmdq_post_loop_block
          195   4963: i.am_hal_cmdq_release_block
          196   4991: i.am_hal_cmdq_reset
          197   5011: i.am_hal_cmdq_term
          198   5030: gAmHalCmdq
          199   5041: gAmHalCmdQReg
          200   5055: ..\..\..\..\..\mcu\apollo4b\hal\mcu\am_hal_itm.c
          201   5104: ../../../../../mcu/apollo4b/hal/mcu/am_hal_itm.c
          202   5153: i.am_hal_itm_enable
          203   5173: i.am_hal_itm_print
          204   5192: ..\..\..\..\..\mcu\apollo4b\hal\mcu\am_hal_mram.c
          205   5242: ../../../../../mcu/apollo4b/hal/mcu/am_hal_mram.c
          206   5292: i.am_hal_mram_ds_init
          207   5314: i.am_hal_mram_info_read
          208   5338: g_program_mram_tmc_tcycrd
          209   5364: g_recover_broken_mram_tmc_r_timer1
          210   5399: ..\..\..\..\..\mcu\apollo4b\hal\mcu\am_hal_rtc.c
          211   5448: ../../../../../mcu/apollo4b/hal/mcu/am_hal_rtc.c
          212   5497: i.am_hal_rtc_osc_disable
          213   5522: ..\..\..\..\..\mcu\apollo4b\hal\mcu\am_hal_tpiu.c
          214   5572: ../../../../../mcu/apollo4b/hal/mcu/am_hal_tpiu.c
          215   5622: i.am_hal_tpiu_enable
          216   5643: ..\..\..\..\..\mcu\apollo4b\hal\mcu\am_hal_uart.c
          217   5693: ../../../../../mcu/apollo4b/hal/mcu/am_hal_uart.c
          218   5743: ..\..\..\..\..\mcu\apollo4b\hal\am_hal_dcu.c
          219   5788: ../../../../../mcu/apollo4b/hal/am_hal_dcu.c
          220   5833: i.am_hal_dcu_get
          221   5850: i.am_hal_dcu_update
          222   5870: i.copy_words
          223   5883: copy_words
          224   5894: ..\..\..\..\..\mcu\apollo4b\hal\am_hal_gpio.c
          225   5940: ../../../../../mcu/apollo4b/hal/am_hal_gpio.c
          226   5986: i.am_hal_gpio_pinconfig
          227   6010: g_ui32DSpintbl
          228   6025: ..\..\..\..\..\mcu\apollo4b\hal\am_hal_timer.c
          229   6072: ../../../../../mcu/apollo4b/hal/am_hal_timer.c
          230   6119: i.am_hal_timer_clear
          231   6140: i.am_hal_timer_clear_stop
          232   6166: i.am_hal_timer_default_config_set
          233   6200: i.am_hal_timer_interrupt_clear
          234   6231: i.am_hal_timer_interrupt_enable
          235   6263: i.am_hal_timer_interrupt_status_get
          236   6299: i.am_hal_timer_read
          237   6319: i.am_hal_timer_reset_config
          238   6347: i.am_hal_timer_start
          239   6368: i.am_hal_timer_stop
          240   6388: i.internal_timer_config
          241   6412: i.timer_config_b1
          242   6430: TimerFlags
          243   6441: ..\..\..\..\..\mcu\apollo4b\hal\am_hal_pin.c
          244   6486: ../../../../../mcu/apollo4b/hal/am_hal_pin.c
          245   6531: ..\..\..\..\..\mcu\apollo4b\hal\am_hal_queue.c
          246   6578: ../../../../../mcu/apollo4b/hal/am_hal_queue.c
          247   6625: dc.s
          248   6630: ../clib/longlong.s
          249   6649: ../clib/string.c
          250   6666: ../clib/memcpset.s
          251   6685: ../clib/heapaux.c
          252   6703: ../clib/angel/startup.s
          253   6727: !!!main
          254   6735: ../clib/angel/handlers.s
          255   6760: !!handler_copy
          256   6775: ../fplib/d2f.s
          257   6790: x$fpl$d2f
          258   6800: ../clib/angel/kernel.s
          259   6823: .ARM.Collect$$rtentry$$00000000
          260   6855: ../fplib/dnaninf.s
          261   6874: x$fpl$dnaninf
          262   6888: ../fplib/fretinf.s
          263   6907: x$fpl$fretinf
          264   6921: ../fplib/usenofp.s
          265   6940: x$fpl$usenofp
          266   6954: .ARM.Collect$$rtentry$$00000002
          267   6986: .ARM.Collect$$rtentry$$00000009
          268   7018: .ARM.Collect$$rtentry$$0000000A
          269   7050: .ARM.Collect$$rtentry$$0000000C
          270   7082: .ARM.Collect$$rtentry$$0000000D
          271   7114: .ARM.Collect$$rtentry$$00000004
          272   7146: ../clib/angel/sys.s
          273   7166: ../clib/stdlib.c
          274   7183: ../clib/angel/boardlib.s
          275   7208: ../clib/libinit.s
          276   7226: .ARM.Collect$$libinit$$00000000
          277   7258: .ARM.Collect$$rtexit$$00000000
          278   7289: .ARM.Collect$$libinit$$00000001
          279   7321: .ARM.Collect$$libinit$$00000004
          280   7353: .ARM.Collect$$libinit$$0000000A
          281   7385: .ARM.Collect$$libinit$$0000000C
          282   7417: .ARM.Collect$$libinit$$0000000E
          283   7449: .ARM.Collect$$libinit$$00000011
          284   7481: .ARM.Collect$$libinit$$00000013
          285   7513: .ARM.Collect$$libinit$$00000015
          286   7545: .ARM.Collect$$libinit$$00000017
          287   7577: .ARM.Collect$$libinit$$00000019
          288   7609: .ARM.Collect$$libinit$$0000001B
          289   7641: .ARM.Collect$$libinit$$0000001D
          290   7673: .ARM.Collect$$libinit$$0000001F
          291   7705: .ARM.Collect$$libinit$$00000021
          292   7737: .ARM.Collect$$libinit$$00000023
          293   7769: .ARM.Collect$$libinit$$00000025
          294   7801: .ARM.Collect$$libinit$$0000002C
          295   7833: .ARM.Collect$$libinit$$0000002E
          296   7865: .ARM.Collect$$libinit$$00000030
          297   7897: .ARM.Collect$$libinit$$00000032
          298   7929: .ARM.Collect$$libinit$$00000033
          299   7961: .ARM.Collect$$rtexit$$00000002
          300   7992: .ARM.Collect$$rtexit$$00000003
          301   8023: .ARM.Collect$$rtexit$$00000004
          302   8054: ../clib/armsys.c
          303   8071: ../fplib/fpinit.s
          304   8089: x$fpl$fpinit
          305   8102: ../clib/angel/sysapp.c
          306   8125: .ARM.Collect$$libshutdown$$00000000
          307   8161: ../clib/heapalloc.c
          308   8181: ../clib/signal.c
          309   8198: .ARM.Collect$$libshutdown$$00000002
          310   8234: .ARM.Collect$$libshutdown$$00000004
          311   8270: .ARM.Collect$$libshutdown$$00000007
          312   8306: .ARM.Collect$$libshutdown$$0000000A
          313   8342: .ARM.Collect$$libshutdown$$0000000C
          314   8378: .ARM.Collect$$libshutdown$$0000000F
          315   8414: .ARM.Collect$$libshutdown$$00000010
          316   8450: ../clib/angel/rt.s
          317   8469: ../clib/signal.s
          318   8486: ../clib/angel/dczerorl2.s
          319   8512: !!dczerorl2
          320   8524: ../clib/angel/scatter.s
          321   8548: !!!scatter
          322   8559: !!handler_zi
          323   8572: BuildAttributes$$THM_ISAv4$E$P$D$K$B$S$7EM$VFPi3$EXTD16$VFPS$VFMA$PE$A:L22UL41UL21$X:L11$S22US41US21$IEEE1$IW$USESV6$~STKCKD$USESV7$~SHL$OTIME$ROPI$EBA8$UX$STANDARDLIB$REQ8$PRES8$EABIv2
          324   8758: __ARM_use_no_argv
          325   8776: __Vectors
          326   8786: __Patchable
          327   8798: Reset_Handler
          328   8812: HardFault_Handler
          329   8830: NMI_Handler
          330   8842: BusFault_Handler
          331   8859: UsageFault_Handler
          332   8878: SecureFault_Handler
          333   8898: SVC_Handler
          334   8910: DebugMon_Handler
          335   8927: PendSV_Handler
          336   8942: SysTick_Handler
          337   8958: am_adc_isr
          338   8969: am_audadc0_isr
          339   8984: am_brownout_isr
          340   9000: am_cachecpu_isr
          341   9016: am_clkgen_isr
          342   9030: am_ctimer_isr
          343   9044: am_disp_isr
          344   9056: am_dsi_isr
          345   9067: am_dspi2s0_isr
          346   9082: am_dspi2s1_isr
          347   9097: am_dspi2s2_isr
          348   9112: am_dspi2s3_isr
          349   9127: am_gpio0_001f_isr
          350   9145: am_gpio0_203f_isr
          351   9163: am_gpio0_405f_isr
          352   9181: am_gpio0_607f_isr
          353   9199: am_gpio1_001f_isr
          354   9217: am_gpio1_203f_isr
          355   9235: am_gpio1_405f_isr
          356   9253: am_gpio1_607f_isr
          357   9271: am_gpu_isr
          358   9282: am_iomaster0_isr
          359   9299: am_iomaster1_isr
          360   9316: am_iomaster2_isr
          361   9333: am_iomaster3_isr
          362   9350: am_iomaster4_isr
          363   9367: am_iomaster5_isr
          364   9384: am_iomaster6_isr
          365   9401: am_iomaster7_isr
          366   9418: am_ioslave_acc_isr
          367   9437: am_ioslave_ios_isr
          368   9456: am_mspi1_isr
          369   9469: am_mspi2_isr
          370   9482: am_pdm0_isr
          371   9494: am_pdm1_isr
          372   9506: am_pdm2_isr
          373   9518: am_pdm3_isr
          374   9530: am_rtc_isr
          375   9541: am_sdio_isr
          376   9553: am_stimer_cmpr1_isr
          377   9573: am_stimer_cmpr2_isr
          378   9593: am_stimer_cmpr3_isr
          379   9613: am_stimer_cmpr4_isr
          380   9633: am_stimer_cmpr5_isr
          381   9653: am_stimer_cmpr6_isr
          382   9673: am_stimer_cmpr7_isr
          383   9693: am_stimerof_isr
          384   9709: am_timer00_isr
          385   9724: am_timer01_isr
          386   9739: am_timer02_isr
          387   9754: am_timer03_isr
          388   9769: am_timer04_isr
          389   9784: am_timer05_isr
          390   9799: am_timer06_isr
          391   9814: am_timer07_isr
          392   9829: am_timer08_isr
          393   9844: am_timer09_isr
          394   9859: am_timer10_isr
          395   9874: am_timer11_isr
          396   9889: am_timer12_isr
          397   9904: am_timer13_isr
          398   9919: am_timer14_isr
          399   9934: am_timer15_isr
          400   9949: am_uart1_isr
          401   9962: am_uart2_isr
          402   9975: am_uart3_isr
          403   9988: am_uart_isr
          404  10000: am_usb_isr
          405  10011: am_vcomp_isr
          406  10024: am_watchdog_isr
          407  10040: __main
          408  10047: __scatterload
          409  10061: __scatterload_rt2
          410  10079: __scatterload_rt2_thumb_only
          411  10108: __scatterload_null
          412  10127: __decompress
          413  10140: __decompress1
          414  10154: __scatterload_copy
          415  10173: __scatterload_zeroinit
          416  10196: __rt_lib_init
          417  10210: __rt_lib_init_fp_1
          418  10229: __rt_lib_init_alloca_1
          419  10252: __rt_lib_init_argv_1
          420  10273: __rt_lib_init_atexit_1
          421  10296: __rt_lib_init_clock_1
          422  10318: __rt_lib_init_cpp_1
          423  10338: __rt_lib_init_exceptions_1
          424  10365: __rt_lib_init_fp_trap_1
          425  10389: __rt_lib_init_getenv_1
          426  10412: __rt_lib_init_heap_1
          427  10433: __rt_lib_init_lc_collate_1
          428  10460: __rt_lib_init_lc_ctype_1
          429  10485: __rt_lib_init_lc_monetary_1
          430  10513: __rt_lib_init_lc_numeric_1
          431  10540: __rt_lib_init_lc_time_1
          432  10564: __rt_lib_init_preinit_1
          433  10588: __rt_lib_init_rand_1
          434  10609: __rt_lib_init_return
          435  10630: __rt_lib_init_signal_1
          436  10653: __rt_lib_init_stdio_1
          437  10675: __rt_lib_init_user_alloc_1
          438  10702: __rt_lib_shutdown
          439  10720: __rt_lib_shutdown_cpp_1
          440  10744: __rt_lib_shutdown_fp_trap_1
          441  10772: __rt_lib_shutdown_heap_1
          442  10797: __rt_lib_shutdown_return
          443  10822: __rt_lib_shutdown_signal_1
          444  10849: __rt_lib_shutdown_stdio_1
          445  10875: __rt_lib_shutdown_user_alloc_1
          446  10906: __rt_entry
          447  10917: __rt_entry_presh_1
          448  10936: __rt_entry_sh
          449  10950: __rt_entry_li
          450  10964: __rt_entry_postsh_1
          451  10984: __rt_entry_main
          452  11000: __rt_entry_postli_1
          453  11020: __rt_exit
          454  11030: __rt_exit_ls
          455  11043: __rt_exit_prels_1
          456  11061: __rt_exit_exit
          457  11076: am_hal_triple_read
          458  11095: am_hal_interrupt_master_enable
          459  11126: am_hal_interrupt_master_disable
          460  11158: am_hal_interrupt_master_set
          461  11186: __user_initial_stackheap
          462  11211: __aeabi_llsl
          463  11224: _ll_shift_l
          464  11236: __aeabi_llsr
          465  11249: _ll_ushift_r
          466  11262: memcmp
          467  11269: __aeabi_memcpy
          468  11284: __rt_memcpy
          469  11296: _memcpy_lastbytes
          470  11314: __aeabi_memset
          471  11329: __aeabi_memclr4
          472  11345: __aeabi_memclr8
          473  11361: __rt_memclr_w
          474  11375: _memset_w
          475  11385: __use_two_region_memory
          476  11409: __rt_heap_escrow$2region
          477  11434: __rt_heap_expand$2region
          478  11459: __aeabi_memcpy4
          479  11475: __aeabi_memcpy8
          480  11491: __rt_memcpy_w
          481  11505: _memcpy_lastbytes_aligned
          482  11531: __aeabi_memclr
          483  11546: __rt_memclr
          484  11558: _memset
          485  11566: __user_setup_stackheap
          486  11589: exit
          487  11594: __user_libspace
          488  11610: __user_perproc_libspace
          489  11634: __user_perthread_libspace
          490  11660: _sys_exit
          491  11670: __I$use$semihosting
          492  11690: __use_no_semihosting_swi
          493  11715: __semihosting_library_function
          494  11746: MemManage_Handler
          495  11764: am_bsp_itm_printf_enable
          496  11789: am_bsp_low_power_init
          497  11811: am_bsp_mspi_pins_enable
          498  11835: am_devices_mspi_psram_apply_ddr_timing
          499  11874: am_devices_mspi_psram_aps12808l_ddr_deinit
          500  11917: am_devices_mspi_psram_aps12808l_ddr_enable_xip
          501  11964: am_devices_mspi_psram_aps12808l_ddr_init
          502  12005: am_devices_mspi_psram_ddr_init_timing_check
          503  12049: am_hal_cachectrl_config
          504  12073: am_hal_cachectrl_enable
          505  12097: am_hal_cmdq_alloc_block
          506  12121: am_hal_cmdq_disable
          507  12141: am_hal_cmdq_enable
          508  12160: am_hal_cmdq_error_resume
          509  12185: am_hal_cmdq_get_status
          510  12208: am_hal_cmdq_init
          511  12225: am_hal_cmdq_post_block
          512  12248: am_hal_cmdq_post_loop_block
          513  12276: am_hal_cmdq_release_block
          514  12302: am_hal_cmdq_reset
          515  12320: am_hal_cmdq_term
          516  12337: am_hal_daxi_config
          517  12356: am_hal_daxi_control
          518  12376: am_hal_dcu_get
          519  12391: am_hal_dcu_update
          520  12409: am_hal_delay_us
          521  12425: am_hal_delay_us_status_change
          522  12455: am_hal_delay_us_status_check
          523  12484: am_hal_fault_capture_enable
          524  12512: am_hal_gpio_pinconfig
          525  12534: am_hal_itm_enable
          526  12552: am_hal_itm_print
          527  12569: am_hal_load_ui32
          528  12586: am_hal_mram_ds_init
          529  12606: am_hal_mram_info_read
          530  12628: am_hal_mspi_blocking_transfer
          531  12658: am_hal_mspi_configure
          532  12680: am_hal_mspi_control
          533  12700: am_hal_mspi_deinitialize
          534  12725: am_hal_mspi_device_configure
          535  12754: am_hal_mspi_disable
          536  12774: am_hal_mspi_enable
          537  12793: am_hal_mspi_initialize
          538  12816: am_hal_mspi_interrupt_clear
          539  12844: am_hal_mspi_interrupt_disable
          540  12874: am_hal_mspi_interrupt_enable
          541  12903: am_hal_mspi_interrupt_service
          542  12933: am_hal_mspi_interrupt_status_get
          543  12966: am_hal_mspi_power_control
          544  12992: am_hal_pwrctrl_control
          545  13015: am_hal_pwrctrl_dsp_memory_config
          546  13048: am_hal_pwrctrl_low_power_init
          547  13078: am_hal_pwrctrl_mcu_memory_config
          548  13111: am_hal_pwrctrl_mcu_mode_select
          549  13142: am_hal_pwrctrl_periph_disable
          550  13172: am_hal_pwrctrl_periph_enable
          551  13201: am_hal_rtc_osc_disable
          552  13224: am_hal_stimer_compare_delta_set
          553  13256: am_hal_stimer_config
          554  13277: am_hal_stimer_int_clear
          555  13301: am_hal_stimer_int_enable
          556  13326: am_hal_sysctrl_sleep
          557  13347: am_hal_timer_clear
          558  13366: am_hal_timer_clear_stop
          559  13390: am_hal_timer_default_config_set
          560  13422: am_hal_timer_interrupt_clear
          561  13451: am_hal_timer_interrupt_enable
          562  13481: am_hal_timer_interrupt_status_get
          563  13515: am_hal_timer_read
          564  13533: am_hal_timer_reset_config
          565  13559: am_hal_timer_start
          566  13578: am_hal_timer_stop
          567  13596: am_hal_tpiu_enable
          568  13615: am_hal_util_write_and_wait
          569  13642: am_mspi0_isr
          570  13655: am_stimer_cmpr0_isr
          571  13675: am_util_delay_us
          572  13692: am_util_stdio_printf
          573  13713: am_util_stdio_printf_init
          574  13739: am_util_stdio_terminal_clear
          575  13768: am_util_stdio_vsprintf
          576  13791: coreldo_disable
          577  13807: coreldo_enable
          578  13822: internal_timer_config
          579  13844: main
          580  13849: memldo_disable
          581  13864: memldo_enable
          582  13878: mpu_global_configure
          583  13899: mpu_region_configure
          584  13920: mpu_region_disable
          585  13939: mpu_region_enable
          586  13957: mpu_type_get
          587  13970: psram_check
          588  13982: simobuck_ldos_force_active
          589  14009: simobuck_ldos_force_disable
          590  14037: stimer_init
          591  14049: timer_config_b1
          592  14065: __aeabi_d2f
          593  14077: _d2f
          594  14082: __fpl_dnaninf
          595  14096: _fp_init
          596  14105: __fplib_config_fpu_vfp
          597  14128: __fplib_config_pureend_doubles
          598  14159: __fpl_fretinf
          599  14173: __I$use$fp
          600  14184: ui32MCUAllowed
          601  14199: ui32DSP0Allowed
          602  14215: ui32DSP1Allowed
          603  14231: ui32SharedAccess
          604  14248: sGlobalAccess
          605  14262: ui32MspiXipBaseAddress
          606  14285: aps12808l_sConfigArray
          607  14308: am_hal_cachectrl_defaults
          608  14334: am_hal_daxi_defaults
          609  14355: g_DefaultSRAMCfg
          610  14372: g_DefaultMcuMemCfg
          611  14391: am_hal_pwrctrl_peripheral_control
          612  14425: g_am_hal_bootrom_helper
          613  14449: Region$$Table$$Base
          614  14469: Region$$Table$$Limit
          615  14490: g_pDevHandle
          616  14503: g_pHandle
          617  14513: g_timer_isr_count
          618  14531: g_pTestCount1
          619  14545: g_pTestCount2
          620  14559: testBuffer
          621  14570: testBuffer2
          622  14582: DSPRAM_Cfg
          623  14593: MSPI_PSRAM_OctalCE0MSPIConfig
          624  14623: MSPI_PSRAM_OctalCE1MSPIConfig
          625  14653: sMRAM
          626  14659: sTCM
          627  14664: sSSRAM_A
          628  14673: sSSRAM_B
          629  14682: sDSPRAM_A
          630  14692: sDSPRAM_B
          631  14702: sPSRAM
          632  14709: g_pfnCharPrint
          633  14724: gDDRXipConfig
          634  14738: gDDRDqsCfg
          635  14749: gDDREnableFineDelayCfg
          636  14772: gXipMiscCfg
          637  14784: DDROctalCE0MSPIConfig
          638  14806: DDROctalCE1MSPIConfig
          639  14828: DDRTimingConfigDefault
          640  14851: g_ui32HALflags
          641  14866: gMspiXipState
          642  14880: g_ui32BusWriteFlush
          643  14900: g_eCurrPwrMode
          644  14915: g_bVDDCbuckboosted
          645  14934: g_ui32TrimVer
          646  14948: g_ui32origSimobuckVDDFtrim
          647  14975: g_ui32origSimobuckVDDCtrim
          648  15002: g_ui32origMEMLDOActiveTrim
          649  15029: g_ui32origSimobuckVDDStrim
          650  15056: storeAndWFIfuncRAM
          651  15075: g_AM_BSP_GPIO_MSPI2_CE0
          652  15099: g_AM_BSP_GPIO_MSPI2_CE1
          653  15123: g_AM_BSP_GPIO_MSPI2_D0
          654  15146: g_AM_BSP_GPIO_MSPI2_D1
          655  15169: g_AM_BSP_GPIO_MSPI2_D2
          656  15192: g_AM_BSP_GPIO_MSPI2_D3
          657  15215: g_AM_BSP_GPIO_MSPI2_D4
          658  15238: g_AM_BSP_GPIO_MSPI2_D5
          659  15261: g_AM_BSP_GPIO_MSPI2_D6
          660  15284: g_AM_BSP_GPIO_MSPI2_D7
          661  15307: g_AM_BSP_GPIO_MSPI2_SCK
          662  15331: g_AM_BSP_GPIO_MSPI2_DQSDM
          663  15357: g_AM_BSP_GPIO_ITM_SWO
          664  15379: g_AM_BSP_GPIO_PSRAM_CE0
          665  15403: g_AM_BSP_GPIO_PSRAM_D0
          666  15426: g_AM_BSP_GPIO_PSRAM_D1
          667  15449: g_AM_BSP_GPIO_PSRAM_D2
          668  15472: g_AM_BSP_GPIO_PSRAM_D3
          669  15495: g_AM_BSP_GPIO_PSRAM_D4
          670  15518: g_AM_BSP_GPIO_PSRAM_D5
          671  15541: g_AM_BSP_GPIO_PSRAM_D6
          672  15564: g_AM_BSP_GPIO_PSRAM_D7
          673  15587: g_AM_BSP_GPIO_PSRAM_SCK
          674  15611: g_AM_BSP_GPIO_PSRAM_DQS
          675  15635: g_AM_BSP_GPIO_NOR_CE0
          676  15657: g_AM_BSP_GPIO_NOR_D0
          677  15678: g_AM_BSP_GPIO_NOR_D1
          678  15699: g_AM_BSP_GPIO_NOR_D2
          679  15720: g_AM_BSP_GPIO_NOR_D3
          680  15741: g_AM_BSP_GPIO_NOR_D4
          681  15762: g_AM_BSP_GPIO_NOR_D5
          682  15783: g_AM_BSP_GPIO_NOR_D6
          683  15804: g_AM_BSP_GPIO_NOR_D7
          684  15825: g_AM_BSP_GPIO_NOR_SCK
          685  15847: g_AM_BSP_GPIO_NOR_DQS
          686  15869: program_mram_tmc_tcycrd
          687  15893: recover_broken_mram_tmc_r_timer1
          688  15926: gStartOff
          689  15936: gpDcuEnable
          690  15948: gpDcuLock
          691  15958: gDcuEnable
          692  15969: gDcuDisable
          693  15981: DMATCBBuffer
          694  15994: MSPIDdrTimingConfig
          695  16014: gDDRMspiCfg
          696  16026: gDDRAmPsram
          697  16038: g_MSPIState
          698  16050: g_trim_reg_origvals
          699  16070: __libspace_start
          700  16087: __temporary_stack_top$libspace
          701  16118: psGlobalAccessPtr
          702  16136: ui32MCUClaimed
          703  16151: ui32DSP0Claimed
          704  16167: ui32DSP1Claimed
          705  16183: axiScratchBuf
          706  16197: 
          707  16198: 
          708  16199: 


** Section #14 '.note' (SHT_NOTE)
    Size   : 32 bytes (alignment 4)


** Section #15 '.comment' (SHT_PROGBITS)
    Size   : 35552 bytes


** Section #16 '.shstrtab' (SHT_STRTAB)
    Size   : 164 bytes

            #  Offset String
        ====================================

            1      1: MCU_MRAM
            2     10: MCU_TCM
            3     18: SHARED_SRAM
            4     30: .debug_abbrev
            5     44: .debug_frame
            6     57: .debug_info
            7     69: .debug_line
            8     81: .debug_loc
            9     92: .debug_macinfo
           10    107: .debug_pubnames
           11    123: .symtab
           12    131: .strtab
           13    139: .note
           14    145: .comment
           15    154: .shstrtab


